ARM GAS  /tmp/ccFCzHlo.s 			page 1


   1              		.syntax unified
   2              		.cpu cortex-m4
   3              		.eabi_attribute 27, 3
   4              		.eabi_attribute 28, 1
   5              		.fpu fpv4-sp-d16
   6              		.eabi_attribute 20, 1
   7              		.eabi_attribute 21, 1
   8              		.eabi_attribute 23, 3
   9              		.eabi_attribute 24, 1
  10              		.eabi_attribute 25, 1
  11              		.eabi_attribute 26, 1
  12              		.eabi_attribute 30, 2
  13              		.eabi_attribute 34, 1
  14              		.eabi_attribute 18, 4
  15              		.thumb
  16              		.file	"sensor_thread.c"
  17              		.section	.gnu.lto_.jmpfuncs.ecc486a82dabbe1c,"",%progbits
  18 0000 789C7D52 		.ascii	"x\234}R\273N\3030\024\275\327v[\010}\361\030\020\217"
  18      BB4EC330 
  18      14BDD776 
  18      5B087DF1 
  18      18108F
  19 0013 284B5724 		.ascii	"(KW$\350\306D\324XJ$\022\242\006\252\256,\225,\224\265"
  19      E8C644D4 
  19      584A2412 
  19      A206AAAE 
  19      2C952C94 
  20 0028 0C2C1991 		.ascii	"\014,\031\221\370\201.\354|F?\203\221\221o`\302v\322"
  20      F8812EEC 
  20      7C463F83 
  20      91916F60 
  20      C276D2
  21 003b 3C94B459 		.ascii	"<\224\264Y||\317\361\361\271\327!@\240\351\373\226\345"
  21      7C7CCFF1 
  21      F1B9D721 
  21      40A0E9FB 
  21      96E5
  22 004d 2FB9B681 		.ascii	"/\271\266\201\"\000\245\022.\345\012\200KEK\226\314"
  22      2200A512 
  22      2EE50A80 
  22      4B454B96 
  22      CC
  23 005e 51A0C238 		.ascii	"Q\240\3028 \003\332cH\310\033\374%\357\311P \306\232"
  23      2003DA63 
  23      48C81BFC 
  23      25EFC950 
  23      20C69A
  24 0071 015D59A9 		.ascii	"\001]Y\251\0121\001?\223\325\235@\252\031\311\243v`"
  24      0A31013F 
  24      93D59D40 
  24      AA19C9A3 
  24      7660
  25 0083 72D3DD75 		.ascii	"r\323\335u\262e\302Ez\262\335\230t\343&\323\261\344"
  25      B265C245 
  25      7AB2DD98 
  25      74E326D3 
  25      B1E4
ARM GAS  /tmp/ccFCzHlo.s 			page 2


  26 0095 446027AB 		.ascii	"D`'\253\021\266>\027\270\327\204O\267`S\340\276\306"
  26      11B63E17 
  26      B8D7844F 
  26      B76053E0 
  26      BEC6
  27 00a7 AC0864C4 		.ascii	"\254\010d\304\210\325@\0071f3\323\015t\213V\260|S\336"
  27      88D54007 
  27      316633D3 
  27      0D748B56 
  27      B07C53DE 
  28 00bb 5D71495E 		.ascii	"]qI^J\365\275\337N\375@\335\243\337\257{`\255\244T\224"
  28      4AF5BDDF 
  28      4EFD40DD 
  28      A3DFAF7B 
  28      60ADA454 
  29 00d0 FDB4040E 		.ascii	"\375\264\004\0166iu\376a\234N<\025\311\307cl\335\025"
  29      366975FE 
  29      619C4E3C 
  29      15C9C763 
  29      6CDD15
  30 00e3 78B84374 		.ascii	"x\270Ct\271\001fy\246\0255+\324\257\225(u\313\242\231"
  30      B9016679 
  30      A615352B 
  30      D4AF9528 
  30      75CBA299 
  31 00f7 9A01CD47 		.ascii	"\232\001\315G\276\315\334\225\240\201\313\337\342(\306"
  31      BECDDC95 
  31      A081CBDF 
  31      E228C6
  32 0106 96AE345C 		.ascii	"\226\2564\\\\\026\351_\007\231%\360X\202>\302Y\304\203"
  32      5C16E95F 
  32      079925F0 
  32      58823EC2 
  32      59C483
  33 0119 E8616A39 		.ascii	"\350aj9\334v\356\275\200[|>\341\334\341\216\001\037"
  33      DC76EEBD 
  33      805B7C3E 
  33      E1DCE18E 
  33      011F
  34 012b C8E78FDC 		.ascii	"\310\347\217\334\017oGW\327\213\211%?\203\273O\276\336"
  34      0F6F4757 
  34      D78B8925 
  34      3F83BB4F 
  34      BEDE
  35 013d 8E466ACF 		.ascii	"\216Fj\317\335\214\277YL\014\257\312ye\316\017\247\221"
  35      DD8CBF59 
  35      4C0CAFCA 
  35      7965CE0F 
  35      A791
  36 014f 862FE1B3 		.ascii	"\206/\341\263\"\375\0227\363\002\215f\206\035Ny\244"
  36      22FD1237 
  36      F3028D66 
  36      861D4E79 
  36      A4
  37 0160 7463A533 		.ascii	"tc\2453\354L4\226\"\370\007j\245\226@"
  37      EC4C3496 
  37      22F8076A 
ARM GAS  /tmp/ccFCzHlo.s 			page 3


  37      A59640
  38              		.text
  39              		.section	.gnu.lto_.inline.ecc486a82dabbe1c,"",%progbits
  40 0000 789C7591 		.ascii	"x\234u\221=\013\0021\014\206\337\244\325\023\356C\020"
  40      3D0B0231 
  40      0C86DFA4 
  40      D513EE43 
  40      10
  41 0011 D145D0CD 		.ascii	"\321E\320\315\177\323\037\342\342\237pp\354\346\352"
  41      7FD31FE2 
  41      E29F7070 
  41      ECE6EA
  42 0020 2E8A93BB 		.ascii	".\212\223\273\243\2138:\335,\316\272\036\266\351\335"
  42      A38B383A 
  42      DD2CCEBA 
  42      1EB6E9DD 
  43 0030 C9F9D140 		.ascii	"\311\371\321@\3376yBB\302`\374:\027\012\332\206\216"
  43      DF367942 
  43      42C260FC 
  43      3A170ADA 
  43      868E
  44 0042 4710A8BD 		.ascii	"G\020\250\275\036\327,\241\225\001\312\032o*\021\200"
  44      1ED72CA1 
  44      9501CA1A 
  44      6F2A1180 
  45 0052 903D40CC 		.ascii	"\220=@\314>S\311\325\337\235\222\220\306\347-9J{\260"
  45      3E53C9D5 
  45      DF9D9290 
  45      C6E72D39 
  45      4A7BB0
  46 0065 FB6C5283 		.ascii	"\373lR\203\342\372E)\244\367&\325\333o\342OJw\366t\034"
  46      E2FA4529 
  46      A4F726D5 
  46      DB6FE24F 
  46      4A77F674 
  47 007a 10C1133C 		.ascii	"\020\301\023<?,f\350\026+-]\252\204|S\034\273\2505\""
  47      3F2C66E8 
  47      162B2D5D 
  47      AA847C53 
  47      1CBBA835 
  48 008f 184E082E 		.ascii	"\030N\010.3t\3354\217S-:%\250<\252\002\234G(\365\277"
  48      3374DD34 
  48      8F532D3A 
  48      25A83CAA 
  48      029C4728 
  49 00a5 C39A5646 		.ascii	"\303\232VF\276+kBU\310\\\334\257R\216\361\303\373\251"
  49      BE2B6B42 
  49      55C85CDC 
  49      AF528EF1 
  49      C3FBA9
  50 00b8 3A95C142 		.ascii	":\225\301B&\254\375\343\355\372\313\226+(E\012Y\223"
  50      26ACFDE3 
  50      EDFACB96 
  50      2B28450A 
  50      5993
  51 00ca 41BBD931 		.ascii	"A\273\3311\335\"D\313i\330\335\013D.>;"
  51      DD2244CB 
ARM GAS  /tmp/ccFCzHlo.s 			page 4


  51      69D8DD0B 
  51      442E3E3B 
  52              		.text
  53              		.section	.gnu.lto_.pureconst.ecc486a82dabbe1c,"",%progbits
  54 0000 789C6362 		.ascii	"x\234cb`b\340e\200\0006\006\011FS&SfS\026)>)\000\007"
  54      6062E065 
  54      80003606 
  54      09465326 
  54      53665316 
  55 0019 F9011B   		.ascii	"\371\001\033"
  56              		.text
  57              		.section	.gnu.lto_chprintf.ecc486a82dabbe1c,"",%progbits
  58 0000 789C8550 		.ascii	"x\234\205P\315J\002Q\024>\337\0355uc\333v\342\0034\213"
  58      CD4A0251 
  58      143EDF1D 
  58      357563DB 
  58      76E20334 
  59 0015 22E80D7A 		.ascii	"\"\350\015z\000\203Z\3058\216z\011\035\321Q\260\026"
  59      00835AC5 
  59      388E7A09 
  59      1DD151B0 
  59      16
  60 0026 5EC1C245 		.ascii	"^\301\302E\013ig\021)\321:\244\027\030\202\332DI\273"
  60      0B696711 
  60      29D13AA4 
  60      171882DA 
  60      4449BB
  61 0039 162D2497 		.ascii	"\026-$\227\265h\321*\202\351\336\031\024\372\201\016"
  61      B568D12A 
  61      82E9DE19 
  61      14FA810E 
  62 0049 DC7B7EBE 		.ascii	"\334{~\276s\276\363\303\210\321OY\220o\010\2425\251"
  62      73BEF3C3 
  62      88D14F59 
  62      906F08A2 
  62      35A9
  63 005b A11158F7 		.ascii	"\241\021X\367\236\250\025e\2002\010\324dhnB\245\262"
  63      9EA81565 
  63      803208D4 
  63      64686E42 
  63      A5B2
  64 006d 140D84DB 		.ascii	"\024\015\204\333\035_O\036\321\023n\273/>=\017\340\220"
  64      1D5F4F1E 
  64      D1136EBB 
  64      2F3E3D0F 
  64      E090
  65 007f B42B2013 		.ascii	"\264+ \023\264!\035$}\305B\337\373\250Z\321uOon!\016"
  65      B4211D24 
  65      7DC542DF 
  65      FBA85AD1 
  65      754F6F6E 
  66 0095 45EBCDF3 		.ascii	"E\353\315\363\022\034\032\243\325\377\012/\230\373\354"
  66      121C1AA3 
  66      D5FF0A2F 
  66      98FBEC
  67 00a4 794FC3F7 		.ascii	"yO\303\367\203W\364XLC\021\024\222\037\"d\340\014)\225"
  67      8357F458 
ARM GAS  /tmp/ccFCzHlo.s 			page 5


  67      4C431114 
  67      921F2264 
  67      E00C2995 
  68 00b8 13A6B624 		.ascii	"\023\246\266$O\032\030H\177\0325\375\241\323\362W\233"
  68      4F1A1848 
  68      7F1A35FD 
  68      A1D3F257 
  68      9B
  69 00c9 AC8329AD 		.ascii	"\254\203)\255\215ho\3343\015\234#,\321]\372\020\035"
  69      8D686FDC 
  69      330D9C23 
  69      2CD15DFA 
  69      101D
  70 00db 31CF1132 		.ascii	"1\317\0212\341\247\313\310\016Gx\312\344g\251\2514\""
  70      E1A7CBC8 
  70      0E4778CA 
  70      E467A9A9 
  70      3422
  71 00ed 2E3BD288 		.ascii	".;\322\210\366\307G\223x\200\344\021\231\021\314\231"
  71      F6C74793 
  71      7880E411 
  71      9911CC99 
  72 00fd 088E9B87 		.ascii	"\010\216\233\207\226G( \340\210\252\222\366\370\370"
  72      96472820 
  72      E088AA92 
  72      F6F8F8
  73 010c 77C798A9 		.ascii	"w\307\230\251H\377\356\310\021'\272\243\253\027\026"
  73      48FFEEC8 
  73      1127BAA3 
  73      AB1716
  74 011b 04027099 		.ascii	"\004\002p\231.EG\235[\312\003\265\372'\332l\214\340"
  74      2E45479D 
  74      5BCA03B5 
  74      FA27DA6C 
  74      8CE0
  75 012d 5469B983 		.ascii	"Ti\271\203\334Q\315\261\244\027\354\242\245\233v\266"
  75      DC51CDB1 
  75      A417ECA2 
  75      A59B76B6 
  76 013d A167ADBA 		.ascii	"\241g\255\272n\026x\206\333U\335\251\324J\333\2724\352"
  76      6E167886 
  76      DB55DDA9 
  76      D44ADBBA 
  76      34EA
  77 014f 4685DBB5 		.ascii	"F\205\333\265\252\004\312\025^rr\213\005bF9\221\263"
  77      AA04CA15 
  77      5E72728B 
  77      05624639 
  77      91B3
  78 0161 2B45C371 		.ascii	"+E\303q\254\354V\246\341X\325/\251H\201#"
  78      ACEC56A6 
  78      E158D52F 
  78      A9488123 
  79              		.text
  80              		.section	.gnu.lto_adcMeanFloat.ecc486a82dabbe1c,"",%progbits
  81 0000 789C8D52 		.ascii	"x\234\215R\317k\023Q\020\236yo_~\267\261M#\264\036,"
  81      CF6B1351 
ARM GAS  /tmp/ccFCzHlo.s 			page 6


  81      109E796F 
  81      5F7EB7B1 
  81      4D23B41E 
  82 0015 153CFA1F 		.ascii	"\025<\372\037x\365\344\315\024\364$!\226\265\320&\320"
  82      78F5E4CD 
  82      14F42421 
  82      96B5D026 
  82      D0
  83 0026 26B74236 		.ascii	"&\267B6\356\026\202\356!W\177\201\245\210=\210\242\271"
  83      EE1682EE 
  83      21577F81 
  83      A5883D88 
  83      A2B9
  84 0038 480F1241 		.ascii	"H\017\022A\264\210\025\274\031\360\220\213\036T\274"
  84      B48815BC 
  84      19F0908B 
  84      1E54BC
  85 0047 087A11D6 		.ascii	"\010z\021\326\357\275\315[L/:\260o\346}3\337\314\274"
  85      EFBDCD5B 
  85      4C2F3AB0 
  85      6FE67D33 
  85      DFCCBC
  86 005a 991524E8 		.ascii	"\231\025$\350\250\234\305wN\022\235\206\346\024\261"
  86      A89CC577 
  86      4E129D86 
  86      E614B1
  87 0069 E8BD23EA 		.ascii	"\350\275#\352d\004;\261!c\343E\306\0212|M\344\345T\220"
  87      64043BB1 
  87      2163E345 
  87      C611327C 
  87      4DE4E554 
  88 007e 26AFA098 		.ascii	"&\257\240\2305NLm!\035\305\355K\254\323\311%\332\361"
  88      354E4C6D 
  88      211DC5ED 
  88      4BACD3C9 
  88      25DAF1
  89 0091 BCDE68FB 		.ascii	"\274\336h\373\363\007\356{\203\340\236\367;\212\230"
  89      F307EE7B 
  89      83E09EF7 
  89      3B8A98
  90 00a0 5719A54B 		.ascii	"W\031\245KL5\246\213\270\360\242Q\302\231\354%\346\016"
  90      4C35A68B 
  90      B8F0A251 
  90      C299EC25 
  90      E60E
  91 00b2 9EBE9AEF 		.ascii	"\236\276\232\357u\272^\024\265\015m\376?i\317'i\247"
  91      75BA5E14 
  91      B50D6DFE 
  91      3F69CF27 
  91      69A7
  92 00c4 FE457B2C 		.ascii	"\376E{,\006\243(\372\366$x\263p\234i]s\252\274\303K"
  92      06A328FA 
  92      F62478B3 
  92      709C695D 
  92      73AABCC3 
  93 00d9 24A177A1 		.ascii	"$\241w\241\035\006\250h\225e\012\026\247\265\225\201"
  93      1D06A868 
ARM GAS  /tmp/ccFCzHlo.s 			page 7


  93      95650A16 
  93      A7B59581 
  94 00e9 25B2DACA 		.ascii	"%\262\332\312\351#?\246\024pq\246\3641\215\000Y\204"
  94      E9233FA6 
  94      147071A6 
  94      F4318D00 
  94      5984
  95 00fb A56670A4 		.ascii	"\245fp\244fqPi\234pNW)\343r\037\027\210\242\000\215"
  95      66715069 
  95      9C704E57 
  95      29E3721F 
  95      1788A200 
  96 0110 2FC629E2 		.ascii	"/\306)\342\020\353\253\231iVpb\332\025\026Pr\231%a\005"
  96      10EBAB99 
  96      69567062 
  96      DA151650 
  96      72992561 
  97 0125 F290FCAE 		.ascii	"\362\220\374\256\377#<Y\345\007\254\310\345\274\313"
  97      FF233C59 
  97      E507ACC8 
  97      E5BCCB
  98 0134 62816E7A 		.ascii	"b\201nz]\257\227\301\202\254\350\241C\016\351\332w\377"
  98      5DAF97C1 
  98      82ACE8A1 
  98      430EE9DA 
  98      77FF
  99 0146 5778DE46 		.ascii	"Wx\336F\027\\f\215\372\327\245\205\246\200\352\0119"
  99      175C668D 
  99      FAD7A585 
  99      A680EA09 
  99      39
 100 0157 C2C4FB37 		.ascii	"\302\304\3737\022O\321\345i\370M\226}e\321\231\333t"
 100      124FD1E5 
 100      69F84D96 
 100      7D65D199 
 100      DB74
 101 0169 0BE169F8 		.ascii	"\013\341i\3705M\215\007\212\230=\177\237m\324,\002M"
 101      354D8D07 
 101      8A983D7F 
 101      9F6DD42C 
 101      024D
 102 017b BAAEFF28 		.ascii	"\272\256\377(\001K\006\227c\374k\270e\035sh\313\305"
 102      014B0697 
 102      63FC6BB8 
 102      651D7368 
 102      CBC5
 103 018d 0F686499 		.ascii	"\017hd\231\035\302\337%M\357?\023\262\032\267\016\360"
 103      1DC2DF25 
 103      4DEF3F13 
 103      B21AB70E 
 103      F0
 104 019e 8BB060DA 		.ascii	"\213\260`\332\2604\230t\235u9s\344\2119\023\230%:\240"
 104      B0349874 
 104      9D753973 
 104      E4893913 
 104      98253AA0 
 105 01b2 979F3AF9 		.ascii	"\227\237:\371\2772\346\354\3770$4\340\210g\022\315\310"
ARM GAS  /tmp/ccFCzHlo.s 			page 8


 105      BF32E6EC 
 105      FF302434 
 105      E0886712 
 105      CDC8
 106 01c4 83E290CC 		.ascii	"\203\342\220\314P\221H\257\220D\330_\303\250\345\333"
 106      509148AF 
 106      9044D85F 
 106      C3A8E5DB 
 107 01d4 FED690E4 		.ascii	"\376\326\220\344\204\347\216\366\224\344\307\376C\326"
 107      84E78EF6 
 107      94E4C7FE 
 107      43D6
 108 01e2 AD2BBD2B 		.ascii	"\255+\275+\024\277\353G\341\011[\250\214GcMD\357\251"
 108      14BFEB47 
 108      E1095BA8 
 108      8C47634D 
 108      44EFA9
 109 01f5 33DADB4D 		.ascii	"3\332\333M\236T\216kW\360\260 \255\307\177ls\245\276"
 109      9E548E6B 
 109      57F0B020 
 109      ADC77F6C 
 109      73A5BE
 110 0208 D9D8B8DC 		.ascii	"\331\330\270\334\274\272\261R\275r\246F\252\326h\325"
 110      BCBAB152 
 110      BD72A646 
 110      AAD668D5 
 111 0218 9BD96ABD 		.ascii	"\233\331j\275\272\326p/\264\326e\243\325\374\003\244"
 111      BAD6702F 
 111      B4D665A3 
 111      D5FC03A4 
 112 0228 2FCBA1   		.ascii	"/\313\241"
 113              		.text
 114              		.section	.gnu.lto_adcMeanV.ecc486a82dabbe1c,"",%progbits
 115 0000 789C8D53 		.ascii	"x\234\215SMk\023a\020\236y\337\335|\267I\233\244E{\260"
 115      4D6B1361 
 115      109E79DF 
 115      DD7CB749 
 115      9BA4457B 
 116 0015 F6E0D17F 		.ascii	"\366\340\321\177\340?\360f\012z\222%\226\265\320&\320"
 116      E03FF066 
 116      0A7A9225 
 116      96B5D026 
 116      D0
 117 0026 36B74236 		.ascii	"6\267B6n\016AW\310\265~\200E\304\036D\2139(=E\020\355"
 117      6E0E4157 
 117      C8B57E80 
 117      45C41E44 
 117      8B39283D 
 118 003d 2115C48B 		.ascii	"!\025\304\213\001\017\271\024A\301\203\202\275\010\353"
 118      010FB914 
 118      41C18382 
 118      BD08EB
 119 004c 33FB118C 		.ascii	"3\373\021\214\027\035\330\231\335g\236\231\367\331\231"
 119      171DD899 
 119      DD679E99 
 119      F7D999
 120 005b 5D458AFE 		.ascii	"]E\212\376\266\013\270:\232\350\034\"'\210U\367\035"
ARM GAS  /tmp/ccFCzHlo.s 			page 9


 120      B60BB83A 
 120      9AE81C22 
 120      278855F7 
 120      1D
 121 006c 512BA5D8 		.ascii	"Q+\245\330\010otx\363*e(\355\275%r2f;IN\316d\026\234"
 121      086F7478 
 121      F32A6528 
 121      EDBD2572 
 121      32663B49 
 122 0085 989A4A1B 		.ascii	"\230\232J\033&7\257\260\264\323K\264\3538\335\321\361"
 122      2637AFB0 
 122      B4D34BB4 
 122      EB38DDD1 
 122      F1
 123 0096 E78FDC73 		.ascii	"\347\217\334s\372\355\007\316/\337g^e\034]d\2522]\306"
 123      FAED07CE 
 123      2FDF675E 
 123      651C5D64 
 123      AA325DC6 
 124 00aa 032F0641 		.ascii	"\003/\006A\031\223Z\302\332\376\3637\247\272\255\216"
 124      19935AC2 
 124      DAFEF337 
 124      A7BAAD8E 
 125 00ba E3FBCDA0 		.ascii	"\343\373\315\240l\376?\313\366'\313\316\376\253\354"
 125      6CFE3FCB 
 125      F627CBCE 
 125      FEABEC
 126 00c9 99EA8F7C 		.ascii	"\231\352\217|\177\360\242\375}a^\361:\223\206c\003N"
 126      7FF0A2FD 
 126      7D615EF1 
 126      3A938663 
 126      034E
 127 00db 99703A41 		.ascii	"\231p:A\350\223$\213\037\361\022\245\242\230&p2\310"
 127      E893248B 
 127      1FF112A5 
 127      A2982670 
 127      32C8
 128 00ed E8ACB81C 		.ascii	"\350\254\270\034\2341\005gN\013;\017\326C\260\012Q\234"
 128      9C310567 
 128      4E0B3B0F 
 128      D643B00A 
 128      519C
 129 00ff 11F62C32 		.ascii	"\021\366,2\211\242\270\222\270\262\2709\020vA\200\231"
 129      89A2B892 
 129      B8B2B839 
 129      10764180 
 129      99
 130 0110 D486FA45 		.ascii	"\324\206\372E\022\265\260\012<\006\\a\205\240\227Y\023"
 130      12B5B00A 
 130      3C065C61 
 130      85A09759 
 130      13
 131 0121 A6AE8FC8 		.ascii	"\246\256\217\310\355\270?\2743\0219\324\022\236\021"
 131      EDB83FBC 
 131      331139D4 
 131      129E11
 132 0130 37B2F831 		.ascii	"7\262\3701\233\322\301\346\224\315\311\323\264\343t"
ARM GAS  /tmp/ccFCzHlo.s 			page 10


 132      9BD2C1E6 
 132      94CDC9D3 
 132      B4E374
 133 013f 9C6E0A1B 		.ascii	"\234n\012\033\213M\266\000;\242\033\337\334\023\357"
 133      8B4DB600 
 133      3BA21BDF 
 133      DC13EF
 134 014e A2C57B28 		.ascii	"\242\305{(\2609csZP\367\246\216\241,P\031\231V\001\337"
 134      B0396373 
 134      5A50F7A6 
 134      8EA12C50 
 134      19995601 
 135 0163 BD35CEE4 		.ascii	"\2755\316\344lV\310\007]\016\314\030\235\272KwZ\216"
 135      6C56C807 
 135      5D0ECC18 
 135      9DBA4B77 
 135      5A8E
 136 0175 5358E524 		.ascii	"SX\345$(R\031\317\032\264=\367\200c\3424\270A\307\216"
 136      285219CF 
 136      1AB43DF7 
 136      8063E234 
 136      B841C78E 
 137 0189 FB740C16 		.ascii	"\373t\014\026\002<\037\341_\275\35581c\263\021\210\023"
 137      023C1FE1 
 137      5FBDED38 
 137      3163B311 
 137      8813
 138 019b 5B464F7C 		.ascii	"[FO|q:\220\377s\\<\033\251\007\370E\305`\321\026\001"
 138      713A90FF 
 138      735C3C1B 
 138      A907F845 
 138      C560D116 
 139 01b0 028E8597 		.ascii	"\002\216\205\227l\231\316\304[\226\003b\211\350\220"
 139      6C99CEC4 
 139      5B960362 
 139      89E890
 140 01bf 5E1FB7B2 		.ascii	"^\037\267\262\177t,\307\337\310\220\3226\246\360RC\214"
 140      7F742CC7 
 140      DFC890D2 
 140      36A6F052 
 140      438C
 141 01d1 3ECC0F29 		.ascii	">\314\017)\230+\206*\333&\345\365\3260m=\350m\017)?"
 141      982B862A 
 141      DB26E5F5 
 141      D6306D3D 
 141      E86D0F29 
 142 01e6 91B92799 		.ascii	"\221\271'\231\202\376\324{\302\"\335\224e\342\360\373"
 142      82FED47B 
 142      C222DD94 
 142      65E2F0FB 
 143 01f6 AEEF2DC4 		.ascii	"\256\357-\304\007\315\341\245\261\251P\225{r\333\014"
 143      07CDE1A5 
 143      B1A95095 
 143      7B72DB0C 
 144 0206 57687302 		.ascii	"Whs\002\271h\177\373>~\237h\207\243\301\316\207h\207"
 144      B9687FFB 
 144      3E7E9F68 
ARM GAS  /tmp/ccFCzHlo.s 			page 11


 144      87A3C1CE 
 144      876887
 145 0219 EF89C7E4 		.ascii	"\357\211\307\344Pi\205\031g\310\276\012\233+\265\315"
 145      50698519 
 145      67C8BE0A 
 145      9B2BB5CD 
 146 0229 FAC6D5AD 		.ascii	"\372\306\325\255\353\033+\326\265\363U\322\365\306V"
 146      EB1B2BD6 
 146      B5F355D2 
 146      F5C656
 147 0238 DAAA596B 		.ascii	"\332\252Yku\373Rc\335\254\326\033\265\255\337%\273\340"
 147      75FB5263 
 147      DDACD61B 
 147      B5ADDF25 
 147      BBE0
 148 024a C3       		.ascii	"\303"
 149              		.text
 150              		.section	.gnu.lto_adcMean.ecc486a82dabbe1c,"",%progbits
 151 0000 789C8D52 		.ascii	"x\234\215RMk\023a\020~\346}w\223\315GK\3324\361 \224"
 151      4D6B1361 
 151      107EE67D 
 151      7793CD47 
 151      4BDA34F1 
 152 0016 523CFB07 		.ascii	"R<\373\007\252?\300\263\251\350\251,\261\254\001\233"
 152      AA3FC0B3 
 152      A9E8A92C 
 152      B1AC019B 
 153 0026 403FC05B 		.ascii	"@?\300[6\335\200\241\3266x\022\365`)\352A\321\233\024"
 153      36DD80A1 
 153      D6367812 
 153      F56029EA 
 153      41D19B14 
 154 003a AB10A152 		.ascii	"\253\020\241R/\025=\306S/^\305\203T\017\302:\363\356"
 154      2F153DC6 
 154      532F5EC5 
 154      83540FC2 
 154      3AF3EE
 155 004d 879A930B 		.ascii	"\207\232\223\013;3\373\314<3\363\274\357*(\214>\347"
 155      3B33FBCC 
 155      3C33F3BC 
 155      EF2A288C 
 155      3EE7
 156 005f F9BDA481 		.ascii	"\371\275\244\2013\354)\003R\375\017@\307QdE\201\216"
 156      33EC2903 
 156      52FD0F40 
 156      C7516445 
 156      818E
 157 0071 82B78EA5 		.ascii	"\202\267\216\245\364\346!\340\347\355n\026~\321&\022"
 157      F4E621E0 
 157      E7ED6E16 
 157      7ED12612 
 158 0081 1C84B6D2 		.ascii	"\034\204\266\322\226M\355+$\355\364,v|\377\316\361\273"
 158      964DED2B 
 158      24EDF42C 
 158      767CFFCE 
 158      F1BB
 159 0093 936F74D7 		.ascii	"\223ot\327\037\254?\364\177\205!Q\203xt\231P'\\\346"
ARM GAS  /tmp/ccFCzHlo.s 			page 12


 159      1FAC3FF4 
 159      7F852151 
 159      83787499 
 159      50275CE6 
 160 00a7 0F2A19A7 		.ascii	"\017*\031\247F\326\211\270\203\2277\213\037\375\236"
 160      46D689B8 
 160      8397378B 
 160      1FFD9E
 161 00b6 1F866D43 		.ascii	"\037\206mC\253\374'm\357\260\330\357\3044\255p\372\017"
 161      ABFC276D 
 161      EFB0D8EF 
 161      C434AD70 
 161      FA0F
 162 00c8 6D26A259 		.ascii	"m&\242Y\377\322^\250\301q\030>\330\357~\236>Epi\207"
 162      FFD25EA8 
 162      C171183E 
 162      D8EF7E9E 
 162      3E457069 
 163 00dd 66799A4B 		.ascii	"fy\232K\273\3545\373G\354-4\210\305-\0212\022e9\"G\242"
 163      BBEC35FB 
 163      47EC2D34 
 163      88C52D11 
 163      32126539 
 164 00f4 9C987C5C 		.ascii	"\234\230|\\]\340\017\273(f\214\013\3248G\231\022\233"
 164      5DE00FBB 
 164      28668C0B 
 164      D4384799 
 164      129B
 165 0106 EC041B67 		.ascii	"\354\004\033g2\356U\216gL\011X\021Se#\233\330\350\372"
 165      32EE558E 
 165      674C0958 
 165      11536523 
 165      9BD8E8FA 
 166 011a 7E7F264A 		.ascii	"~\177&JG-#\012D\002?5\266|\3525R\354\364<i\360U\350"
 166      472D230A 
 166      44023F35 
 166      B67CEA35 
 166      52ECF43C 
 167 0132 2304BD20 		.ascii	"#\004\275 \334\232v\351\011\331\360(\357\221\022\241"
 167      DC9A76E9 
 167      09D9F028 
 167      EF9112A1 
 168 0142 10CE11D6 		.ascii	"\020\316\021\326\277\006\273\333\347\222d\301#\0224"
 168      BF06BBDB 
 168      E79264C1 
 168      231234
 169 0151 D8D00954 		.ascii	"\330\320\011TdT\352me\352\203[if\334\2431\316\233.\257"
 169      6454EA6D 
 169      65EA835B 
 169      6966DCA3 
 169      31CE9B2E 
 170 0166 EC042DDD 		.ascii	"\354\004-\335\307=i\317y\241e\342s4\223\236SR5\301\205"
 170      C73D69CF 
 170      79A165E2 
 170      7334939E 
 170      535235C1 
 171 017b A65D2F6D 		.ascii	"\246]/m7iP\035\241\301\217\255\205$Q\346\245<\216\314"
ARM GAS  /tmp/ccFCzHlo.s 			page 13


 171      3769501D 
 171      A1C18FAD 
 171      852451E6 
 171      A53C8ECC 
 172 018f 334F16F8 		.ascii	"3O\026\370\227\322\246\337\343\264\237\025/\316\340"
 172      97D2A6DF 
 172      E3B49F15 
 172      2FCEE0
 173 019e 490A660C 		.ascii	"I\012f\014K\300t\210\343QvD`\316\024:\300{\034|\351"
 173      4BC07488 
 173      E3517644 
 173      60CE143A 
 173      C07B1C7C 
 174 01b3 14FEEA98 		.ascii	"\024\376\352\230K~\202!\310\034\031\240\3664/\244\177"
 174      4B7E8221 
 174      C81C19A0 
 174      F6342FA4 
 174      7F
 175 01c4 16865009 		.ascii	"\026\206P\011\364z\377\006\037\253\376>7\204\026\214"
 175      F47AFF06 
 175      1FABFE3E 
 175      3784168C 
 176 01d4 25A88339 		.ascii	"%\250\2039\026\2447\337<#Y\331\226\0131\313=\335\276"
 176      16A437DF 
 176      3C2359D9 
 176      960B31CB 
 176      3DDDBE
 177 01e7 900C98E2 		.ascii	"\220\014\230\342\2130\253\334NW\251\260~N\304B\252\011"
 177      8B30ABDC 
 177      4E57A9B0 
 177      7E4EC442 
 177      AA09
 178 01f9 5CE50CF0 		.ascii	"\\\345\014\360\011\251\260j\264V\2155w\263r/\245\225"
 178      09A9B06A 
 178      B4568D35 
 178      77B3722F 
 178      A595
 179 020b C5E64A6B 		.ascii	"\305\346Jkya\365\332\362\242{\365l\035\324\260\353\255"
 179      7961F5DA 
 179      F2A27BF5 
 179      6C1DD4B0 
 179      EBAD
 180 021d B5E66ACE 		.ascii	"\265\346j\316m\272\327[\336\305\265\245\337\327\275"
 180      6DBAD75B 
 180      DEC5B5A5 
 180      DFD7BD
 181 022c C6B0     		.ascii	"\306\260"
 182              		.text
 183              		.section	.gnu.lto_sensorThread.ecc486a82dabbe1c,"",%progbits
 184 0000 789CDD59 		.ascii	"x\234\335Y{tT\305\031\237\271\233}f\263Y\002\212b\213"
 184      7B7454C5 
 184      199FB99B 
 184      7D66B359 
 184      028A628B 
 185 0014 11441030 		.ascii	"\021D\0200+\211\200\212 1Y!\222\227IP<\247\212\313\315"
 185      2B89808A 
 185      20315921 
ARM GAS  /tmp/ccFCzHlo.s 			page 14


 185      92974950 
 185      3CA78ACB 
 186 0029 66B3924D 		.ascii	"f\263\222M0\331D^\312\015\233@\200xL=X\261\212\242\036"
 186      30D9445E 
 186      CA0D9B40 
 186      80784C3D 
 186      58B18AA2 
 187 003e 0F2868C4 		.ascii	"\017(h\304T\345\321\312\006\020\244\245x8\255\255\261"
 187      54E5D1CA 
 187      0610A4A5 
 187      7838ADAD 
 187      B1
 188 004f 58635BDF 		.ascii	"Xc[\337V\352\261\212\332\307\366\373f\346\336\275ww"
 188      56EAB18A 
 188      DAC7F6FB 
 188      66E6DEBD 
 188      7777
 189 0061 210BFED7 		.ascii	"!\013\376\327=\207y|\257\371\3157\277\231\271\023$\""
 189      3D87797C 
 189      AFF9CD37 
 189      BF99B913 
 189      2422
 190 0073 91C4DF11 		.ascii	"\221\304\337\021\370g\312%\344]J\010\315!T\3529FH\273"
 190      F867CA25 
 190      E45D4A08 
 190      CD2154EA 
 190      394648BB 
 191 0087 4DA26EDE 		.ascii	"M\242n\3360Q3od\360F\277\315,et\215'\212\303\202\245"
 191      3051336F 
 191      64F046BF 
 191      CD2C6574 
 191      8D278AC3 
 192 009d D3426D5C 		.ascii	"\323Bm\\o\345\215~\233M\2622\275\235\351\3554\223\353"
 192      6FE58D7E 
 192      9B4DB232 
 192      BD9DE9ED 
 192      3493EB
 193 00b0 1DBCD16F 		.ascii	"\035\274\321o\313\224\034L\357dz\247\224\305z.\326\313"
 193      CB941C4C 
 193      EF647AA7 
 193      94C57A2E 
 193      D6CB
 194 00c2 A2D9DCDA 		.ascii	"\242\331\334\332\2456\2629\220~\233[2u\037&`9\254\303"
 194      A536B239 
 194      907E9B5B 
 194      32751F26 
 194      6039ACC3 
 195 00d6 0A96C328 		.ascii	"\012\226\303(E9\241d\225d\3120[\2546\273#\323\231\345"
 195      4539A164 
 195      9564CA30 
 195      5BAC36BB 
 195      23D399E5 
 196 00ea CA760FA3 		.ascii	"\312v\017\243\253n\2438\265\221c\310\223\212\362\340"
 196      AB6EA338 
 196      B59163C8 
 196      938AF2E0 
 197 00fa 6067DF27 		.ascii	"`g\337'\027<\2741\332\276E\371w,Fi\220B\032\206S\"S"
ARM GAS  /tmp/ccFCzHlo.s 			page 15


 197      173CBC31 
 197      DABE45F9 
 197      772C4669 
 197      90421A86 
 198 0111 B2003AD4 		.ascii	"\262\000:\324\306*\211\032\363\302}\225\027\266\255"
 198      C62A891A 
 198      F3C27D95 
 198      17B6AD
 199 0120 36313F13 		.ascii	"61?\023s\2734\245[\210&\370\365D\037zsc\301\372-\253"
 199      73BB34A5 
 199      5B8826F8 
 199      F5441F7A 
 199      7363C1FA 
 200 0136 7B94FFC2 		.ascii	"{\224\377\302\220Aj\222\310\324\270k.w\315H1b\217\362"
 200      90416A92 
 200      C8D4B86B 
 200      2E77CD48 
 200      31628FF2 
 201 014a E136C5AE 		.ascii	"\3416\305\256\216\010nEi\271m\212\306\016\337\177\241"
 201      8E086E45 
 201      69B96D8A 
 201      C60EDF7F 
 201      A1
 202 015b 121F3043 		.ascii	"\022\0370C\"\025iy>\030\375\356\327\017\350=\315\022"
 202      22156979 
 202      3E18FDEE 
 202      D70FE83D 
 202      CD12
 203 016d B9351DCF 		.ascii	"\2715\035\317hO\364\367\277\271\260\247\275K\211\305"
 203      684FF4F7 
 203      BFB9B0A7 
 203      BD4B89C5 
 204 017d 5631A877 		.ascii	"V1\250w\246\351\366O\243\333]\351%&\372\207c\006\267"
 204      A6E9F64F 
 204      A3DB5DE9 
 204      2526FA87 
 204      6306B7
 205 0190 B634DDFE 		.ascii	"\2664\335\376lt\2737M\267o\214n\353h\232\331<u\370\000"
 205      6C74BB37 
 205      4DB76F8C 
 205      6EEB689A 
 205      D93C75F8 
 206 01a5 55D62BED 		.ascii	"U\326+\355\377\210\305\262\203\324\"\221\237\352<\335"
 206      FF88C5B2 
 206      83D42291 
 206      9FEA3CDD 
 207 01b5 DC534A39 		.ascii	"\334SJ9\342\276C\367\027(\006\312<\236\336\240=\321"
 207      E2BE43F7 
 207      172806CA 
 207      3C9EDEA0 
 207      3DD1
 208 01c7 970E19C0 		.ascii	"\227\016\031\300>\225\256\337\213F\277\035\3478I\037"
 208      3E95AEDF 
 208      8B46BF1D 
 208      E738491F 
 209 01d7 DD45A5F4 		.ascii	"\335E\245\364&\2713a\222>\372\232\3165\375I\372\350"
 209      26B93361 
ARM GAS  /tmp/ccFCzHlo.s 			page 16


 209      923EFA9A 
 209      CE35FD49 
 209      FAE8
 210 01e9 2FD3F57B 		.ascii	"/\323\365{\315\350\267'=\277\377\367I\366J\321\301X"
 210      CDE8B727 
 210      3DBFFFF7 
 210      49F64AD1 
 210      C158
 211 01fb ECE8BE8E 		.ascii	"\354\350\276\216Og\255\207e\367\321\355t\014\034p\274"
 211      4F67AD87 
 211      65F7D1ED 
 211      740C1C70 
 211      BC
 212 020c 36D3101E 		.ascii	"6\323\020\036pAjuBasAawc\221\003\205c\004\024\231\347"
 212      70416A75 
 212      42617341 
 212      61776391 
 212      03856304 
 213 0223 43E11C03 		.ascii	"C\341\034\003E\326X\3414\016\352'\241\276\014\352\247"
 213      45D658E1 
 213      340EEA27 
 213      A1BE0CEA 
 213      A7
 214 0234 A11E0F4A 		.ascii	"\241\036\017J\327\004(\262'B\341\236\214\205\007\213"
 214      D70428B2 
 214      2742E19E 
 214      8C85078B 
 215 0244 7C2C0AB0 		.ascii	"|,\012\260\230*\\\246\241\351t4\275\032\012\3235 \336"
 215      982A5CA6 
 215      A1E97434 
 215      BD1A0AD3 
 215      3520DE
 216 0257 09E21950 		.ascii	"\011\342\031P\367A}\2350\233\211f\263\320l6H^\006I\241"
 216      F7417D9D 
 216      309B8966 
 216      B3D06C36 
 216      485E0649 
 217 026c D0DC20C6 		.ascii	"\320\334 \306,Fw/\024\303n\304\326\034l\315\005\335"
 217      2C46772F 
 217      14C36EC4 
 217      D61C6CCD 
 217      05DD
 218 027e 33A02BC1 		.ascii	"3\240+\301\316M(\236\207\255R\020o\005q\031v\312Q\\"
 218      CE4D289E 
 218      87AD5210 
 218      6F057119 
 218      76CA515C 
 219 0292 81AD4A6C 		.ascii	"\201\255Jl\335\214\255*,\252\261\250\301\342v\352\243"
 219      DD8CAD2A 
 219      2CAAB1A8 
 219      C1E276EA 
 219      A3
 220 02a3 CF82FD1D 		.ascii	"\317\202\375\035\3201/\004\347_A\347NQ\373\240~\025"
 220      D0312F04 
 220      E75F41E7 
 220      4E51FBA0 
 220      7E15
ARM GAS  /tmp/ccFCzHlo.s 			page 17


 221 02b5 EA45A0CC 		.ascii	"\352E\240\314\221\261\250\205b\270\037\212\021u\030"
 221      91B1A885 
 221      62B81F8A 
 221      117518
 222 02c4 3100067B 		.ascii	"1\000\006{\301\240^\324A\341p\027Ni1tvC\247\001\352"
 222      C1A05ED4 
 222      41E17017 
 222      4E693174 
 222      7643A701 
 223 02d9 28D42151 		.ascii	"(\324!Q7B\275\017\352&\014\270\004\213\2731j3Fm\301"
 223      3742BD0F 
 223      EA260CB8 
 223      048BBB31 
 223      6A33466D 
 224 02ee A86130E8 		.ascii	"\250a0\350\007\203VQ\267\011\207{0\352R\350\354\207"
 224      07835651 
 224      B709877B 
 224      30EA52E8 
 224      EC87
 225 0300 CE32B45C 		.ascii	"\3162\264\\\016\235\203\320Y!\352\225P\037\200\372^"
 225      0E9D83D0 
 225      5921EA95 
 225      501F80FA 
 225      5E
 226 0311 8C7A1F16 		.ascii	"\214z\037\026\2530\264B1v;\226\246\325\310\212\327\301"
 226      AB30B442 
 226      31763B96 
 226      A6D5C88A 
 226      D7C1
 227 0323 26A2363A 		.ascii	"&\2426:\250\360\352D\003\327\032\354\036\202\356Zf\337"
 227      A8F0EA44 
 227      03D71AEC 
 227      1E82EE5A 
 227      66DF
 228 0335 85A5791D 		.ascii	"\205\245y\035+\201`f\322\001\304\314\345I\343\014!\310"
 228      2B816066 
 228      D201C4CC 
 228      E549E30C 
 228      21C8
 229 0347 49F8D540 		.ascii	"I\370\325@y\322D\346\003IO\232L\277%\253w\275\035\373"
 229      79D244E6 
 229      03494F9A 
 229      4CBF25AB 
 229      77BD1DFB 
 230 035b 58F2D1C3 		.ascii	"X\362\321\303\3408\211<\247\300o:\020\353Q\362s \356"
 230      E038893C 
 230      A7C06F3A 
 230      10EB51F2 
 230      7320EE
 231 036e 79016A46 		.ascii	"y\001jF\002\237\317h\273H\\\265(\311\3026x\177\037y"
 231      029FCF68 
 231      BB485CB5 
 231      28C9C236 
 231      787F1F79 
 232 0382 7AE364EE 		.ascii	"z\343d\356\035\240\266\025d9\360V\204y\010\314F\212"
 232      1DA0B615 
 232      6439F056 
ARM GAS  /tmp/ccFCzHlo.s 			page 18


 232      847908CC 
 232      468A
 233 0394 F6B220BD 		.ascii	"\366\262 \275 uH*j\335n~\223tDEL\002I\373^\351R\334"
 233      2075482A 
 233      6ADD6E7E 
 233      93744445 
 233      4C0249FB 
 234 03ac 417AA12C 		.ascii	"Az\241,la\234 \035\205f\235\203\033\236\261&\031^$\213"
 234      6C619C20 
 234      1D85669D 
 234      831B9EB1 
 234      26195E24 
 235 03c1 602801D3 		.ascii	"`(\001\323\037\205\250\230\037\223\\\020\244?\016\341"
 235      1F85A898 
 235      1F935C10 
 235      A43F0EE1 
 236 03d1 3E659220 		.ascii	">e\222 \035\315\"m\3516\247\023(#)\220Y\037\210%d\337"
 236      1DCD226D 
 236      E936A713 
 236      28232990 
 236      591F8825 
 237 03e7 C6096A42 		.ascii	"\306\011jB\234,!6\221\204\226 \2758u\022L\372\311\257"
 237      9C2C2136 
 237      91849620 
 237      BD387512 
 237      4CFAC9AF 
 238 03fb 894E4882 		.ascii	"\211NH\202\222+\013\033\0263\021\015\206\272d.@\030"
 238      922B0B1B 
 238      1633110D 
 238      86BA642E 
 238      4018
 239 040d 2320BC3F 		.ascii	"# \274?BE\340b\010\354q\004cS#\310\320#\350L\201\340"
 239      4245E062 
 239      08EC7104 
 239      635323C8 
 239      D023E84C 
 240 0423 5259D8B0 		.ascii	"RY\330\260\230\211\010\202t\234\030\372\003mhw\232C"
 240      98890882 
 240      749C18FA 
 240      036D6877 
 240      9A43
 241 0435 9BCF6268 		.ascii	"\233\317bhw\362\232\306\207\376D\033:\207\015\355\210"
 241      77F29AC6 
 241      87FE441B 
 241      3A870DED 
 241      88
 242 0446 0F7D59EA 		.ascii	"\017}Y\352\241-C\345}\274,\340\261\230)\363\216\373"
 242      A12D43E5 
 242      7DBC2CE0 
 242      B19829F3 
 242      8EFB
 243 0458 7D8240F0 		.ascii	"}\202@\360w\015\301\010\206 3\216\340\362\324\010\254"
 243      770DC108 
 243      8620338E 
 243      E0F2D408 
 243      AC
 244 0469 7A046B53 		.ascii	"z\004kS \230(\013\224,f\342\344\031\202\037\363j4\000"
ARM GAS  /tmp/ccFCzHlo.s 			page 19


 244      2098280B 
 244      942C66E2 
 244      E419821F 
 244      F36A3400 
 245 047d 9924807C 		.ascii	"\231$\200|\251\0019\237\001q\306\201LN\015\3046T*\256"
 245      A901399F 
 245      0171C681 
 245      4C4E0DC4 
 245      36542AAE 
 246 0491 90055816 		.ascii	"\220\005X\0263%\2206@\220\3077\346\023\235\331I\021"
 246      33259036 
 246      4090C737 
 246      E6139DD9 
 246      4911
 247 04a3 3CB21805 		.ascii	"<\262\030\005\326\221\331\343\335v%\267\337\326\351"
 247      D691D9E3 
 247      DD7625B7 
 247      DFD6E9
 248 04b2 4AB29F22 		.ascii	"J\262\237\"S\273\336>\013\217\267|n\377\354\231\343"
 248      53BBDE3E 
 248      0B8FB77C 
 248      6EFFEC99 
 248      E3
 249 04c3 BB12E33F 		.ascii	"\273\022\343?w\346\370.c\374\216\301\355\037$\037,\005"
 249      77E6F82E 
 249      63FC8EC1 
 249      ED1F241F 
 249      2C05
 250 04d5 3275307B 		.ascii	"2u0{46\177l\005\353\253x\364\035\351\240'\032\372-\317"
 250      34367F6C 
 250      05EBAB78 
 250      F41DE9A0 
 250      271AFA2D 
 251 04ea 271F3649 		.ascii	"'\0376I`\2049,\347\356\267\267\0377\031N\350j8\362\343"
 251      6084392C 
 251      E7EEB7B7 
 251      1F37194E 
 251      E86A38F2 
 252 04ff 87F51027 		.ascii	"\207\365\020'+\017;\212<\242`v\202\354 \301\250\337"
 252      2B0F3B8A 
 252      3CA26076 
 252      82EC20C1 
 252      A8DF
 253 0511 FEA0A88E 		.ascii	"\376\240\250\216\224Q\367\277sbO\3776\213\270\177\324"
 253      9451F7BF 
 253      73624FFF 
 253      368BB87F 
 253      D4
 254 0522 8B28BAFB 		.ascii	"\213(\272\373\211\023\240\347\203\3114\223O\363\016"
 254      8913A0E7 
 254      83C93493 
 254      4FF30E
 255 0531 1CABA37D 		.ascii	"\034\253\243}\360\255\015\007\237\302\227\341T\030\260"
 255      F0AD0D07 
 255      9FC297E1 
 255      5418B0
 256 0540 BD077331 		.ascii	"\275\007s1\015\007\234\21682X\256\247\213131FD\322\016"
ARM GAS  /tmp/ccFCzHlo.s 			page 20


 256      0D079C8E 
 256      383258AE 
 256      A78B3133 
 256      314644D2 
 257 0555 8CF9306A 		.ascii	"\214\3710j\327x\270\304\"]\0076\374\355)\263v\355=\317"
 257      D778B8C4 
 257      225D0736 
 257      FCED29B3 
 257      76ED3DCF 
 258 0569 AEBD5E56 		.ascii	"\256\275^V\356de\037+_f\027\241\232{\30006@%\034\341"
 258      EE64651F 
 258      2B5F6617 
 258      A19A7BC0 
 258      30364025 
 259 057f EA9E72C2 		.ascii	"\352\236r\302\027\376Hg\246\217\256\221\014ks\215L\235"
 259      17FE4867 
 259      A68FAE91 
 259      0C6B738D 
 259      4C9D
 260 0591 DAC23396 		.ascii	"\332\3023\226\\\313Rxd\023\274n\271u\200\216C\370\012"
 260      5CCB5278 
 260      6413BC6E 
 260      B975808E 
 260      43F80A
 261 05a4 9A5FA239 		.ascii	"\232_\2429\316\340\257St\233!0\003\330=&\325\3472pC"
 261      CEE0AF53 
 261      749B2130 
 261      03D83D26 
 261      D5E73270 
 262 05b9 2511B7E9 		.ascii	"%\021\267\351\027\232f<(\305^\376\213\244\012'\260\275"
 262      179A663C 
 262      28C55EFE 
 262      8BA40A27 
 262      B0BD
 263 05cb 9C7D05D9 		.ascii	"\234}\005\331\201\271\371\0238^\027\242\0260&\272\037"
 263      81B9F913 
 263      385E17A2 
 263      163026BA 
 263      1F
 264 05dc 1E239392 		.ascii	"\036#\223\222\2460SFF\021\355.\233\025\242Va$\356\262"
 264      A6305346 
 264      4611ED2E 
 264      9B15A256 
 264      6124EEB2 
 265 05f0 EB43D426 		.ascii	"\353C\324&$0\022\242\232\2153-\024(N\376\3546\025\306"
 265      243012A2 
 265      9A8D332D 
 265      14284EFE 
 265      EC3615C6 
 266 0604 4406C32D 		.ascii	"D\006\303-\250\362\252%N\233G-C\362\306\251G\332\031"
 266      A8F2AA25 
 266      4E9B472D 
 266      43F2C6A9 
 266      47DA19
 267 0617 BD3C09E9 		.ascii	"\275<\011\351\0152u\211\215\340\204\261\202\264H \330"
 267      0D327589 
 267      8DE084B1 
ARM GAS  /tmp/ccFCzHlo.s 			page 21


 267      82B44820 
 267      D8
 268 0628 FAF00215 		.ascii	"\372\360\002\025\301d\003\202\275:\004O\014\215\300"
 268      C1640382 
 268      BD3A044F 
 268      0C8DC0
 269 0637 6E44909C 		.ascii	"nD\220\234\253b\231f\253;\027\306\012R/\337\345\237"
 269      AB629966 
 269      AB3B17C6 
 269      0A522FDF 
 269      E59F
 270 0649 758E4C65 		.ascii	"u\216Le\353Vm9(\225}\314\220\3712\364\037\305\321{~"
 270      EB566D39 
 270      28957DCC 
 270      90F932F4 
 270      1FC5D17B 
 271 065e 087AC759 		.ascii	"\010z\307Y\240w\301X\032\372\177\235\031\275KE\337\233"
 271      A077C158 
 271      1AFA7F9D 
 271      19BD4B45 
 271      DF9B
 272 0670 0A7DEF63 		.ascii	"\012}\357c\015*\372|\003\372wu\350\217\017\215>+\216"
 272      0D2AFA7C 
 272      03FA7775 
 272      E88F0F8D 
 272      3E2B8E
 273 0683 9EC57D49 		.ascii	"\236\305}I#|\201!\354[\326x\330\335\326!\303\272\364"
 273      237C8121 
 273      EC5BD678 
 273      D8DDD621 
 273      C3BAF4
 274 0696 4959831F 		.ascii	"IY\203\037\217\011\023\275Q\246\303\304Ds`\0120\\\220"
 274      8F0913BD 
 274      51A6C3C4 
 274      4473600A 
 274      305C90
 275 06a9 CEE17BF8 		.ascii	"\316\341{\370\333O\217[T\020S\323\335\303\272\235:\015"
 275      DB4F8F5B 
 275      541053D3 
 275      DDC3BA9D 
 275      3A0D
 276 06bb DCC46C5E 		.ascii	"\334\304l^\321v\352t\303N}K\333\251\323H\302o>|\332"
 276      D176EA74 
 276      C34E7D4B 
 276      DBA9D348 
 276      C26F3E7C 
 277 06d0 88232CF2 		.ascii	"\210#,\362U\367\305\332\011\306\0366\354\265\302\237"
 277      55F7C5DA 
 277      09C61E36 
 277      ECB5C29F 
 278 06e0 27EA51AA 		.ascii	"'\352Q\252\364n.\345\257\027\"VI\2469|bw\006\350B<\217"
 278      F46E2EE5 
 278      AF172256 
 278      49A6397C 
 278      627706E8 
 279 06f7 BB941E38 		.ascii	"\273\224\0368\222\025\365G\265\023\377\213\310\327N"
 279      9215F547 
ARM GAS  /tmp/ccFCzHlo.s 			page 22


 279      B513FF8B 
 279      C8D74E
 280 0706 585F0670 		.ascii	"X_\006pQ\200\372\330a\264\336\244\212d\220\342,s$f\036"
 280      5180FAD8 
 280      61B4DEA4 
 280      8A6490E2 
 280      2C732466 
 281 071b D9A0696A 		.ascii	"\331\240ijaB\240gA\366\230U\251_K\026L\254\026=\207"
 281      6142A067 
 281      41F69855 
 281      A95F4B16 
 281      4CAC163D 
 282 0730 C7F3B32D 		.ascii	"\307\363\263-\262\207\252\206u`\313\"vE^\320\204\365"
 282      B287AA86 
 282      7560CB22 
 282      76455ED0 
 282      84F5
 283 0742 4C1E10F2 		.ascii	"L\036\020\362\317\272W\252\212  \303`\026\223\226\""
 283      CFBA57AA 
 283      8A2020C3 
 283      60169396 
 283      22
 284 0753 33E93946 		.ascii	"3\3519FLl\006\337h\001\356b3x\203t|\330\236\251\311"
 284      4C6C06DF 
 284      6801EE62 
 284      33788374 
 284      7CD89EA9 
 285 0768 D0D1157F 		.ascii	"\320\321\025\177J\014\020\036\212\020\323.\023\204\316"
 285      4A0C101E 
 285      8A10D32E 
 285      1384CE
 286 0777 78237B80 		.ascii	"x#{\200,\324_Z\246\356\276\006H]\306\321\276\225\003"
 286      2CD45F5A 
 286      A6EEBE06 
 286      485DC6D1 
 286      BE9503
 287 078a 2460D03C 		.ascii	"$`\320<\206\232\372\214\023};(\202\260\210u\332\034"
 287      869AFA8C 
 287      137D3B28 
 287      82B08875 
 287      DA1C
 288 079c 89755FA4 		.ascii	"\211u_\244\016\270\030\246\000i\347\231\214\364n>\246"
 288      0EB818A6 
 288      0069E799 
 288      8CF46E3E 
 288      A6
 289 07ad D1E26A50 		.ascii	"\321\342jP\212\325\210\306b1*Vd\313\003\235\177\325"
 289      8AD588C6 
 289      62312A56 
 289      64CB039D 
 289      7FD5
 290 07bf 5624B22E 		.ascii	"V$\262.r\237j\177\015\270\010\373A\235\375\340\323"
 290      729F6A7F 
 290      0DB808FB 
 290      419DFDE0 
 290      D3
 291 07d0 EF7F2DEC 		.ascii	"\357\177-\354y.\254\032]\276tjl\2112\236\364\263r\277"
ARM GAS  /tmp/ccFCzHlo.s 			page 23


 291      792EAC1A 
 291      5DBE746A 
 291      6C89329E 
 291      F4B372BF 
 292 07e4 8E2DB91A 		.ascii	"\216-\271\032m\366m\376\011\177\236\306i\243\256V\200"
 292      6DF66DFE 
 292      097F9EC6 
 292      69A3AE56 
 292      80
 293 07f5 860214B6 		.ascii	"\206\002\024\266\367Ni\224\312\223S\335H2\206\253)@"
 293      F74E6994 
 293      CA9353DD 
 293      483286AB 
 293      2940
 294 0807 1B35A270 		.ascii	"\0335\242p\321\022\220&\022\205k\356fDY\242\021\205"
 294      D1129026 
 294      12856BEE 
 294      664459A2 
 294      1185
 295 0819 4B9BF544 		.ascii	"K\233\365D\271;%Q\270a\013\330\352\210\302\205\255L"
 295      B93B2551 
 295      B8610BD8 
 295      EA88C285 
 295      AD4C
 296 082b 1ED61385 		.ascii	"\036\326\023\205+\332\000Y\002QlF\242p\273{\330\014"
 296      2BDA0059 
 296      02516C46 
 296      A270BB7B 
 296      D80C
 297 083d 54A20859 		.ascii	"T\242\010Y\022Qx(J,H\2246+\022\005r\322\0079\2610\212"
 297      12517828 
 297      4A2C4894 
 297      362B1205 
 297      72D20739 
 298 0854 84AC8C22 		.ascii	"\204\254\214\"a\037\375\005\312\0309Z\255*9\354Fr\360"
 298      611FFD05 
 298      CA18395A 
 298      AD2A39EC 
 298      4672F0
 299 0867 4196026C 		.ascii	"A\226\002l\310\254 \307\251\373!!\273\230b\031\350\304"
 299      C8AC20C7 
 299      A9FB2121 
 299      BB986219 
 299      E8C4
 300 0879 5ABFA85F 		.ascii	"Z\277\250_\353\243\217\374N\2545~\211\364~dU\3111C;"
 300      EBA38FFC 
 300      4EAC357E 
 300      89F47E64 
 300      55C93143 
 301 088e 8DE6CA74 		.ascii	"\215\346\312t\204X5xS\227\210#\354\213\001\315\364\272"
 301      84583578 
 301      53978823 
 301      EC8B01CD 
 301      F4BA
 302 08a0 7338C266 		.ascii	"s8\302f\202\2338\302\276\327\216\260Y\206#\354\224v"
 302      829B38C2 
 302      BED78EB0 
ARM GAS  /tmp/ccFCzHlo.s 			page 24


 302      598623EC 
 302      9476
 303 08b2 84CD4C3E 		.ascii	"\204\315L>\302\034)\217\260\203\214\216\257\263\362"
 303      C21C298F 
 303      B0838C8E 
 303      AFB3F2
 304 08c1 504A529E 		.ascii	"PJR\236\304\263\354\300iH\271\"@\227\033H\211\207W?"
 304      C4B3ECC0 
 304      6948B922 
 304      40971B48 
 304      8987573F 
 305 08d5 83766F80 		.ascii	"\203vo\200\256\3248\311E\367\2014\221\223\\\263\012"
 305      AED438C9 
 305      45F78134 
 305      91935CB3 
 305      0A
 306 08e6 A6027A8D 		.ascii	"\246\002z\215\223\\\252P=)W\245$%\267l\247h\255\243"
 306      935CAA50 
 306      3D2957A5 
 306      2425B76C 
 306      A768ADA3 
 307 08fa 25174728 		.ascii	"%\027G(W\255\246zfr]\007\310W&P3\323HMn\330I\331LTn"
 307      57ADA67A 
 307      66725D07 
 307      C8572650 
 307      33D3484D 
 308 0915 AAC22472 		.ascii	"\252\302$r\362`\022\261#9;\250\003\331\271\234\263\323"
 308      F26012B1 
 308      23393BA8 
 308      03D9B99C 
 308      B3D3
 309 0927 CED8B9C2 		.ascii	"\316\330\271\302\301\330\271\232rz\332\031=#\324\241"
 309      C1D8B99A 
 309      727ADA19 
 309      3D23D4A1 
 310 0937 F2D369E4 		.ascii	"\362\323i\344'\037h\015\203\017i\3263t?S\255\245\250"
 310      271F680D 
 310      830F69D6 
 310      33743F53 
 310      ADA5A8
 311 094a 860B88A5 		.ascii	"\206\013\210\245\037\331\2707\316\306\331z6\236'\226"
 311      1FD9B837 
 311      CEC6D97A 
 311      369E2796 
 312 095a 6B2D8DD3 		.ascii	"k-\215\323\361d\277F\255\302s\370*\276\001\334\364_"
 312      F164BF46 
 312      ADC273F8 
 312      2ABE01DC 
 312      F45F
 313 096c C5255C91 		.ascii	"\305%\\\221N$pf.\357l\372\352\210\026\257x\022\231\030"
 313      4E247066 
 313      2EEF6CFA 
 313      EA8816AF 
 313      78129918 
 314 0980 FF9CB835 		.ascii	"\377\234\2705\355OT\266X\333\037\277\\\215\343\205P"
 314      ED4F54B6 
 314      58DB1FBF 
ARM GAS  /tmp/ccFCzHlo.s 			page 25


 314      5C8DE385 
 314      50
 315 0991 3CFA2E5D 		.ascii	"<\372.]\364\033\3172\272\3434\321\347@(\375t\003t.\377"
 315      F41BCF32 
 315      BAE334D1 
 315      E74028FD 
 315      7403742E 
 316 09a6 184BD8AC 		.ascii	"\030K\330\254%\240\340(\336\326\241\270\351,Q\330O\203"
 316      25A0E028 
 316      DED6A1B8 
 316      E92C51D8 
 316      4F83
 317 09b8 621E8432 		.ascii	"b\036\2042\242(\345\037\264\011(\312@\301Q|\253CQ~\226"
 317      A228E51F 
 317      B40928CA 
 317      40C1517C 
 317      AB43517E 
 318 09cd 28B24E83 		.ascii	"(\262N\203\242\002B\251\321\007\264\257\263JC\364\275"
 318      A20242A9 
 318      D107B4AF 
 318      B34A43F4 
 318      BD
 319 09de 34EDCFC2 		.ascii	"4\355\317\302\304\3607C\254\204\371T\301\015\234 \252"
 319      C4F03743 
 319      AC84F954 
 319      C10D9C20 
 319      AA
 320 09ef 0E20A90C 		.ascii	"\016 \251\014\242\032 ?n\207\213\223>0o\222\305\350"
 320      A21A203F 
 320      6E878B93 
 320      3E306F92 
 320      C5E8
 321 0a01 5CA2BC0A 		.ascii	"\\\242\274\012p\346\205\250]\367\306\332\244D\037~\323"
 321      70E685A8 
 321      5DF7C6DA 
 321      A4441F7E 
 321      D3
 322 0a12 15A4A5A3 		.ascii	"\025\244\245\243\311+\322fe\323\354 -S\277\264\031\271"
 322      C92BD266 
 322      65D3EC20 
 322      2D53BFB4 
 322      19B9
 323 0a24 E6B0C59D 		.ascii	"\346\260\305\235\307\222[\301PV1\0245A\314\006n\302"
 323      C7925BC1 
 323      50563114 
 323      3541CC06 
 323      6EC2
 324 0a36 77D60EF5 		.ascii	"w\326\016\3658%\352\343t\210\2278?m\305K\274\213\236"
 324      3825EAE3 
 324      74889738 
 324      3F6DC54B 
 324      BC8B9E
 325 0a49 DB53FC3D 		.ascii	"\333S\374=\376\024\177\203\034\374\360\375\017\276\031"
 325      FE147F83 
 325      1CFCF0FD 
 325      0FBE19
 326 0a58 A06A9AC6 		.ascii	"\240j\232\306bH\375\005\221E\016\0167\341\004N\254\315"
ARM GAS  /tmp/ccFCzHlo.s 			page 26


 326      6248FD05 
 326      91450E0E 
 326      37E1044E 
 326      ACCD
 327 0a6a 4E9A4081 		.ascii	"N\232@\201LG\212\315;\226\375E\205\373\270\270O\347"
 327      4C478ACD 
 327      3B96FD45 
 327      85FBB8B8 
 327      4FE7
 328 0a7c E07B5B93 		.ascii	"\340{[\223'\235\230\356}\251\322\255|\007\322\212\321"
 328      279D98EE 
 328      7DA9D2AD 
 328      7C07D28A 
 328      D1
 329 0a8d E4808967 		.ascii	"\344\200\211g\2732\376\256)?\333\024\255;\307\024}\254"
 329      BB32FEAE 
 329      293FDB14 
 329      AD3BC714 
 329      7DAC
 330 0a9f FF6B4536 		.ascii	"\377kE6?\205\367\177&.Y\276\263\256\"}J\227\366M\250"
 330      3F85F77F 
 330      262E59BE 
 330      B3AE227D 
 330      4A97F64D 
 331 0ab4 53F62628 		.ascii	"S\366&(\361&\200syl\326\013=\033\316CH\256\356\377\354"
 331      F1268073 
 331      796CD60B 
 331      3D1BCE43 
 331      48AEEEFF 
 332 0ac9 62C7BB9B 		.ascii	"b\307\273\233\234\232hbGB\357\021I\375\313\337\030\266"
 332      9C9A6862 
 332      4742EF11 
 332      49FDCBDF 
 332      18B6
 333 0adb 5DCEF897 		.ascii	"]\316\370\227|v\365|\336>Us\021\034R\177\003D\012\320"
 333      7C76F57C 
 333      DE3E5573 
 333      111C527F 
 333      03440AD0 
 334 0aef 3BA4A37F 		.ascii	";\244\243\177\\\031\2404\233\0155\014\377\333\3408i"
 334      5C19A034 
 334      9B0D350C 
 334      FFDBE038 
 334      69
 335 0b00 1FFC7C2B 		.ascii	"\037\374|+U\335n\347\3265\260\361N\232\360\336r\267"
 335      55DD6EE7 
 335      D635B0F1 
 335      4E9AF0DE 
 335      72B7
 336 0b12 F81B5B9A 		.ascii	"\370\033[\232\232\027\206\353\233\375\276\332<\231\270"
 336      9A1786EB 
 336      9BFDBEDA 
 336      3C99B8
 337 0b21 7D7238D8 		.ascii	"}r8\330\346/l\36454\005\212\352\363\246$\012\362\263"
 337      E62F6CF4 
 337      3534058A 
 337      EAF3A624 
ARM GAS  /tmp/ccFCzHlo.s 			page 27


 337      0AF2B3
 338 0b34 C2FED092 		.ascii	"\302\376\320\222\351W\346_\351_\032\316+\310\304^\020"
 338      E957E65F 
 338      E95F1ACE 
 338      2BC8C45E 
 338      10
 339 0b45 BB795759 		.ascii	"\273yWYC\376\226\026_\300o\253\205X\015\301F\277]Sf"
 339      43FE9616 
 339      5FC06FAB 
 339      85580DC1 
 339      46BF5D53 
 340 0b5a EA9C2C6D 		.ascii	"\352\234,m\301\306\226\306\226L_\243\257\262\031<Z\233"
 340      C1C696C6 
 340      964C5FA3 
 340      AFB2193C 
 340      5A9B
 341 0b6c FD5668D7 		.ascii	"\375Vh\327\200\205sQk]\235\277\271\242\256\256\305\037"
 341      80857351 
 341      6B5D9DBF 
 341      B9A2AEAE 
 341      C51F
 342 0b7e 3635B586 		.ascii	"65\265\206\355>6nuk\310,7\2656\206\213<\365M!\277Gn"
 342      ED3E366E 
 342      756BC82C 
 342      37B53686 
 342      8B3CF54D 
 343 0b96 AA5DE6A9 		.ascii	"\252]\346\251\365\267y\344\372\340\242`S\213'\334\334"
 343      F5B779E4 
 343      FAE0A260 
 343      538B27DC 
 343      DC
 344 0ba7 DAB8D803 		.ascii	"\332\270\330\003\215z_\203gISs\270\305S]SV\220\357)"
 344      8D7A5F83 
 344      67495373 
 344      B8C5535D 
 344      535690EF 
 345 0bbc 2D2DF6D4 		.ascii	"--\366\324\224\224\265M\361\264\204\02764\324\346\325"
 345      9494B54D 
 345      F1B48417 
 345      3634D4E6 
 345      D5
 346 0bcd 93EB878A 		.ascii	"\223\353\207\212\321\034\026!\012\253\312\212\312\226"
 346      D11C1621 
 346      0AABCA8A 
 346      CA96
 347 0bdb 8281DCD4 		.ascii	"\202\201\334\324\354_\030\016\206\374\315\340\277\201"
 347      EC5F180E 
 347      86FCCDE0 
 347      BF81
 348 0be9 7A17D478 		.ascii	"z\027\324x\313*\257\035\2277\245\256(\027~\016\357\334"
 348      CB2AAF1D 
 348      9737A5AE 
 348      28177E0E 
 348      EFDC
 349 0bfb F965AC3B 		.ascii	"\371e\254;n\034\366\275s\205>\277\256\310Qb\324\225"
 349      6E1CF6BD 
 349      73853EBF 
ARM GAS  /tmp/ccFCzHlo.s 			page 28


 349      AEC85162 
 349      D495
 350 0c0d E8756595 		.ascii	"\350ue\225U\325\254\271\270\322\207\3122\235\356\226"
 350      55D5ACB9 
 350      B8D287CA 
 350      329DEE96 
 351 0c1d 9272D6BA 		.ascii	"\222r\326\272\305QXY\345\255F\273\002\264s\024\012\243"
 351      C5515859 
 351      E5AD46BB 
 351      02B47314 
 351      0AA3
 352 0c2f 023022A3 		.ascii	"\0020\"\243\252\275\345\325\025U\271\305\336\302\342"
 352      AABDE5D5 
 352      1555B9C5 
 352      DEC2E2
 353 0c3e D292726F 		.ascii	"\322\222ro\256wA\221\327[\354-v\220\377\001\011\321"
 353      AE774191 
 353      D75BEC2D 
 353      7690FF01 
 353      09D1
 354 0c50 2EB8     		.ascii	".\270"
 355              		.text
 356              		.section	.gnu.lto_sensorThreadStop.ecc486a82dabbe1c,"",%progbits
 357 0000 789C6362 		.ascii	"x\234cb`b@\007\222@<\003\210\205\200\230\221\231\201"
 357      60624007 
 357      92403C03 
 357      88858098 
 357      919981
 358 0013 9169C239 		.ascii	"\221i\3029\006\206F\016&FF\020\203\201\221\241\236\211"
 358      0686460E 
 358      26464610 
 358      838191A1 
 358      9E89
 359 0025 B13E9211 		.ascii	"\261>\222\021\254v=\323\201\007\377\377\257\373q~\301"
 359      AC763DD3 
 359      8107FFFF 
 359      AFFB717E 
 359      C1
 360 0036 3F466616 		.ascii	"?Ff\026&\306\\\2600+CKC\303\004\005\006\206d07\004H"
 360      26C65CB0 
 360      302B434B 
 360      43C30405 
 360      06866430 
 361 004d 82B48632 		.ascii	"\202\264\20622\201h\346\263\014M;v\374\177\311\224\310"
 361      328168E6 
 361      B30C4D3B 
 361      76FC7FC9 
 361      94C8
 362 005f B8909195 		.ascii	"\270\220\221\225A\233aU\003\020\230g22\314f\230\305"
 362      419B6155 
 362      03109867 
 362      3232CC66 
 362      98C5
 363 0071 98C9C898 		.ascii	"\230\311\310\230\316\310\024\001\244!.K\202X\304\000"
 363      CEC81401 
 363      A4212E4B 
 363      8258C400 
ARM GAS  /tmp/ccFCzHlo.s 			page 29


 364 0081 1201332E 		.ascii	"\022\0013.24>\370\247\016\321\013\003!\214\214 \223"
 364      32343EF8 
 364      A70ED10B 
 364      03218C8C 
 364      2093
 365 0093 413A048A 		.ascii	"A:\004\212S\363\212\363\213\342K2\212R\023S\364\222"
 365      53F38AF3 
 365      8BE24B32 
 365      8A521353 
 365      F492
 366 00a5 19003596 		.ascii	"\031\0005\226-\236"
 366      2D9E
 367              		.text
 368              		.section	.gnu.lto_.symbol_nodes.ecc486a82dabbe1c,"",%progbits
 369 0000 789C4DCE 		.ascii	"x\234M\316\311N\025A\030\305\361\323\247\273\001\007"
 369      C94E1541 
 369      18C5F1D3 
 369      A7BB0107 
 370 0010 64B8CC88 		.ascii	"d\270\314\210\200\370\006>\214k\237\344\\,\205+W\024"
 370      80F8063E 
 370      8C6B9FE4 
 370      5C2C852B 
 370      5714
 371 0022 41510619 		.ascii	"AQ\006\031\254\347pc\357\325H\";\243v4.\010\3564q\241"
 371      ACE77063 
 371      EFD54822 
 371      3BA37634 
 371      2E08EE34 
 372 0038 52D5153F 		.ascii	"R\325\025?z\363?\277\252\244S\004\361\225h>\376\315"
 372      7AF33FBF 
 372      AAA45304 
 372      F195683E 
 372      FECD
 373 004a 04ACBD01 		.ascii	"\004\254\275\001\244\325\316m\336\243\262\304\275N\306"
 373      A4D5CE6D 
 373      DEA3B2C4 
 373      BD4EC6
 374 0059 258AE7B8 		.ascii	"%\212\347\270L\345\347\330\241\012c\371\2009\204r\221"
 374      4CE5E7D8 
 374      A10A63F9 
 374      80398472 
 374      91
 375 006a 3D85F272 		.ascii	"=\205\362r\225EP\233e\320]\366\2068\366\205<g\026\356"
 375      9545509B 
 375      65D05DF6 
 375      8638F685 
 375      3C6716EE 
 376 007e EE9041FB 		.ascii	"\356\220A\373g\217\021x\237*\355o\231\247z\032\266\333"
 376      678F1178 
 376      9F2AED6F 
 376      99A77A1A 
 376      B6DB
 377 0090 59F692EA 		.ascii	"Y\366\222\3525\035R}\246\003\352\202i\223\272h\332\243"
 377      351D527D 
 377      A603EA82 
 377      6993BA68 
 377      DAA3
ARM GAS  /tmp/ccFCzHlo.s 			page 30


 378 00a2 2E995E50 		.ascii	".\231^P\227M\273T\277i\207\272b\332\246\006L[\324\240"
 378      974DBB54 
 378      BF6987BA 
 378      62DAA606 
 378      4C5BD4A0 
 379 00b6 E9193564 		.ascii	"\351\0315dzB\015\233\236R-\323\0065bZ\247FM\217\251"
 379      7A420D9B 
 379      9E522DD3 
 379      0635625A 
 379      A7464D8F 
 380 00cb 31D31A35 		.ascii	"1\323\0325nzDM\230\036R\223\246.5eZ\241\246\377+\307"
 380      6E7A444D 
 380      981E5293 
 380      A62E3565 
 380      5AA1A6FF 
 381 00e1 10DCA73F 		.ascii	"\020\334\247?g\035\204\217\035@\025Z\334H]@\235\352"
 381      671D848F 
 381      1D40155A 
 381      DC485D40 
 381      9DEA
 382 00f3 3E875E47 		.ascii	">\207^G\025;\017\267t2\033Z\305\316\301-\207\316\242"
 382      153B0FB7 
 382      74321B5A 
 382      C5CEC12D 
 382      87CEA2
 383 0106 8ABD06B7 		.ascii	"\212\275\006\267\022:\003\037;\215*\271Nv\335\320\253"
 383      123A031F 
 383      3B8D2AB9 
 383      4E76DDD0 
 383      AB
 384 0117 F0DD749F 		.ascii	"\360\335t\237Z\307\266\340\336\376|U\346\305\024\374"
 384      5AC7B6E0 
 384      DEFE7C55 
 384      E6C514FC 
 385 0127 FB382651 		.ascii	"\3738&Q7c\002\376(\216qTG\351\304}H'\276\031cp\307q"
 385      376302FE 
 385      288E7154 
 385      47E9C47D 
 385      4827BE19 
 386 013f 8CC27FFB 		.ascii	"\214\302\177\373\376\361V^\214\300\237\306\001\274\376"
 386      FEF1565E 
 386      8CC09FC6 
 386      01BCFE
 387 014e 15470B75 		.ascii	"\025G\013u3\206Q\375~\367\343f\270\372\022\006\376\001"
 387      338651FD 
 387      7EF7E366 
 387      B8FA1206 
 387      FE01
 388 0160 FC03E0A2 		.ascii	"\374\003\340\242"
 389              		.text
 390              		.section	.gnu.lto_.refs.ecc486a82dabbe1c,"",%progbits
 391 0000 789C25C6 		.ascii	"x\234%\306\311\015\000 \014\003A\263\342\012\220/m\320"
 391      C90D0020 
 391      0C0341B3 
 391      E20A902F 
 391      6DD0
 392 0012 7F778062 		.ascii	"\177w\200bi\344E\350(\2663\205J\243?\355\365Wd\014&"
ARM GAS  /tmp/ccFCzHlo.s 			page 31


 392      69E445E8 
 392      28B63385 
 392      4AA33FED 
 392      F557640C 
 393 0027 EB7F4886 		.ascii	"\353\177H\206\343\272\"A\001+"
 393      E3BA2241 
 393      012B
 394              		.text
 395              		.section	.gnu.lto_.decls.ecc486a82dabbe1c,"",%progbits
 396 0000 789CBD7D 		.ascii	"x\234\275}\011|\024U\266wU\357\235D@\\@\307\031\343"
 396      097C1455 
 396      B67755EF 
 396      9D44405C 
 396      40C719E3 
 397 0014 8CCEF3CD 		.ascii	"\214\316\363\315\214f\201Q|\363\276QL@\230O\204I\242"
 397      8C668151 
 397      7CF3BE51 
 397      4C40984F 
 397      8449A2
 398 0027 A3F3BEDF 		.ascii	"\243\363\276\337\327\026I\003\231\311f\247\2038\277"
 398      D7164903 
 398      99C966A7 
 398      8338BF
 399 0036 F7FD2C02 		.ascii	"\367\375,\002\006AD\366\000B\210\312*\310\276\206\255"
 399      064144F6 
 399      004288CA 
 399      2AC8BE86 
 399      AD
 400 0047 11590445 		.ascii	"\021Y\004E\366-\200\221a\007\201\200\354K\276s\317\255"
 400      F62D8091 
 400      61078180 
 400      EC4BBE73 
 400      CFAD
 401 0059 EABEB7BA 		.ascii	"\352\276\267\272\252\272*:\257\177\277{\352Vu\335\177"
 401      AABA2A3A 
 401      AF7FBF7B 
 401      EA5675DD 
 401      7F
 402 006a 9D7BEEB9 		.ascii	"\235{\356\271\347\236\273U9\004\207\260\311%\010M\360"
 402      E79EBB55 
 402      390487B0 
 402      C925084D 
 402      F0
 403 007b BB6FB920 		.ascii	"\273o\271 <q\217 x\005A\370#\204{!\300_\302G\020\356"
 403      3C718F20 
 403      780541F8 
 403      23847B21 
 403      C05FC247 
 404 0091 7708421B 		.ascii	"w\010B\033\010\017@x\010\302\317!<\014\341,\004\257"
 404      080F4078 
 404      08C2CF21 
 404      3C0CE12C 
 404      04AF
 405 00a3 53105A41 		.ascii	"S\020ZA\370\003\204\371p\357\021\010\000%L\203\363g"
 405      F80384F9 
 405      70EF1108 
 405      00254C83 
ARM GAS  /tmp/ccFCzHlo.s 			page 32


 405      F367
 406 00b5 E0FFE570 		.ascii	"\340\377\345p\314\201\343<Q\300\337C\020v\301\265s\020"
 406      CC81E33C 
 406      51C0DF43 
 406      1076C1B5 
 406      7310
 407 00c7 9A2078E0 		.ascii	"\232 x\340!\255!\264\201\360\177!\004 \024C(\201\020"
 407      21AD21B4 
 407      81F07F21 
 407      04201443 
 407      288110
 408 00da 82D017C2 		.ascii	"\202\320\027\302? \3747\204\001\020\006Cx\017\302\010"
 408      3F20FC37 
 408      84011006 
 408      43780FC2 
 408      08
 409 00eb 08E3204C 		.ascii	"\010\343 L\2020\031\302\024\010\263 ,\204\260\034\302"
 409      823019C2 
 409      1408B320 
 409      2C84B01C 
 409      C2
 410 00fc 6A085F40 		.ascii	"j\010_@\370\022\202\037\236\3715\034\277\201\260\035"
 410      F812821F 
 410      9EF9351C 
 410      BF81B01D 
 411 010c C22E087B 		.ascii	"\302.\010{ \354\203P\017\3410\204\006\227\300\375\010"
 411      20EC8350 
 411      0FE13084 
 411      0697C0FD 
 411      08
 412 011d 8FC9702C 		.ascii	"\217\311p,\200\353-\340\230\242\310\343\030\220S\020"
 412      80EB2DE0 
 412      98A2C8E3 
 412      18905310 
 413 012d 8E43380D 		.ascii	"\216C8\015\341u\010g \234U\322\273\224\264\305J^H\236"
 413      E1750867 
 413      209C55D2 
 413      BB94B4C5 
 413      4A5E489E 
 414 0141 20FBC229 		.ascii	" \373\302)\270v\306\311?\203\310\300\007\307'\005\376"
 414      B876C6C9 
 414      3F83C8C0 
 414      07C72705 
 414      FE
 415 0152 196E088D 		.ascii	"\031n\010\215\360\037\271\375\035\007\275WT\356'\377"
 415      F01FB9FD 
 415      1D07BD57 
 415      54EE27FF 
 416 0162 5F83E30D 		.ascii	"_\203\343\015\010\267 \\\321`6\351`\262x.\015f\223\202"
 416      08B7205C 
 416      D16036E9 
 416      60B2782E 
 416      0D669382 
 417 0176 29123E21 		.ascii	")\022>!8!\2704\262\360(2$\351T\314c:\274z\205\030.I"
 417      3821B834 
 417      B2F02832 
 417      24E954CC 
ARM GAS  /tmp/ccFCzHlo.s 			page 33


 417      633ABC7A 
 418 018e 43AEB584 		.ascii	"C\256\265\204c+\010wi0I\231\377Y\271W\305$<oQt\210<"
 418      632B0877 
 418      69304999 
 418      FF59B957 
 418      C5243C6F 
 419 01a6 6B2EFC39 		.ascii	"k.\3749\014\356\253\202\3606\2049\020\246\273\250\036"
 419      0CEEAB82 
 419      F0368439 
 419      10A6BBA8 
 419      1E
 420 01b7 12B87340 		.ascii	"\022\270s@\236\202c\272\206\217\237\301\365\007]T\347"
 420      9E8263BA 
 420      868F9FC1 
 420      F5075D54 
 420      E7
 421 01c8 1E83E379 		.ascii	"\036\203\343y\010\233!\\pQ\235$\372\270\336Eu\267\321"
 421      089B215C 
 421      70519D24 
 421      FAB8DE45 
 421      75B7D1
 422 01db 45F5758D 		.ascii	"E\365u\215\213\352\363E8\326\271\250~_\202\343\"\027"
 422      8BEAF345 
 422      38D6B9A8 
 422      7E5F82E3 
 422      2217
 423 01ed D5E11FE0 		.ascii	"\325\341\037\3408\333E\365\3722\034\247B\270\002\241"
 423      38DB45F5 
 423      FA321CA7 
 423      42B802A1 
 424 01fd 16C25508 		.ascii	"\026\302U\010\343!\\\203PJp!\355u8\376\332Me\362op,"
 424      E3215C83 
 424      504A7021 
 424      ED7538FE 
 424      DA4D65F2 
 425 0214 87F3F524 		.ascii	"\207\363\365$op|\334\315\327\231\221p\355\337\341\332"
 425      6F707CDC 
 425      CDD79991 
 425      70EDDFE1 
 425      DA
 426 0225 5038FE06 		.ascii	"P8\376\006\216\003\341\370[8\376?8\376\016\216o\302"
 426      8E03E1F8 
 426      5B38FE3F 
 426      38FE0E8E 
 426      6FC2
 427 0237 F10937AD 		.ascii	"\361\0117\255\213j\375\333\355\214\325\313\226p\375"
 427      8B6AFDDB 
 427      ED8CD5CB 
 427      9670FD
 428 0246 9770CFA3 		.ascii	"\227p\317\243$=\204\327 \374\005\302\313\020r\211\234"
 428      243D84D7 
 428      20FC05C2 
 428      CB107289 
 428      9C
 429 0257 217487F0 		.ascii	"!t\207\360\037\020\376\223\224\005`=\011\307\016\020"
 429      1F10FE93 
 429      9405603D 
ARM GAS  /tmp/ccFCzHlo.s 			page 34


 429      09C70E10 
 430 0267 3221B455 		.ascii	"2!\264U\312\343K\245\316\254V\352\320B\245NMQ\352\230"
 430      CAE34BA5 
 430      CEAC56EA 
 430      D042A54E 
 430      4D51EA98 
 431 027b 5ADF9E74 		.ascii	"Z\337\236t\323\2729B\251\213\203\225\272I\352\250Z\257"
 431      D3BA3942 
 431      A98B8395 
 431      BA49EAA8 
 431      5AAF
 432 028d FFA1D45D 		.ascii	"\377\241\324]R\027H]N\022h=\273W\251\177\365L\035l`"
 432      5217485D 
 432      4E12683D 
 432      BB57A97F 
 432      F54C1D6C 
 433 02a2 EAE6D71A 		.ascii	"\352\346\327\032=i\243\350\021)s\265\\E%\277\242\362"
 433      3D69A3E8 
 433      112973B5 
 433      5C4525BF 
 433      A2F2
 434 02b4 3F39FE1F 		.ascii	"?9\376\037M\272da\210,W\312\265Ur\227M-Z\013#d\370\245"
 434      4DBA6461 
 434      882C57CA 
 434      B5557297 
 434      4D2D5A0B 
 435 02cc 6E024D7B 		.ascii	"n\002M{U\224\304\026~!\322\011c)~a\037\251.\217\011"
 435      5594C416 
 435      7E21D209 
 435      63297E61 
 435      1FA92E8F 
 436 02e1 53647978 		.ascii	"Sdyx\303\372\213'\235\262\354\223\304\217\305\326Pm"
 436      C3FA8B27 
 436      9DB2EC93 
 436      C48FC5D6 
 436      506D
 437 02f3 3B88C26F 		.ascii	";\210\302o\204\231\220r\270,\177\374+Q\210\377%F\226"
 437      84999072 
 437      B82C7FFC 
 437      2B5188FF 
 437      254696
 438 0306 C429A203 		.ascii	"\304)\242\003\3504@\224\304\251\342o\350\263\344\310"
 438      E8344094 
 438      C4A9E26F 
 438      E8B3E4C8 
 439 0316 F54129B2 		.ascii	"\365A)\262\213^\027\224\177t~\217\010\265\220\217\310"
 439      8B5E1794 
 439      7F747E8F 
 439      08B5908F 
 439      C8
 440 0327 ED8D531E 		.ascii	"\355\215S\036\220k?\027\365\262\0057\210\314\363e\207"
 440      906B3F17 
 440      F5B20537 
 440      88CCF365 
 440      87
 441 0338 FAFC5481 		.ascii	"\372\374T\201\330\236\027E=.\371\273$q\02629[\313\344"
 441      D89E1745 
ARM GAS  /tmp/ccFCzHlo.s 			page 35


 441      3D2EF9BB 
 441      24711632 
 441      395BCBE4 
 442 034c 4ECAE46C 		.ascii	"N\312\344lKL\356\336\370\245(\217L\341x\274_\030\203"
 442      4B4CEEDE 
 442      F8A5288F 
 442      4CE178BC 
 442      5F1883
 443 035f 3C560193 		.ascii	"<V\001\223a\277\360n\354\237(+\251*'\256XA\\\257\332"
 443      61BFF06E 
 443      EC9F282B 
 443      A92A27AE 
 443      58415CAF 
 444 0374 7349AC84 		.ascii	"sI\254\2044\2228_\364C.>\020E\356\371\222\350\366\263"
 444      3492385F 
 444      F4432E3E 
 444      1045EEF9 
 444      92E8F6B3 
 445 0388 2CE0B97A 		.ascii	",\340\271z\003\301\303\277\225\010i\340Z\352?\217\244"
 445      03C1C3BF 
 445      950869E0 
 445      5AEA3F8F 
 445      A4
 446 0399 9C27DE8F 		.ascii	"\234'\336\2171'Zj\270\360l\262\032\347\362\242\260\337"
 446      31275A6A 
 446      B8F06CB2 
 446      1AE7F2A2 
 446      B0DF
 447 03ab 3035D276 		.ascii	"05\322v\\\214}\237\012'\306\330?4\344\263\337\202\036"
 447      5C8C7D9F 
 447      0A27C6D8 
 447      3F34E4B3 
 447      DF821E
 448 03be 4513C886 		.ascii	"E\023\310\206\011$q\231\370\030P\221\347^\364\307\""
 448      09247199 
 448      F8185091 
 448      E75EF4C7 
 448      22
 449 03cf 4D2229C6 		.ascii	"M\")\306\025\032\001X\300V\230\251\036V\323\001\225"
 449      151A0158 
 449      C05698A9 
 449      1E56D301 
 449      95
 450 03e0 7A054AF2 		.ascii	"z\005J\362Z\234$E\215$\023\360b\347^#\221/\021\223\031"
 450      5A9C2445 
 450      8D2413F0 
 450      62E75E23 
 450      912F1193 
 451 03f5 98A8E0E7 		.ascii	"\230\250\340\347SV$\361\345X\263f\00417\006\341\020"
 451      535624F1 
 451      E558B366 
 451      04313706 
 451      E110
 452 0407 2A1DA2A2 		.ascii	"*\035\242\242\276z\267+Q\016\217S\335\206\3657\306\305"
 452      BE7AB72B 
 452      510E8F53 
 452      DD86F537 
ARM GAS  /tmp/ccFCzHlo.s 			page 36


 452      C6C5
 453 0419 D72F4E77 		.ascii	"\327/Nw)sF\314|nQ\205$q\271\011\312\372\037/\225\265"
 453      297346CC 
 453      7C6E5185 
 453      2471B909 
 453      CAFA1F2F 
 454 042f AC54DEB5 		.ascii	"\254T\336\265-\225TV*\362\002Y\366{\022Tg\331Ju^1\362"
 454      2D955456 
 454      2AF20259 
 454      F67B1254 
 454      67D94A75 
 455 0446 9BEDE200 		.ascii	"\233\355\342\000\254\316[P\011\3678t\264\331\022\324"
 455      ACCE5B50 
 455      09F73874 
 455      B4D912D4 
 456 0456 A1CD5FCC 		.ascii	"\241\315_\314W,\303V\204:\330l\250\352\255Ki\305\330"
 456      572CC356 
 456      843AD86C 
 456      A8EAAD4B 
 456      69C5D8
 457 0469 8E40471D 		.ascii	"\216@G\035\332\212\341\321T\014\017\257\354pJ\236t\215"
 457      DA8AE1D1 
 457      540C0FAF 
 457      EC704A9E 
 457      748D
 458 047b 9817F16D 		.ascii	"\230\027\361m\345\0129\361\012\377\343\351\214\364a"
 458      E50A39F1 
 458      0AFFE3E9 
 458      8CF461
 459 048a B3B16252 		.ascii	"\263\261bR]\264\252X_\262\212u\316\212b\371X<\201U,"
 459      5DB4AA58 
 459      5FB28A75 
 459      CE8A62F9 
 459      583C8155 
 460 049f 4BD56D8B 		.ascii	"K\325m\213IE\331\257\223+K\271\330'&\263e\354\020.\332"
 460      4945D9AF 
 460      932B4BB9 
 460      D82726B3 
 460      65EC102E 
 461 04b4 CE89AD2A 		.ascii	"\316\211\255*b\236\215\303\026\012G9\267\336t\036\252"
 461      629E8DC3 
 461      160A4739 
 461      B7DE741E 
 461      AA
 462 04c5 5EF21BD4 		.ascii	"^\362\033\324\352#\250\325s\235\272\355\206\025\240"
 462      EA23A8D5 
 462      739DBAED 
 462      8615A0
 463 04d4 21EBD72A 		.ascii	"!\353\327*5\355\030B-o6T\365\260\225\317 O'\021\350"
 463      35ED1842 
 463      2D6F3654 
 463      F5B095CF 
 463      204F2711 
 464 04e9 73A7B6A6 		.ascii	"s\247\266\246y55\315\313k\276\327\037\213(\215\371\277"
 464      793535CD 
 464      CB6BBED7 
 464      1F8B288D 
ARM GAS  /tmp/ccFCzHlo.s 			page 37


 464      F9BF
 465 04fb FC764BFA 		.ascii	"\374vK\372t\210\255\025_;-\350R+\026O`u\351G\327\212"
 465      7488AD15 
 465      5F3B2DE8 
 465      522B164F 
 465      6075E947 
 466 0511 7366EA74 		.ascii	"sf\352t\304F]\377\236\315\325\016\333\271Jes\225\270"
 466      C4465DFF 
 466      9ECDD50E 
 466      DBB94A65 
 466      7395B8
 467 0524 8698B5AB 		.ascii	"\206\230\265\253?\230eIq\"\264\355d\263\262|\211\315"
 467      3F986549 
 467      7122B4ED 
 467      64B3B27C 
 467      89CD
 468 0536 F25E2B59 		.ascii	"\362^+YnkX\220?.\313\267\314\262\274\376'\314\362M6"
 468      6E6B5890 
 468      3F2ECBB7 
 468      CCB2BCFE 
 468      27CCF24D 
 469 054b CB876D67 		.ascii	"\313\207mg9U\340\177j\215\222\3049\342#@#H7!\335\213"
 469      3955E07F 
 469      6A8D92C4 
 469      39E22340 
 469      23483721 
 470 0561 F420D2B3 		.ascii	"\364 \322\263H/\"\275\0014!\2373Y>\217\"\237\323\232"
 470      482F22BD 
 470      0134219F 
 470      33593E8F 
 470      229FD39A 
 471 0575 E9E8C991 		.ascii	"\351\350\311\221;\033S\206Kj\307\311\223\300l\315\373"
 471      3B1B5386 
 471      4B6AC7C9 
 471      93C06CCD 
 471      FB
 472 0586 F61B11CD 		.ascii	"\366\033\021\315\326@\007\351\016Nv\361f+!\214C\230"
 472      D64007E9 
 472      0E4E76F1 
 472      662B218C 
 472      4398
 473 0598 83490639 		.ascii	"\203I\00694\335\252\245U\367\222n\025\271\236\270[\265"
 473      34DDAAA5 
 473      55F7926E 
 473      15B99EB8 
 473      5BB5
 474 05aa BC6A9261 		.ascii	"\274j\222a\337\217\355\322\325\212\352\263\357\215f"
 474      DF8FEDD2 
 474      D58AEAB3 
 474      EF8D66
 475 05b9 21527F5B 		.ascii	"!R\177[L\225\304\241\310\377\012}\376\2151\034\302W"
 475      4C95C4A1 
 475      C8FF0A7D 
 475      FE8D311C 
 475      C257
 476 05cb 98E4032D 		.ascii	"\230\344\003-\377\227\245Tz51\367WOa\247P\022\337s$"
 476      FF97A554 
ARM GAS  /tmp/ccFCzHlo.s 			page 38


 476      7A3531F7 
 476      574F61A7 
 476      5012DF73 
 477 05e0 03607D14 		.ascii	"\003`}\024\260Y\216z\344VpSzBA\270T\240\354XY\036\254"
 477      B0598E7A 
 477      E4567053 
 477      7A4241B8 
 477      54A0EC58 
 478 05f7 FE8296E5 		.ascii	"\376\202\226\345X\224\305?-\310\202\203q\010g1\311x"
 478      5894C53F 
 478      2DC88283 
 478      71086731 
 478      C978
 479 0609 8D2C1A0E 		.ascii	"\215,\032\016\235h\370\3318YnE\377J,\220\233JqJ\342"
 479      9D68F8D9 
 479      38596E45 
 479      FF4A2C90 
 479      9B4A714A 
 480 061e 1894C82C 		.ascii	"\030\224\310,\267\012\333<\211\334\331\000\032\255\202"
 480      B70ADB3C 
 480      89DCD900 
 480      1AAD82
 481 062d 2DB00D96 		.ascii	"-\260\015\226\312\201\215\3328\021\231\263\336\264\257"
 481      CA818DDA 
 481      381199B3 
 481      DEB4AF
 482 063c D8B15575 		.ascii	"\330\261Uu\355?r\240\227\340\3266\356\307\264\035\314"
 482      ED3F72A0 
 482      97E0D636 
 482      EEC7B41D 
 482      CC
 483 064d C4EDAF43 		.ascii	"\304\355\257CXk%'\206.&)\226m\017-\007C<\330c\241\232"
 483      586B2527 
 483      862E2629 
 483      966D0F2D 
 483      07433CD8 
 484 0664 6EC2874D 		.ascii	"n\302\207M\323\026\355\366s\333\236\240E;\315R\321."
 484      D316EDF6 
 484      73DB9EA0 
 484      453BCD52 
 484      D12E
 485 0676 DD526DAD 		.ascii	"\335Rm\255\246z\324\307\027\340\343\207x\310\343g\305"
 485      A67AD4C7 
 485      17E0E387 
 485      78C8E367 
 485      C5
 486 0687 69D6C593 		.ascii	"i\326\305\223\177\244\217\237e\351\361\337~3:\376\361"
 486      7FA48F9F 
 486      65E9F1DF 
 486      7E333AFE 
 486      F1
 487 0698 92F8C7FB 		.ascii	"\222\370\307\373\314\312o\373\271\013\217O\306\207\314"
 487      CCCA6FFB 
 487      B90B8F4F 
 487      C687CC
 488 06a7 450DDAE5 		.ascii	"E\015\332\345\321\026\337\263l\247T\365\265\031\027"
 488      D116DFB3 
ARM GAS  /tmp/ccFCzHlo.s 			page 39


 488      6CA754F5 
 488      B51917
 489 06b6 FA5094FB 		.ascii	"\372P\224\373f)0d3\362\354L,)\225\207\357l#\362Z|\361"
 489      66293064 
 489      33F2EC4C 
 489      2C299587 
 489      EF6C23F2 
 490 06cd 1BAC1214 		.ascii	"\033\254\022\024\354\230\0250\343\276J\344\007\026\354"
 490      EC981530 
 490      E3BE4AE4 
 490      0716EC
 491 06dc 946D309E 		.ascii	"\224m0\236\263+,\330\367V\300\214\375\305\3105\026\254"
 491      B32B2CD8 
 491      F756C08C 
 491      FDC5C835 
 491      16AC
 492 06ee D13618CF 		.ascii	"\3216\030\317\331\015\026\354\262\0250c\007(r\213\005"
 492      D90D16EC 
 492      B2153063 
 492      0728728B 
 492      05
 493 06ff BB6E1B8C 		.ascii	"\273n\033\214\347\354\016\013v\333\012X\2521g\303w0"
 493      E7EC0E0B 
 493      76DB0A58 
 493      AA3167C3 
 493      7730
 494 0711 60FDBD76 		.ascii	"`\375\275v\301x\316F\262`\357X\001{\334\230\263\321"
 494      C178CE46 
 494      B260EF58 
 494      017BDC98 
 494      B3D1
 495 0723 2CD860DB 		.ascii	",\330`\333`<gcY\260\367\255\200\245\033s6\216\005\033"
 495      603C6763 
 495      59B0F7AD 
 495      80A51B73 
 495      368E051B 
 496 0737 611B8CE7 		.ascii	"a\033\214\347l\002\0136\306\012X\007c\316&\262`\343"
 496      6C020B36 
 496      C60A5807 
 496      63CE26B2 
 496      60E3
 497 0749 6D83F19C 		.ascii	"m\203\361\234\315c\301&Y\001{\316\230\263\005,X\255"
 497      CD63C126 
 497      59017BCE 
 497      98B3052C 
 497      58AD
 498 075b 6D309EB3 		.ascii	"m0\236\263E,\330'V\300\272\030s\266\204\005\233f\033"
 498      452CD827 
 498      56C0BA18 
 498      73B68405 
 498      9B661B
 499 076e 8CE76C19 		.ascii	"\214\347l\031\0136\323\012X\017c\316\352X\260\331\266"
 499      0B36D30A 
 499      580F63CE 
 499      EA58B0D9 
 499      B6
 500 077f C178CE56 		.ascii	"\301x\316V\262`s\255\200\275j\314\331j\026l\241m0\236"
ARM GAS  /tmp/ccFCzHlo.s 			page 40


 500      B26073AD 
 500      80BD6ACC 
 500      D96A166C 
 500      A16D309E 
 501 0793 B36D2CD8 		.ascii	"\263m,\330R+`\257\353p\026\375\351\245#\315\364\247"
 501      522B60AF 
 501      EB7016FD 
 501      E9A523CD 
 501      F4A7
 502 07a5 0EA6DB54 		.ascii	"\016\246\333T\347U\035\034\233m\264\020\303X\355\265"
 502      E7551D1C 
 502      9B6DB410 
 502      C358EDB5 
 503 07b5 EB9171F9 		.ascii	"\353\221q\371&\216\362CuJ;O\275\325/\254 \2324\200\023"
 503      268EF243 
 503      754A3B4F 
 503      BDD52FAC 
 503      209A3480 
 504 07ca 3632AEEF 		.ascii	"62\256\357W\266"
 504      57B6
 505 07d0 C134AA4C 		.ascii	"\3014\252L\300\2325\337C\246\007\035\314|L[\375{\241"
 505      C09A35DF 
 505      43A6071D 
 505      CC7C4C5B 
 505      FD7BA1
 506 07e3 EBEB2053 		.ascii	"\353\353 S=\337;\374Q.h\\\215\321\231\236]^\275\231"
 506      3DDF3BFC 
 506      512E685C 
 506      8DD1999E 
 506      5D5EBD99 
 507 07f7 4604304F 		.ascii	"F\0040Oj\244\011\247YM\330oEL&M\373\267\033'\266\221"
 507      6AA409A7 
 507      594DD86F 
 507      454C264D 
 507      FBB71B27 
 508 080d 1B22A2F5 		.ascii	"\033\"\242\365\371\247\025#\277V{\010\215\330Ch\360"
 508      F9A71523 
 508      BF567B08 
 508      8DD84368 
 508      F0
 509 081e 6A5DCCE5 		.ascii	"j]\314\3456\247\240\300\021\323f\203{rB\247\002\224"
 509      36A7A0C0 
 509      11D36683 
 509      7B7242A7 
 509      0294
 510 0830 71DFC3CB 		.ascii	"q\337\303\313\347\310\362\000\217\215\214\354\370J\315"
 510      E7C8F200 
 510      8F8D8CEC 
 510      F84ACD
 511 083f C815CC48 		.ascii	"\310\025\314H\343O\220\221\353\2663\362\270&#\221\307"
 511      E34F9091 
 511      EBB633F2 
 511      B8262391 
 511      C7
 512 0850 ED67245A 		.ascii	"\355g$Z\"71#\375}?>#\203}v3\222\316d\004;lO\322\016"
 512      22373123 
 512      FD7D3F3E 
ARM GAS  /tmp/ccFCzHlo.s 			page 41


 512      23837D76 
 512      3392CE64 
 513 086a DB3DC248 		.ascii	"\333=\302H\363\016\033\341Gv\336\303\217I\354\337LF"
 513      F30E1BE1 
 513      4776DEC3 
 513      8F49ECDF 
 513      4C46
 514 087c 3AC8E544 		.ascii	":\310\345D=%9ru\363D\245\017N\247\243\206#\357$\255"
 514      3D253972 
 514      75F344A5 
 514      0F4EA7A3 
 514      8623EF24 
 515 0891 4DF3A8E0 		.ascii	"M\363\250\340\215\336\202\206\210\202U\377(\260\312"
 515      8DDE8286 
 515      888255FF 
 515      28B0CA
 516 08a0 C8C2F7D4 		.ascii	"\310\302\367\324\001\202g\321y\370\221p\333\267\330"
 516      018267D1 
 516      79F89170 
 516      DBB7D8
 517 08af EED28FDC 		.ascii	"\356\322\217\334\245\252\307`'\311\321\3648\365hV\227"
 517      A5AAC760 
 517      27C9D1F4 
 517      38F56856 
 517      97
 518 08c0 7E617373 		.ascii	"~ass\022\375AC\246\3252[\376?\321\262kOZ\034\026P\247"
 518      12FD4143 
 518      A6D5325B 
 518      FE3FD1B2 
 518      6B4F5A1C 
 519 08d7 41F66EE8 		.ascii	"A\366n\350/\016Di|\340$CG\2535\322\2600\276\3605&\031"
 519      2F0E4469 
 519      7CE02443 
 519      47AB35D2 
 519      B030BEF0 
 520 08ee E98C1B3A 		.ascii	"\351\214\033:\332\366\000\355\340\223\277,\214/pCG\222"
 520      DAF600ED 
 520      E093BF2C 
 520      8C2F7043 
 520      4792
 521 0900 38C9E150 		.ascii	"8\311\341P`\233+P\256\014c\374I\342h'i\252\3068\231"
 521      609B2B50 
 521      AE0C63FC 
 521      49E26827 
 521      69AAC638 
 522 0915 F159E8E9 		.ascii	"\361Y\350\351\333\026~*+\374\310\315-\023E\302\277\316"
 522      DB167E2A 
 522      2BFCC8CD 
 522      2D1345C2 
 522      BFCE
 523 0927 90C873AC 		.ascii	"\220\310s\254\003\021\235\311\332:B\221\3748\224\374"
 523      03119DC9 
 523      DA3A4291 
 523      FC3894FC 
 524 0937 0903C93F 		.ascii	"\011\003\311?g\004\344\020\256b\222\017\343%\277\351"
 524      6704E410 
 524      AE62920F 
ARM GAS  /tmp/ccFCzHlo.s 			page 42


 524      E325BFE9 
 525 0947 412AF90F 		.ascii	"A*\371\017-I~\267\256\344?\264/y\005oOl\320N\022'\333"
 525      2D497EB7 
 525      AEE43FB4 
 525      2F79056F 
 525      4F6CD04E 
 526 095e 064B352B 		.ascii	"\006K5+\306\017\231b\234\204\305X\343$\203\355\223\371"
 526      C60F9962 
 526      9C84C558 
 526      E32483ED 
 526      93F9
 527 0970 C27CD7AF 		.ascii	"\302|\327\257)LNrJ\324\260\277*GFm\345m\350(-\236\315"
 527      294C4E72 
 527      4AD4B0BF 
 527      2A47466D 
 527      E56DE828 
 528 0987 5E66CD56 		.ascii	"^f\315V\024\011\2658\343m\203\245r`\253\206Y\0333\227"
 528      1409B538 
 528      E36D83A5 
 528      7260AB86 
 528      591B3397 
 529 099b A3E3DDAD 		.ascii	"\243\343\335\255P(S\360\271\323\265\352\262x\326\366"
 529      502853F0 
 529      B9D3B5EA 
 529      B278D6F6 
 530 09ab 41627FD4 		.ascii	"Ab\177\324\304\351\026\364\005\032\230c~\034\364\246"
 530      C4E916F4 
 530      051A9863 
 530      7E1CF4A6 
 531 09bb 7A7B388A 		.ascii	"z{8\212j\"j\023m\271\251\216\241SO\367\270\026.\241"
 531      6A226A13 
 531      6DB9A98E 
 531      A1534FF7 
 531      B8162EA1 
 532 09cf 23CEC3DD 		.ascii	"#\316\303\335\2610\206\316\013F\235LXN\232\330y\230"
 532      B13086CE 
 532      0B469D4C 
 532      584E9AD8 
 532      7998
 533 09e1 A7737E6D 		.ascii	"\247s~m\233@%\303(\342tF\021g\242\"~\212\2128\033\351"
 533      9B4025C3 
 533      28E27446 
 533      1167A222 
 533      7E8A8A38 
 534 09f7 1C561D8D 		.ascii	"\034V\035\215Z\371\271N\306u\275b;\337\251\232\3221"
 534      5AF9B94E 
 534      C675BD62 
 534      3BDFA99A 
 534      D231
 535 0a09 7ACC34F6 		.ascii	"z\3144\3661\267\255\350\236\361\240\004\261\352\377"
 535      31B7ADE8 
 535      9EF1A004 
 535      B1EAFF
 536 0a18 B15CE9E7 		.ascii	"\261\\\351\347\320!\361AIv\021ymn\034\306y\004#\255"
 536      D021F141 
 536      49761179 
 536      6D6E1CC6 
ARM GAS  /tmp/ccFCzHlo.s 			page 43


 536      790423AD 
 537 0a2c C03DA7C3 		.ascii	"\300=\247\303\240\336\217\235\321\000\333\201=\224\211"
 537      A0DE8F9D 
 537      D100DB81 
 537      3D9489
 538 0a3b 0E524035 		.ascii	"\016R@5Hk\221NEz\014\351\011\244\247\220^@z\031\351"
 538      486B914E 
 538      457A0CE9 
 538      09A4A790 
 538      5E407A19 
 539 0a50 0DA44D48 		.ascii	"\015\244MH\207a\021W#\375\010\351'H\247\"]\214t\251"
 539      87611157 
 539      23FD08E9 
 539      2748A722 
 539      5D8C74A9 
 540 0a64 1505A016 		.ascii	"\025\005\240\026\222\031m\236\220dw\002\211\223e\303"
 540      92196D9E 
 540      90647702 
 540      899365C3 
 541 0a74 FCC95F8C 		.ascii	"\374\311_\214\020G\015\2207\245\253\266f\232\025D\223"
 541      10470D90 
 541      37A5ABB6 
 541      669A1544 
 541      93
 542 0a85 EA349AD8 		.ascii	"\3524\232\330r;\023&Q\357j\025>\177^\322O\342]\255\262"
 542      723B1326 
 542      51EF6A15 
 542      3E7F5ED2 
 542      4FE25DAD 
 543 0a9a 9D0DAD60 		.ascii	"\235\015\255`6D\005C\031\333`\005Q\257{\256\257g\037"
 543      36440543 
 543      19DB6005 
 543      51AF7BAE 
 543      AF671F
 544 0aad 307A3602 		.ascii	"0z6\002\365l$\352\312h\244u\250\023+\221\256\265\242"
 544      F56C24EA 
 544      CA68A475 
 544      A8132B91 
 544      AEB5A2
 545 0ac0 19EFB1BD 		.ascii	"\031\357\261\275\332mI\352<\353O\342\011\015bX\035\214"
 545      DA6D49EA 
 545      3CEB4FE2 
 545      090D6258 
 545      1D8C
 546 0ad2 AC0E7170 		.ascii	"\254\016qp\215\347\276$\273\323\320\274\260\2175\215"
 546      8DE7BE24 
 546      BBD3D0BC 
 546      B08F358D 
 547 0ae2 C35EB457 		.ascii	"\303^\264W\250\302>\333;\225\011\372l\221\033\036\207"
 547      A8C23EDB 
 547      3B9509FA 
 547      6C911B1E 
 547      87
 548 0af3 246E707A 		.ascii	"$npzIs\242Q\030\013 \270\202\013\022s=\246KU-\311,4"
 548      4973A251 
 548      180B20B8 
 548      820B1273 
ARM GAS  /tmp/ccFCzHlo.s 			page 44


 548      3DA64B55 
 549 0b0b B96ED2A2 		.ascii	"\271n\322\242\341\332\002\207p2\211\266\010.\177\354"
 549      E1DA0287 
 549      703289B6 
 549      082E7FEC 
 550 0b1b DAC5D835 		.ascii	"\332\305\3305\221\271\365F\354\262\203\021\202\351:"
 550      91B9F546 
 550      ECB28311 
 550      82E93A
 551 0b2a D2187392 		.ascii	"\322\030s\222\270\031\333\212-N\247n2\2070 Y#|\275\236"
 551      B819DB8A 
 551      2D4EA76E 
 551      32873020 
 551      59237CBD 
 552 0b3f A6F1D460 		.ascii	"\246\361\324`\244i#i\234\365\346\345\242\213\242\037"
 552      A4692369 
 552      9CF5E6E5 
 552      A28BA21F 
 553 0b4f 8D0ABE61 		.ascii	"\215\012\276aa\335\251\207f\243\253\270\023\033\276"
 553      61DDA987 
 553      66A3ABB8 
 553      131BBE
 554 0b5e 4872E299 		.ascii	"Hr\342\231c\035\234\310\210\015\017\021i\357A\220\255"
 554      631D9CC8 
 554      880D0F11 
 554      69EF4190 
 554      AD
 555 0b6f 76411CC2 		.ascii	"vA\034\302~L\262_\343\232DVU\341\012\355\375\226\334"
 555      7E4CB25F 
 555      E39A4456 
 555      55E10AED 
 555      FD96DC
 556 0b82 92351BA8 		.ascii	"\2225\033\250\003\256:&G\242\230\315sL\266Q7\226.\321"
 556      03AE3A26 
 556      47A298CD 
 556      734CB651 
 556      37962ED1 
 557 0b96 3EAB05B3 		.ascii	">\253\005\263iGwF}l\262\312\005\232{\333x\\\035\213"
 557      69477746 
 557      7D6CB2CA 
 557      059A7BDB 
 557      785C1D8B 
 558 0baa ECA2CC51 		.ascii	"\354\242\314Q\260&+`&C\215\373X\260wR\354\202\361\234"
 558      B0262B60 
 558      26438DFB 
 558      58B07752 
 558      EC82F19C 
 559 0bbe 1D60C1DE 		.ascii	"\035`\301\336\267\002f2 wh\303\304\204\253\306\014\246"
 559      B7026632 
 559      207768C3 
 559      C484ABC6 
 559      0CA6
 560 0bd0 807170D0 		.ascii	"\200qp\320\311-7\322\314\035\3571`\013G3cNS\302\365"
 560      C92D37D2 
 560      CC1DEF31 
 560      600B4733 
 560      634E53C2 
ARM GAS  /tmp/ccFCzHlo.s 			page 45


 561 0be5 464A1DA8 		.ascii	"FJ\035\250\246\353^N9q\362'\205\257\003\232G\023\306"
 561      A6EB5E4E 
 561      3971F227 
 561      85AF039A 
 561      4713C6
 562 0bf8 8C1E7DDE 		.ascii	"\214\036}\336\231l\240\353q\3779\204\311\266\005\314"
 562      996CA0EB 
 562      71FF3984 
 562      C9B605CC 
 563 0c08 97D6B755 		.ascii	"\227\326\267U\234\3675\303\012\\\252Ny\351\375\330\012"
 563      9CF735C3 
 563      0A5CAA4E 
 563      79E9FDD8 
 563      0A
 564 0c19 2D89F568 		.ascii	"-\211\365h\370\016b\033x\030i\003\322#H\217\"=\216\364"
 564      F80E621B 
 564      78186903 
 564      D223488F 
 564      223D8EF4 
 565 0c2d 24D246B6 		.ascii	"$\322F\266\235\374\327\240:\204\271)\032k\313\033\246"
 565      9DFCD7A0 
 565      3A84B929 
 565      1A6BCB1B 
 565      A6
 566 0c3e 44F55026 		.ascii	"D\365P&m\235Q\257\337\300\340n\377\0055\270\227\321"
 566      6D9D51AF 
 566      DFC0E06E 
 566      FF0535B8 
 566      97D1
 567 0c50 482DD1E8 		.ascii	"H-\321\350\011\325\312\177Uv\327[\312\256a?V\311.4\355"
 567      09D5CA7F 
 567      5576D75B 
 567      CAAE613F 
 567      56C92E34 
 568 0c65 770BC331 		.ascii	"w\013\3031\273\343\370E\377rT]dU\233o8\357\306\030\267"
 568      BBE3F845 
 568      FF72545D 
 568      64559B6F 
 568      38EFC618 
 569 0c7a 729DCE22 		.ascii	"r\235\316\"\031\350\377Mgl\036 \305\037\21349\243\371"
 569      19E8FF4D 
 569      676C1E20 
 569      C51F8B34 
 569      39A3F9
 570 0c8d F84A9B0F 		.ascii	"\370J\233\017\315\203\225\270\341\014\032\251\212\262"
 570      CD8395B8 
 570      E10C1AA9 
 570      8AB2
 571 0c9b D343B973 		.ascii	"\323C\271s\010\337X\203\333\3462\302\323[\025\251\243"
 571      08DF5883 
 571      DBE632C2 
 571      D35B15A9 
 571      A3
 572 0cac 110DD17E 		.ascii	"\021\015\321~\347C1\215\330u\374\372`\245\373\335\337"
 572      E743318D 
 572      D875FCFA 
 572      60A5FBDD 
ARM GAS  /tmp/ccFCzHlo.s 			page 46


 572      DF
 573 0cbd 455462D8 		.ascii	"ETb\330]\011\233O\036\210\010m\240K\323tN:\262IY\336"
 573      5D099B4F 
 573      1E88086D 
 573      A04BD374 
 573      4E3AB249 
 574 0cd3 E74AD878 		.ascii	"\347J\330x\016\034\020\231\177d\223c\274\034\031\350"
 574      0E1C1099 
 574      7F649363 
 574      BC1C19E8 
 575 0ce3 C4721A60 		.ascii	"\304r\032`\352\353\203\212\341\266\036+\216\373D\314"
 575      EAEB838A 
 575      E1B61E2B 
 575      8EFB44CC 
 576 0cf3 0CE1C1A6 		.ascii	"\014\341\301\246\357\252\360\265\200d\203\214\016\014"
 576      EFAAF0B5 
 576      8064838C 
 576      0E0C
 577 0d01 42876BB2 		.ascii	"B\207k\262m\270T\016n\021\017\367\261\0258\243V\035"
 577      6DB8540E 
 577      6E110FF7 
 577      B11538A3 
 577      561D
 578 0d13 E096F070 		.ascii	"\340\226\360p\323l\303\361\334-\343\341>\265\002g\324"
 578      D36CC3F1 
 578      DC2DE3E1 
 578      3EB50267 
 578      D4
 579 0d24 AC035C1D 		.ascii	"\254\003\\\035\0177\3076\034\317\335J\036n\201\0258"
 579      0F37C736 
 579      1CCFDD4A 
 579      1E6E8115 
 579      38
 580 0d35 BDA65DEF 		.ascii	"\275\246]\357\307*\260$\276\343\"\352U\345\"\026l0\322"
 580      C72AB024 
 580      BEE322EA 
 580      55E52216 
 580      6C30D2
 581 0d48 F790BE8F 		.ascii	"\367\220\276\217\364\003\244#\220\216rY\350L\311.\246"
 581      F403A423 
 581      908E7259 
 581      E84CC92E 
 581      A6
 582 0d59 33B5F42E 		.ascii	"3\265\364.\013\235\233m\246\003-\034\337\261\255\217"
 582      0B9D9B6D 
 582      A6032D1C 
 582      DFB1AD8F 
 583 0d69 92381DAB 		.ascii	"\2228\035\253\305\014\\\375;\000;~\353\321\012\357@"
 583      C50C5CFD 
 583      3B003B7E 
 583      EBD10AEF 
 583      40
 584 0d7a FA03D2EB 		.ascii	"\372\003\322\353Ho#m\262\322\025\374(\266B\230\263/"
 584      486F236D 
 584      B2D215FC 
 584      28B64298 
 584      B32F
ARM GAS  /tmp/ccFCzHlo.s 			page 47


 585 0d8c AC092693 		.ascii	"\254\011&\223\244J\372mQ\323\360\240\002P\355\262k\201"
 585      A44AFA6D 
 585      51D3F0A0 
 585      0250EDB2 
 585      6B81
 586 0d9e C7B9F42D 		.ascii	"\307\271\364-\360\003\011X\035\033\023\264O\030D\273"
 586      F0030958 
 586      1D1B13B4 
 586      4F1844BB 
 587 0dae 6D727FF1 		.ascii	"mr\177\361\015\223\276\037N/K\342x\227\217\364\362\357"
 587      0D93BE1F 
 587      4E2F4BE2 
 587      78978FF4 
 587      F2EF
 588 0dc0 329C1C26 		.ascii	"2\234\034&7\250\217\246q5&Z\223\313\276\350\263\337"
 588      37A88FA6 
 588      7135265A 
 588      93CBBEE8 
 588      B3DF
 589 0dd2 53FB8C93 		.ascii	"S\373\214\223l\013\246\306@0CT\276\215\022N\214IFoW"
 589      6C0BA6C6 
 589      40304354 
 589      BE8D124E 
 589      8C49466F 
 590 0de7 6D74316E 		.ascii	"mt1n\027!\266\255\344\334\251G\321\200O\306Vaw\342V"
 590      1721B6AD 
 590      E4DCA947 
 590      D1804FC6 
 590      566177E2 
 591 0dfc 8187218F 		.ascii	"\201\207!\217\375X\333*\334,H\245W\023w\247\232\246"
 591      FD58DB2A 
 591      DC2C48A5 
 591      571377A7 
 591      9AA6
 592 0e0e 18742465 		.ascii	"\030t$enw\255\302\355\355s\337\375\012\271\235\212\334"
 592      6E77ADC2 
 592      EDED73DF 
 592      FD0AB99D 
 592      8ADC
 593 0e20 FE90985B 		.ascii	"\376\220\230[\036\206\3603C\313\355n\302\355\014\013"
 593      1E86F033 
 593      43CBED6E 
 593      C2ED0C0B 
 594 0e30 DC5646F6 		.ascii	"\334VF\366/Z.\312U)\326\207\034\266\373@\355f\271\310"
 594      2F5A2ECA 
 594      5529D687 
 594      1CB6FB40 
 594      ED66B9C8 
 595 0e44 9083DCA2 		.ascii	"\220\203\334\242YC\016s\\\232!\207\345.\007\275\232"
 595      59430E73 
 595      5C9A2187 
 595      E52E07BD 
 595      9A
 596 0e55 78C06178 		.ascii	"x\300ax\213\370\001\207\361-t\007\034jZ\330\037p\210"
 596      8BF80187 
 596      F12D7407 
 596      1C6A5AD8 
ARM GAS  /tmp/ccFCzHlo.s 			page 48


 596      1F7088
 597 0e68 B1268973 		.ascii	"\261&\211s\321\230\316s\351\0178H\342v\247C\221\275"
 597      D198CE73 
 597      E90F3848 
 597      E276A743 
 597      91BD
 598 0e7a 5E4613B4 		.ascii	"^F\023\264\320 \371\372\037\226\021\311S?\320!|\202"
 598      D020F9FA 
 598      1F9611C9 
 598      533FD021 
 598      7C82
 599 0e8c C2B403E7 		.ascii	"\302\264\003\347\343\340\016\325\306\357\263\326\323"
 599      E3E00ED5 
 599      C6EFB3D6 
 599      D3
 600 0e99 75A78AD5 		.ascii	"u\247\212\325!\246\204K/\355\377[\035:\327u\250\205"
 600      21A6844B 
 600      2FEDFF5B 
 600      1D3AD775 
 600      A885
 601 0eab 175A24AE 		.ascii	"\027Z$\2563\034\216$\256t\021i\254\322jb\343\004\034"
 601      331C8E24 
 601      AE741169 
 601      ACD26A62 
 601      E3041C
 602 0ebe 88586549 		.ascii	"\210XeI\027\257\037\250\2617\376\325p\371\352\365\007"
 602      17AF1FA8 
 602      B137FED5 
 602      70F9EAF5 
 602      07
 603 0ecf E9A86904 		.ascii	"\351\250i\0045\362\263\226\315\322\310uZ\215\334N\007"
 603      35F2B396 
 603      CDD2C875 
 603      5A8DDC4E 
 603      07
 604 0ee0 C1D659D2 		.ascii	"\301\326Y\322\311e-\343ur]K]\235\374\252%\257\223\312"
 604      C9652DE3 
 604      75725D4B 
 604      5D9DFCAA 
 604      25AF93CA 
 605 0ef4 E53DB1CB 		.ascii	"\345=\261\313N\346\362\321\330e\027s\371b\354\262\333"
 605      4EE6F2D1 
 605      D8651773 
 605      F962ECB2 
 605      DB
 606 0f05 AA62AF63 		.ascii	"\252b\257c\024\373\013T\354\365\011\024{Us\025\033\264"
 606      14FB0B54 
 606      ECF50914 
 606      7B557315 
 606      1BB4
 607 0f17 696DD16A 		.ascii	"im\321j\234\352\260\360b\202\327U\300\224h\251FV\035"
 607      9CEAB0F0 
 607      6282D755 
 607      C09468A9 
 607      46561D
 608 0f2a 10537554 		.ascii	"\020SuT\216\273U\022wA6\022\335\205\375\3028\017\377"
 608      8EBB5512 
ARM GAS  /tmp/ccFCzHlo.s 			page 49


 608      77413612 
 608      DD85FDC2 
 608      380FFF
 609 0f3d 00EAE41E 		.ascii	"\000\352\344\036K:9\377\300\030\233c\262\215{\311|\330"
 609      4B3A39FF 
 609      C0189B63 
 609      B28D7BC9 
 609      7CD8
 610 0f4f 7ED4C7DB 		.ascii	"~\324\307\333\315\323\307\203Z}\334_\215\372x\320\222"
 610      CDD3C783 
 610      5A7DDC5F 
 610      8DFA78D0 
 610      92
 611 0f60 3E0E6EC5 		.ascii	">\016n\305\350\236rmt+]\305\233\321\212W<+\252t\220"
 611      E89E726D 
 611      742B5DC5 
 611      9BD18A57 
 611      3C2BAA74 
 612 0f75 51A543A8 		.ascii	"Q\245C\250J\207\015T\311!\324\265\022\225\022h\236\215"
 612      4A870D54 
 612      C921D4B5 
 612      12951268 
 612      9E8D
 613 0f87 5C78608C 		.ascii	"\\x`\2142\312B7\233~\256\305\263\323\215\001\274e\007"
 613      32CA4237 
 613      9B7EAEC5 
 613      B3D38D01 
 613      BC6507
 614 0f9a 92E7BD6E 		.ascii	"\222\347\275n\275("
 614      BD28
 615 0fa0 471D2045 		.ascii	"G\035 Ey\022\213rk\253f\025\345\031mQ\336\244Ey\306"
 615      79128B72 
 615      6BAB6615 
 615      E5196D51 
 615      DEA44579 
 616 0fb5 52511ED2 		.ascii	"RQ\036\322)\312\263\372Ey\247\031Ey\206)\312\263X\224"
 616      29CAB3FA 
 616      4579A719 
 616      45798629 
 616      CAB35894 
 617 0fc9 DF1B16E5 		.ascii	"\337\033\026\345\250\273-\024\245^\227\217y\036}\322"
 617      A8BB2D14 
 617      A55E978F 
 617      791E7DD2 
 618 0fd9 5E7CD23E 		.ascii	"^|\322>\354\207\034Cz\202\355\215@\313}w\334\330\216"
 618      EC871C43 
 618      7A82ED8D 
 618      40CB7D77 
 618      DCD88E
 619 0fec 4B33B613 		.ascii	"K3\266\023\253\324\202\031\226\221[\271\203\355\331"
 619      ABD48219 
 619      96915BB9 
 619      83EDD9
 620 0ffb CCC0C7AD 		.ascii	"\314\300\307\255j"
 620      6A
 621 1000 B6528DAF 		.ascii	"\266R\215\257\257\261\267\226*\262\246\372>\242\003"
 621      AFB1B796 
ARM GAS  /tmp/ccFCzHlo.s 			page 50


 621      2AB2A6FA 
 621      3EA203
 622 100f 57B108E7 		.ascii	"W\261\010\347\306\345\266Y3}uVra2\377\261\260\276F\231"
 622      C6E5B659 
 622      337D7556 
 622      726132FF 
 622      B1B0BE46 
 623 1024 059887E3 		.ascii	"\005\230\207\343f3\264\255\000?\371\257\007\310\213"
 623      6633B4AD 
 623      003FF9AF 
 623      07C88B
 624 1033 6557BD76 		.ascii	"eW\275v\351,\335fg,\227\206Qs\016(\263*\267]\270I$N"
 624      E92CDD66 
 624      672C9786 
 624      51730E28 
 624      B32AB75D 
 625 104b 34631C9A 		.ascii	"4c\034\232}GqS\301C[[\220\203\311\032\320\245\227\032"
 625      7D477153 
 625      C1435B5B 
 625      9083C91A 
 625      D0A5971A 
 626 105f 4B56CD93 		.ascii	"KV\315\223\345w\324\245\223r\225\374\370\214Xy\266R"
 626      E577D4A5 
 626      937295FC 
 626      F88C5879 
 626      B652
 627 1071 311CB1F2 		.ascii	"1\034\261\362\\L\313\263\322\215K^Z\363L[\206i84d\351"
 627      5C4CCBB3 
 627      D28D4B5E 
 627      5AF34C5B 
 627      86693834 
 628 1087 EFB02FF0 		.ascii	"\357\260/\360\016\002Mj6P\365\260\351tg\375\273\010"
 628      0E024D6A 
 628      3650F5B0 
 628      E97467FD 
 628      BB08
 629 1099 34ADB556 		.ascii	"4\255\265V\214N\215\2029y\005s\372c\221\246&\247\360"
 629      8C4E8D82 
 629      39790573 
 629      FA6391A6 
 629      26A7F0
 630 10ac 2FBCD921 		.ascii	"/\274\331!\314\327\026\030\227#\256\253c\340nl/]\245"
 630      CCD71618 
 630      9723AEAB 
 630      63E06E6C 
 630      2F5DA5
 631 10bf ACACA0AD 		.ascii	"\254\254\240\255\304\022+*\300!\362\232{\253\036gb("
 631      C4122B2A 
 631      C021F29A 
 631      7BAB1E67 
 631      6228
 632 10d1 58C40A98 		.ascii	"X\304\012\230\311\016\23615\223\255\276\244I\307\027"
 632      C90E9E31 
 632      3593ADBE 
 632      A449C717 
 633 10e1 6A58BC64 		.ascii	"jX\274d\363\177\022\0177\261?4\312m\315\037\032\343"
 633      F37F120F 
ARM GAS  /tmp/ccFCzHlo.s 			page 51


 633      37B13F34 
 633      CA6DCD1F 
 633      1AE3
 634 10f3 D6EEDBDD 		.ascii	"\326\356\333\335\212\376\020\271na\347\256\3055T\221"
 634      8AFE10B9 
 634      6E61E7AE 
 634      C5355491 
 635 1103 A8B5681B 		.ascii	"\250\265h\033\313\314\356\343_\376\221\272\353\343\335"
 635      CBCCEEE3 
 635      5FFE91BA 
 635      EBE3DD
 636 1112 A49F31E2 		.ascii	"\244\2371\342\236\304\375\014\016\007\207\004\264\374"
 636      9EC4FD0C 
 636      0E078704 
 636      B4FC
 637 1120 2FFC06F9 		.ascii	"/\374\006\371\237\230\230\377\201\003\"K\225\355\220"
 637      9F9898FF 
 637      8103224B 
 637      95ED90
 638 112f EA68DC14 		.ascii	"\352h\334\024d\201\244\265j\374y\274et\037\032\005\233"
 638      6481A4B5 
 638      6AFC79BC 
 638      65741F1A 
 638      059B
 639 1141 6E1B2C95 		.ascii	"n\033,\225\003\253c\301f[\0013\031c]\311\202\315\263"
 639      03AB63C1 
 639      665B0133 
 639      19635DC9 
 639      82CDB3
 640 1154 0DC673B6 		.ascii	"\015\306s\266\232\005[l\005\314d|u\033\013Vg\033,U\257"
 640      9A055B6C 
 640      05CC647C 
 640      751B0B56 
 640      671B2C55 
 641 1169 788538ED 		.ascii	"x\2058\355\220\304In\\\347\350\306\025KH?F:\005\351"
 641      90C4496E 
 641      5CE7E8C6 
 641      154B483F 
 641      463A05E9 
 642 117d 34A433DC 		.ascii	"4\2443\334\026\334\205qn\306]X\215\014\217i\236\306"
 642      16DC8571 
 642      6EC65D58 
 642      8D0C8F69 
 642      9EC6
 643 118f 80BD5ABC 		.ascii	"\200\275Z\274\344\310\037\352\342\273GT\036F\034\314"
 643      E4C81FEA 
 643      E2BB4754 
 643      1E461CCC 
 644 119f 6639586F 		.ascii	"f9Xo\233\203T\226\203\310\315\255t\267\206:\364\260"
 644      9B835496 
 644      83C8CDAD 
 644      74B7863A 
 644      F4B0
 645 11b1 598B676B 		.ascii	"Y\213gk\351De\344\316V\360\252U\260\355\266\301\370"
 645      E94465E4 
 645      CE56F0AA 
 645      55B0EDB6 
ARM GAS  /tmp/ccFCzHlo.s 			page 52


 645      C1F8
 646 11c3 718CE1DF 		.ascii	"q\214\341\3370`\365\266\301Z\305i\004\325\205\261\250"
 646      3060F5B6 
 646      C15AC569 
 646      04D585B1 
 646      A8
 647 11d4 0BD558E6 		.ascii	"\013\325X\346\263\220\316A:\017\351\002V\013\034\302"
 647      B390CE41 
 647      3A0FE902 
 647      560B1CC2 
 648 11e4 917BE2FC 		.ascii	"\221{\342\374\016\267\306\001\215YQ\301*\256Q\331\216"
 648      0EB7C601 
 648      8D5951C1 
 648      2AAE51D9 
 648      8E
 649 11f5 60CBF6F2 		.ascii	"`\313\366\362=v\233\033\256l\211\373\322o\265\322\032"
 649      3D769B1B 
 649      AE6C89FB 
 649      D26FB5D2 
 649      1A
 650 1206 12608770 		.ascii	"\022`\207p\323\012\242\311\022\334E\207\265~\234\236"
 650      D30AA2C9 
 650      12DC4587 
 650      B57E9C9E 
 651 1216 9976B0BC 		.ascii	"\231v\260\274E\315\375\332\327\250\271\257Cs\337\377"
 651      45CDFDDA 
 651      D7A8B9AF 
 651      4373DFFF 
 652 1226 DEC4E6DE 		.ascii	"\336\304\346\336\301\347\021\030\327\232\373\353;\351"
 652      C1E71118 
 652      D79AFBEB 
 652      3BE9
 653 1234 90922573 		.ascii	"\220\222%s\177{'k\356%q\030\035\246j\266\271\277\263"
 653      7F7B276B 
 653      EE257118 
 653      1DA66AB6 
 653      B9BFB3
 654 1247 336ABA24 		.ascii	"3j\272$q\270m\260T\016l\370\036\306\016\276\217\302"
 654      71B86DB0 
 654      540E6CF8 
 654      1EC60EBE 
 654      8FC2
 655 1259 49006662 		.ascii	"I\000fb\356G\262`#m\203\361\234\215\336\303ds\210\225"
 655      EE47B260 
 655      236D83F1 
 655      9C8DDEC3 
 655      64738895 
 656 126d 6C9A98FB 		.ascii	"l\232\230\373\261,g\325V83\231L\033\307\202}h\005\314"
 656      B12C67D5 
 656      56383399 
 656      4C1BC782 
 656      7D6805CC 
 657 1281 68950C80 		.ascii	"h\225\014\200M`\301&\333\006\3439\233\310\202}b\005"
 657      4D60C126 
 657      DB06E339 
 657      9BC8827D 
 657      6205
ARM GAS  /tmp/ccFCzHlo.s 			page 53


 658 1293 2CD598B3 		.ascii	",\325\230\263\032\026l\246m\260T\275*A\177l\215\222"
 658      1A166CA6 
 658      6DB054BD 
 658      2A417F6C 
 658      8D92
 659 12a5 C4D56816 		.ascii	"\304\325h\026\327\240\261\212 ]\213t\035\322\365H7 "
 659      D7A0B18A 
 659      205D8B74 
 659      1DD2F548 
 659      3720
 660 12b7 DD847433 		.ascii	"\335\204t3\322\257\220n\265b\334\226\263\306m\316\275"
 660      D2AF906E 
 660      B562DC96 
 660      B3C66DCE 
 660      BD
 661 12c8 764D9179 		.ascii	"vM\221yF\230\251\317\3258\250\260\006\207\000\266#\275"
 661      4698A9CF 
 661      D538A8B0 
 661      068700B6 
 661      23BD
 662 12da 82F426D2 		.ascii	"\202\364&\322[H\373#\333C\221\016C:\034\351\022\244"
 662      5B48FB23 
 662      DB43910E 
 662      433A1CE9 
 662      12A4
 663 12ec CB2C65C7 		.ascii	"\313,e\307\305,o\332\346\326\314\000\330k\207\033n\237"
 663      C52C6FDA 
 663      E6D6CC00 
 663      D86B871B 
 663      6E9F
 664 12fe BB7E511C 		.ascii	"\273~Q\034A\027\327\322\367\262-\270WL\214h\322\211"
 664      4117D7D2 
 664      F7B22DB8 
 664      574C8C68 
 664      D289
 665 1310 6F3CE993 		.ascii	"o<\351\223\253R\324\231\274\266\334D\336\253j\372d\205"
 665      AB52D499 
 665      BCB6DC44 
 665      DEAB6AFA 
 665      6485
 666 1322 FD5D6EBB 		.ascii	"\375]n\273\323x\273\335\372\323xI\321\022\256\323f\200"
 666      D378BBDD 
 666      FAD37849 
 666      D112AED3 
 666      6680
 667 1334 7B6A02C3 		.ascii	"{j\002\303\003\215\315\345k\312\\9]\006\267\306\212"
 667      038DCDE5 
 667      6BCA5C39 
 667      5D06B7C6 
 667      8A
 668 1345 3C4C96C1 		.ascii	"<L\226\301]) \262\245X\353mc\231*\337\014F\371f\242"
 668      5D2920B2 
 668      A558EB6D 
 668      63992ADF 
 668      0C46F966 
 669 135a F27D8A4A 		.ascii	"\362}\212J\266\004\3512\252\210\250X;\221\356E\272\237"
 669      B604E932 
ARM GAS  /tmp/ccFCzHlo.s 			page 54


 669      AA88A858 
 669      3B91EE45 
 669      BA9F
 670 136c 7734B620 		.ascii	"w4\266 O\0373\203,\334\344^\"gRn\030{n\255\253\277\034"
 670      4F1F3383 
 670      2CDCE45E 
 670      2267526E 
 670      187B6EAD 
 671 1383 A974AA65 		.ascii	"\251t\252e>\243\005\035>P\356\216\353\375\035\262]\350"
 671      3EA3051D 
 671      3E50EE8E 
 671      EBFD1DB2 
 671      5DE8
 672 1395 870D0ADD 		.ascii	"\207\015\012\335\035\315\305\016m.\270\247&0vd\323\320"
 672      1DCDC50E 
 672      6D2EB8A7 
 672      26307664 
 672      D3D0
 673 13a7 F7E39C58 		.ascii	"\367\343\234X\350O&\221\311\020-\232-\017H\216\214\376"
 673      E84F2691 
 673      C9102D9A 
 673      2D0F488E 
 673      8CFE
 674 13b9 5A24858E 		.ascii	"Z$\205\216X\337Z\3012^\266\025\251\276\314\324\247\332"
 674      58DF5AC1 
 674      325EB615 
 674      A9BECCD4 
 674      A7DA
 675 13cb E7C62578 		.ascii	"\347\306%xU\3531\333\302=n \334\330\222\255S\266\263"
 675      55EB31DB 
 675      C23D6E20 
 675      DCD892AD 
 675      53B6B3
 676 13de C08B639C 		.ascii	"\300\213c\234{\\\272\321\2523nD\217\260s\312v\006N\033"
 676      7B5CBAD1 
 676      AA336E44 
 676      8FB073CA 
 676      76064E1B 
 677 13f2 64A06534 		.ascii	"d\240e4\003\027\343t\\o Qo\353\214\336\217\235\233\227"
 677      0317E374 
 677      5C6F2051 
 677      6FEB8CDE 
 677      8F9D9B97 
 678 1406 C44FB0E2 		.ascii	"\304O\260\342M\301\312v\020+X\003\322#H\217\"=\311V"
 678      4DC1CA76 
 678      102B5803 
 678      D223488F 
 678      223DC956 
 679 141a 39BDF974 		.ascii	"9\275\371t'+E\305u\275z\342\364c8\202v\026=\327\367"
 679      272B45C5 
 679      75BD7AE2 
 679      F4633882 
 679      76163DD7 
 680 142f EF4B3C2D 		.ascii	"\357K<-\357\344\013C\022\317k=\327I\301Tz5\361\"\202"
 680      EFE40B43 
 680      12CF6B3D 
 680      D749C154 
ARM GAS  /tmp/ccFCzHlo.s 			page 55


 680      7A35F122 
 681 1444 F953E956 		.ascii	"\371S\351V\261\251\230\331zlh\316\273\233i&*#\013W\331"
 681      B1A998D9 
 681      7A6C68CE 
 681      BB9B6926 
 681      2A230B57 
 682 1459 9CE51FEF 		.ascii	"\234\345\037\357wH\342%7\231\370\030\253\311\273\305"
 682      7748E225 
 682      3799F818 
 682      ABC9BBC5 
 683 1469 898F2B6E 		.ascii	"\211\217+n\315\304G\023\231\345'W\023O{\314\270/~Fu"
 683      CDC44713 
 683      99E52757 
 683      134F7BCC 
 683      B82F7E46 
 684 147e CE7DBA33 		.ascii	"\316}\2723\252\213\357\323\235\015Yy\237\375\331\220"
 684      AA8BEFD3 
 684      9D0D5979 
 684      9FFDD990 
 685 148e 18C79278 		.ascii	"\030\307\222x\025\375\242kn\243\331\220u(\224\363\346"
 685      15FDA26B 
 685      6EA3D990 
 685      752894F3 
 685      E6
 686 149f 1DD354E3 		.ascii	"\035\323T\343\002Y|J\231\374\247\013x6\332\206c;\315"
 686      02597C4A 
 686      99FCA70B 
 686      7836DA86 
 686      633BCD
 687 14b2 726429DA 		.ascii	"rd)\332)j\200$\361\204V]\022\372\213\2558\264e\306&"
 687      296A8024 
 687      F184565D 
 687      12FA8BAD 
 687      38B465C6 
 688 14c7 A307DFE4 		.ascii	"\243\007\337\344C[\343\261k1\252<\372\026C\025\221$"
 688      435BE3B1 
 688      6B31AA3C 
 688      FA164315 
 688      9124
 689 14d9 9ED1F2CF 		.ascii	"\236\321\362\317=U\217\377t=eR\341\3163\376\356\005"
 689      3D558FFF 
 689      743D6552 
 689      E1CE33FE 
 689      EE05
 690 14eb 2CD74634 		.ascii	",\327F4\014\027\221\366\367\340\2523\244\003=\346\246"
 690      0C1791F6 
 690      F7E0AA33 
 690      A4033DE6 
 690      A6
 691 14fc A2215AED 		.ascii	"\242!Z\355~'DM\305\252s\237\323\365F\203<\304T4$6\025"
 691      7E27444D 
 691      C5AA739F 
 691      D3F54683 
 691      3CC45434 
 692 1513 3C0C6171 		.ascii	"<\014aq\210Gc*\256\222\025<\344jbSqsJ\274\251 )\233"
 692      8847632A 
 692      AE92153C 
ARM GAS  /tmp/ccFCzHlo.s 			page 56


 692      E46A6253 
 692      71734ABC 
 693 152b E751446E 		.ascii	"\347QDn\377\020\257J\014\234\235~\014y\263\246\313P"
 693      FF10AF4A 
 693      0C9C9D7E 
 693      0C79B3A6 
 693      CB50
 694 153d 95D2D5E4 		.ascii	"\225\322\325\344\036E\010\037(\252\024s9\242\272\300"
 694      1E45081F 
 694      28AA1473 
 694      39A2BAC0 
 695 154d 30C025D3 		.ascii	"0\300%\323c \325L\027b\202\226\304\367<D\027\206b\311"
 695      6320D54C 
 695      17628296 
 695      C4F73C44 
 695      178662C9 
 696 1561 BF8F7418 		.ascii	"\277\217t\030[\376\011\337\327\0275\370\355c\312\260"
 696      5BFE09DF 
 696      D71735F8 
 696      ED63CAB0 
 697 1571 F0FC81EE 		.ascii	"\360\374\201\356t%\315\010\324\2069\367'\324\006\036"
 697      7425CD08 
 697      D48639F7 
 697      27D4061E 
 698 1581 47124779 		.ascii	"G\022GyH\216Gk5\242\211\256\244\031mA'*#\325\365vW\322"
 698      488E476B 
 698      35A289AE 
 698      A4196D41 
 698      272A23D5 
 699 1599 345EDAAC 		.ascii	"4^\332\254\254\244\251\366\020\253\177\346\376fY\375"
 699      ACA4A9F6 
 699      10AB7FE6 
 699      FE6659FD 
 700 15a9 091E8DD5 		.ascii	"\011\036\215\325_LW\322\220\353\211\355\376\225\373"
 700      5F4C57D2 
 700      90EB89ED 
 700      FE95FB
 701 15b8 E3ED7EFF 		.ascii	"\343\355~\3776\272v\177H\033]\273?\272\215\356J\232"
 701      36BA767F 
 701      481B5DBB 
 701      3FBA8DEE 
 701      4A9A
 702 15ca C96D7457 		.ascii	"\311mtW\322\314nc\177%M,\207\222\370!j\320D\217\371"
 702      D2CC6E63 
 702      7F254D2C 
 702      8792F821 
 702      6AD0448F 
 703 15df 4A9AD11E 		.ascii	"J\232\321\036S\263\036{n\334P\361\302\3637\314V\322"
 703      53B31E7B 
 703      6EDC50F1 
 703      C2F337CC 
 703      56D2
 704 15f1 5471B347 		.ascii	"Tq\263G\\\315T\232\361\313\261\2254\306o\242\220\304"
 704      5CCD549A 
 704      F1CBB195 
 704      34C66FA2 
 704      90C4
ARM GAS  /tmp/ccFCzHlo.s 			page 57


 705 1603 599EC712 		.ascii	"Y\236\307\022\277\260\202\334\370\231V+\033\351Z\232"
 705      BFB082DC 
 705      F899562B 
 705      1BE95A9A 
 706 1613 CF2C69E5 		.ascii	"\317,i\345\245\0035\334j\216%mD\005\323\304\270\350"
 706      A50335DC 
 706      6A8E256D 
 706      4405D3C4 
 706      B8E8
 707 1625 8987290E 		.ascii	"\211\207)\016Z\020s\260 \346\262\325\027|\2006\332Q"
 707      5A1073B0 
 707      20E6B2D5 
 707      177C8036 
 707      DA51
 708 1637 5CCA2693 		.ascii	"\\\312&\223:\226\037A\233\336H\0043=\314\010\300e\227"
 708      3A961F41 
 708      9BDE4804 
 708      333DCC08 
 708      C06597
 709 164a A680ED8D 		.ascii	"\246\200\355\215\000D\226~\25039h}\336y\362(\234w^\344"
 709      0044967E 
 709      A8333968 
 709      7DDE79F2 
 709      289C775E 
 710 165f C18DB971 		.ascii	"\301\215\271q\331}G\3735\224D\223\261Fy^\350a_\375\215"
 710      D97D47FB 
 710      35944493 
 710      B146795E 
 710      E8615FFD 
 711 1674 CF499067 		.ascii	"\317I\220g\223\331\2025\365\252\026\320\035\202\007"
 711      93D98235 
 711      F5AA16D0 
 711      1D8207
 712 1683 6CE3F132 		.ascii	"l\343\3612\334\253'C\375\011V\275Q\352\310n\375\325"
 712      DCAB2743 
 712      FD0956BD 
 712      51EAC86E 
 712      FDD5
 713 1695 66FCBD92 		.ascii	"f\374\275\222\270\312\243;\275\032?`\275&\256\216\354"
 713      B8CAA33B 
 713      BD1A3F60 
 713      BD26AE8E 
 713      EC
 714 16a6 C13AB2C6 		.ascii	"\301:\262\306R\035\271\276\247F\231\233\241\236a\003"
 714      521DB9BE 
 714      A746999B 
 714      A19E6103 
 715 16b6 4A674D73 		.ascii	"JgMsMHdxu\312\266\327\255k\324r\252Q_\240F\235\372\361"
 715      4D486478 
 715      75CAB6D7 
 715      AD6BD472 
 715      AA515FA0 
 716 16ce 1AE5106E 		.ascii	"\032\345\020ni3\2407\275\317e\240\025\227\201\361{k"
 716      6933A037 
 716      BDCF65A0 
 716      159781F1 
 716      7B6B
ARM GAS  /tmp/ccFCzHlo.s 			page 58


 717 16e0 7ECC4EC6 		.ascii	"~\314N\306\315\036\315\213\323\207{\2307\247+\212m\373"
 717      CD1ECD8B 
 717      D3877B98 
 717      37A72B8A 
 717      6DFB
 718 16f2 A32A8AB4 		.ascii	"\243*\212\264>\034\213;\027\277\364\340\3339\333\362"
 718      3E1C8B3B 
 718      17BFF4E0 
 718      DB39DBF2 
 719 1702 D2D2CCEE 		.ascii	"\322\322\314\356\021F\214\230\334\3461\336\271\250\371"
 719      11468C98 
 719      DCE631DE 
 719      B9A8F9
 720 1711 CF2154B7 		.ascii	"\317!T\267\325\010\324\246\315\231\377\343\004\272\313"
 720      D508D4A6 
 720      CD99FFE3 
 720      04BACB
 721 1720 44A0D6FB 		.ascii	"D\240\326\373\227\207v\222\225u{\321\325\250i\333,W"
 721      97877692 
 721      95757BD1 
 721      D5A869DB 
 721      2C57
 722 1732 E380D6D5 		.ascii	"\343\200\326\325\330;\012]\215\003\226\\\215\231m\343"
 722      D83B0A5D 
 722      8D03965C 
 722      8D996DE3 
 723 1742 5D8D956D 		.ascii	"]\215\225myWC\260\340\016\034`\334\201zl\205\016\032"
 723      795743B0 
 723      E00E1C60 
 723      DC817A6C 
 723      850E1A
 724 1755 B80336F4 		.ascii	"\270\0036\364j\025\325\253\235\250W_\233\353\325.\023"
 724      6A15D5AB 
 724      9DA8575F 
 724      9BEBD52E 
 724      13
 725 1766 BD3A62A2 		.ascii	"\275:b\242WG\264z\325`E\257\314\354\372^\276u?e\033"
 725      5747B47A 
 725      D56045AF 
 725      CCECFA5E 
 725      BE753F65 
 726 177b 8FD7D383 		.ascii	"\217\327\323\203{\231U8\337[\0013{+2\013\326h\033\214"
 726      7B995538 
 726      DF5B0133 
 726      7B2B320B 
 726      D6681B8C 
 727 178f E76CF401 		.ascii	"\347l\364\001\006\354\252\0250\223!\352\032\026\354"
 727      06ECAA15 
 727      309321EA 
 727      1A16EC
 728 179e B66D309E 		.ascii	"\266m0\236\263e,X\345\003\026\300R\2159\333\301\202"
 728      B3652C58 
 728      E50316C0 
 728      528D39DB 
 728      C182
 729 17b0 0DB20D96 		.ascii	"\015\262\015\226\032\247r\264\226D\260\226\254\305\016"
 729      1AA772B4 
ARM GAS  /tmp/ccFCzHlo.s 			page 59


 729      9644B096 
 729      ACC50E
 730 17bf D73AA49B 		.ascii	"\327:\244\233\220\356@z\024\351q\244'\221\236Fz"
 730      90EE407A 
 730      14E971A4 
 730      27919E46 
 730      7A
 731 17d0 16E939A4 		.ascii	"\026\3519\244\027x?o\350\003\332fj\215\326\317[\303"
 731      17783F6F 
 731      E803DA66 
 731      6A8DD6CF 
 731      5BC3
 732 17e2 F9793FD9 		.ascii	"\371y?\331\263\215\352\335\012\326_\232\374\200\005"
 732      B38DEADD 
 732      0AD65F9A 
 732      FC8005
 733 17f1 FFC64475 		.ascii	"\377\306Du/\320\325hdE\244$\312n\013\016\247\241\352"
 733      2FD0D568 
 733      6445A424 
 733      CA6E0B0E 
 733      A7A1EA
 734 1804 CA915BFF 		.ascii	"\312\221[\377E\260\330\025\236\014\226\356\300\254\211"
 734      45B0D815 
 734      9E0C96EE 
 734      C0AC89
 735 1813 EA4E3659 		.ascii	"\352N6Y\332\306\015\215\272U0\262\2618\266\026\254\003"
 735      DAC60D8D 
 735      BA5530B2 
 735      B138B616 
 735      AC03
 736 1825 ED705EC3 		.ascii	"\355p^\303\236\362\024M)&\304!\202\276\251\365\265\226"
 736      9EF2144D 
 736      2926C421 
 736      82BEA9F5 
 736      B596
 737 1837 6E415FEB 		.ascii	"nA_\353fb_k\340\200\310\212-\374\342\200w\321\233\277"
 737      66625F6B 
 737      E080C88A 
 737      2DFCE280 
 737      77D19BBF 
 738 184b 69BF3FA2 		.ascii	"i\277?\242\256\270\332\302\314\232\017\263\015\226\312"
 738      AEB8DAC2 
 738      CC9A0FB3 
 738      0D96CA
 739 185a 81ADDE12 		.ascii	"\201\255\336\022\267\322 \001\230\311\342\200m[\330"
 739      B7D22001 
 739      98C9E280 
 739      6D5BD8
 740 1869 B5602869 		.ascii	"\265`(i;`<g;X\260%V\300L\026\007\354b\301V\332\006\343"
 740      3B603C67 
 740      3B58B025 
 740      56C04C16 
 740      07EC62C1 
 741 1881 39DBC382 		.ascii	"9\333\303\202}n\005\314dq\300>\026l\223m0\236\263\003"
 741      7D6E05CC 
 741      6471C03E 
 741      166C936D 
ARM GAS  /tmp/ccFCzHlo.s 			page 60


 741      309EB303 
 742 1895 2CD8562B 		.ascii	",\330V+`\251\306\234\035d\301v\331\006\3439;\314\202"
 742      60A9C69C 
 742      1D64C176 
 742      D906E339 
 742      3BCC82
 743 18a8 EDB30266 		.ascii	"\355\263\002f\264\330\025\300.\260`\007m\203\361\234"
 743      B4D815C0 
 743      2EB06007 
 743      6D83F19C 
 744 18b8 5D64C1BE 		.ascii	"]d\301\276\263\002f4\223\007`?\260`\307m\203\361\234"
 744      B3026634 
 744      9307603F 
 744      B060C76D 
 744      83F19C
 745 18cb 5D61C1CE 		.ascii	"]a\301\316X\0013z3\034\200]c\301.\330\006\3439\273\301"
 745      5801337A 
 745      331C805D 
 745      63C12ED8 
 745      06E339BB 
 746 18e0 825DB602 		.ascii	"\202]\266\002\366\2341g\267X\260\033\266\301x\316\356"
 746      F69C3167 
 746      B758B01B 
 746      B6C178CE 
 746      EE
 747 18f1 B0604D56 		.ascii	"\260`MV\300\214^WOVNm\215[\237d\007,U0\374\261m\212"
 747      C08C5E57 
 747      4F564E6D 
 747      8D5B9F64 
 747      072C5530 
 748 1909 24DE425F 		.ascii	"$\336B_\3456\266\374w\2206!\225\275\204V\"\035\210\264"
 748      E536B6FC 
 748      77903621 
 748      95BD8456 
 748      221D88B4 
 749 191d 0AE9BB48 		.ascii	"\012\351\273H\207 \035\212t\030\322\341HG\"\035\215"
 749      87201D8A 
 749      7418D2E1 
 749      4847221D 
 749      8D
 750 192e 742CD271 		.ascii	"t,\322qH' \235\210\264\006i\255\327\202\227q\225\365"
 750      4827209D 
 750      88B40669 
 750      ADD78297 
 750      7195F5
 751 1941 32063E68 		.ascii	"2\006>h\301\3130^\246N\006\256\337\342\327\015\276k"
 751      C1CB305E 
 751      A64E06AE 
 751      DFE2D70D 
 751      BE6B
 752 1953 1B319545 		.ascii	"\0331\225E\214\2549\314\367\007>\260\202\247W\203\365"
 752      8CAC39CC 
 752      F7073EB0 
 752      82A75783 
 752      F5
 753 1964 8B693453 		.ascii	"\213i4SLc\260\230\306b\321\314@\272\000\3512\244uH\177"
 753      4C63B098 
ARM GAS  /tmp/ccFCzHlo.s 			page 61


 753      C662D1CC 
 753      40BA00E9 
 753      32A47548 
 754 1979 407A19E9 		.ascii	"@z\031\351\025\244\037\243\250\247X\021\365p\217\331"
 754      15A41FA3 
 754      A8A75811 
 754      F5708FD9 
 755 1989 36F486E8 		.ascii	"6\364\206\350\227{\212\204\250\177\363\355\202KtZh\232"
 755      977B8A84 
 755      A87FF3ED 
 755      824B745A 
 755      689A
 756 199b 97B83733 		.ascii	"\227\27073\037L<-\304\301\340X\243Wo\033:\271\232xZ"
 756      1F4C3C2D 
 756      C4C1E058 
 756      A3576F1B 
 756      3AB99A78 
 757 19b0 A849675A 		.ascii	"\250IgZ\210\244T})\233\323B#\2305\032\222\370\235\026"
 757      88A4547D 
 757      299BD342 
 757      2398351A 
 757      92F89D16 
 758 19c4 CE56D742 		.ascii	"\316V\327B\216\214d\326h,@\311\330\301J\345\260\306"
 758      8E8C64D6 
 758      682C40C9 
 758      D8C14AE5 
 758      B0C6
 759 19d6 5CF60163 		.ascii	"\\\366\001c\352$\023\351\022o\025\215\327\277\314\363"
 759      EA2413E9 
 759      126F158D 
 759      D7BFCCF3 
 760 19e6 DA9DAF9C 		.ascii	"\332\235\257\234\357\325\237\257T7\225;\2045\332\034"
 760      EFD59FAF 
 760      5437953B 
 760      8435DA1C 
 761 19f6 704F4D54 		.ascii	"pOMT\367\344\310X\367\246t\003\376k\271\367\014\021"
 761      F7E4C858 
 761      F7A67403 
 761      FE6BB9F7 
 761      0C11
 762 1a08 7616D9CE 		.ascii	"v\026\331\316\300b\203\014\370\242\031X\253\315@m\302"
 762      C062830C 
 762      F8A21958 
 762      ABCD406D 
 762      C2
 763 1a19 D71BF165 		.ascii	"\327\033\361e@\026\231\360S\206\011\312\323\360\263"
 763      401699F0 
 763      538609CA 
 763      D3F0B3
 764 1a28 1A726402 		.ascii	"\032rd\002b\235B\2543qj\253\327E\321\373\254\206\336"
 764      629D42AC 
 764      33716AAB 
 764      D745D1FB 
 764      AC86DE
 765 1a3b 8FAD5092 		.ascii	"\217\255P\222\370\251\227\030\215Yh\004f#\375\014\351"
 765      F8A99718 
 765      8D596804 
ARM GAS  /tmp/ccFCzHlo.s 			page 62


 765      6623FD0C 
 765      E9
 766 1a4c 5CA40B91 		.ascii	"\\\244\013\221.E\272\2145\021zc\300^\225\223~Bl\017"
 766      2E45BA8C 
 766      35117A63 
 766      C05E9593 
 766      7E426C0F 
 767 1a60 D692750F 		.ascii	"\326\222u\017\321\357\244.G\003\260;\261\001\340q\010"
 767      D1EFA42E 
 767      4703B03B 
 767      B101E071 
 767      08
 768 1a71 BF2BB506 		.ascii	"\277+\265\006`\357\006\354\337\254\264d\002\016m\030"
 768      60EF06EC 
 768      DFACB464 
 768      020E6D18 
 769 1a81 AD6CE9A3 		.ascii	"\255l\351\243/\2278\214,\254l\276\0218\334\231\264\272"
 769      2F97388C 
 769      2CAC6CBE 
 769      1138DC99 
 769      B4BA
 770 1a93 14ECA425 		.ascii	"\024\354\244%\260Tc\260\313U\303b\337\214\220\255|\241"
 770      B05463B0 
 770      CB55C362 
 770      DF8C90AD 
 770      7CA1
 771 1aa5 E0D0E6D9 		.ascii	"\340\320\346\331\364#\266\353\274\244\372]\324H\324"
 771      F423B6EB 
 771      BCA4FA5D 
 771      D448D4
 772 1ab4 3A50F5D6 		.ascii	":P\365\326Ii\010\264\001\201\256k\200$Q\340\032\037"
 772      496908B4 
 772      0181AE6B 
 772      802451E0 
 772      1A1F
 773 1ac6 3C6787B9 		.ascii	"<g\207\271\341TnR~\364\233\313p\345m\241Yi\034B\345"
 773      E1546E52 
 773      7EF49BCB 
 773      70E56DA1 
 773      59691C42 
 774 1adb CF3492D4 		.ascii	"\3174\222\324\033\342\177\316P\220\240i\365?\233\210"
 774      1BE27FCE 
 774      5090A069 
 774      F53F9B88 
 775 1aeb 1F7B5025 		.ascii	"\037{P%\363\201mD~9\311\365\015\303D:\011A\226w8\204"
 775      F3816D44 
 775      7E39C9F5 
 775      0DC3443A 
 775      09419677 
 776 1b01 895A3CBD 		.ascii	"\211Z<\275\005\031\034\036\277\240\344Fg\262\245\203"
 776      05191C1E 
 776      BFA0E446 
 776      67B2A583 
 777 1b11 624DB382 		.ascii	"bM\263\202e\370q!9r\013\261\210y\200\236\254\026K\327"
 777      65F87121 
 777      39720BB1 
 777      8879809E 
ARM GAS  /tmp/ccFCzHlo.s 			page 63


 777      AC164BD7 
 778 1b25 3C706F33 		.ascii	"<po3\343>/\021\271\303\200\325Y\002{]\007L\357\307\326"
 778      E33E2F11 
 778      B9C380D5 
 778      59027B5D 
 778      074CEFC7 
 779 1b3a 5D495C85 		.ascii	"]I\\\205\266f5Z\223\010\322\317\221nF\372\025\322\255"
 779      B666355A 
 779      9308D2CF 
 779      916E46FA 
 779      15D2AD
 780 1b4d 48B721DD 		.ascii	"H\267!\335\301Z\234\207\205\0329r\241a\374\3523mg\021"
 780      C15A9C87 
 780      851A3972 
 780      A161FCEA 
 780      336D6711 
 781 1b61 0F4DBED3 		.ascii	"\017M\276\323\364v\377JQ3do\262yh\267\327\370m\216V"
 781      F476FF4A 
 781      5133646F 
 781      B27968B7 
 781      D7F86D8E 
 782 1b76 3F78D0B8 		.ascii	"?x\320\270\346\322\003t\270f\037\232\263y\017\351\232"
 782      E6D20374 
 782      B8661F9A 
 782      B3790FE9 
 782      9A
 783 1b87 33F3E9E3 		.ascii	"3\363\351\343z\2559[L\315Y\275\005sV\031Y\276a\266\325"
 783      7AAD395B 
 783      4CCD59BD 
 783      05735619 
 783      59BE61B6 
 784 1b9c 893EED1B 		.ascii	"\211>\355\033\334\327\003\267\011\337g.\211\015^\322"
 784      DCD703B7 
 784      09DF672E 
 784      890D5ED2 
 785 1bac DC7CA7E5 		.ascii	"\334|\247\345r\024}\233\352w\226\270\034\263Ay-\373"
 785      72147D9B 
 785      EA7796B8 
 785      1CB34179 
 785      2DFB
 786 1bbe 5CFCAAF8 		.ascii	"\\\374\252\370\032Q\2054i\015\005V\25188\372~<I\\\213"
 786      1A518534 
 786      690D0556 
 786      A93838FA 
 786      7E3C495C 
 787 1bd3 601B6D83 		.ascii	"`\033m\203\245\352\201}\211`{\254\200\031\217\367\253"
 787      A5EA817D 
 787      89607BAC 
 787      80198FF7 
 787      AB
 788 1be4 60F4E3E9 		.ascii	"`\364\343\351\365\266\301R\343*\214:<\373O\254\002G"
 788      F5B6C152 
 788      E32A8C3A 
 788      3CFB4FAC 
 788      0247
 789 1bf6 911E437A 		.ascii	"\221\036Cz\334\212\217~\330\313L\314W\342\327\023\352"
 789      DC8A8F7E 
ARM GAS  /tmp/ccFCzHlo.s 			page 64


 789      D8CB4CCC 
 789      57E2D713 
 789      EA
 790 1c07 ED8B5DEF 		.ascii	"\355\213]\357\307*\256$\036\304\272|\310\012K{c,E\247"
 790      C72AAE24 
 790      1EC4BA7C 
 790      C80A4B7B 
 790      632C45A7 
 791 1c1b CB4EF33B 		.ascii	"\313N\363;\330\035\302!MMzT\370D\226Gbu?MdLa\034\302"
 791      D81DC221 
 791      4D4D7A54 
 791      F8449647 
 791      62753F4D 
 792 1c34 71BC6F97 		.ascii	"q\274o\227\367a\335\307)\017\243\211\345\352\015)\303"
 792      F761DDC7 
 792      290FA389 
 792      E5EA0D29 
 792      C3
 793 1c45 45FA2C87 		.ascii	"E\372,\207p:AB\205\243_\013SI\375\330{\264G\027eZ\314"
 793      703A4142 
 793      85A35F0B 
 793      5349FDD8 
 793      7BB44717 
 794 1c5c 389192BF 		.ascii	"8\221\222\277\223^\007\233\027b\250\032.\324\256:\261"
 794      935E079B 
 794      1762A81A 
 794      2ED4AE3A 
 794      B1
 795 1c6d 02EA6965 		.ascii	"\002\352ie\244\251i\215,\266\325\230)p\371\215\244u"
 795      A4A9698D 
 795      2CB6D598 
 795      2970F98D 
 795      A475
 796 1c7f DEC44C71 		.ascii	"\336\304Lq\213\332\343R6\352\310Y\231\252Nt\316M\311"
 796      8BDAE352 
 796      36EAC859 
 796      99AA4E74 
 796      CE4DC9
 797 1c92 398426DD 		.ascii	"9\204&\335\302\220o\027t\241Oq\010C\177N\3568g(\315"
 797      C2906F17 
 797      74A14F71 
 797      08437F4E 
 797      EE386728 
 798 1ca7 46A618D6 		.ascii	"F\246\030\326H\217\253\233\371Gi\223q\323\340\012;J"
 798      488FAB9B 
 798      F9476993 
 798      71D3E00A 
 798      3B4A
 799 1cb9 B2495529 		.ascii	"\262IU)=\324t\2656\322]f\322}j%]\264\320\317\017}\247"
 799      3DD474B5 
 799      36D25D66 
 799      D27D6A25 
 799      5DB4D0CF 
 800 1cd0 950B0B47 		.ascii	"\225\013\013G0\311\234\"\355\313z\245\036\271Z\365A"
 800      30C99C22 
 800      EDCB7AA5 
 800      1EB95AF5 
ARM GAS  /tmp/ccFCzHlo.s 			page 65


 800      41
 801 1ce1 B4D41F69 		.ascii	"\264\324\037iKK\323!,\371\271\256<G\005\025yJ\342U\264"
 801      4B4BD321 
 801      2CF9B9AE 
 801      3C470515 
 801      794AE255 
 802 1cf6 B94D96E4 		.ascii	"\271M\226\344\271[\225\247$^\327&3\221\313\302\250\\"
 802      B95B95A7 
 802      245ED726 
 802      3391CBC2 
 802      A85C
 803 1d08 24F1A68D 		.ascii	"$\361\246\215t7\231t\267\255\244\213\312s\325W\177\356"
 803      74379974 
 803      B7ADA48B 
 803      CA73D557 
 803      7FEE
 804 1d1a 1215A751 		.ascii	"\022\025\247Q\336\024q\312\2768q\3266D\346\017z_\021"
 804      DE1471CA 
 804      BE3871D6 
 804      3644E60F 
 804      7A5F11
 805 1d2d E7B3DA2A 		.ascii	"\347\263\332*dV\023\006\3714\263\363D|?\262N\254\321"
 805      64561306 
 805      F934B3F3 
 805      447C3FB2 
 805      4EACD1
 806 1d40 2FC3EB05 		.ascii	"/\303\353\005\2322\254\362%.\303Jy\205\266\014\231d"
 806      9A32ACF2 
 806      252EC34A 
 806      7985B60C 
 806      9964
 807 1d52 2665313E 		.ascii	"&e1>\256\014\255\245k\214+\303\004\351\2242\254\224"
 807      AE0CADA5 
 807      6B8C2BC3 
 807      04E99432 
 807      AC94
 808 1d64 1737F478 		.ascii	"\0277\364x\\\275f\234J\221\373P\335B\274\272q\013\370"
 808      5CBD669C 
 808      4A91FB50 
 808      DD42BCBA 
 808      710BF8
 809 1d77 02F22DB2 		.ascii	"\002\362-\262\024F\022\367\213\244Fl\324\227\346e\""
 809      144612F7 
 809      8BA4466C 
 809      D497E665 
 809      22
 810 1d88 4D7C95F4 		.ascii	"M|\225\364.\274a\244\2410\237e\255\365\334*\254\270"
 810      2EBC61A4 
 810      A1309F65 
 810      ADF5DC2A 
 810      ACB8
 811 1d9a 5B44CAA5 		.ascii	"[D\312\245Q*\205\313Q:\\\236\304\317\017\367ohjzX\243"
 811      512A85CB 
 811      513A5C9E 
 811      C4CF0FF7 
 811      6F686A7A 
 812 1db0 675B4C76 		.ascii	"g[Lv\272\214\363%t)\2715\256\217\250\000\243Y\237\362"
ARM GAS  /tmp/ccFCzHlo.s 			page 66


 812      BA8CF325 
 812      7429B935 
 812      AE8FA800 
 812      A3599FF2 
 813 1dc4 DCCE7FC3 		.ascii	"\334\316\177\303n\330\207>\342R\236\372\271\256Ki\202"
 813      6ED8873E 
 813      E2529EFA 
 813      B9AE4B69 
 813      82
 814 1dd5 4338A9F1 		.ascii	"C8\251\361i\274\265\345d\227\005\271\232\330W[u=\"\312"
 814      69BCB5E5 
 814      649705B9 
 814      9AD8575B 
 814      753D22CA 
 815 1de9 4352549B 		.ascii	"CRT\233y\015\031 I\365J:\241\257\026Y\303/\352\257\374"
 815      790D1920 
 815      49F54A3A 
 815      A1AF1659 
 815      C32FEAAF 
 816 1dfe 85062EE1 		.ascii	"\205\006.\341\322-\276\327\264}\246\321\213$u\346S#"
 816      D22DBED7 
 816      B47DA6D1 
 816      8B2475E6 
 816      5323
 817 1e10 0BC98E8D 		.ascii	"\013\311\216\215\251(\310!\277h\306T\352\014\255\034"
 817      A928C821 
 817      BF68C654 
 817      EA0CAD1C 
 818 1e20 AFE34B24 		.ascii	"\257\343K$-\310\221\256\031'./\375\010P5>~\206\317\274"
 818      2DC891AE 
 818      19272E2F 
 818      FD085035 
 818      3E7E86CF 
 819 1e35 23652847 		.ascii	"#e(G9\322t\226\335\017\366\241\026N\317\2253\234?\227"
 819      39D27496 
 819      DD0FF6A1 
 819      164ECF95 
 819      339C3F97 
 820 1e49 23C399B1 		.ascii	"#\303\231\261\306Olc\245rX\354\270\345,+X\206\263\347"
 820      C64F6C63 
 820      A57258EC 
 820      B8E52C2B 
 820      5886B3E7 
 821 1e5d FC3EB585 		.ascii	"\374>\265\205\266\261x\276\3062X\253\255`\245\032\363"
 821      B6B178BE 
 821      C63258AB 
 821      AD60A51A 
 821      F3
 822 1e6e 358EC1DA 		.ascii	"5\216\301\332h\033\213\347k\002\203\265\335\012\226"
 822      681B8BE7 
 822      6B0283B5 
 822      DD0A96
 823 1e7d C928E944 		.ascii	"\311(\351D\006\353\220m,\216/y\377W1\254cV\260\214\367"
 823      06EB906D 
 823      2C8E2F79 
 823      FF5731AC 
 823      6356B08C 
ARM GAS  /tmp/ccFCzHlo.s 			page 67


 824 1e92 08CA3719 		.ascii	"\010\3127\031\254\357mc\361\362\232\314\355\204\274"
 824      ACEF6D63 
 824      F1F29ACC 
 824      ED84BC
 825 1ea1 6205CDF0 		.ascii	"b\005\315\360\233S\262\274\223\341\354\246m,^b\3372"
 825      9B53B2BC 
 825      93E1ECA6 
 825      6D2C5E62 
 825      DF32
 826 1eb3 58F2C316 		.ascii	"X\362\303\026\260\2363.\311\371\\.\337\261\215\226j"
 826      B09E332E 
 826      C9F95C2E 
 826      DFB18D96 
 826      6A
 827 1ec4 98CB2156 		.ascii	"\230\313!V\260\014?\203\315\347\362\003\333X\251\202"
 827      B00C3F83 
 827      CDE7F203 
 827      DB58A982 
 828 1ed4 E18FB5AF 		.ascii	"\341\217\265\257\2228\323\207\373\205}8\364\214t\016"
 828      9238D387 
 828      FB857D38 
 828      F48C740E 
 829 1ee4 D2794817 		.ascii	"\322yH\027 ]\204t\011\322eH\353\220\256D\272\032i\004"
 829      205D8474 
 829      09D26548 
 829      EB90AE44 
 829      BA1A6904 
 830 1ef8 E9E748BF 		.ascii	"\351\347H\277@\272\001\351&\244\233}\3342\251\321\017"
 830      40BA01E9 
 830      26A49B7D 
 830      DC32A9D1 
 830      0F
 831 1f09 6B9A23BE 		.ascii	"k\232#\276\015\3203\313\254\240+#;?RF6\226\343R$\272"
 831      0DD033CB 
 831      ACA02B23 
 831      3B3F5246 
 831      3696E352 
 832 1f1f FBBDC65C 		.ascii	"\373\275\306\\>&\337\342\336\025$\242\036\216\313\020"
 832      3E26DFE2 
 832      DE1524A2 
 832      1E8ECB10 
 833 1f2f 3FF25AC0 		.ascii	"?\362Z\3002\2313\330\177\2356@t\256m\2746\247\374\314"
 833      329933D8 
 833      7F9D3640 
 833      74AE6DBC 
 833      36A7FCCC 
 834 1f43 9A1E1C5F 		.ascii	"\232\036\034_\015\017\270\011kt\334\276V\013\306\217"
 834      0D0FB809 
 834      6B74DCBE 
 834      560BC68F 
 835 1f53 D22BD14D 		.ascii	"\322+\321M\2421s\007\021\215\276\215zz\034\032\367\356"
 835      A2317307 
 835      118DBE8D 
 835      7A7A1C1A 
 835      F7EE
 836 1f65 69251A71 		.ascii	"i%\032q\030\243\035F4\272-uN\\\221r\233P\225\350\273"
 836      18A31D46 
ARM GAS  /tmp/ccFCzHlo.s 			page 68


 836      34BA2D75 
 836      4E5C9172 
 836      9B5095E8 
 837 1f7a 4E63B40B 		.ascii	"Nc\264\013\014\3322Kh\313L\320.\"\032\335\007\367y\\"
 837      0CDA324B 
 837      68CB4CD0 
 837      2E221ADD 
 837      07F7795C 
 838 1f8e 2170BBDE 		.ascii	"!p\273\336\224\350I=4\375\012T\303T\240\311X\201"
 838      94E8493D 
 838      34FD0A54 
 838      C354A0C9 
 838      5881
 839 1fa0 6A51CD3F 		.ascii	"jQ\315?F:\005\351\327H\267\"\375\006\351v\244;\221\356"
 839      463A05E9 
 839      D748B722 
 839      FD06E976 
 839      A43B91EE 
 840 1fb4 46BA17E9 		.ascii	"F\272\027\351~\266r\030y\271\023|\372\037\263q\010_"
 840      7EB67218 
 840      79B9137C 
 840      FA1FB371 
 840      085F
 841 1fc6 3EAC3B68 		.ascii	">\254;h\263\352D\375\263\373\350\240\015I\253\256\327"
 841      B3EA44FD 
 841      B3FBE8A0 
 841      0D49ABAE 
 841      D7
 842 1fd7 AB3674E6 		.ascii	"\2536t\346\225'\350{\363F\311\024\206\352yo\376/\242"
 842      9527E87B 
 842      F346C914 
 842      86EA796F 
 842      FE2FA2
 843 1fea B3DA457B 		.ascii	"\263\332E{\343\303\033\306\255^\347\036/\177>Pnjz[\260"
 843      E3C31BC6 
 843      AD5EE71E 
 843      2F7F3E50 
 843      6E6A7A5B 
 844 1fff 3E       		.ascii	">"
 845 2000 52DCA0ED 		.ascii	"R\334\240\355>\356e\273\217\312@\221rnu\344\370\362"
 845      3EEE65BB 
 845      8FCA4091 
 845      726E75E4 
 845      F8F2
 846 2012 9D9D0F2D 		.ascii	"\235\235\017-\303-qG\321;}?\325\346\310\261\342\340"
 846      C32D7147 
 846      D13B7D3F 
 846      D5E6C8B1 
 846      E2E0
 847 2024 CEFF9E2C 		.ascii	"\316\377\236,\031?\201\030c4\030\222\330Y\263\342\263"
 847      193F8118 
 847      63341892 
 847      D859B3E2 
 847      B3
 848 2035 B3E6639D 		.ascii	"\263\346c\235\343?I\221\207\373\360\272C\230\227*\032"
 848      E33F4991 
 848      87FBF0BA 
ARM GAS  /tmp/ccFCzHlo.s 			page 69


 848      4398972A 
 848      1A
 849 2046 69D90B8F 		.ascii	"i\331\013\217\030\374\3219\246}\247Q\3734wj\024\244"
 849      18FCD139 
 849      A67DA751 
 849      FB34776A 
 849      14A4
 850 2058 4EC3A17A 		.ascii	"N\303\241z\323\331\270B\033\027-\264Qs.>;n\201<\020"
 850      D3D9B842 
 850      1B172DB4 
 850      51732E3E 
 850      3B6E813C 
 851 206d 47F8B5E3 		.ascii	"G\370\265\343\373&K\362\317kK\355\010~\227\233\343\347"
 851      FB264BF2 
 851      CF6B4BED 
 851      087E979B 
 851      E3E7
 852 207f 0B037E1A 		.ascii	"\013\003~\032\343\273\204\300\311\376iC\367\211\237"
 852      E3BB84C0 
 852      C9FE6943 
 852      F7899F
 853 208e CDAE8A90 		.ascii	"\315\256\212\220\216\341\333\332\216\241\011+\227\264"
 853      8EE1DBDA 
 853      8EA1092B 
 853      97B4
 854 209c AC90AE90 		.ascii	"\254\220\256\220\206\225o\015X\271\254\313\312\322\351"
 854      86956F0D 
 854      58B9ACCB 
 854      CAD2E9
 855 20ab 437F5B3D 		.ascii	"C\177[=\240v\223|\201\274\350\324\372h\342U-'\270p\201"
 855      A076937C 
 855      81BCE8D4 
 855      FA68E255 
 855      2D27B870 
 856 20c0 63E48601 		.ascii	"c\344\206\001#\327u\031\231\370\351\320\177\217V)\212"
 856      23D77519 
 856      99F8E9D0 
 856      7F8F5629 
 856      8A
 857 20d1 EF10263C 		.ascii	"\357\020&<\242\017qS\027b\354\271\355\206\265\322\254"
 857      A20F7153 
 857      1762ECB9 
 857      ED86B5D2 
 857      AC
 858 20e2 B77DDBA4 		.ascii	"\267}\333\244\267M[\026\243\224M\276\370\221\321\247"
 858      B74D5B16 
 858      A3944DBE 
 858      F891D1A7 
 859 20f2 92754E35 		.ascii	"\222uN5\242\371\324 _\225~\275|]9q\332\323\234|\015"
 859      A2F9D420 
 859      5F957EBD 
 859      7C5D3971 
 859      DAD39C7C 
 860 2107 F49BE5EB 		.ascii	"\364\233\345\353\254\301\006v\034\216\361\033\345Kk"
 860      ACC10676 
 860      1C8EF11B 
 860      E54B6B
ARM GAS  /tmp/ccFCzHlo.s 			page 70


 861 2116 A80D32F2 		.ascii	"\250\0152\362\256^F\"\007\217\311>\252i\2249\207\320"
 861      AE5E4622 
 861      078FC93E 
 861      AA699439 
 861      87D0
 862 2128 60907E88 		.ascii	"`\220~\210\256 V\236;\355j\216 \206\232\012b\220\301"
 862      AE20569E 
 862      3BED6A8E 
 862      20869A0A 
 862      6290C1
 863 213b 9A299272 		.ascii	"\232)\222r\230UA\374`\220\221\341\272\031i\274\264\271"
 863      985541FC 
 863      609091E1 
 863      BA1969BC 
 863      B4B9
 864 214d EB782353 		.ascii	"\353x#Sd\226\223\221~\263\375V+4\373\255\254\354\277"
 864      64969391 
 864      7EB3FD56 
 864      2B34FBAD 
 864      ACECBF
 865 2160 7208EFFD 		.ascii	"r\010\357\375R\237\365j]\326\257\2368\320\2679e0^\313"
 865      529FF56A 
 865      5DD6AF9E 
 865      38D0B739 
 865      65305ECB 
 866 2174 39D131CE 		.ascii	"9\3211\316\216\305s6\326\200\263\211\272\234\215\232"
 866      8EC57336 
 866      D680B389 
 866      BA9C8D9A 
 867 2184 739AB1EF 		.ascii	"s\232\261\357\324nCU3\300\2501\310\335\221f\345\256"
 867      D46E4355 
 867      33C0A831 
 867      C8DD9166 
 867      E5AE
 868 2196 D63477CB 		.ascii	"\3264w\313u\345\276\330\200\263Ot9\373v\301\272\240"
 868      75E5BED8 
 868      80B34F74 
 868      39FB76C1 
 868      BAA0
 869 21a8 1167262D 		.ascii	"\021g&-\306TS\325\237f0\203GRN\327Q}\345\375\\\0112"
 869      C65453D5 
 869      9F663083 
 869      47524ED7 
 869      517DE5FD 
 870 21bf F6B541C6 		.ascii	"\366\265A\306>\325\315X\365\222\235\017\031\266@f2\237"
 870      3ED5CD58 
 870      F5929D0F 
 870      19B64066 
 870      329F
 871 21d1 6D9AB5E5 		.ascii	"m\232\265\345&Y\233c=k\011\262\272\337 \253\013t\263"
 871      26599B63 
 871      3D6B09B2 
 871      BADF20AB 
 871      0B74B3
 872 21e4 3AF6DCF5 		.ascii	":\366\334\365f\331\257EZ\355\"\355\216\315B9f\300\351"
 872      66D9AF45 
 872      5AED22ED 
ARM GAS  /tmp/ccFCzHlo.s 			page 71


 872      8ECD4239 
 872      66C0E9
 873 21f7 32837A70 		.ascii	"2\203zp\2439\332Vg^\015\\z\226\263\321\200\261U\006"
 873      A339DA56 
 873      675E0D5C 
 873      7A96B3D1 
 873      80B15506 
 874 220b 4DC00E43 		.ascii	"M\300\016C\021\2320\266F\313\3300\035\306\022H\360\266"
 874      119A30B6 
 874      46CBD830 
 874      1DC61248 
 874      F0B6
 875 221d 01A3EB74 		.ascii	"\001\243\353t\031\275|\365\313\3374\307\333\\\257\345"
 875      19BD7CF5 
 875      CBDF34C7 
 875      DB5CAFE5 
 876 222d 9430173D 		.ascii	"\2240\027=\331\241+\302\301\277\322\347l\223.g\213f"
 876      D9A12BC2 
 876      C1BFD2E7 
 876      6C932E67 
 876      8B66
 877 223f ADFD7933 		.ascii	"\255\375y3D\270Y\313\330\\\374\350'\307\310H\003F\276"
 877      44B859CB 
 877      D85CFCE8 
 877      27C7C848 
 877      0346BE
 878 2252 E219F9A5 		.ascii	"\342\031\371\245\360\021ad\314\212\241\253\305]Sep\203"
 878      F0116164 
 878      CC8AA1AB 
 878      C55D5365 
 878      7083
 879 2264 65B9496C 		.ascii	"e\271Ilz\026z\233\"\351@\234\215\302\250\335\370N*7"
 879      7A167A9B 
 879      22E9409C 
 879      8DC2A8DD 
 879      F84E2A37 
 880 2278 FB7C0AE4 		.ascii	"\373|\012\344\326\030\244\002\267\360\374\221!\342G"
 880      D618A402 
 880      B7F0FC91 
 880      21E247
 881 2287 1C1C7D4B 		.ascii	"\034\034}K\310\005-\034\377N\020\202\266\215G\333\266"
 881      C8052D1C 
 881      FF4E1082 
 881      B68D47DB 
 881      B6
 882 2298 0DFA9AEB 		.ascii	"\015\372\232\353F\211\243ey\023\0311o\022\037\226\304"
 882      4689A365 
 882      79131931 
 882      6F121F96 
 882      C4
 883 22a9 95087625 		.ascii	"\225\010v%\216\267\270-\352;\024\260\366\302B\371\335"
 883      8EB7B82D 
 883      EA3B14B0 
 883      F6C242F9 
 883      DD
 884 22ba C83C274D 		.ascii	"\310<'MJ7\306\221[icG\267\310\221s'y\233\006\335+GN"
 884      4A37C691 
ARM GAS  /tmp/ccFCzHlo.s 			page 72


 884      5B696347 
 884      B7C89173 
 884      27799B06 
 885 22d2 B761AB4D 		.ascii	"\267a\253Mw\315\221\363#\312\371Q\345\334K\273\257\307"
 885      77CD91F3 
 885      23CAF951 
 885      E5DC4BBB 
 885      AFC7
 886 22e4 63A7A404 		.ascii	"c\247\244\004]\002\335U\247\\zJ\240\333\353\224S\217"
 886      5D02DD55 
 886      A75C7A4A 
 886      A0DBEB94 
 886      538F
 887 22f6 40F7D9C5 		.ascii	"@\367\331\305\022\340\3745\217x!v\032\371kL\256K/\255"
 887      12E0FC35 
 887      8F782176 
 887      1AF96B4C 
 887      AE4B2FAD 
 888 230a FDEF4F2B 		.ascii	"\375\357O+\211&\313\327@\254N\3653F\362\243ZIp\037-"
 888      8926CBD7 
 888      40AC4EF5 
 888      3346F2A3 
 888      5A49701F 
 889 231f 2288BBB5 		.ascii	"\"\210\273\265\205\024\231\367-<\032\013\250\351m\025"
 889      851499F7 
 889      2D3C1A0B 
 889      A8E96D15 
 890 232f A82A31D0 		.ascii	"\250*1\320^\235\362Y\330\241\277\034\031(\223\371?\021"
 890      5E9DF259 
 890      D8A1BF1C 
 890      192893F9 
 890      3F11
 891 2341 EEDE8958 		.ascii	"\356\336\211XC\265X\257\253P\352\022\345\375\\\351\244"
 891      43B558AF 
 891      AB50EA12 
 891      E5FD5CE9 
 891      A4
 892 2352 D384F423 		.ascii	"\323\204\364#\027\344N\362\375\025\002q\314\025\025"
 892      17E44EF2 
 892      FD150271 
 892      CC1515
 893 2361 46EDFB44 		.ascii	"F\355\373D|'\224\013g\360{%*\037\221:\027\325\220gU"
 893      7C27940B 
 893      67F07B25 
 893      2A1F913A 
 893      17D59067 
 894 2376 0E4627E4 		.ascii	"\016F'\344\340\340O\310\201\274#\262\374#\362\3661Y"
 894      E0E04FC8 
 894      81BC23B2 
 894      FC23F2F6 
 894      3159
 895 2388 F1ABE99B 		.ascii	"\361\253\351\233\235'j\231\210\333\337\375\255?6\012"
 895      9D276A99 
 895      88DBDFFD 
 895      AD3F360A 
 896 2398 A6D83B82 		.ascii	"\246\330;\202\027\331\026Y:\337/\217\244p\261\327\036"
 896      17D91659 
ARM GAS  /tmp/ccFCzHlo.s 			page 73


 896      3ADF2F8F 
 896      A470B1D7 
 896      1E
 897 23a9 B22F4024 		.ascii	"\262/@$/\304P`\343\3362t\304\257\276eH]\330m(\206\357"
 897      2FC45060 
 897      E3DE3274 
 897      C4AFBE65 
 897      485DD86D 
 898 23c0 FC76975A 		.ascii	"\374v\227Z\377\323\257\277\324Z\035np\010\263\022\012"
 898      FFD3AFBF 
 898      D45A1D6E 
 898      7008B312 
 898      0A
 899 23d1 FF684C93 		.ascii	"\377hL\223\232\271E\3778o\010S\204\367X\277\243\263"
 899      9AB945FF 
 899      386F0853 
 899      84F758BF 
 899      A3B3
 900 23e3 B1DB71D2 		.ascii	"\261\333q\322\237\"h~F\267\036\213y(\032\277\346\250"
 900      9F22687E 
 900      46B71E8B 
 900      79281ABF 
 900      E6A8
 901 23f5 C1282E49 		.ascii	"\301(.Iu\3120\025\031y2Ju\332 \225u\211\234\3256\015"
 901      75CA3015 
 901      1979324A 
 901      75DA2095 
 901      75899CD5 
 902 240b 24A70977 		.ascii	"$\247\011w\343\223\033\317\030rL\024\311(\3259\303T"
 902      E3931BCF 
 902      18724C14 
 902      C928D539 
 902      C354
 903 241d A491321C 		.ascii	"\244\2212\034\3071L\265\336$\325\005\303TkLR5\032\246"
 903      C7314CB5 
 903      DE24D505 
 903      C3546B4C 
 903      52351AA6 
 904 2431 AA334975 		.ascii	"\2523Iu\3210\325\"\223T\227\014S\3156I\365\203a\252"
 904      D130D522 
 904      9354970C 
 904      53CD3649 
 904      F58361AA 
 905 2445 A926A92E 		.ascii	"\251&\251.\033\246\2525Iu\3050\325x\223TW\015S\2357"
 905      1BA6AA35 
 905      4975C530 
 905      D5789354 
 905      570D539D 
 906 245a D1E66BB1 		.ascii	"\321\346k\261Tz\023\363\321\251\212\327\205\350\020"
 906      547A13F3 
 906      D1A98AD7 
 906      85E810
 907 2469 EAA57F0E 		.ascii	"\352\245\177\016=#.\3011\324\353~l\331\036K<\303\317"
 907      3D232EC1 
 907      31D4EB7E 
 907      6CD91E4B 
 907      3CC3CF
ARM GAS  /tmp/ccFCzHlo.s 			page 74


 908 247c 019107DF 		.ascii	"\001\221\007\337\362kf\370o\323\2277\221\353\202\216"
 908      F26B66F8 
 908      6FD39737 
 908      91EB828E 
 909 248c 57A4FC94 		.ascii	"W\244\374\224-wM\007&\352\274I\235\244\325\313h\324"
 909      2D774D07 
 909      26EABC49 
 909      9DA4D5CB 
 909      68D4
 910 249e 000A82DE 		.ascii	"\000\012\202\336\\\001\331\302W\037\267\277\331\016"
 910      5C01D9C2 
 910      571FB7BF 
 910      D90E
 911 24ac 582A0736 		.ascii	"X*\0076\262\236\331\\8\024\205\223\000\314d\263\364"
 911      B29ED95C 
 911      38148593 
 911      00CC64B3 
 911      F4
 912 24bd 68166C84 		.ascii	"h\026l\204m0\236\263\261l6\337\265\222M\223\315\322"
 912      6D309EB3 
 912      B16C36DF 
 912      B5924D93 
 912      CDD2
 913 24cf E358CEC6 		.ascii	"\343X\316\306Z\341\314d\263\364\004\026l\202\0250\223"
 913      5AE1CC64 
 913      B3F40416 
 913      6C821530 
 913      93
 914 24e0 CDD21359 		.ascii	"\315\322\023Y\260Z\333`<g5,\3304+`\251\306\234\315c"
 914      B05ADB60 
 914      3C67352C 
 914      D8342B60 
 914      A9C69CCD 
 915 24f5 C166D906 		.ascii	"\301f\331\006\3439[\300\202\315\265\002f\262Yz\021\013"
 915      E3395BC0 
 915      82CDB502 
 915      66B2597A 
 915      110B
 916 2507 B6D03618 		.ascii	"\266\3206\030\317\331\022\026l\251\0250\303\315\322"
 916      CFD91216 
 916      6CA91530 
 916      C3CDD2
 917 2516 FD23CBFE 		.ascii	"\375#\313\376k\270\304nHc\276L\242}g0{\3331\263W\013"
 917      6BB8C46E 
 917      4863BE4C 
 917      A27D6730 
 917      7BDB31B3 
 918 252c 5727A97E 		.ascii	"W'\251~\327q\366%R\314\251$nqk\352\207\356\312!\223"
 918      D771F625 
 918      52CCA924 
 918      6E716BEA 
 918      87EECA21 
 919 2541 8DD975AC 		.ascii	"\215\331u\254\024VX\221\302s\306`+Y\260\210\0250\223"
 919      14565891 
 919      C273C660 
 919      2B59B088 
 919      153093
ARM GAS  /tmp/ccFCzHlo.s 			page 75


 920 2554 1DCBAB59 		.ascii	"\035\313\253Y\260/l\203\361\234mc\301\276\264\002\326"
 920      B02F6C83 
 920      F19C6D63 
 920      C1BEB402 
 920      D6
 921 2565 C398B31D 		.ascii	"\303\230\263\035,\330W\266\301X\316\372Gv\3054\247\366"
 921      2CD857B6 
 921      C158CEFA 
 921      4776C534 
 921      A7F6
 922 2577 398DEA3C 		.ascii	"9\215\352<\307\233K\3566Fu4\267I\342\224\250\346\250"
 922      C79B4BEE 
 922      36467534 
 922      B749E294 
 922      A8E6A8
 923 258a EEB5F6D4 		.ascii	"\356\265\366\324!\354\320\362\315\241(Q\275\005\004"
 923      21ECD0F2 
 923      CDA12851 
 923      BD0504
 924 2599 7A3FB6A9 		.ascii	"z?\266\251\224\304\333~2\333w\307Of\215\233\220\312"
 924      94C4DB7E 
 924      32DB77C7 
 924      4F668D9B 
 924      90CA
 925 25ab 49845622 		.ascii	"I\204V\"\035\210\364\035\244\203\220\016F\372\036\322"
 925      1D88F41D 
 925      A483900E 
 925      46FA1ED2 
 926 25bb F7917E80 		.ascii	"\367\221~\200t\004\322QH\307 \035\207t\002\322\211H"
 926      7404D251 
 926      48C7201D 
 926      877402D2 
 926      8948
 927 25cd 6B90D622 		.ascii	"k\220\326\"\3758\211\231`\324\370\027\327\015\012\210"
 927      FD388999 
 927      60D4F817 
 927      D70D0A88 
 928 25dd F03E2DC9 		.ascii	"\360>-\311\310+\271d\342\225L7L5\322\304\003\232a\230"
 928      C82BB964 
 928      E2954C37 
 928      4C35D2C4 
 928      039A6198 
 929 25f1 6AA849AA 		.ascii	"j\250I\252\231\206\251\006\232\244\372\3240\325m\223"
 929      9986A906 
 929      9AA4FAD4 
 929      30D56D93 
 930 2601 7CCD324C 		.ascii	"|\3152Lu\325$\325l\303Td/\225Q\252\317b\251\224=[\207"
 930      75D524D5 
 930      6CC35464 
 930      2F9551AA 
 930      CF62A994 
 931 2618 CF0DBD83 		.ascii	"\317\015\275\203_x\300\316j\255O\323c9b2\244:7\351~"
 931      5F78C0CE 
 931      6AAD4FD3 
 931      63396232 
 931      A43A37E9 
 932 262d 25A6F652 		.ascii	"%\246\366R\034\302\207\277\326\216^)k\225\027\314 K"
ARM GAS  /tmp/ccFCzHlo.s 			page 76


 932      1CC287BF 
 932      D68E5E29 
 932      6B9517CC 
 932      204B
 933 263f 0E8E28EB 		.ascii	"\016\216(\353\006\346$\231\256\033\230\227\304\215u"
 933      06E62499 
 933      AE1B9897 
 933      C48D75
 934 264e 09BF4FEB 		.ascii	"\011\277O\353SZ\034L\313/-x+\255 \3307-\277Oa\317\302"
 934      535A1C4C 
 934      CB2F2D78 
 934      2BAD20D8 
 934      372DBF4F 
 935 2665 D2F2B470 		.ascii	"\322\362\264p\250\242\344\357i\020\351#\025\245\025"
 935      A8A2E4EF 
 935      6910E923 
 935      15A515
 936 2674 96E41755 		.ascii	"\226\344\027U\024\004\323\312\203\241B\251\350\311>"
 936      1404D3CA 
 936      83A142A9 
 936      E8C93E
 937 2683 424A2EC6 		.ascii	"BJ.\306\262C\205}\203!\317\013/\275\234\232%\264d\257"
 937      B243857D 
 937      8321CF0B 
 937      2FBD9C9A 
 937      25B464AF 
 938 2697 BDD22D2F 		.ascii	"\275\322-/3\255\242<\224VT\3303\255w~~\232\024*~\242"
 938      33ADA23C 
 938      945654D8 
 938      33AD777E 
 938      7E9A142A 
 939 26ad A4B424F8 		.ascii	"\244\264$\370DP\352Y\230\326\376\311\016O\266\217\301"
 939      4450EA59 
 939      98D6FEC9 
 939      0E4FB68F 
 939      C1
 940 26be 860B0A82 		.ascii	"\206\013\012\202\275\000\326S^\370\217` \374(\246\344"
 940      BD00D653 
 940      5EF88F60 
 940      20FC28A6 
 940      E4
 941 26cf 5330F716 		.ascii	"S0\367\026\226\204\341^o\005\034;\004\302\355Mn.\226"
 941      9684E15E 
 941      6F051C3B 
 941      04C2ED4D 
 941      6E2E96
 942 26e2 203B25C1 		.ascii	" ;%\301\264\000\300K\025E\341@\370\255\262`9$\366\007"
 942      B400C04B 
 942      1545E140 
 942      F8ADB260 
 942      3924F607 
 943 26f6 024A72F7 		.ascii	"\002Jr\367\233\241\302p\320\025\012J\005]\022\211\""
 943      9BA1C270 
 943      D0150A4A 
 943      055D1289 
 943      22
 944 2707 144E2B2B 		.ascii	"\024N++\015\205\313\323:\346t\313\352\326\017\356,."
ARM GAS  /tmp/ccFCzHlo.s 			page 77


 944      0D85CBD3 
 944      3AE674CB 
 944      EAD60FEE 
 944      2C2E
 945 2719 2B2C0A86 		.ascii	"+,\012\206\312\323^\310\312\202\333Utwqy\357@\330\013"
 945      CAD35EC8 
 945      CA82DB55 
 945      74777179 
 945      EF40D80B 
 946 272d 0F689719 		.ascii	"\017h\227\031\010\303\263\224\230\263\254\"\354\354"
 946      08C3B394 
 946      98B3AC22 
 946      ECEC
 947 273b 1D0C77B0 		.ascii	"\035\014w\260\360 5\013\371}\312\337*\217\262M\342\205"
 947      F020350B 
 947      F97DCADF 
 947      2A8FB24D 
 947      E285
 948 274d C520225F 		.ascii	"\305 \"_\205\202\231DsB\242.\200\017\273\000?\354\301"
 948      85829944 
 948      7342A22E 
 948      800FBB00 
 948      3FECC1
 949 2760 4C85DD24 		.ascii	"L\205\335$Wag\337\342\360S\266\236\030\354\033,\011"
 949      576167DF 
 949      E2F053B6 
 949      9E18EC1B 
 949      2C09
 950 2772 93E7B5C0 		.ascii	"\223\347\265\300X\240\274\264\"\224\017\017MaO[\321"
 950      58A0BCB4 
 950      22940F0F 
 950      4D614F5B 
 950      D1
 951 2783 93A2C2F2 		.ascii	"\223\242\302\362p\260$\030\012\204[\360\027\274\301"
 951      70B02418 
 951      0A845BF0 
 951      17BCC1
 952 2792 A24049B0 		.ascii	"\242@I\260_\330\027\356C\330\0009\344\367\011\320x{"
 952      5FD817EE 
 952      43D80039 
 952      E4F709D0 
 952      787B
 953 27a4 7BF9CFEF 		.ascii	"{\371\317\357S@t\243\014\341\340P\026\012\366\365\206"
 953      534074A3 
 953      0CE1E050 
 953      160AF6F5 
 953      86
 954 27b5 CB4285A5 		.ascii	"\313B\205\245\001zZX\352\315/-\011\303\277\317\330."
 954      017A5A58 
 954      EACD2F2D 
 954      09C3BFCF 
 954      D82E
 955 27c7 C23EF9A5 		.ascii	"\302>\371\245\241 \300'\223"
 955      A120C027 
 955      93
 956 27d0 CBA4A0F2 		.ascii	"\313\244\240\362\303\375\376W\363P\002}\237.\006$_("
 956      C3FDFE57 
ARM GAS  /tmp/ccFCzHlo.s 			page 78


 956      F350027D 
 956      9F2E0624 
 956      5F28
 957 27e2 D81BD411 		.ascii	"\330\033\324\021\212\273<\343)\010OC\350\000\341\031"
 957      8ABB3CE3 
 957      29084F43 
 957      E800E119 
 958 27f2 6779663A 		.ascii	"gyf:\204\014\010\231\020\332Ah\017\341\367\020\340\276"
 958      840C0899 
 958      10DA4168 
 958      0FE1F710 
 958      E0BE
 959 2804 4CB82F13 		.ascii	"L\270/\023\356\313\204\373\332\301}\3552\034\241\366"
 959      EECB84FB 
 959      DAC17DED 
 959      321CA1F6 
 960 2814 8ED0EF1D 		.ascii	"\216\320\357\035\241\247\034\241\247\035\241\016\216"
 960      A1A71CA1 
 960      A71DA10E 
 960      8E
 961 2821 D033CE50 		.ascii	"\3203\316PF:\204\014GQ\010\016\355\334e\001\340\326"
 961      463A840C 
 961      4751080E 
 961      EDDC6501 
 961      E0D6
 962 2833 4B04F326 		.ascii	"K\004\363&\010\274,PZT\020\014\271\362\373H!\"-\251"
 962      08BC2C50 
 962      5A54100C 
 962      B9F2FB48 
 962      21222DA9 
 963 2847 38E80B97 		.ascii	"8\350\013\227\207\2450\024\035\374\2111o\270\270\264"
 963      87A53014 
 963      1DFC8931 
 963      6FB8B8B4 
 964 2857 809EF72A 		.ascii	"\200\236\367*\222z\227{\303\241`\257r\224#\211xB\005"
 964      927A977B 
 964      C3A160AF 
 964      72942389 
 964      784205
 965 286a 6F81F2FA 		.ascii	"o\201\362\372\202\375\012\303\220\375\240\347\315pi"
 965      82FD0AC3 
 965      90FDA0E7 
 965      CD7069
 966 2879 CFBF9525 		.ascii	"\317\277\225%c\321\026K\345\177\207;\203o\222\210\263"
 966      63D1164B 
 966      E57F873B 
 966      836F9288 
 966      B3
 967 288a 2C50D182 		.ascii	",P\321\202\026g9\226y \3342Z\300\364\212\277,\360\246"
 967      16673996 
 967      7920DC32 
 967      5AC0F48A 
 967      BF2CF0A6 
 968 289e 54182E2C 		.ascii	"T\030.,\351\335R\275\374FE\260\002\236\336\212\271\023"
 968      E9DD52BD 
 968      FC4645B0 
 968      029EDE8A 
ARM GAS  /tmp/ccFCzHlo.s 			page 79


 968      B913
 969 28b0 2F259505 		.ascii	"/%\225\005\340\261\030uc\024.\004\313\202%P\327{\273"
 969      E0B11875 
 969      63142E04 
 969      CB822550 
 969      D77BBB
 970 28c3 8B2BA068 		.ascii	"\213+\240h\333\331\322\231\342p?b\"\212):\034K\337$"
 970      DBD9D299 
 970      E2703F62 
 970      228A293A 
 970      1C4BDF24 
 971 28d7 2A894890 		.ascii	"*\211H\220\205bT%\340\017\356#\234&\221\334KE\250Ip"
 971      85625425 
 971      E00FEE23 
 971      9C2691DC 
 971      4B45A849 
 972 28ec B1ACB4B4 		.ascii	"\261\254\264\264(\031\324WUe?\304i\235\2405\000%\007"
 972      2819D457 
 972      55653FC4 
 972      699DA035 
 972      002507
 973 28ff 75102E63 		.ascii	"u\020.c\224\374\377&\025g\260\034\241\335x\237\277\274"
 973      94FCFF26 
 973      1567B01C 
 973      A1DD789F 
 973      BFBC
 974 2911 4011BF3F 		.ascii	"@\021\277?7;\360\362K]_\352\232\347\205Xn^\367\036>"
 974      373BF0F2 
 974      4B5D5FEA 
 974      9AE78558 
 974      6E5EF71E 
 975 2926 38E674EA 		.ascii	"8\346t\352\230\375\232\033o\261WA1W\244\202\336UX\002"
 975      98FD9A1B 
 975      6FB15741 
 975      3157A482 
 975      DE555802 
 976 293a 955E156B 		.ascii	"\225^\025k\022\324\010%\352S\243\3767\324B\200X~i\005"
 976      12D40825 
 976      EA53A3FE 
 976      37D44280 
 976      587E6905 
 977 294e 549390EF 		.ascii	"T\223\220\357\215@\317\212^\275\202!\367\033\201pi\231"
 977      8D40CF8A 
 977      5EBD8221 
 977      F71B8170 
 977      6999
 978 2960 176E0995 		.ascii	"\027n\011\225\205Cp\014\025\300\321\377FIi\270\260\327"
 978      8543700C 
 978      15C0D1FF 
 978      464969B8 
 978      B0D7
 979 2972 5B80F246 		.ascii	"[\200\362F\200F=o\2000J\376\356)D\314\026\245\025a\346"
 979      80463D6F 
 979      80304AFE 
 979      EE2944CC 
 979      16A51561 
 980 2987 B19E528C 		.ascii	"\261\236R\2148\012{:J{\376!QF@:iY\335r\273\346\246\345"
ARM GAS  /tmp/ccFCzHlo.s 			page 80


 980      380A7B3A 
 980      4A7BFE21 
 980      5146403A 
 980      6959DD72 
 981 299f E681352F 		.ascii	"\346\2015/n\227\331\253}zF\277|\222\233\227s;\346\344"
 981      6E97D9AB 
 981      7D7A46BF 
 981      7C929B97 
 981      733BE6E4 
 982 29b3 05F2C0DA 		.ascii	"\005\362\300\332e\007{9rs\034\3319\316\347sr\234Y9\031"
 982      65077B39 
 982      72731CD9 
 982      39CEE773 
 982      729C5939 
 983 29c8 103221B4 		.ascii	"\0202!\264s\275\220\327#\307]Q.\205\302\356\300\363"
 983      73BD90D7 
 983      23C75D51 
 983      2E85C2EE 
 983      C0F3
 984 29da 505077D3 		.ascii	"PPw\323\006\247<\255\270\374\367O\245?M* \215\005\302"
 984      06A73CAD 
 984      B8FCF74F 
 984      A53F4D2A 
 984      208D05C2 
 985 29ee F7A97F15 		.ascii	"\367\251\177\025f\346\007\312\203%\345\245!R\323\273"
 985      66E607CA 
 985      8325E5A5 
 985      2152D3BB 
 986 29fe 6666E5E2 		.ascii	"ff\345\342\011\250l,\216\305\340\353\372R\307\254\274"
 986      09A86C2C 
 986      8EC5E0EB 
 986      FA52C7AC 
 986      BC
 987 2a0f AEAF7472 		.ascii	"\256\257tru\315~\261\223\353\371\227s_\363J\005\005"
 987      75CD7EB1 
 987      93EBF997 
 987      735FF34A 
 987      0505
 988 2a21 A1607979 		.ascii	"\241`yy\266\225\206\222Z\205\334\274n\3552\323^|1;\015"
 988      B6958692 
 988      5A85DCBC 
 988      6EED32D3 
 988      5E7C313B 
 989 2a36 E0FB66E0 		.ascii	"\340\373f\340\343\213\212\210\021\363\303\005\312T\246"
 989      E38B8A88 
 989      11F3C305 
 989      CA54A6
 990 2a45 9D761700 		.ascii	"\235v\027\000 q\022\034\024}J\002\034E\241|$J4\212`"
 990      2071121C 
 990      147D4A02 
 990      1C45A17C 
 990      244A348A 
 991 2a5a 5395BA8B 		.ascii	"S\225\272\213\304h>\002y\257\262g9\257b\312\027\273"
 991      C4683E02 
 991      79AFB267 
 991      39AF62CA 
 991      17BB
ARM GAS  /tmp/ccFCzHlo.s 			page 81


 992 2a6c 67FDEF4E 		.ascii	"g\375\357N\331\311\200WZF\355AR\367\036\335\272gw\012"
 992      D9C98057 
 992      5A46ED41 
 992      52F71EDD 
 992      BA67770A 
 993 2a80 C0BFF728 		.ascii	"\300\277\367(\321\334n\220\375@v\247W\272fu\272\233"
 993      D1DC6E90 
 993      FD4076A7 
 993      57BA6675 
 993      BA9B
 994 2a92 BBD6A57B 		.ascii	"\273\326\245{n\236\267\024*\012$M\316/*\315\377{\240"
 994      6E9EB714 
 994      2A0A244D 
 994      CE2F2ACD 
 994      FF7BA0
 995 2aa5 BC2C182C 		.ascii	"\274,\030,h\001\200\005\025\341\267\362\337\312/\002"
 995      68018005 
 995      15E1B7F2 
 995      DFCA2F02 
 996 2ab5 CC16B979 		.ascii	"\314\026\271y\331\201\354\227\363^\013d\275\226\365"
 996      D981EC97 
 996      F35E0B64 
 996      BD96F5
 997 2ac4 62A7BB3B 		.ascii	"b\247\273;w\314\315c\316\003\231\367j\257d<\025x&\211"
 997      77CCCD63 
 997      CE0399F7 
 997      6AAF643C 
 997      15782689 
 998 2ad8 20041082 		.ascii	" \004\020\202\344(\253\264\244WaoO>\036\210\004\224"
 998      E428ABB4 
 998      A457616F 
 998      4F3E1E88 
 998      0494
 999 2aea CAE70986 		.ascii	"\312\347\011\206B\245\241\362\247m\325\033\305\346\200"
 999      42A5A1F2 
 999      A76DD51B 
 999      C5E680
 1000 2af9 2C5B2BAD 		.ascii	",[+\255\022\030\275`(XBZ7\017\275\344\207g\220\"W\332"
 1000      1218BD60 
 1000      2858425A 
 1000      370FBDE4 
 1000      87679022 
 1001 2b0f 5860496D 		.ascii	"X`ImcI\324E\376\362\207\372\025\024K$\367\376\260\032"
 1001      6349D445 
 1001      FEF287FA 
 1001      15144B24 
 1001      F7FEB01A 
 1002 2b23 EB6C573D 		.ascii	"\353lW=\220vn\337\257\037\255\004\001\300!|ew\353\030"
 1002      90766EDF 
 1002      AF1FAD04 
 1002      01C0217C 
 1002      6577EB18 
 1003 2b37 C805A32C 		.ascii	"\310\005\243,\025G\353AV\216\353\245\354\274\034g\217"
 1003      1547EB41 
 1003      568EEBA5 
 1003      ECBC1C67 
 1003      8F
ARM GAS  /tmp/ccFCzHlo.s 			page 82


 1004 2b48 8E39AE6E 		.ascii	"\2169\256n\351\204dt\314qv\316\312\361\224\343\215\256"
 1004      E9846474 
 1004      CC7176CE 
 1004      CAF194E3 
 1004      8DAE
 1005 2b5a C25EF921 		.ascii	"\302^\371!Oay\237\302^`r\202E\275\012K\012\202\375<"
 1005      4F61799F 
 1005      C25E6072 
 1005      8245BD0A 
 1005      4B0A82FD 
 1006 2b6f 7D83F9E1 		.ascii	"}\203\371\341\322P\353(z\200\336\015.\017\234\204\372"
 1006      D250EB28 
 1006      7A80DE0D 
 1006      2E0F9C84 
 1006      FA
 1007 2b80 111AEE47 		.ascii	"\021\032\356G*\203\372 W\367\2169\031\204d:s\241\302"
 1007      2A83FA20 
 1007      57F78E39 
 1007      1984643A 
 1007      73A1C2
 1008 2b93 E5920A97 		.ascii	"\345\222\012\227\225\343\316\313\351\232\333\311\325"
 1008      95E3CECB 
 1008      E99ADBC9 
 1008      D5
 1009 2ba0 F945E000 		.ascii	"\371E\340\000D\343%\376\007\324\177\027i^\334\341~\317"
 1009      44E325FE 
 1009      07D47F17 
 1009      695EDCE1 
 1009      7ECF
 1010 2bb2 57F47287 		.ascii	"W\364r\207\010\365\320\012\346\314\227\212|ERy8/X\\"
 1010      08F5D00A 
 1010      E6CC978A 
 1010      7C455279 
 1010      382F585C 
 1011 2bc6 E627911E 		.ascii	"\346'\221\036\244\366\370\360N\220\265/\244D\242\365"
 1011      A4F6F8F0 
 1011      4E90B52F 
 1011      A444A2F5 
 1012 2bd6 B6BCF0E9 		.ascii	"\266\274\360\351\364~\351\244\336\322X |\267\022\201"
 1012      F47EE9A4 
 1012      DED25820 
 1012      7CB71281 
 1013 2be6 84A54515 		.ascii	"\204\245E\025\341\302\322\022w\227\016y\031\231\236"
 1013      E1C2D212 
 1013      77970E79 
 1013      19999E
 1014 2bf5 2E19E979 		.ascii	".\031\351y\031\355\340\220\221\227\221\001\207\314\274"
 1014      19EDE090 
 1014      91979101 
 1014      87CCBC
 1015 2c04 8CF64EB8 		.ascii	"\214\366N\270\313\323'\010\325\"\006\031..\313|\372"
 1015      CBD32708 
 1015      D5220619 
 1015      2E2ECB7C 
 1015      FA
 1016 2c15 F70492C6 		.ascii	"\367\004\222\306\002a\333\2657V<RA\264\366v\314nN\355"
 1016      0261DBB5 
ARM GAS  /tmp/ccFCzHlo.s 			page 83


 1016      37563C52 
 1016      41B4F676 
 1016      CC6E4EED 
 1017 2c29 0500527B 		.ascii	"\005\000R{\341\240\326^\300Qk/\211b\355%\021\254\275"
 1017      E1A0D65E 
 1017      C0516B2F 
 1017      8962ED25 
 1017      11ACBD
 1018 2c3c F82FADAF 		.ascii	"\370/\255\257)$\232\325\275[\217\027;\345u\302;:\345"
 1018      29249AD5 
 1018      BD5B8F17 
 1018      3BE575C2 
 1018      3B3AE5
 1019 2c4f E474CF71 		.ascii	"\344t\317q\027T\024\027\277E\316i\355H&\320Rq\031\251"
 1019      17541417 
 1019      BF45CE69 
 1019      ED4826D0 
 1019      527119A9 
 1020 2c63 745E1A29 		.ascii	"t^\032)w\027\004\313\302}|\371\205\241\374\212\")\324"
 1020      771704CB 
 1020      C27D7CF9 
 1020      85A1FC8A 
 1020      2229D4
 1021 2c76 9AE4021C 		.ascii	"\232\344\002\034\203\222\222`\0214Q\025\240\006)\204"
 1021      83929260 
 1021      11345115 
 1021      A0062984 
 1022 2c86 AA97EE82 		.ascii	"\252\227\356\202\377\241\344\212zJ\371\330\306\227\024"
 1022      FFA1E48A 
 1022      7A4AF9D8 
 1022      C69714
 1023 2c95 04F27B12 		.ascii	"\004\362{\022\226\261\232\005\302\255\225\207\007@?"
 1023      96B19A05 
 1023      C2AD9587 
 1023      07403F
 1024 2ca4 3B77ECFA 		.ascii	";w\354\372\342\3139\235Z\251\227\272\277\322)\247\363"
 1024      E2CB399D 
 1024      5AA997BA 
 1024      BFD229A7 
 1024      F3
 1025 2cb5 8BDDFFD2 		.ascii	"\213\335\377\322Z\275=\006\344\243\311\363{:\363C\031"
 1025      5ABD3D06 
 1025      E4A3C9F3 
 1025      7B3AF343 
 1025      19
 1026 2cc6 1032DDE5 		.ascii	"\0202\335\345\305e\241\014\244\231\256\3627B\031\204"
 1026      C565A10C 
 1026      A499AEF2 
 1026      37421984 
 1027 2cd6 60AC5D6B 		.ascii	"`\254]k\232\037R\200P\342/\204J+\312\\\275Cee\311\344"
 1027      9A1F5280 
 1027      50E22F84 
 1027      4A2BCA5C 
 1027      BD436565 
 1028 2cec 398A8ABA 		.ascii	"9\212\212\272s\273\365\310\311@\232\351\376S\367\316"
 1028      73BBF5C8 
 1028      C9409AE9 
ARM GAS  /tmp/ccFCzHlo.s 			page 84


 1028      FE53F7CE 
 1029 2cfc 102794C6 		.ascii	"\020'\224\306\333!m\357\354\002\232\012\332\352\312"
 1029      DB216DEF 
 1029      EC029A0A 
 1029      DAEACA
 1030 2d0b FD33A833 		.ascii	"\3753\2503\220LB\332\271\376\004\324\365\247l\270\006"
 1030      904C42DA 
 1030      B9FE04D4 
 1030      F5A76CB8 
 1030      06
 1031 2d1c 24939076 		.ascii	"$\223\220v\204\264w\002\333\036\250\014\345\3412\257"
 1031      84B47702 
 1031      DB1EA80C 
 1031      E5E132AF 
 1032 2d2c 5299A38A 		.ascii	"R\231\243\212\324\023\324\247\003\352&\215\201\324\242"
 1032      D413D4A7 
 1032      03EA268D 
 1032      81D4A2
 1033 2d3b 2A5D110A 		.ascii	"*]\021\012\212yb\217\350\275E\345\305\355\322\333\221"
 1033      8A79628F 
 1033      E8BD45E5 
 1033      C5EDD2DB 
 1033      91
 1034 2d4c 7B690C5A 		.ascii	"{i\014Z})?\237\266.\376b\2517\215yh\267\303\207\235"
 1034      7D293F9F 
 1034      B62EFE62 
 1034      A9378D79 
 1034      68B7C387 
 1035 2d61 0288A448 		.ascii	"\002\210\244H\320\024\253\015sJ1s\002\266E\242U\005"
 1035      D014AB0D 
 1035      734A3173 
 1035      02B645A2 
 1035      5505
 1036 2d73 62C54A2C 		.ascii	"b\305J,\024\275\026R\257%\364\214\372J\340\327T\224"
 1036      14BD1652 
 1036      AF25F48C 
 1036      FA4AE0D7 
 1036      5494
 1037 2d85 C31FE0E0 		.ascii	"\303\037\340\340\200\367\002,\3323\233\324p\020\263"
 1037      80F7022C 
 1037      DA339BD4 
 1037      7010B3
 1038 2d94 79EFF352 		.ascii	"y\357\363Ry07\010\355}I\030\372z\324P\265\321\273\010"
 1038      79303708 
 1038      ED7D4918 
 1038      FA7AD450 
 1038      B5D1BB08 
 1039 2da8 1D409FFA 		.ascii	"\035@\237\372@'D\234\275\212\303\255\312\225f\027\015"
 1039      4027449C 
 1039      BD8AC3AD 
 1039      CA956617 
 1039      0D
 1040 2db9 ED93F942 		.ascii	"\355\223\371B\012\210\276[P*\351\\T*\205=\324'I\241"
 1040      0A88BE5B 
 1040      502AE95C 
 1040      542A853D 
 1040      D42749A1 
ARM GAS  /tmp/ccFCzHlo.s 			page 85


 1041 2dcd 87EEBD7A 		.ascii	"\207\356\275z\225\007\303\376\222,EA\223\351\345l\324"
 1041      9507C3FE 
 1041      922C4541 
 1041      93E9E56C 
 1041      D4
 1042 2dde 6A25D92B 		.ascii	"j%\331+^%\222B\201\363\020\327)\205zk\236\004=\031\366"
 1042      5E259242 
 1042      81F310D7 
 1042      29857A6B 
 1042      9E043D19 
 1043 2df3 0E2899F2 		.ascii	"\016(\231\362\242`\260,\017L\231\027r\\\002\336\221"
 1043      A260B02C 
 1043      0F4C9917 
 1043      725C02DE 
 1043      91
 1044 2e04 02912D85 		.ascii	"\002\221-\205%\360\334\301/\364\206\301\200=_\\\206"
 1044      25F0DCC1 
 1044      2FF486C1 
 1044      803D5F5C 
 1044      86
 1045 2e15 47B02178 		.ascii	"G\260!x\314\011\027$\221c7\3640|eD\017\340\036?F\272"
 1045      CC091724 
 1045      916337F4 
 1045      307C6544 
 1045      0FE01E3F 
 1046 2e2b 95F52B4E 		.ascii	"\225\365+N\2461\374\333\333\247\242\270\240kI\030\217"
 1046      A631FCDB 
 1046      DBA7A2B8 
 1046      A06B4918 
 1046      8F
 1047 2e3c 9DA02744 		.ascii	"\235\240'D\216O\245\267Kw\201^\274J\310k\204\374\325"
 1047      8E4FA5B7 
 1047      4B77815E 
 1047      BC4AC86B 
 1047      84FCD5
 1048 2e4f 05CAF12A 		.ascii	"\005\312\361*!\257\021\362WW\001\360\340\241\372\346"
 1048      21AF11F2 
 1048      575701F0 
 1048      E0A1FAE6 
 1049 2e5f A1AAE4A1 		.ascii	"\241\252\344\241\036\215\037\204\231\013\24613\335\017"
 1049      1E8D1F84 
 1049      990BA631 
 1049      33DD0F
 1050 2e6e 5E148D79 		.ascii	"^\024\215y\250\205k\305\346/\027\234:[\275o\220\030"
 1050      A8856BC5 
 1050      E62F179C 
 1050      3A5BBD6F 
 1050      9018
 1051 2e80 7197FB4A 		.ascii	"q\227\373J\350\362\266\010\004z\227T\344\007\224\323"
 1051      E8F2B608 
 1051      047A9754 
 1051      E40794D3 
 1052 2e90 E4FFEC59 		.ascii	"\344\377\354YQX\024~\242\260\344\217\244\337\254\\\205"
 1052      5158147E 
 1052      A2B0E48F 
 1052      A4DFAC5C 
 1052      85
ARM GAS  /tmp/ccFCzHlo.s 			page 86


 1053 2ea1 DE5C5F5A 		.ascii	"\336\\_Z\272\340\366\347\365)\310%\002}\031\024\240"
 1053      BAE0F6E7 
 1053      F529C825 
 1053      027D1914 
 1053      A0
 1054 2eb2 28E9C9B4 		.ascii	"(\351\311\264\236\245R\210H=\031#\271\301\360\213\235"
 1054      9EA55288 
 1054      483D1923 
 1054      B9C1F08B 
 1054      9D
 1055 2ec3 B25BA8F5 		.ascii	"\262[\250\365$\024\306\277r\3009\350\233WJ\232\211{"
 1055      2414C6BF 
 1055      72C039E8 
 1055      9B574A9A 
 1055      897B
 1056 2ed5 A22E1C48 		.ascii	"\242.\034H03#=\023\376oI\342\257\344\225\252U\355\027"
 1056      3033233D 
 1056      13FE6F49 
 1056      E2AFE495 
 1056      AA55ED17 
 1057 2ee9 8A5347F2 		.ascii	"\212SG\362\247^#i\203!)\014\321\373\243M\206T\300\\"
 1057      A75E2369 
 1057      8321290C 
 1057      D1FBA34D 
 1057      8654C05C 
 1058 2efd BE87B9DC 		.ascii	"\276\207\271\334\245\242\270\260\2400\374\326\375J\233"
 1058      A5A2B8B0 
 1058      A030FCD6 
 1058      FD4A9B
 1059 2f0c A0B99518 		.ascii	"\240\271\225\030;j~\302j*\332\252t*\221z\026\005\223"
 1059      3B6A7EC2 
 1059      6A2ADAAA 
 1059      742A917A 
 1059      160593
 1060 2f1f 62B96CA3 		.ascii	"b\271l\243\374\015\372\331\005\357\310\252\010\201\017"
 1060      FC0DFAD9 
 1060      05EFC8AA 
 1060      08810F
 1061 2f2e 114E566C 		.ascii	"\021NVlDaIa8Y\261\001\030WX\307\270\222\026\343\012"
 1061      44614961 
 1061      3859B101 
 1061      185758C7 
 1061      B89216E3 
 1062 2f43 2324EE83 		.ascii	"#$\356\203\24657\014N-H\263[\270_\367\236\177\203\326"
 1062      A635370C 
 1062      4E2D48B3 
 1062      5BB85FF7 
 1062      9E7F83D6 
 1063 2f57 BB2BFCD1 		.ascii	"\273+\374\321\2659n'\372\321\340x\322\361\032\245\365"
 1063      B5396E27 
 1063      FAD1E078 
 1063      D2F11AA5 
 1063      F5
 1064 2f68 72E6663F 		.ascii	"r\346f?\345&-X\206_*\221\212J{\277\020*s\023\1774\003"
 1064      E5262D58 
 1064      865F2A91 
 1064      8A4A7BBF 
ARM GAS  /tmp/ccFCzHlo.s 			page 87


 1064      102A7313 
 1065 2f7f 693B6F10 		.ascii	"i;o\020x\310\352\325\333[H\217-\244\3740\024KG\2747"
 1065      78C8EAD5 
 1065      DB5B488F 
 1065      2DA4FC30 
 1065      144B47BC 
 1066 2f94 ABCF5D34 		.ascii	"\253\317]4Q.m^l\273;\204"
 1066      512E6D5E 
 1066      6CBB3B84 
 1067 2fa0 ADBCAEDD 		.ascii	"\255\274\256\335\010S\350\220\200\033A\264 z\002\256"
 1067      0853E890 
 1067      801B41B4 
 1067      207A02AE 
 1068 2fb0 556E37F0 		.ascii	"Un7\360t\262\273v\312qvz!\307\235\225\325\015\254;\241"
 1068      74B2BB76 
 1068      CA71767A 
 1068      21C79D95 
 1068      D50DAC3B 
 1069 2fc5 99AEAC2C 		.ascii	"\231\256\254,\270\230\365R\236\263Gn\226\263#t\010r"
 1069      B898F552 
 1069      9EB3476E 
 1069      96B32374 
 1069      0872
 1070 2fd7 E0CEE789 		.ascii	"\340\316\347\211O\224M\222t\353\230\343\350NS\264\203"
 1070      4F944D92 
 1070      74EB98E3 
 1070      E84E53B4 
 1070      83
 1071 2fe8 7B5FCDC9 		.ascii	"{_\315\311\3721\334)\342jMc\201\336\301\260j\221\377"
 1071      FA31DC29 
 1071      E26A4D63 
 1071      81DEC1B0 
 1071      6A91FF
 1072 2ffb 3FA762D8 		.ascii	"?\247b\330M"
 1072      4D
 1073              		.text
 1074              		.section	.gnu.lto_.symtab.ecc486a82dabbe1c,"",%progbits
 1075 0000 6164634D 		.ascii	"adcMeanFloat\000\000\000\000\000\000\000\000\000\000"
 1075      65616E46 
 1075      6C6F6174 
 1075      00000000 
 1075      00000000 
 1076 0016 0000EE03 		.ascii	"\000\000\356\003\000\000adcMeanV\000\000\000\000\000"
 1076      00006164 
 1076      634D6561 
 1076      6E560000 
 1076      000000
 1077 0029 00000000 		.ascii	"\000\000\000\000\000\000\000\377\003\000\000adcMean"
 1077      000000FF 
 1077      03000061 
 1077      64634D65 
 1077      616E
 1078 003b 00000000 		.ascii	"\000\000\000\000\000\000\000\000\000\000\000\000\006"
 1078      00000000 
 1078      00000000 
 1078      06
 1079 0048 04000073 		.ascii	"\004\000\000sensorThread\000\000\000\000\000\000\000"
ARM GAS  /tmp/ccFCzHlo.s 			page 88


 1079      656E736F 
 1079      72546872 
 1079      65616400 
 1079      00000000 
 1080 005e 00000000 		.ascii	"\000\000\000\000\000\022\004\000\000sensorThreadSto"
 1080      00120400 
 1080      0073656E 
 1080      736F7254 
 1080      68726561 
 1081 0076 70000000 		.ascii	"p\000\000\000\000\000\000\000\000\000\000\000\000\027"
 1081      00000000 
 1081      00000000 
 1081      0017
 1082 0084 04000049 		.ascii	"\004\000\000I2CD1\000\000\002\000\000\000\000\000\000"
 1082      32434431 
 1082      00000200 
 1082      00000000 
 1082      00
 1083 0095 000000D4 		.ascii	"\000\000\000\324\004\000\000I2CD3\000\000\002\000\000"
 1083      04000049 
 1083      32434433 
 1083      00000200 
 1083      00
 1084 00a6 00000000 		.ascii	"\000\000\000\000\000\000\000\326\004\000\000ADCD1\000"
 1084      000000D6 
 1084      04000041 
 1084      44434431 
 1084      00
 1085 00b7 00020000 		.ascii	"\000\002\000\000\000\000\000\000\000\000\000\317\004"
 1085      00000000 
 1085      000000CF 
 1085      04
 1086 00c4 00005344 		.ascii	"\000\000SD6\000\000\002\000\000\000\000\000\000\000"
 1086      36000002 
 1086      00000000 
 1086      000000
 1087 00d3 0000CD04 		.ascii	"\000\000\315\004\000\000chvprintf\000\000\002\000\000"
 1087      00006368 
 1087      76707269 
 1087      6E746600 
 1087      00020000 
 1088 00e7 00000000 		.ascii	"\000\000\000\000\000\000\000_\004\000\000chThdSleep"
 1088      0000005F 
 1088      04000063 
 1088      68546864 
 1088      536C6565 
 1089 00fc 556E7469 		.ascii	"Until\000\000\002\000\000\000\000\000\000\000\000\000"
 1089      6C000002 
 1089      00000000 
 1089      00000000 
 1089      00
 1090 010d 6E040000 		.ascii	"n\004\000\000boardSetLED\000\000\002\000\000\000\000"
 1090      626F6172 
 1090      64536574 
 1090      4C454400 
 1090      00020000 
 1091 0123 00000000 		.ascii	"\000\000\000\000\000r\004\000\000RTD_vToTemp\000\000"
ARM GAS  /tmp/ccFCzHlo.s 			page 89


 1091      00720400 
 1091      00525444 
 1091      5F76546F 
 1091      54656D70 
 1092 0139 02000000 		.ascii	"\002\000\000\000\000\000\000\000\000\000v\004\000\000"
 1092      00000000 
 1092      00007604 
 1092      0000
 1093 0147 6D70786D 		.ascii	"mpxmVToPressure\000\000\002\000\000\000\000\000\000"
 1093      56546F50 
 1093      72657373 
 1093      75726500 
 1093      00020000 
 1094 015f 0000007A 		.ascii	"\000\000\000z\004\000\000ms5607_readPressureTempera"
 1094      0400006D 
 1094      73353630 
 1094      375F7265 
 1094      61645072 
 1095 0180 74757265 		.ascii	"ture\000\000\002\000\000\000\000\000\000\000\000\000"
 1095      00000200 
 1095      00000000 
 1095      00000000 
 1096 0190 7C040000 		.ascii	"|\004\000\000si70x0_readTemperature\000\000\002\000"
 1096      73693730 
 1096      78305F72 
 1096      65616454 
 1096      656D7065 
 1097 01ae 00000000 		.ascii	"\000\000\000\000\000\000\000\000\203\004\000\000si7"
 1097      00000000 
 1097      83040000 
 1097      736937
 1098 01bd 3078305F 		.ascii	"0x0_readHumidity\000\000\002\000\000\000\000\000\000"
 1098      72656164 
 1098      48756D69 
 1098      64697479 
 1098      00000200 
 1099 01d6 00000089 		.ascii	"\000\000\000\211\004\000\000tmp275_readTemperature\000"
 1099      04000074 
 1099      6D703237 
 1099      355F7265 
 1099      61645465 
 1100 01f4 00020000 		.ascii	"\000\002\000\000\000\000\000\000\000\000\000\213\004"
 1100      00000000 
 1100      0000008B 
 1100      04
 1101 0201 00006164 		.ascii	"\000\000adcConvert\000\000\002\000\000\000\000\000\000"
 1101      63436F6E 
 1101      76657274 
 1101      00000200 
 1101      00000000 
 1102 0216 00000091 		.ascii	"\000\000\000\221\004\000\000si70x0_heaterEnable\000"
 1102      04000073 
 1102      69373078 
 1102      305F6865 
 1102      61746572 
 1103 0231 00020000 		.ascii	"\000\002\000\000\000\000\000\000\000\000\000\230\004"
 1103      00000000 
ARM GAS  /tmp/ccFCzHlo.s 			page 90


 1103      00000098 
 1103      04
 1104 023e 00006368 		.ascii	"\000\000chThdSleep\000\000\002\000\000\000\000\000\000"
 1104      54686453 
 1104      6C656570 
 1104      00000200 
 1104      00000000 
 1105 0253 0000009D 		.ascii	"\000\000\000\235\004\000\000si70x0_setHeaterCurrent"
 1105      04000073 
 1105      69373078 
 1105      305F7365 
 1105      74486561 
 1106 0271 00000200 		.ascii	"\000\000\002\000\000\000\000\000\000\000\000\000\237"
 1106      00000000 
 1106      00000000 
 1106      9F
 1107 027e 04000062 		.ascii	"\004\000\000bmp280_init\000\000\002\000\000\000\000"
 1107      6D703238 
 1107      305F696E 
 1107      69740000 
 1107      02000000 
 1108 0293 00000000 		.ascii	"\000\000\000\000\000\244\004\000\000lsm303_init\000"
 1108      00A40400 
 1108      006C736D 
 1108      3330335F 
 1108      696E6974 
 1109 02a8 00020000 		.ascii	"\000\002\000\000\000\000\000\000\000\000\000\253\004"
 1109      00000000 
 1109      000000AB 
 1109      04
 1110 02b5 00006D73 		.ascii	"\000\000ms5607_init\000\000\002\000\000\000\000\000"
 1110      35363037 
 1110      5F696E69 
 1110      74000002 
 1110      00000000 
 1111 02ca 00000000 		.ascii	"\000\000\000\000\263\004\000\000si70x0_init\000\000"
 1111      B3040000 
 1111      73693730 
 1111      78305F69 
 1111      6E697400 
 1112 02df 02000000 		.ascii	"\002\000\000\000\000\000\000\000\000\000\271\004\000"
 1112      00000000 
 1112      0000B904 
 1112      00
 1113 02ec 00746D70 		.ascii	"\000tmp275_init\000\000\002\000\000\000\000\000\000"
 1113      3237355F 
 1113      696E6974 
 1113      00000200 
 1113      00000000 
 1114 0301 000000BE 		.ascii	"\000\000\000\276\004\000\000i2cStart\000\000\002\000"
 1114      04000069 
 1114      32635374 
 1114      61727400 
 1114      000200
 1115 0314 00000000 		.ascii	"\000\000\000\000\000\000\000\000\304\004\000\000chM"
 1115      00000000 
 1115      C4040000 
ARM GAS  /tmp/ccFCzHlo.s 			page 91


 1115      63684D
 1116 0323 74784F62 		.ascii	"txObjectInit\000\000\002\000\000\000\000\000\000\000"
 1116      6A656374 
 1116      496E6974 
 1116      00000200 
 1116      00000000 
 1117 0339 0000C904 		.ascii	"\000\000\311\004\000\000"
 1117      0000
 1118              		.text
 1119              		.section	.gnu.lto_.opts,"",%progbits
 1120 0000 272D6D63 		.ascii	"'-mcpu=cortex-m4' '-mfloat-abi=hard' '-mfpu=fpv4-sp"
 1120      70753D63 
 1120      6F727465 
 1120      782D6D34 
 1120      2720272D 
 1121 0033 2D643136 		.ascii	"-d16' '-mno-thumb-interwork' '-mthumb' '-O2' '-fomi"
 1121      2720272D 
 1121      6D6E6F2D 
 1121      7468756D 
 1121      622D696E 
 1122 0066 742D6672 		.ascii	"t-frame-pointer' '-falign-functions=16' '-ffunction"
 1122      616D652D 
 1122      706F696E 
 1122      74657227 
 1122      20272D66 
 1123 0099 2D736563 		.ascii	"-sections' '-fdata-sections' '-fno-common' '-flto' "
 1123      74696F6E 
 1123      73272027 
 1123      2D666461 
 1123      74612D73 
 1124 00cc 272D6673 		.ascii	"'-fsingle-precision-constant'\000"
 1124      696E676C 
 1124      652D7072 
 1124      65636973 
 1124      696F6E2D 
 1125              		.text
 1126              		.section	.text.chprintf.constprop.0,"ax",%progbits
 1127              		.align	2
 1128              		.p2align 4,,15
 1129              		.thumb
 1130              		.thumb_func
 1131              		.type	chprintf.constprop.0, %function
 1132              	chprintf.constprop.0:
 1133              		@ args = 4, pretend = 12, frame = 8
 1134              		@ frame_needed = 0, uses_anonymous_args = 1
 1135 0000 0EB4     		push	{r1, r2, r3}
 1136 0002 00B5     		push	{lr}
 1137 0004 82B0     		sub	sp, sp, #8
 1138 0006 03AA     		add	r2, sp, #12
 1139 0008 0548     		ldr	r0, .L2
 1140 000a 52F8041B 		ldr	r1, [r2], #4
 1141 000e 0192     		str	r2, [sp, #4]
 1142 0010 FFF7FEFF 		bl	chvprintf
 1143 0014 02B0     		add	sp, sp, #8
 1144              		@ sp needed
 1145 0016 5DF804EB 		ldr	lr, [sp], #4
 1146 001a 03B0     		add	sp, sp, #12
ARM GAS  /tmp/ccFCzHlo.s 			page 92


 1147 001c 7047     		bx	lr
 1148              	.L3:
 1149 001e 00BF     		.align	2
 1150              	.L2:
 1151 0020 00000000 		.word	SD6
 1152              		.size	chprintf.constprop.0, .-chprintf.constprop.0
 1153 0024 AFF30080 		.section	.text.adcMeanFloat,"ax",%progbits
 1153      AFF30080 
 1153      AFF30080 
 1154              		.align	2
 1155              		.p2align 4,,15
 1156              		.global	adcMeanFloat
 1157              		.thumb
 1158              		.thumb_func
 1159              		.type	adcMeanFloat, %function
 1160              	adcMeanFloat:
 1161              		@ args = 0, pretend = 0, frame = 0
 1162              		@ frame_needed = 0, uses_anonymous_args = 0
 1163              		@ link register save eliminated.
 1164 0000 03FB02F3 		mul	r3, r3, r2
 1165 0004 DFED0D7A 		flds	s15, .L9
 1166 0008 9942     		cmp	r1, r3
 1167 000a 10B4     		push	{r4}
 1168 000c B0EE670A 		fcpys	s0, s15
 1169 0010 0FDA     		bge	.L5
 1170 0012 F7EE006A 		fconsts	s13, #112
 1171              	.L6:
 1172 0016 30F81140 		ldrh	r4, [r0, r1, lsl #1]
 1173 001a 07EE104A 		fmsr	s14, r4	@ int
 1174 001e 1144     		add	r1, r1, r2
 1175 0020 B8EE477A 		fuitos	s14, s14
 1176 0024 89B2     		uxth	r1, r1
 1177 0026 9942     		cmp	r1, r3
 1178 0028 30EE260A 		fadds	s0, s0, s13
 1179 002c 77EE877A 		fadds	s15, s15, s14
 1180 0030 F1DB     		blt	.L6
 1181              	.L5:
 1182 0032 87EE800A 		fdivs	s0, s15, s0
 1183 0036 5DF8044B 		ldr	r4, [sp], #4
 1184 003a 7047     		bx	lr
 1185              	.L10:
 1186              		.align	2
 1187              	.L9:
 1188 003c 00000000 		.word	0
 1189              		.size	adcMeanFloat, .-adcMeanFloat
 1190              		.section	.text.adcMeanV,"ax",%progbits
 1191              		.align	2
 1192              		.p2align 4,,15
 1193              		.global	adcMeanV
 1194              		.thumb
 1195              		.thumb_func
 1196              		.type	adcMeanV, %function
 1197              	adcMeanV:
 1198              		@ args = 0, pretend = 0, frame = 0
 1199              		@ frame_needed = 0, uses_anonymous_args = 0
 1200              		@ link register save eliminated.
 1201 0000 03FB02F3 		mul	r3, r3, r2
ARM GAS  /tmp/ccFCzHlo.s 			page 93


 1202 0004 DFED0F7A 		flds	s15, .L15
 1203 0008 9942     		cmp	r1, r3
 1204 000a 10B4     		push	{r4}
 1205 000c B0EE677A 		fcpys	s14, s15
 1206 0010 0FDA     		bge	.L12
 1207 0012 B7EE006A 		fconsts	s12, #112
 1208              	.L13:
 1209 0016 30F81140 		ldrh	r4, [r0, r1, lsl #1]
 1210 001a 06EE904A 		fmsr	s13, r4	@ int
 1211 001e 1144     		add	r1, r1, r2
 1212 0020 F8EE666A 		fuitos	s13, s13
 1213 0024 89B2     		uxth	r1, r1
 1214 0026 9942     		cmp	r1, r3
 1215 0028 37EE067A 		fadds	s14, s14, s12
 1216 002c 77EEA67A 		fadds	s15, s15, s13
 1217 0030 F1DB     		blt	.L13
 1218              	.L12:
 1219 0032 C7EE877A 		fdivs	s15, s15, s14
 1220 0036 5DF8044B 		ldr	r4, [sp], #4
 1221 003a 9FED030A 		flds	s0, .L15+4
 1222 003e 27EE800A 		fmuls	s0, s15, s0
 1223 0042 7047     		bx	lr
 1224              	.L16:
 1225              		.align	2
 1226              	.L15:
 1227 0044 00000000 		.word	0
 1228 0048 3333533A 		.word	978531123
 1229              		.size	adcMeanV, .-adcMeanV
 1230 004c AFF30080 		.section	.text.adcMean,"ax",%progbits
 1231              		.align	2
 1232              		.p2align 4,,15
 1233              		.global	adcMean
 1234              		.thumb
 1235              		.thumb_func
 1236              		.type	adcMean, %function
 1237              	adcMean:
 1238              		@ args = 0, pretend = 0, frame = 0
 1239              		@ frame_needed = 0, uses_anonymous_args = 0
 1240              		@ link register save eliminated.
 1241 0000 03FB02F3 		mul	r3, r3, r2
 1242 0004 70B4     		push	{r4, r5, r6}
 1243 0006 83B1     		cbz	r3, .L21
 1244 0008 0024     		movs	r4, #0
 1245 000a 2546     		mov	r5, r4
 1246 000c 2146     		mov	r1, r4
 1247              	.L20:
 1248 000e 30F81160 		ldrh	r6, [r0, r1, lsl #1]
 1249 0012 1144     		add	r1, r1, r2
 1250 0014 89B2     		uxth	r1, r1
 1251 0016 0135     		adds	r5, r5, #1
 1252 0018 9942     		cmp	r1, r3
 1253 001a ADB2     		uxth	r5, r5
 1254 001c 3444     		add	r4, r4, r6
 1255 001e F6DB     		blt	.L20
 1256              	.L18:
 1257 0020 B4FBF5F0 		udiv	r0, r4, r5
 1258 0024 80B2     		uxth	r0, r0
ARM GAS  /tmp/ccFCzHlo.s 			page 94


 1259 0026 70BC     		pop	{r4, r5, r6}
 1260 0028 7047     		bx	lr
 1261              	.L21:
 1262 002a 1D46     		mov	r5, r3
 1263 002c 1C46     		mov	r4, r3
 1264 002e F7E7     		b	.L18
 1265              		.size	adcMean, .-adcMean
 1266              		.global	__aeabi_f2d
 1267              		.section	.text.sensorThread,"ax",%progbits
 1268              		.align	2
 1269              		.p2align 4,,15
 1270              		.global	sensorThread
 1271              		.thumb
 1272              		.thumb_func
 1273              		.type	sensorThread, %function
 1274              	sensorThread:
 1275              		@ args = 0, pretend = 0, frame = 40
 1276              		@ frame_needed = 0, uses_anonymous_args = 0
 1277 0000 2DE9F04F 		push	{r4, r5, r6, r7, r8, r9, r10, fp, lr}
 1278 0004 2DED088B 		fstmfdd	sp!, {d8, d9, d10, d11}
 1279 0008 0124     		movs	r4, #1
 1280 000a 9DB0     		sub	sp, sp, #116
 1281 000c 0646     		mov	r6, r0
 1282 000e 8470     		strb	r4, [r0, #2]
 1283 0010 0430     		adds	r0, r0, #4
 1284 0012 FFF7FEFF 		bl	chMtxObjectInit
 1285 0016 9748     		ldr	r0, .L33
 1286 0018 9749     		ldr	r1, .L33+4
 1287 001a 9FED988A 		flds	s16, .L33+8
 1288 001e FFF7FEFF 		bl	i2cStart
 1289 0022 06F5F475 		add	r5, r6, #488
 1290 0026 9648     		ldr	r0, .L33+12
 1291 0028 9649     		ldr	r1, .L33+16
 1292 002a FFF7FEFF 		bl	i2cStart
 1293 002e 06F5DC7A 		add	r10, r6, #440
 1294 0032 4822     		movs	r2, #72
 1295 0034 2846     		mov	r0, r5
 1296 0036 9249     		ldr	r1, .L33+12
 1297 0038 FFF7FEFF 		bl	tmp275_init
 1298 003c 06F5C47B 		add	fp, r6, #392
 1299 0040 5046     		mov	r0, r10
 1300 0042 8F49     		ldr	r1, .L33+12
 1301 0044 FFF7FEFF 		bl	si70x0_init
 1302 0048 06F5A073 		add	r3, r6, #320
 1303 004c 5846     		mov	r0, fp
 1304 004e 8949     		ldr	r1, .L33
 1305 0050 1493     		str	r3, [sp, #80]
 1306 0052 FFF7FEFF 		bl	si70x0_init
 1307 0056 8A49     		ldr	r1, .L33+12
 1308 0058 1498     		ldr	r0, [sp, #80]
 1309 005a 7722     		movs	r2, #119
 1310 005c FFF7FEFF 		bl	ms5607_init
 1311 0060 1E23     		movs	r3, #30
 1312 0062 8449     		ldr	r1, .L33
 1313 0064 1D22     		movs	r2, #29
 1314 0066 06F1C800 		add	r0, r6, #200
 1315 006a FFF7FEFF 		bl	lsm303_init
ARM GAS  /tmp/ccFCzHlo.s 			page 95


 1316 006e 7622     		movs	r2, #118
 1317 0070 06F15C00 		add	r0, r6, #92
 1318 0074 7F49     		ldr	r1, .L33
 1319 0076 FFF7FEFF 		bl	bmp280_init
 1320 007a 0E21     		movs	r1, #14
 1321 007c 5846     		mov	r0, fp
 1322 007e FFF7FEFF 		bl	si70x0_setHeaterCurrent
 1323 0082 2146     		mov	r1, r4
 1324 0084 5846     		mov	r0, fp
 1325 0086 FFF7FEFF 		bl	si70x0_heaterEnable
 1326 008a 0E21     		movs	r1, #14
 1327 008c 5046     		mov	r0, r10
 1328 008e FFF7FEFF 		bl	si70x0_setHeaterCurrent
 1329 0092 2146     		mov	r1, r4
 1330 0094 5046     		mov	r0, r10
 1331 0096 FFF7FEFF 		bl	si70x0_heaterEnable
 1332 009a 4FF47A70 		mov	r0, #1000
 1333 009e FFF7FEFF 		bl	chThdSleep
 1334 00a2 0021     		movs	r1, #0
 1335 00a4 5846     		mov	r0, fp
 1336 00a6 FFF7FEFF 		bl	si70x0_heaterEnable
 1337 00aa 5046     		mov	r0, r10
 1338 00ac 0021     		movs	r1, #0
 1339 00ae FFF7FEFF 		bl	si70x0_heaterEnable
 1340 00b2 4FF08042 		mov	r2, #1073741824
 1341 00b6 B378     		ldrb	r3, [r6, #2]	@ zero_extendqisi2
 1342 00b8 86ED0C8A 		fsts	s16, [r6, #48]
 1343 00bc 86ED0D8A 		fsts	s16, [r6, #52]
 1344 00c0 546A     		ldr	r4, [r2, #36]
 1345 00c2 002B     		cmp	r3, #0
 1346 00c4 00F0CF80 		beq	.L29
 1347 00c8 06F11803 		add	r3, r6, #24
 1348 00cc 1893     		str	r3, [sp, #96]
 1349 00ce 06F13003 		add	r3, r6, #48
 1350 00d2 1593     		str	r3, [sp, #84]
 1351 00d4 06F13403 		add	r3, r6, #52
 1352 00d8 1793     		str	r3, [sp, #92]
 1353 00da 06F12C03 		add	r3, r6, #44
 1354 00de 1993     		str	r3, [sp, #100]
 1355 00e0 06F12003 		add	r3, r6, #32
 1356 00e4 DFF8C481 		ldr	r8, .L33+56
 1357 00e8 674F     		ldr	r7, .L33+20
 1358 00ea 9FED68BA 		flds	s22, .L33+24
 1359 00ee DFED68AA 		flds	s21, .L33+28
 1360 00f2 DFED688A 		flds	s17, .L33+32
 1361 00f6 1693     		str	r3, [sp, #88]
 1362 00f8 06E0     		b	.L27
 1363              	.L32:
 1364 00fa 2046     		mov	r0, r4
 1365 00fc FFF7FEFF 		bl	chThdSleepUntil
 1366 0100 B378     		ldrb	r3, [r6, #2]	@ zero_extendqisi2
 1367 0102 002B     		cmp	r3, #0
 1368 0104 00F0AF80 		beq	.L29
 1369              	.L27:
 1370 0108 0120     		movs	r0, #1
 1371 010a FFF7FEFF 		bl	boardSetLED
 1372 010e 3A78     		ldrb	r2, [r7]	@ zero_extendqisi2
ARM GAS  /tmp/ccFCzHlo.s 			page 96


 1373 0110 6149     		ldr	r1, .L33+36
 1374 0112 6248     		ldr	r0, .L33+40
 1375 0114 82F00102 		eor	r2, r2, #1
 1376 0118 02EB4202 		add	r2, r2, r2, lsl #1
 1377 011c 0123     		movs	r3, #1
 1378 011e 08EB4202 		add	r2, r8, r2, lsl #1
 1379 0122 FFF7FEFF 		bl	adcConvert
 1380 0126 1899     		ldr	r1, [sp, #96]
 1381 0128 2846     		mov	r0, r5
 1382 012a FFF7FEFF 		bl	tmp275_readTemperature
 1383 012e 1599     		ldr	r1, [sp, #84]
 1384 0130 5846     		mov	r0, fp
 1385 0132 FFF7FEFF 		bl	si70x0_readHumidity
 1386 0136 1AA9     		add	r1, sp, #104
 1387 0138 5846     		mov	r0, fp
 1388 013a FFF7FEFF 		bl	si70x0_readTemperature
 1389 013e 1799     		ldr	r1, [sp, #92]
 1390 0140 5046     		mov	r0, r10
 1391 0142 FFF7FEFF 		bl	si70x0_readHumidity
 1392 0146 1BA9     		add	r1, sp, #108
 1393 0148 5046     		mov	r0, r10
 1394 014a FFF7FEFF 		bl	si70x0_readTemperature
 1395 014e 1999     		ldr	r1, [sp, #100]
 1396 0150 169A     		ldr	r2, [sp, #88]
 1397 0152 1498     		ldr	r0, [sp, #80]
 1398 0154 FFF7FEFF 		bl	ms5607_readPressureTemperature
 1399 0158 3B78     		ldrb	r3, [r7]	@ zero_extendqisi2
 1400 015a 03EB4303 		add	r3, r3, r3, lsl #1
 1401 015e 08EB4302 		add	r2, r8, r3, lsl #1
 1402 0162 38F81330 		ldrh	r3, [r8, r3, lsl #1]
 1403 0166 5288     		ldrh	r2, [r2, #2]
 1404 0168 00EE102A 		fmsr	s0, r2	@ int
 1405 016c 07EE903A 		fmsr	s15, r3	@ int
 1406 0170 B8EE400A 		fuitos	s0, s0
 1407 0174 F8EE677A 		fuitos	s15, s15
 1408 0178 30EE080A 		fadds	s0, s0, s16
 1409 017c 77EE887A 		fadds	s15, s15, s16
 1410 0180 20EE280A 		fmuls	s0, s0, s17
 1411 0184 B0EE6A9A 		fcpys	s18, s21
 1412 0188 A7EE8B9A 		vfma.f32	s18, s15, s22
 1413 018c FFF7FEFF 		bl	mpxmVToPressure
 1414 0190 3B78     		ldrb	r3, [r7]	@ zero_extendqisi2
 1415 0192 03EB4303 		add	r3, r3, r3, lsl #1
 1416 0196 08EB4303 		add	r3, r8, r3, lsl #1
 1417 019a B0EE40AA 		fcpys	s20, s0
 1418 019e 9B88     		ldrh	r3, [r3, #4]
 1419 01a0 00EE103A 		fmsr	s0, r3	@ int
 1420 01a4 B8EE400A 		fuitos	s0, s0
 1421 01a8 4FF08049 		mov	r9, #1073741824
 1422 01ac 30EE080A 		fadds	s0, s0, s16
 1423 01b0 04F51C54 		add	r4, r4, #9984
 1424 01b4 20EE280A 		fmuls	s0, s0, s17
 1425 01b8 FFF7FEFF 		bl	RTD_vToTemp
 1426 01bc 3B78     		ldrb	r3, [r7]	@ zero_extendqisi2
 1427 01be B069     		ldr	r0, [r6, #24]	@ float
 1428 01c0 83F00103 		eor	r3, r3, #1
 1429 01c4 3B70     		strb	r3, [r7]
ARM GAS  /tmp/ccFCzHlo.s 			page 97


 1430 01c6 F0EE409A 		fcpys	s19, s0
 1431 01ca FFF7FEFF 		bl	__aeabi_f2d
 1432 01ce 0246     		mov	r2, r0
 1433 01d0 706B     		ldr	r0, [r6, #52]	@ float
 1434 01d2 1392     		str	r2, [sp, #76]
 1435 01d4 1291     		str	r1, [sp, #72]
 1436 01d6 FFF7FEFF 		bl	__aeabi_f2d
 1437 01da CDE90001 		strd	r0, [sp]
 1438 01de 1B98     		ldr	r0, [sp, #108]	@ float
 1439 01e0 FFF7FEFF 		bl	__aeabi_f2d
 1440 01e4 CDE90201 		strd	r0, [sp, #8]
 1441 01e8 306B     		ldr	r0, [r6, #48]	@ float
 1442 01ea FFF7FEFF 		bl	__aeabi_f2d
 1443 01ee CDE90401 		strd	r0, [sp, #16]
 1444 01f2 1A98     		ldr	r0, [sp, #104]	@ float
 1445 01f4 FFF7FEFF 		bl	__aeabi_f2d
 1446 01f8 CDE90601 		strd	r0, [sp, #24]
 1447 01fc F06A     		ldr	r0, [r6, #44]	@ float
 1448 01fe FFF7FEFF 		bl	__aeabi_f2d
 1449 0202 CDE90801 		strd	r0, [sp, #32]
 1450 0206 306A     		ldr	r0, [r6, #32]	@ float
 1451 0208 FFF7FEFF 		bl	__aeabi_f2d
 1452 020c CDE90A01 		strd	r0, [sp, #40]
 1453 0210 19EE100A 		fmrs	r0, s18
 1454 0214 FFF7FEFF 		bl	__aeabi_f2d
 1455 0218 CDE90C01 		strd	r0, [sp, #48]
 1456 021c 1AEE100A 		fmrs	r0, s20
 1457 0220 FFF7FEFF 		bl	__aeabi_f2d
 1458 0224 CDE90E01 		strd	r0, [sp, #56]
 1459 0228 19EE900A 		fmrs	r0, s19
 1460 022c FFF7FEFF 		bl	__aeabi_f2d
 1461 0230 129B     		ldr	r3, [sp, #72]
 1462 0232 139A     		ldr	r2, [sp, #76]
 1463 0234 CDE91001 		strd	r0, [sp, #64]
 1464 0238 1949     		ldr	r1, .L33+44
 1465 023a 1A48     		ldr	r0, .L33+48
 1466 023c FFF7FEFF 		bl	chprintf.constprop.0
 1467 0240 0020     		movs	r0, #0
 1468 0242 FFF7FEFF 		bl	boardSetLED
 1469 0246 D9F82430 		ldr	r3, [r9, #36]
 1470 024a 1034     		adds	r4, r4, #16
 1471 024c 9C42     		cmp	r4, r3
 1472 024e 3FF654AF 		bhi	.L32
 1473 0252 1448     		ldr	r0, .L33+48
 1474 0254 1449     		ldr	r1, .L33+52
 1475 0256 FFF7FEFF 		bl	chprintf.constprop.0
 1476 025a B378     		ldrb	r3, [r6, #2]	@ zero_extendqisi2
 1477 025c D9F82440 		ldr	r4, [r9, #36]
 1478 0260 002B     		cmp	r3, #0
 1479 0262 7FF451AF 		bne	.L27
 1480              	.L29:
 1481 0266 0020     		movs	r0, #0
 1482 0268 1DB0     		add	sp, sp, #116
 1483              		@ sp needed
 1484 026a BDEC088B 		fldmfdd	sp!, {d8-d11}
 1485 026e BDE8F08F 		pop	{r4, r5, r6, r7, r8, r9, r10, fp, pc}
 1486              	.L34:
ARM GAS  /tmp/ccFCzHlo.s 			page 98


 1487 0272 00BF     		.align	2
 1488              	.L33:
 1489 0274 00000000 		.word	I2CD1
 1490 0278 00000000 		.word	.LANCHOR0
 1491 027c 00000000 		.word	0
 1492 0280 00000000 		.word	I2CD3
 1493 0284 00000000 		.word	.LANCHOR1
 1494 0288 00000000 		.word	.LANCHOR4
 1495 028c 3D0A633B 		.word	996346429
 1496 0290 8FC275BD 		.word	3178611343
 1497 0294 3333533A 		.word	978531123
 1498 0298 00000000 		.word	.LANCHOR2
 1499 029c 00000000 		.word	ADCD1
 1500 02a0 00000000 		.word	.LC0
 1501 02a4 00000000 		.word	SD6
 1502 02a8 8C000000 		.word	.LC1
 1503 02ac 00000000 		.word	.LANCHOR3
 1504              		.size	sensorThread, .-sensorThread
 1505              		.section	.text.sensorThreadStop,"ax",%progbits
 1506              		.align	2
 1507              		.p2align 4,,15
 1508              		.global	sensorThreadStop
 1509              		.thumb
 1510              		.thumb_func
 1511              		.type	sensorThreadStop, %function
 1512              	sensorThreadStop:
 1513              		@ args = 0, pretend = 0, frame = 0
 1514              		@ frame_needed = 0, uses_anonymous_args = 0
 1515              		@ link register save eliminated.
 1516 0000 0346     		mov	r3, r0
 1517 0002 0022     		movs	r2, #0
 1518 0004 9A70     		strb	r2, [r3, #2]
 1519 0006 7047     		bx	lr
 1520              		.size	sensorThreadStop, .-sensorThreadStop
 1521 0008 AFF30080 		.section	.bss.analogSamples,"aw",%nobits
 1521      AFF30080 
 1522              		.align	2
 1523              		.set	.LANCHOR3,. + 0
 1524              		.type	analogSamples, %object
 1525              		.size	analogSamples, 12
 1526              	analogSamples:
 1527 0000 00000000 		.space	12
 1527      00000000 
 1527      00000000 
 1528              		.section	.rodata.analogGrp,"a",%progbits
 1529              		.align	2
 1530              		.set	.LANCHOR2,. + 0
 1531              		.type	analogGrp, %object
 1532              		.size	analogGrp, 40
 1533              	analogGrp:
 1534 0000 00       		.byte	0
 1535 0001 00       		.space	1
 1536 0002 0300     		.short	3
 1537 0004 00000000 		.word	0
 1538 0008 00000000 		.word	0
 1539 000c 00000000 		.word	0
 1540 0010 00000040 		.word	1073741824
ARM GAS  /tmp/ccFCzHlo.s 			page 99


 1541 0014 36000000 		.word	54
 1542 0018 06000000 		.word	6
 1543 001c 00002000 		.word	2097152
 1544 0020 00000000 		.word	0
 1545 0024 402D0000 		.word	11584
 1546              		.section	.rodata.ei2cCfg,"a",%progbits
 1547              		.align	2
 1548              		.set	.LANCHOR1,. + 0
 1549              		.type	ei2cCfg, %object
 1550              		.size	ei2cCfg, 12
 1551              	ei2cCfg:
 1552 0000 01       		.byte	1
 1553 0001 000000   		.space	3
 1554 0004 A0860100 		.word	100000
 1555 0008 02       		.byte	2
 1556 0009 000000   		.space	3
 1557              		.section	.rodata.str1.4,"aMS",%progbits,1
 1558              		.align	2
 1559              	.LC0:
 1560 0000 45585445 		.ascii	"EXTEMP:%.1fC    \012EHUM:%.1f%%    EHTEMP:%.2fC\012"
 1560      4D503A25 
 1560      2E316643 
 1560      20202020 
 1560      0A454855 
 1561 002d 4948554D 		.ascii	"IHUM:%.1f%%    IHTEMP:%.2fC\012MPRS:%.2fkPa    MTEM"
 1561      3A252E31 
 1561      66252520 
 1561      20202049 
 1561      4854454D 
 1562 005d 503A252E 		.ascii	"P:%.2fC\012VIN:%.2fV\012APRESS:%.3fkPa\012ATEMP:%.3"
 1562      3266430A 
 1562      56494E3A 
 1562      252E3266 
 1562      560A4150 
 1563 0087 66430A00 		.ascii	"fC\012\000"
 1564 008b 00       		.space	1
 1565              	.LC1:
 1566 008c 53454E53 		.ascii	"SENSOR DEADLINE EXCEEDED\012\000"
 1566      4F522044 
 1566      4541444C 
 1566      494E4520 
 1566      45584345 
 1567 00a6 0000     		.section	.bss.activeAnalogCh,"aw",%nobits
 1568              		.set	.LANCHOR4,. + 0
 1569              		.type	activeAnalogCh, %object
 1570              		.size	activeAnalogCh, 1
 1571              	activeAnalogCh:
 1572 0000 00       		.space	1
 1573              		.section	.rodata.ii2cCfg,"a",%progbits
 1574              		.align	2
 1575              		.set	.LANCHOR0,. + 0
 1576              		.type	ii2cCfg, %object
 1577              		.size	ii2cCfg, 12
 1578              	ii2cCfg:
 1579 0000 01       		.byte	1
 1580 0001 000000   		.space	3
 1581 0004 A0860100 		.word	100000
ARM GAS  /tmp/ccFCzHlo.s 			page 100


 1582 0008 02       		.byte	2
 1583 0009 000000   		.space	3
 1584              		.comm	__gnu_lto_v1,1,1
 1585              		.ident	"GCC: (GNU Tools for ARM Embedded Processors) 4.8.4 20140526 (release) [ARM/embedded-4_8-br
ARM GAS  /tmp/ccFCzHlo.s 			page 101


DEFINED SYMBOLS
                            *ABS*:0000000000000000 sensor_thread.c
     /tmp/ccFCzHlo.s:1127   .text.chprintf.constprop.0:0000000000000000 $t
     /tmp/ccFCzHlo.s:1132   .text.chprintf.constprop.0:0000000000000000 chprintf.constprop.0
     /tmp/ccFCzHlo.s:1151   .text.chprintf.constprop.0:0000000000000020 $d
     /tmp/ccFCzHlo.s:1154   .text.adcMeanFloat:0000000000000000 $t
     /tmp/ccFCzHlo.s:1160   .text.adcMeanFloat:0000000000000000 adcMeanFloat
     /tmp/ccFCzHlo.s:1188   .text.adcMeanFloat:000000000000003c $d
     /tmp/ccFCzHlo.s:1191   .text.adcMeanV:0000000000000000 $t
     /tmp/ccFCzHlo.s:1197   .text.adcMeanV:0000000000000000 adcMeanV
     /tmp/ccFCzHlo.s:1227   .text.adcMeanV:0000000000000044 $d
     /tmp/ccFCzHlo.s:1231   .text.adcMean:0000000000000000 $t
     /tmp/ccFCzHlo.s:1237   .text.adcMean:0000000000000000 adcMean
     /tmp/ccFCzHlo.s:1268   .text.sensorThread:0000000000000000 $t
     /tmp/ccFCzHlo.s:1274   .text.sensorThread:0000000000000000 sensorThread
     /tmp/ccFCzHlo.s:1489   .text.sensorThread:0000000000000274 $d
     /tmp/ccFCzHlo.s:1506   .text.sensorThreadStop:0000000000000000 $t
     /tmp/ccFCzHlo.s:1512   .text.sensorThreadStop:0000000000000000 sensorThreadStop
     /tmp/ccFCzHlo.s:1522   .bss.analogSamples:0000000000000000 $d
     /tmp/ccFCzHlo.s:1526   .bss.analogSamples:0000000000000000 analogSamples
     /tmp/ccFCzHlo.s:1529   .rodata.analogGrp:0000000000000000 $d
     /tmp/ccFCzHlo.s:1533   .rodata.analogGrp:0000000000000000 analogGrp
     /tmp/ccFCzHlo.s:1547   .rodata.ei2cCfg:0000000000000000 $d
     /tmp/ccFCzHlo.s:1551   .rodata.ei2cCfg:0000000000000000 ei2cCfg
     /tmp/ccFCzHlo.s:1558   .rodata.str1.4:0000000000000000 $d
     /tmp/ccFCzHlo.s:1571   .bss.activeAnalogCh:0000000000000000 activeAnalogCh
     /tmp/ccFCzHlo.s:1572   .bss.activeAnalogCh:0000000000000000 $d
     /tmp/ccFCzHlo.s:1574   .rodata.ii2cCfg:0000000000000000 $d
     /tmp/ccFCzHlo.s:1578   .rodata.ii2cCfg:0000000000000000 ii2cCfg
                            *COM*:0000000000000001 __gnu_lto_v1
     /tmp/ccFCzHlo.s:1153   .text.chprintf.constprop.0:0000000000000024 $t
     /tmp/ccFCzHlo.s:1230   .text.adcMeanV:000000000000004c $t

UNDEFINED SYMBOLS
chvprintf
SD6
__aeabi_f2d
chMtxObjectInit
i2cStart
tmp275_init
si70x0_init
ms5607_init
lsm303_init
bmp280_init
si70x0_setHeaterCurrent
si70x0_heaterEnable
chThdSleep
chThdSleepUntil
boardSetLED
adcConvert
tmp275_readTemperature
si70x0_readHumidity
si70x0_readTemperature
ms5607_readPressureTemperature
mpxmVToPressure
RTD_vToTemp
I2CD1
ARM GAS  /tmp/ccFCzHlo.s 			page 102


I2CD3
ADCD1
