ARM GAS  /tmp/ccGgN9d3.s 			page 1


   1              		.syntax unified
   2              		.cpu cortex-m4
   3              		.eabi_attribute 27, 3
   4              		.eabi_attribute 28, 1
   5              		.fpu fpv4-sp-d16
   6              		.eabi_attribute 20, 1
   7              		.eabi_attribute 21, 1
   8              		.eabi_attribute 23, 3
   9              		.eabi_attribute 24, 1
  10              		.eabi_attribute 25, 1
  11              		.eabi_attribute 26, 1
  12              		.eabi_attribute 30, 2
  13              		.eabi_attribute 34, 1
  14              		.eabi_attribute 18, 4
  15              		.thumb
  16              		.file	"sensor_thread.c"
  17              		.section	.gnu.lto_.jmpfuncs.50dde759bd827499,"",%progbits
  18 0000 789C6362 		.ascii	"x\234cb`b\300\006\302\030!4\023\003#\220\305\302T\315"
  18      6062C006 
  18      C2182134 
  18      13032390 
  18      C5C254CD 
  19 0014 F0ABA1A3 		.ascii	"\360\253\241\243A \223\221!\027\"\003\026\231\001\022"
  19      41209391 
  19      21172203 
  19      16990112 
  20 0024 61CC6564 		.ascii	"a\314ed\204\213\200\3250\3452\202Me\212`\314dd6b``f"
  20      848B80D5 
  20      30E53282 
  20      4D658A60 
  20      CC646436 
  21 003c 792092C9 		.ascii	"y \222\311\310\0025\233\211\345\201X&#+\224\275@\"\223"
  21      C802359B 
  21      89E58158 
  21      26232B94 
  21      BD402293 
  22 0050 910DCC46 		.ascii	"\221\015\314F\250B\030\305\236\313\310\0147\212\243"
  22      A84218C5 
  22      9ECBC80C 
  22      378AA3
  23 005f 0CAC08AA 		.ascii	"\014\254\010\252\031E\021\013B\221\003H\321\001q,\212"
  23      1945110B 
  23      42910348 
  23      D101712C 
  23      8A
  24 0070 98D114C1 		.ascii	"\230\321\024\301\254\306\245\310\003\310\300\"\007\367"
  24      ACC6A5C8 
  24      03C8C022 
  24      07F7
  25 007e 39672EC4 		.ascii	"9g.\304\027LX\234\202\241\210\221E!\223\221\013\310"
  25      174C589C 
  25      82A18891 
  25      45219391 
  25      0BC8
  26 0090 E0646400 		.ascii	"\340dd\000\000\245X;G"
  26      00A5583B 
  26      47
ARM GAS  /tmp/ccGgN9d3.s 			page 2


  27              		.text
  28              		.section	.gnu.lto_.inline.50dde759bd827499,"",%progbits
  29 0000 789C6362 		.ascii	"x\234cb`b\300\006\246Bi\240\254\331\005VFF\006F\020"
  29      6062C006 
  29      A64269A0 
  29      ACD90556 
  29      46460646 
  30 0015 4778FD4E 		.ascii	"Gx\375NN\006\366\3662\260\036&n\240\350\004?V>F\006"
  30      4E06F6F6 
  30      32B01E26 
  30      6EA0E804 
  30      3F563E46 
  31 002a 16109F85 		.ascii	"\026\020\237\205\227\221\201\371.\373\004\277\011~\314"
  31      979181F9 
  31      2EFB04BF 
  31      097ECC
  32 0039 3C8C0C4C 		.ascii	"<\214\014L &\234\301\302\313\300\300<\301\017\244\012"
  32      20269CC1 
  32      C2CBC0C0 
  32      3CC10FA4 
  32      0A
  33 004a 27839907 		.ascii	"'\203\231\007l\037\224b\342f\000\031\317\311\300\302"
  33      6C1F9462 
  33      E2660019 
  33      CFC9C0C2 
  34 005a 0C3483F1 		.ascii	"\0144\203\361\005;\003{\207:\304\261\000\010\246\022"
  34      053B037B 
  34      873AC4B1 
  34      0008A612 
  35 006a 29       		.ascii	")"
  36              		.text
  37              		.section	.gnu.lto_.pureconst.50dde759bd827499,"",%progbits
  38 0000 789C6362 		.ascii	"x\234cb`b`e\200\000&\006)N)\000\001\026\000I"
  38      60626065 
  38      80002606 
  38      294E2900 
  38      01160049 
  39              		.text
  40              		.section	.gnu.lto_sensorThread.50dde759bd827499,"",%progbits
  41 0000 789CA596 		.ascii	"x\234\245\226oh[U\024\300\317y\377\223f]f\323u\355\374"
  41      6F685B55 
  41      14C0CF79 
  41      FF93665D 
  41      66D375ED 
  42 0015 93A675D6 		.ascii	"\223\246u\326u\366m\021\361\203\003\035\363\203\302"
  42      75F66D11 
  42      F183031D 
  42      F383C2
  43 0024 FA455BD0 		.ascii	"\372E[\320O%{\011\311\303\276F\222X\234\023\372\262"
  43      4F257B09 
  43      C9C3BE46 
  43      92589C13 
  43      FAB2
  44 0036 A6AE60A7 		.ascii	"\246\256`\247\305)\250\333\207\225!\023?X\244(\010\012"
  44      C529A8DB 
  44      87952113 
  44      3F58A428 
ARM GAS  /tmp/ccGgN9d3.s 			page 3


  44      080A
  45 0048 41B7D9C1 		.ascii	"A\267\331\301\376(\370a\23522\224\241 \014\2059\030"
  45      FE28F861 
  45      9D323294 
  45      A1200C85 
  45      3918
  46 005a 683DF7BD 		.ascii	"h=\367\275\373\222\227%\232u>\310y\367\335{\376\374"
  46      FB929725 
  46      9A753EC8 
  46      79F7DD7B 
  46      FEFC
  47 006c CE79E7BE 		.ascii	"\316y\347\276\033\001\004\270\365\032\243\337\366\000"
  47      1B0104B8 
  47      F51AA3DF 
  47      F600
  48 007a C009BA63 		.ascii	"\300\011\272c\000P\230?\017P\324\004T\335\201(H\337"
  48      0050983F 
  48      0F50D404 
  48      54DD8128 
  48      48DF
  49 008c 6F043B28 		.ascii	"o\004;(\177\361(\330!\011\025wZ\366\006\212\253\270"
  49      7FF128D8 
  49      21091577 
  49      5AF6068A 
  49      ABB8
  50 009e 4B15C4B9 		.ascii	"K\025\304\271o\200\024\265\222J\212\032\"\233\006\204"
  50      6F8014B5 
  50      924A8A1A 
  50      229B0684 
  51 00ae 29419464 		.ascii	")A\224dE\325p\352yd\001\205\030,\330\366\273\225S\227"
  51      45D570EA 
  51      79640185 
  51      182CD8F6 
  51      BB955397 
  52 00c2 0F75DBC7 		.ascii	"\017u\333\307\016\314\333\177\257\256\242\211\204\326"
  52      0ECCDB7F 
  52      AFAEA289 
  52      84D6
  53 00d0 8160203C 		.ascii	"\201` <G\017\030un\202T\317\352X\276U^:\375\246\337"
  53      470F1875 
  53      6E8254CF 
  53      EA58BE55 
  53      5E3AFDA6 
  54 00e5 52146073 		.ascii	"R\024`s+\313E\241\\Y]\235[\374\366\032nAH\340q\214\201"
  54      2BCB45A1 
  54      5C595D9D 
  54      5BFCF61A 
  54      6E4148E0 
  55 00fc 88168204 		.ascii	"\210\026\202\004&JA\022r\210\204\322\316D\230\204\332"
  55      264A4112 
  55      728884D2 
  55      CE449884 
  55      DA
  56 010d 41428B70 		.ascii	"AB\213p\325Nz\010t1\321\315D\017\023QL\340\002\255\365"
  56      D54E7A08 
  56      7431D1CD 
  56      440F1351 
ARM GAS  /tmp/ccGgN9d3.s 			page 4


  56      4CE002AD 
  57 0122 729D184D 		.ascii	"r\235\030M\212}L\3643AAe(\331\366|\324Us\225\200q\322"
  57      8A7D4CF4 
  57      33414165 
  57      28D9F67C 
  57      D4557395 
  58 0139 354292EA 		.ascii	"5B\222\3524\212\002\335\304sp\340\346\364\265\237\204"
  58      348A02DD 
  58      C47370E0 
  58      E6F4B59F 
  58      84
  59 014a 047E8032 		.ascii	"\004~\2002\244Q\332\017\257\020\326 |d\323\365\016\345"
  59      A451DA0F 
  59      AF10D620 
  59      7C64D3F5 
  59      0EE5
  60 015c 13E4E37D 		.ascii	"\023\344\343}&\266\035\201\367i&\224F\221e\272\316\311"
  60      26B61D81 
  60      F7692694 
  60      469165BA 
  60      CEC9
  61 016e 6F2F02BF 		.ascii	"o/\002\277c-\351\013P*os}\002\354\207\233\366\254\035"
  61      632DE90B 
  61      502A6F73 
  61      7D02EC87 
  61      9BF6AC1D 
  62 0182 36B1DDE0 		.ascii	"6\261\335\340:\024\307\304\365\000N\364\033?\240\253"
  62      3A14C7C4 
  62      F5004EF4 
  62      1B3FA0AB 
  63 0192 49DE8B36 		.ascii	"I\336\2136\323\013W-6X\216\005\213\266\301\261tW\354"
  63      D30B572D 
  63      36588E05 
  63      8BB6C1B1 
  63      7457EC
  64 01a5 C748C942 		.ascii	"\307H\311B\201\307\23296\325\020\353.\203/\263\031\315"
  64      81C79A39 
  64      36D510EB 
  64      2E832FB3 
  64      19CD
  65 01b7 C40E0B45 		.ascii	"\304\016\013E\256\304f6\231\030\261P\3423&v\272~f\305"
  65      AEC46636 
  65      9918B150 
  65      E2332676 
  65      BA7E66C5 
  66 01cb DB7124FF 		.ascii	"\333q$\377\267#'\253\305\271\001\257\246A\247\2462\257"
  66      B72327AB 
  66      C5B901AF 
  66      A641A7A6 
  66      32AF
  67 01dd 63DEC48D 		.ascii	"c\336\304\215\315\353(\370\353\367Zy\240\001\245\313"
  67      CDEB28F8 
  67      EBF75A79 
  67      A001A5CB 
  68 01ed 705E2EB8 		.ascii	"p^.\270>o\245a\2566=E\010\335\034\341\223\220G\020r"
  68      3E6FA561 
  68      AE363D45 
ARM GAS  /tmp/ccGgN9d3.s 			page 5


  68      08DD1CE1 
  68      93904710 
  69 0202 08941A41 		.ascii	"\010\224\032AOs\002\261\025\301f\003%N\020\372\027\202"
  69      4F7302B1 
  69      15C16603 
  69      254E10FA 
  69      1782
  70 0214 2788E06E 		.ascii	"'\210\340nN\360i\225\240\3756\011\2445\020\2647\276"
  70      4EF06995 
  70      A0FD3609 
  70      A43510B4 
  70      37BE
  71 0226 DA0682CF 		.ascii	"\332\006\202\317\253\004a\207@\255\021\334\323\234@"
  71      AB046187 
  71      40AD11DC 
  71      D39C40
  72 0235 6E4570AF 		.ascii	"nEp\257\301u\322n\2436\251\301$\021\334\307\010\276"
  72      C175D26E 
  72      A336A9C1 
  72      2411DCC7 
  72      08BE
  73 0247 BA74F4F0 		.ascii	"\272t\364\360\3118\337\215\336\266,_y\343G\252\264k"
  73      C938DF8D 
  73      DEB62C5F 
  73      79E347AA 
  73      B46B
  74 0259 60A0E2FA 		.ascii	"`\240\342\372\2121\262R\261\362\336\302\333=&F\331f"
  74      8A31B252 
  74      B1F2DEC2 
  74      DB3D2646 
  74      D966
  75 026b 9867E17A 		.ascii	"\230g\341z\231\307\030c\226\034\3471\316\2510\017gj"
  75      99C71863 
  75      961CE731 
  75      CEA9300F 
  75      676A
  76 027d B8A3F4F6 		.ascii	"\270\243\364\366\3503H;zz\366\353\327\317/\310^\342"
  76      E833483B 
  76      7A7AF6EB 
  76      D7CF2FC8 
  76      5EE2
  77 028f 91342233 		.ascii	"\2214\"3\354\373E\005^\225\023\207vz\253\235NY\002\274"
  77      ECFB4505 
  77      5E951387 
  77      767AAB9D 
  77      4E5902BC 
  78 02a3 2C7F915E 		.ascii	",\177\221^?\037\377\216-w\274\352\257\325LygC\255\356"
  78      3F1FFF8E 
  78      2D77BCEA 
  78      AFD54C79 
  78      6743ADEE 
  79 02b7 37B80E75 		.ascii	"7\270\016u,\3052q\213\367^\326y\000]u\000\207\225\032"
  79      2CC53271 
  79      8BF75ED6 
  79      79005D75 
  79      0087951A 
  80 02cb C08DD600 		.ascii	"\300\215\326\000Z+\200\007\014\256C\355B\261L\034\340"
ARM GAS  /tmp/ccGgN9d3.s 			page 6


  80      5A2B8007 
  80      0CAE43ED 
  80      42B14C1C 
  80      E0
  81 02dc 00D7AB00 		.ascii	"\000\327\253\000\335\377\247\002\201\032\200\343\366"
  81      DDFFA702 
  81      811A80E3 
  81      F6
  82 02e9 0FF4DCF6 		.ascii	"\017\364\334\366\324\271\275\356\313kEi\3516X\337\204"
  82      D4B9BDEE 
  82      CB6B4569 
  82      E93658DF 
  82      84
  83 02fa 8D793D68 		.ascii	"\215y=h\360\320\324\204\224\002\2053q+S>X9;\035lP\037"
  83      F0D0D484 
  83      94028533 
  83      712B533E 
  83      58393B1D 
  84 0311 34B84BDE 		.ascii	"4\270K\336\260\333,T\352?b\017Y\250\372f\350\033{\204"
  84      B0DB2C54 
  84      EA3F620F 
  84      59A8FA66 
  84      E81B7B84 
  85 0325 B8862CD4 		.ascii	"\270\206,\324|\215\255\307\251\261\267\257\261\261\373"
  85      7C8DADC7 
  85      A9B1B7AF 
  85      B1B1FB
  86 0334 EEA4B17F 		.ascii	"\356\244\261\177v\033{\031N^\2752\363\347E\3645s_\255"
  86      761B7B19 
  86      4E5EBD32 
  86      F3E745F4 
  86      35735FAD 
  87 0348 36A3F42D 		.ascii	"6\243\364-\270\020\021\351\264\251\254L\257o\310z\207"
  87      B81011E9 
  87      B4A9AC4C 
  87      AF6FC87A 
  87      87
  88 0359 816DBC48 		.ascii	"\201m\274H\021\023\343\236\215\014_\306\3055\245\320"
  88      1113E39E 
  88      8D0C5FC6 
  88      C535A5D0 
  89 0369 7F2729FC 		.ascii	"\177')\374\352\337\233\212\2637\001V\240\227\334\311"
  89      EADF9B8A 
  89      B3370156 
  89      A097DCC9 
  90 0379 1F7F76B0 		.ascii	"\037\177v\260\213\240\244\263K\037\"[V\201\376\262 "
  90      8BA0A4B3 
  90      4B1F225B 
  90      5681FEB2 
  90      20
  91 038a 75D0A58B 		.ascii	"u\320\245\213W\227\253\207q\307 l\245\277\002\315[\245"
  91      5797AB87 
  91      71C7206C 
  91      A5BF02CD 
  91      5BA5
  92 039c 8DFB5E86 		.ascii	"\215\373^\206\322o\305G\252&L\305\267+V\000\323\330"
  92      D26FC547 
ARM GAS  /tmp/ccGgN9d3.s 			page 7


  92      AA264CC5 
  92      B72B5600 
  92      D3D8
  93 03ae AB908809 		.ascii	"\253\220\210\011G\227^e\2614v\356\177\007\305\312\345"
  93      47975E65 
  93      B13476EE 
  93      7F07C5CA 
  93      E5
  94 03bf E3D5B246 		.ascii	"\343\325\262F]\355\021:mK*;\207\302\371\324D>\233\033"
  94      5DED113A 
  94      6D4B2A3B 
  94      87C2F9D4 
  94      443E9B1B 
  95 03d3 2B6472A9 		.ascii	"+dr\251Dr\310\000\325J\345\363\211tJK\322\363\2709\221"
  95      4472C800 
  95      D54AE5F3 
  95      89744A4B 
  95      D2F3B839 
  96 03e8 DAAD67B2 		.ascii	"\332\255g\262VJ7\262\311}z25\251\033\031s\257\231\315"
  96      564A37B2 
  96      C97D7A32 
  96      35A91B19 
  96      73AF99CD 
  97 03fc EB85DC4B 		.ascii	"\353\205\334K\023/\3504\310$\306\365\027\263\271B^\177"
  97      132FE834 
  97      C824C6F5 
  97      17B3B942 
  97      5E7F
  98 040e 7664F8E1 		.ascii	"vd\370\341\270\276g\317\223\372\310\323\303\223;\364"
  98      B8BE67CF 
  98      93FAC8D3 
  98      C3933BF4 
  99 041e 7C616C7C 		.ascii	"|al|<9\224\201\307[\371\310\025\270\213]\317\014\357"
  99      3C399481 
  99      C75BF9C8 
  99      15B88B5D 
  99      CF0CEF
 100 0431 1E7E9914 		.ascii	"\036~\231\024\214l.5V0\255T\216\354\377\001h\311U\177"
 100      8C6C2E35 
 100      5630AD54 
 100      8EECFF01 
 100      68C9557F 
 101              		.text
 102              		.section	.gnu.lto_sensorThreadStop.50dde759bd827499,"",%progbits
 103 0000 789C6362 		.ascii	"x\234cb`b@\007\222@<\003\210\205\200\230\221\231\201"
 103      60624007 
 103      92403C03 
 103      88858098 
 103      919981
 104 0013 9169C239 		.ascii	"\221i\3029\006\206F\016&FF\020\203\201\221\241\236\211"
 104      0686460E 
 104      26464610 
 104      838191A1 
 104      9E89
 105 0025 B13E9211 		.ascii	"\261>\222\021\254v=\323\201\007\377\377\257\273u|\301"
 105      AC763DD3 
 105      8107FFFF 
ARM GAS  /tmp/ccGgN9d3.s 			page 8


 105      AFBB757C 
 105      C1
 106 0036 7B464616 		.ascii	"{FF\026&\306\\\2600+CKC\303\004\005\006\206d07\004H"
 106      26C65CB0 
 106      302B434B 
 106      43C30405 
 106      06866430 
 107 004d 82B48632 		.ascii	"\202\264\20622\201h\346\263\014M;n\374~\301\224\310"
 107      328168E6 
 107      B30C4D3B 
 107      6EFC7EC1 
 107      94C8
 108 005f B8909195 		.ascii	"\270\220\221\225A\233aU\003\020\230g22\314f\230\305"
 108      419B6155 
 108      03109867 
 108      3232CC66 
 108      98C5
 109 0071 98C9C898 		.ascii	"\230\311\310\230\316\310\024\001\244!.K\202X\304\000"
 109      CEC81401 
 109      A4212E4B 
 109      8258C400 
 110 0081 1201332E 		.ascii	"\022\0013.24>x\257\014\321\013\003!\214\214 \223A:\004"
 110      32343E78 
 110      AF0CD10B 
 110      03218C8C 
 110      2093413A 
 111 0096 8A53F38A 		.ascii	"\212S\363\212\363\213\342K2\212R\023S\364\222\031\000"
 111      F38BE24B 
 111      328A5213 
 111      53F49219 
 111      00
 112 00a7 1C452D6F 		.ascii	"\034E-o"
 113              		.text
 114              		.section	.gnu.lto_.symbol_nodes.50dde759bd827499,"",%progbits
 115 0000 789C45CC 		.ascii	"x\234E\314=V\0021\024\305\361\233\233\311  (\272\000"
 115      3D560231 
 115      14C5F19B 
 115      9BC92020 
 115      28BA00
 116 0013 B6E32658 		.ascii	"\266\343&X\313\033\014\314\240|\210.\300f\326A\225N"
 116      CB1B0CCC 
 116      A07C882E 
 116      C066D641 
 116      954E
 117 0025 CF710D72 		.ascii	"\317q\015rh\251-\205\311\204\303K\363\277\277W\204 "
 117      68A92D85 
 117      C984C34B 
 117      F3BFBF57 
 117      8420
 118 0037 9E0CD2A3 		.ascii	"\236\014\322\243\247\000\333\037@\344sa\334\311\344"
 118      A700DB1F 
 118      40E47361 
 118      DCC9E4
 119 0046 995857B2 		.ascii	"\231XW\262\003\201[0\213)\350\342\361\2056\352\235\210"
 119      03815B30 
 119      8B29E8E2 
 119      F18536EA 
ARM GAS  /tmp/ccGgN9d3.s 			page 9


 119      9D88
 120 0058 99D2C4E3 		.ascii	"\231\322\304\3433\331\2043\212\321o\314\007\205\211"
 120      33D98433 
 120      8AD16FCC 
 120      078589
 121 0067 4561CC96 		.ascii	"Ea\314\226bUo\224L\265\2418\325\232\222\253V\224\216"
 121      62556F94 
 121      4CB5A138 
 121      D59A92AB 
 121      56948E
 122 007a 6A49B951 		.ascii	"jI\271Q\275R\272\252\212\322S\315)\375\253,\036Q\377"
 122      BD52BAAA 
 122      8AD253CD 
 122      29FDAB2C 
 122      1E51FF
 123 008d FE377DC0 		.ascii	"\3767}\300\341R\277\217\035!\264\275\207/\217\343\330"
 123      E152BF8F 
 123      1D21B4BD 
 123      872F8FE3 
 123      D8
 124 009e D0F60EBE 		.ascii	"\320\366\016\276\212\035\302\177\235v\316b\200\220\306"
 124      8A1DC27F 
 124      9D76CE62 
 124      8090C6
 125 00ad 2DEAEF76 		.ascii	"-\352\357v\364\021\322\350\241\336\374Mp\006F2Z\351"
 125      F411D2E8 
 125      A1DEFC4D 
 125      70064632 
 125      5AE9
 126              		.text
 127              		.section	.gnu.lto_.refs.50dde759bd827499,"",%progbits
 128 0000 789C6362 		.ascii	"x\234cb`b\220e\200\000^\006FF&&&f&\026&V0f\005\262Y"
 128      60629065 
 128      80005E06 
 128      46462626 
 128      26662616 
 129 001b 99D898D8 		.ascii	"\231\330\230\330\2318\030\000\012l\000\202"
 129      99381800 
 129      0A6C0082 
 130              		.text
 131              		.section	.gnu.lto_.decls.50dde759bd827499,"",%progbits
 132 0000 789CBD7D 		.ascii	"x\234\275}\013x\024\305\266nw\317#3$\"\340\343\340V"
 132      0B7814C5 
 132      B66E77CF 
 132      23332422 
 132      E0E3E056 
 133 0014 B7E3B9FB 		.ascii	"\267\343\271\373\334\353\347\335[B@\305{\356\335\212"
 133      DCEBE7DD 
 133      5B4240C5 
 133      7BEEDD8A 
 134 0024 092AFB88 		.ascii	"\011*\373\210p\222\340\321}\356\367\215C2@\366\316\313"
 134      7092E0D1 
 134      7DEEF78D 
 134      433240F6 
 134      CECB
 135 0036 9909E2B9 		.ascii	"\231\011\342\271\337\375l\036F\005\304\360~Cx(\370@"
 135      DFFD6C1E 
ARM GAS  /tmp/ccGgN9d3.s 			page 10


 135      4605C4F0 
 135      7E437828 
 135      F840
 136 0048 79BFE431 		.ascii	"y\277\3441\200\362\024\010\004\020\002BD\001\005D\220"
 136      80F21408 
 136      04100242 
 136      44010544 
 136      90
 137 0059 37017257 		.ascii	"7\001rW\255\352\236\251\352\351\356\251\216\236\233"
 137      ADEA9EA9 
 137      EAE9EEA9 
 137      8E9E9B
 138 0068 2FBDBABA 		.ascii	"/\275\272\272\246\352\257\265V\255\252ZU\335]\255H\212"
 138      A6EAAFB5 
 138      56ADAA5A 
 138      55DD5DAD 
 138      488A
 139 007a F49C2249 		.ascii	"\364\234\"I\315\360\267\251V\222\276i#I.I\222\376\014"
 139      CDF0B7A9 
 139      5692BE69 
 139      23492E49 
 139      92FE0C
 140 008d 47261C33 		.ascii	"G&\0343\3418\002\307\037!\315A8w\200s\034\216Mpt\207"
 140      E13802C7 
 140      1F21CD41 
 140      38778073 
 140      1C8E4D70 
 141 00a3 E3FFC892 		.ascii	"\343\377\310\222\324\207\\\303\231\374e\301\361\025"
 141      D4875CC3 
 141      99FC65C1 
 141      F115
 142 00b1 5CD7C3F1 		.ascii	"\\\327\303\361\357\000\024\204\243/\034epD\341x\035"
 142      EF001484 
 142      A32F1C65 
 142      7044E178 
 142      1D
 143 00c2 8E37E078 		.ascii	"\2167\340x\023\216\341p\324\300\341\203<c\341<\036\216"
 143      138EE170 
 143      D4C0E183 
 143      3C63E13C 
 143      1E8E
 144 00d4 49704C81 		.ascii	"IpL\201c\032\0343\340\230\005\307\277\272%\356\217\340"
 144      631A1C33 
 144      E09805C7 
 144      BFBA25EE 
 144      8FE0
 145 00e6 7782730D 		.ascii	"w\202s\015\224\331Z+s1\304}\011\327\003 }%\034%p\034"
 145      94D95A2B 
 145      7331C47D 
 145      09D70320 
 145      7D251C25 
 146 00fc 87F8C724 		.ascii	"\207\370\307$\312\333\267\360\373\327p\354\207\243\000"
 146      CADBB7F0 
 146      FBD770EC 
 146      87A300
 147 010b F046C1EF 		.ascii	"\360F\301\357\263\341(\204po7\225\205\3101\302Ee{\321"
 147      B3E12884 
ARM GAS  /tmp/ccGgN9d3.s 			page 11


 147      706F3795 
 147      85C831C2 
 147      45657BD1 
 148 011f 4D65AB76 		.ascii	"Me\253vQy\377\015\256U\027\225\377%\010\377\007\204"
 148      5179FF0D 
 148      AE551795 
 148      FF2508FF 
 148      0784
 149 0131 0FC1EF2F 		.ascii	"\017\301\357/C\370m82\240\234G\340x\007\3021\370m\030"
 149      43F86D38 
 149      32A09C47 
 149      E07807C2 
 149      31F86D18 
 150 0145 9CCB898C 		.ascii	"\234\313\211\214p\356\007\347\021\356T]\276\002\361"
 150      70EE07E7 
 150      11EE545D 
 150      BE02F1
 151 0154 EF42FCFF 		.ascii	"\357B\374\377vQ\031\032!\376\004)\033\256\237\205\243"
 151      7651191A 
 151      21FE0429 
 151      1BAE9F85 
 151      A3
 152 0165 1B1CB944 		.ascii	"\033\034\271Dw\220\346\024\304_\206\343\"\034g\3418"
 152      7790E614 
 152      C45F86E3 
 152      221C67E1 
 152      38
 153 0176 A224755D 		.ascii	"\242$u]\243\351\362MM\267D\307#\335T\337e\232\376I="
 153      A3E9F24D 
 153      4DB744C7 
 153      23DD54DF 
 153      659AFE49 
 154 018b 90FAF043 		.ascii	"\220\372\360C\236:%\251W]\317D\347l\035\260\177\244"
 154      9E3A25A9 
 154      575DCF44 
 154      E76C1DB0 
 154      7FA4
 155 019d 2E4914D1 		.ascii	".I\024\321\247\256CR\335G\264s\275v~\331\220/S\032\246"
 155      A7AE4352 
 155      DD47B473 
 155      BD767ED9 
 155      902F531A 
 156 01b2 AA83D5DA 		.ascii	"\252\203\325\332j\365\271-\255\333I\243T\370\013l\201"
 156      6AF5B92D 
 156      ADDB49A3 
 156      54F80B6C 
 156      81
 157 01c3 1A7B490E 		.ascii	"\032{I\016\311\255\375R\255\013CY~\2513\244\376'i\216"
 157      C9ADFD52 
 157      AD0B4359 
 157      7EA933A4 
 157      FE27698E 
 158 01d7 AAD6341E 		.ascii	"\252\3264\036_\273\307\245\252\276\220<Kn\007\266\371"
 158      5FBBC7A5 
 158      AABE903C 
 158      4B6E07B6 
 158      F9
ARM GAS  /tmp/ccGgN9d3.s 			page 12


 159 01e8 AC2C3D2C 		.ascii	"\254,=,}\010\031kTu\326\303\262\224\372\227\0268$\317"
 159      7D08196B 
 159      5475D6C3 
 159      B294FA97 
 159      163824CF 
 160 01fc 9115A01F 		.ascii	"\221\025\240\037\000`H~_~\230\026\245\306\233'g\251"
 160      0060487E 
 160      5F7E9816 
 160      A5C69B27 
 160      67A9
 161 020e 6E1A2F69 		.ascii	"n\032/i\277\230\374=(\325\202\024\361\011\207\246\377"
 161      BF98FC3D 
 161      28D58214 
 161      F10987A6 
 161      FF
 162 021f 83DA1897 		.ascii	"\203\332\030\2273\244j\"T\343\233\203\333OL\226\350"
 162      33A46A22 
 162      54E39B83 
 162      DB4F4C96 
 162      E8
 163 0230 D30B9493 		.ascii	"\323\013\224\223\222\234\337\264\267#J\362!dR\244\341"
 163      929CDFB4 
 163      B7234AF2 
 163      216452A4 
 163      E1
 164 0241 B2CC1522 		.ascii	"\262\314\025\"\000D\270\372\0042s\\/\255\276\235pM\342"
 164      0044B8FA 
 164      0432735C 
 164      2FADBE9D 
 164      704DE2
 165 0254 6DB87641 		.ascii	"m\270vA\211\360?\036\012%\200n\1772nf2Nf\222~\224\214"
 165      89F03F1E 
 165      0A25806E 
 165      7F326E66 
 165      324E6692 
 166 026b 5698E825 		.ascii	"V\230\350%\311h\027\023\275.\031\355f\242\277JF{4N\310"
 166      C9681713 
 166      BD2E19ED 
 166      66A2BF4A 
 166      467B344E 
 167 0280 A5EC4F06 		.ascii	"\245\354O\006\232\371Jd%\014\311\363\345\177\002\372"
 167      9AF94A64 
 167      250CC9F3 
 167      E57F02FA 
 168 0290 A9EC32CD 		.ascii	"\251\3542\315\246H\373Q\211\244\306\314\364\245\005"
 168      A648FB51 
 168      89A4C6CC 
 168      F4A505
 169 029f 93E5B6D6 		.ascii	"\223\345\266\326/\264Zl<\276\370\202k\222\032\037\352"
 169      2FB45A6C 
 169      3CBEF882 
 169      6B921A1F 
 169      EA
 170 02b0 32B34DB8 		.ascii	"2\263M\270\220\031+\012\350x\356D\235\306/5\310\001"
 170      90192B0A 
 170      E878EE44 
 170      9DC62F35 
ARM GAS  /tmp/ccGgN9d3.s 			page 13


 170      C801
 171 02c2 3DB5D72A 		.ascii	"=\265\327*mH^\013b\244MF\022\306\2156y\276\001m2.d\223"
 171      6D485E0B 
 171      62A44D46 
 171      12C68D36 
 171      79BE016D 
 172 02da 171AA6DF 		.ascii	"\027\032\246\337\243\326n\000\355\274\235\024\306\216"
 172      A3D66E00 
 172      EDBC9D14 
 172      C68E
 173 02e8 FFC66B23 		.ascii	"\377\306k#\277\\/\017VU\370a\243L*z\220\302[\2458\324"
 173      BF5C2F0F 
 173      5655F861 
 173      A34C2A7A 
 173      90C25BA5 
 174 02fe D2D1AB9F 		.ascii	"\322\321\253\237@\363\336\204@\353\014@!9\303\317\262"
 174      40F3DE84 
 174      40EB0C40 
 174      2139C3CF 
 174      B2
 175 030f 8CD77A02 		.ascii	"\214\327z\002\202\226\341O\006\310\350s\273\3444\271"
 175      8296E14F 
 175      06C8E873 
 175      BBE434B9 
 176 031f 226DC342 		.ascii	"\"m\303B\343Is\340\030\2651\007\246\034jx\353\321\360"
 176      E34973E0 
 176      18B53107 
 176      A61C6A78 
 176      EBD1F0
 177 0332 36C80F26 		.ascii	"6\310\017&\177R\240\2434\312D\353\205\311\235\254@\311"
 177      7F52A0A3 
 177      34CA44EB 
 177      85C99DAC 
 177      40C9
 178 0344 98DFAACE 		.ascii	"\230\337\252\316W\313\231\311\"\032\024\203A\247\225"
 178      57CB99C9 
 178      221A1483 
 178      41A795
 179 0353 20C09A40 		.ascii	" \300\232@\343\361ef\006\255\325\242Z\255>4/Y\213mt"
 179      E3F16566 
 179      06ADD5A2 
 179      5AAD3E34 
 179      2F598B6D 
 180 0368 3C25518B 		.ascii	"<%Q\213\361\031c\356\"\366\266\023\353\360[scH\017\003"
 180      F11963EE 
 180      22F6B613 
 180      EBF05B73 
 180      63480F03 
 181 037c 76B5FC8F 		.ascii	"v\265\374\217h\014\273\021\350\247\026\003-\035=\227"
 181      680CBB11 
 181      E8A71603 
 181      2D1D3D97 
 182 038c 5AD55E04 		.ascii	"Z\325^\004\272\234R\003.\203U\271x3q\371\223\201\346"
 182      BA9C5203 
 182      2E8355B9 
 182      783371F9 
 182      9381E6
ARM GAS  /tmp/ccGgN9d3.s 			page 14


 183 039f 667E40FA 		.ascii	"f~@\372\215\023[\325\357\016\266~\007\271\004\352\327"
 183      8D135BD5 
 183      EF0EB67E 
 183      07B904EA 
 183      D7
 184 03b0 C7D6AFC4 		.ascii	"\307\326\257\304\327\357\362\323\264~\305\033\346\342"
 184      D7EFF2D3 
 184      B47EC51B 
 184      E6E2
 185 03be C9FB2F68 		.ascii	"\311\373/hm\374 *q\265\313\250D\217A\211\036^T\217?"
 185      6DFC202A 
 185      71B5CBA8 
 185      448F4189 
 185      1E5E548F 
 186 03d3 1948B4B5 		.ascii	"\031H\264\265\215\216%1X\352*\273\256W\345\272^\360"
 186      8D8E2531 
 186      58EA2ABB 
 186      AE57E5BA 
 186      5EF0
 187 03e5 B834C087 		.ascii	"\2704\300\207\222\246\272/\331\367\006,\323\206\344"
 187      92A6BA2F 
 187      D9F7062C 
 187      D386E4
 188 03f4 C664DF6B 		.ascii	"\306d\337k\235\214$<\226\322\367\356\307\276\367\230"
 188      9D8C243C 
 188      96D2F7EE 
 188      C7BEF798 
 189 0404 50DF7B6D 		.ascii	"P\337{m?\365\007|\322[t\030W\007\311\257\332\370\003"
 189      3FF5077C 
 189      D25B7418 
 189      5707C9AF 
 189      DAF803
 190 0417 C4815142 		.ascii	"\304\201QB\362q\310\240H[]f\236\014\226J\022\350:\244"
 190      F271C8A0 
 190      485B5D66 
 190      9E0C964A 
 190      12E83AA4 
 191 042b 613D8403 		.ascii	"a=\204\003\340.\254\205c-\035\000\3435\023\262\352^"
 191      E02EAC85 
 191      632D1D00 
 191      E33513B2 
 191      EA5E
 192 043d 11EF1E56 		.ascii	"\021\357\036V\322\356\341\024\332\321\201\024;\332-"
 192      D2EEE114 
 192      DAD18114 
 192      3BDA2D
 193 044c 3B6C8D8A 		.ascii	";l\215\212t\332(\000W\254\231\000m8\001&}M\307<\316"
 193      74DA2800 
 193      57AC9900 
 193      6D380126 
 193      7D4DC73C 
 194 0461 8AEE96C6 		.ascii	"\212\356\226\306i\003\270*\307B\362\237\357\262l\234"
 194      6903B82A 
 194      C742F29F 
 194      EFB26C9C 
 195 0471 E7E4BB31 		.ascii	"\347\344\2731\344\242NNH\236\011H\211\013\255\351&\256"
 195      E4A24E4E 
ARM GAS  /tmp/ccGgN9d3.s 			page 15


 195      489E0948 
 195      890BADE9 
 195      26AE
 196 0483 0F52F942 		.ascii	"\017R\371Br\357d\347`\343\035L\031\177'\321\326\317"
 196      72EF64E7 
 196      60E31D4C 
 196      197F27D1 
 196      D6CF
 197 0495 80A24857 		.ascii	"\200\242HW\015\332\342\030\246\214X1y\031\000\314\355"
 197      0DDAE218 
 197      A68C5831 
 197      791900CC 
 197      ED
 198 04a6 2FE53745 		.ascii	"/\3457E\252v\033\024\352l\004\211/\374u\012\275n\243"
 198      AA761B14 
 198      EA6C0489 
 198      2FFC750A 
 198      BD6EA3
 199 04b9 50615F39 		.ascii	"Pa_9\376M\275\034\010\3117\321Q~\327\335\"GYU\014\216"
 199      FE4DBD1C 
 199      08C937D1 
 199      517ED7DD 
 199      22475955 
 200 04cf F2D763D0 		.ascii	"\362\327c\320Q&\361\351\035\345\211\356TG\371c7\357"
 200      5126F1E9 
 200      1DE589EE 
 200      5447F963 
 200      37EF
 201 04e1 284B02CE 		.ascii	"(K\002\316l\222\213\220<H!>\305`\305\334\231u`Wk\250"
 201      6C928B90 
 201      3C48213E 
 201      C560C5DC 
 201      99756057 
 202 04f7 5D5D43BB 		.ascii	"]]C\273Z\355\266\265\253\3536v\365\266bmW\206\337\240"
 202      5AEDB6B5 
 202      ABEB3676 
 202      F5B6626D 
 202      5786DFA0 
 203 050b A711B12B 		.ascii	"\247\021\261+\353\221+\276N\263+\335\323<\340\030\217"
 203      EB912BBE 
 203      4EB32BDD 
 203      D33CE018 
 203      8F
 204 051c B7D3C35F 		.ascii	"\267\323\303_g\325\204t\260\303\"`m\254\231\273\312"
 204      67D58474 
 204      B0C32260 
 204      6DAC99BB 
 204      CA
 205 052d 82353A06 		.ascii	"\2025:\006\3439\033\333\300\200\235\020\001ko\315\331"
 205      E3391BDB 
 205      C0809D10 
 205      016B6FCD 
 205      D9
 206 053e 7416EC8C 		.ascii	"t\026\354\214c0\236\263\025,\330y\021\260\2005g{X\260"
 206      63309EB3 
 206      152CD879 
 206      11B08035 
ARM GAS  /tmp/ccGgN9d3.s 			page 16


 206      677B58B0 
 207 0552 CB8EC102 		.ascii	"\313\216\301\002)&G[\311w\350y\177\017\236sH\376\021"
 207      2926475B 
 207      C977E879 
 207      7F0F9E73 
 207      48FE11
 208 0565 E959A457 		.ascii	"\351Y\244W\221\016S\010\035\201t$\322\032\244\243\221"
 208      910E5308 
 208      1D817424 
 208      D21AA4A3 
 208      91
 209 0576 8E453A5E 		.ascii	"\216E:^\341\274\366&\267q\230:f\364\332\217q^\373oV"
 209      E1BCF626 
 209      B771983A 
 209      66F4DA8F 
 209      715EFB6F 
 210 058b B655BB3B 		.ascii	"\266U\273;\302z\204#=\002~\224\215\351\236;\004\325"
 210      C27A8423 
 210      3D027E94 
 210      8DE99E3B 
 210      04D5
 211 059d 907669C5 		.ascii	"\220vi\305\255#\345I\011\307\360\353S\361\366\253T\265"
 211      AD23E549 
 211      09C7F0EB 
 211      53F1F6AB 
 211      54B5
 212 05af 4D489EAA 		.ascii	"MH\236\252\220\265\225\257<\274\242\322\342(\322>\314"
 212      90B595AF 
 212      3CBCA2D2 
 212      E228D23E 
 212      CC
 213 05c0 3243E13D 		.ascii	"2C\341=\247\306\346\263\215\367NDd\362Sz\347\251\251"
 213      A7C6E6B3 
 213      8DF74E44 
 213      64F2537A 
 213      E7A9A9
 214 05d3 7A5AEA98 		.ascii	"zZ\352\230C\331\262\322\341lc\3774\326\253\263\342p"
 214      43D9B2D2 
 214      E16C63FF 
 214      34D6ABB3 
 214      E270
 215 05e5 EEA7F170 		.ascii	"\356\247\361pk\023\2323\301U\244)\216\301\002\034\330"
 215      6B139A33 
 215      C155A429 
 215      8EC1021C 
 215      D8
 216 05f6 98CD531D 		.ascii	"\230\315S\035\316\304\307]\370\341\2365\250\262y\012"
 216      CEC4C75D 
 216      F8E19E35 
 216      A8B2790A 
 217 0606 6950A7BD 		.ascii	"iP\247\275F\253\335ht\256Df\304\027D\004\261\354\265"
 217      46ABDD68 
 217      74AE4466 
 217      C4174404 
 217      B1ECB5
 218 0619 494DD6DD 		.ascii	"IM\326\335\267r\221\252\276\343M\273~\241H\327\261\260"
 218      B77291AA 
ARM GAS  /tmp/ccGgN9d3.s 			page 17


 218      BEE34DBB 
 218      7EA148D7 
 218      B1B0
 219 062b F9466B18 		.ascii	"\371Fk\030w\275\356O\324\032\346\013Y\303\362\355\023"
 219      77BDEE4F 
 219      D41AE60B 
 219      59C3F2ED 
 219      13
 220 063c 52ADC1CC 		.ascii	"R\255\301\314\030\275z\361\305X\374\352\014R\374\"c"
 220      18BD7AF1 
 220      C558FCEA 
 220      0C52FC22 
 220      63
 221 064d F10B6FFD 		.ascii	"\361\013o\375\360gZ\374\"\241\342\217\356\032kf\214"
 221      F0675AFC 
 221      22A1E28F 
 221      EE1A6B66 
 221      8C
 222 065e 163E8F5E 		.ascii	"\026>\217^}\327\317=4\003\013Y\206\006T\3553V\337\223"
 222      7DD7CF3D 
 222      34030B59 
 222      860654ED 
 222      3356DF93 
 223 0672 996C5978 		.ascii	"\231lYx\315\331\357{>\235\373\026\331/\210\031\177\362"
 223      CDD9EF7B 
 223      3E9DFB16 
 223      D92F8819 
 223      7FF2
 224 0684 43AC299D 		.ascii	"C\254)\235\2071\216\021y#\376e\027\266\010\0126A\004"
 224      87318E11 
 224      7923FE65 
 224      17B6080A 
 224      364104
 225 0697 CC66F8BF 		.ascii	"\314f\370\277\310\202Mq\014\306sv\231\005\233!\002f"
 225      C8824D71 
 225      0CC67376 
 225      99059B21 
 225      0266
 226 06a9 37F6B360 		.ascii	"7\366\263`\263\035\203\361\234]g\301\346\212\200\331"
 226      B31D83F1 
 226      9C5D67C1 
 226      E68A80D9 
 227 06b9 8CFD3758 		.ascii	"\214\3757X\260\217\035\203\361\234\335b\301>\023\001"
 227      B08F1D83 
 227      F19CDD62 
 227      C13E1301 
 228 06c9 0B587356 		.ascii	"\013XsV\263\207\001[\354\030\214\347l4\013\266\\\004"
 228      B387015B 
 228      EC188CE7 
 228      6C340BB6 
 228      5C04
 229 06db EC216BCE 		.ascii	"\354!k\316\306\262`\237;\006\3439\033\317\202\255\023"
 229      C6B2609F 
 229      3B06E339 
 229      1BCF82AD 
 229      13
 230 06ec 01CBB6E6 		.ascii	"\001\313\266\346l\"\013\266\3211\030\317\331d\026l\263"
ARM GAS  /tmp/ccGgN9d3.s 			page 18


 230      6C220BB6 
 230      D13118CF 
 230      D964166C 
 230      B3
 231 06fd 0858176B 		.ascii	"\010X\027k\316\246\262`\333\035\203\361\234-`\301v\211"
 231      CEA6B260 
 231      DB1D83F1 
 231      9C2D60C1 
 231      7689
 232 070f 803D65CD 		.ascii	"\200=e\315\331\"\026l\217c0\236\263%,\330>\021\260\347"
 232      D922166C 
 232      8F63309E 
 232      B3252CD8 
 232      3E11B0E7 
 233 0723 AC395BC6 		.ascii	"\2549[\306\202\035p\014\306s\266\202\005;$\002\326\313"
 233      821D700C 
 233      C673B682 
 233      053B2402 
 233      D6CB
 234 0735 9AB3552C 		.ascii	"\232\263U,\330\021\307`<g\253Y\260oE\300^\262\346l-"
 234      D811C760 
 234      3C67AB59 
 234      B06F45C0 
 234      5EB2E66C 
 235 074a 0B76DC31 		.ascii	"\013v\3341\030\317Y\035\013\366\243\010\330+&\234%\376"
 235      18CF591D 
 235      0BF6A308 
 235      D82B269C 
 235      25FE
 236 075c ACFCCC85 		.ascii	"\254\374\314\205\012\343\253\237\361\351\016\216\303"
 236      0AE3AB9F 
 236      F1E90E8E 
 236      C3
 237 0769 315A4A62 		.ascii	"1ZJb\234\3639\365\3108\271\211o}\337*m\234\247\316\352"
 237      9CF339F5 
 237      C838B989 
 237      6F7DDF2A 
 237      6D9CA7CE 
 238 077e 6511449B 		.ascii	"e\021D\233\001p\362f\306\363\275\345\030\314`\312\233"
 238      0170F266 
 238      C6F3BDE5 
 238      18CC60CA 
 238      9B
 239 078f 8DD311CD 		.ascii	"\215\323\021\315\007n|?n\277\352\203+\242\211\304j\373"
 239      076E7C3F 
 239      6EBFEA83 
 239      2BA289C4 
 239      6AFB
 240 07a1 F6E66943 		.ascii	"\366\346iC\362\005\\G\271\250\370\023\\\320\260\036"
 240      F2055C47 
 240      B9A8F813 
 240      5CD0B01E 
 241 07b1 A2B706AB 		.ascii	"\242\267\006\253\375\226k\252\366Y\255,\341<k\011\303"
 241      FD966BAA 
 241      F659AD2C 
 241      E13C6B09 
 241      C3
ARM GAS  /tmp/ccGgN9d3.s 			page 19


 242 07c2 FD026AB2 		.ascii	"\375\002j\262\031\332\217n\236\212\313\305\214\274"
 242      19DA8F6E 
 242      9E8ACBC5 
 242      8CBC
 243 07d0 696E1F8F 		.ascii	"in\037\217\273P\247M\020\256\342\004a\264\337\364\236"
 243      BB50A74D 
 243      10AEE204 
 243      61B4DFF4 
 243      9E
 244 07e1 8A00D2B5 		.ascii	"\212\000\322\265\221\363\377;\336SiB\240)-\006Z:zz\027"
 244      91F3FF3B 
 244      DE536942 
 244      A0292D06 
 244      5A3A7A7A 
 245 07f6 04BA8540 		.ascii	"\004\272\205@\263\015@\332\032\027\243x\231\237\261"
 245      B30D40DA 
 245      1A17A378 
 245      999FB1
 246 0805 D8AE9CFD 		.ascii	"\330\256\234\375\206i\025i\276\261\272\314\226\311\255"
 246      86691569 
 246      BEB1BACC 
 246      96C9AD
 247 0814 9D276874 		.ascii	"\235'ht\007\036X\371\251\252\016\361:\251\260-Z\205"
 247      071E58F9 
 247      A9AA0EF1 
 247      3AA9B02D 
 247      5A85
 248 0826 0D7111F5 		.ascii	"\015q\021\365,MQO\223\342L?\212\264\306\261\034\017"
 248      2C4D514F 
 248      93E24C3F 
 248      8AB4C6B1 
 248      1C0F
 249 0838 19E4883F 		.ascii	"\031\344\210?\344\\\216\003\232\034o\243\034_\376\006"
 249      E45C8E03 
 249      9A1C6FA3 
 249      1C5FFE06 
 250 0848 72EC702C 		.ascii	"r\354p,G6#\007NK\037\241\323\322;\244\321\351o\253\277"
 250      47362307 
 250      4E4B1FA1 
 250      D3D23BA4 
 250      D1E96FAB 
 251 085d EBBA839B 		.ascii	"\353\272\203\233\023\306\017n#\353\313$:\335|P\215_"
 251      13C60F6E 
 251      23EBCB24 
 251      3ADD7C50 
 251      8D5F
 252 086f D9C6CCE5 		.ascii	"\331\306\314\345U\261\271\3749Mc5\250\261\275f-L\010"
 252      55B1B9FC 
 252      394D6335 
 252      A8B1BD66 
 252      2D4C08
 253 0882 E9DACE2F 		.ascii	"\351\332\316/\026j\367\356\306 TC\213\241\226\356YN"
 253      166AF7EE 
 253      C6205443 
 253      8BA196EE 
 253      594E
 254 0894 1BEB7804 		.ascii	"\033\353x\004:\226R\213^C%z\371J\204KR\322U\262\264"
ARM GAS  /tmp/ccGgN9d3.s 			page 20


 254      3A96528B 
 254      5E43257A 
 254      F94A844B 
 254      52D255B2 
 255 08a9 20BFA1C5 		.ascii	" \277\241\305\220\213\014\351\377{>\030\211\221}R\201"
 255      908B0CE9 
 255      FF7B3E18 
 255      89917D52 
 255      81
 256 08ba 0E47E2A4 		.ascii	"\016G\342\244\001\375q\2456\212\322J\272\360\253\020"
 256      01FD71A5 
 256      368AD24A 
 256      BAF0AB10 
 257 08ca 07C7170F 		.ascii	"\007\307\027\017\237\246\255o?I\306\321\033\277\022"
 257      9FA6AD6F 
 257      3F49C6D1 
 257      1BBF12
 258 08d9 6EF776E7 		.ascii	"n\367v\347+H\361\337Q\253\233\201\002\015i\365\233\254"
 258      2B48F1DF 
 258      51AB9B81 
 258      020D69F5 
 258      9BAC
 259 08eb 20BDD7AA 		.ascii	" \275\327\252\205\202$\376\024i|+\201\3212`W[W\037\021"
 259      858224FE 
 259      14697C2B 
 259      81D13260 
 259      575B571F 
 260 0900 5C854AAC 		.ascii	"\\\205J\254m\376\320~\013*\343}\027Y\333\234lP\206\300"
 260      6DFED07E 
 260      0B2AE37D 
 260      1759DB9C 
 260      6C5086C0 
 261 0914 6AD68798 		.ascii	"j\326\207\230e\236+em\263\356\036\272\234D~\022X\315"
 261      659E2B65 
 261      6DB3EE1E 
 261      BA9C447E 
 261      1258CD
 262 0927 AAD6ED82 		.ascii	"\252\326\355\202.Y\316Q\024\015\266\245\372\344\252"
 262      2E59CE51 
 262      140DB6A5 
 262      FAE4AA
 263 0936 30C95F48 		.ascii	"0\311_H\376\310E\034\243\217]\334\362\367J\307\272\017"
 263      FEC8451C 
 263      A38F5DDC 
 263      F2F74AC7 
 263      BA0F
 264 0948 B0BA8F37 		.ascii	"\260\272\2177m\237*\023\376M\026\340\236b\335\325\204"
 264      6D9F2A13 
 264      FE4D16E0 
 264      9E62DDD5 
 264      84
 265 0959 E21BEFD9 		.ascii	"\342\033\357\331\212\352\371\024\025\277\321B\361OY"
 265      8AEAF914 
 265      15BFD142 
 265      F14F59
 266 0968 E128523D 		.ascii	"\341(R=fY\230\252\370-\277\243\212_(\244\370}\246\212"
 266      665998AA 
ARM GAS  /tmp/ccGgN9d3.s 			page 21


 266      F82DBFA3 
 266      8A5F28A4 
 266      F87DA68A 
 267 097c 5FE85CF1 		.ascii	"_\350\\\361\032\336\376\344\002qH\376\3001X\300\256"
 267      1ADEFEE4 
 267      027148FE 
 267      C03158C0 
 267      AE
 268 098d 161732B5 		.ascii	"\026\0272\265\270\030kq\211\213\334NX\312\327\345\367"
 268      B8186B71 
 268      898BDC4E 
 268      58CAD7E5 
 268      F7
 269 099e C6BAE434 		.ascii	"\306\272\3444\247\005-\027G\324\370\230\235S5\225\320"
 269      A7052D17 
 269      47D4F898 
 269      9D533595 
 269      D0
 270 09af 3EEF6711 		.ascii	">\357g\021\333\260Y\322\230\276\023UB\373\233K\216\301"
 270      DBB059D2 
 270      98BE1355 
 270      42FB9B4B 
 270      8EC1
 271 09c1 021CD89A 		.ascii	"\002\034\330\232\221&7\001L\254N\225\331i\210\"\251"
 271      91263701 
 271      4CAC4E95 
 271      D9698822 
 271      A9
 272 09d2 99A4DC35 		.ascii	"\231\244\3345Fs\231\266j\367[\362 \034:\327\010\330"
 272      467399B6 
 272      6AF75BF2 
 272      201C3AD7 
 272      08D8
 273 09e4 0B8CF3C7 		.ascii	"\013\214\363\307\375\352\350,\335nW%PmTmc-M?n\225\021"
 273      FDEAE82C 
 273      DD6E5725 
 273      506D546D 
 273      632D4D3F 
 274 09fb 8E4EAB36 		.ascii	"\216N\2536\030\341\322\316\372x\270[\341-\331\316\024"
 274      18E1D2CE 
 274      FA78B85B 
 274      E12DD9CE 
 274      14
 275 0a0c A3DD2B3E 		.ascii	"\243\335+>\264\222x:\233P\246m\231\306\021\201j\206"
 275      B492783A 
 275      9B50A66D 
 275      99C61181 
 275      6A86
 276 0a1e 31C4358C 		.ascii	"1\3045\214!\256CC\214\243!n@\372\005k\216V\316\326\227"
 276      21AE4343 
 276      8CA3216E 
 276      40FA056B 
 276      8E56CED6 
 277 0a33 2E669EB4 		.ascii	".f\236\264\307\261\334\001C\355X\025\263\232-\346`\246"
 277      C7B1DC01 
 277      43ED5815 
 277      B39A2DE6 
ARM GAS  /tmp/ccGgN9d3.s 			page 22


 277      60A6
 278 0a45 80ED59AF 		.ascii	"\200\355Y\257\200\221N\375\177\350\356\000\275\377\362"
 278      80914EFD 
 278      7FE8EE00 
 278      BDFFF2
 279 0a54 9D6344DE 		.ascii	"\235cD\336\232\317\217\344\334\201\263\"pO\2310h\366"
 279      9ACF8FE4 
 279      DC81B322 
 279      704F9930 
 279      68F6
 280 0a66 C7DE710B 		.ascii	"\307\336q\013\3113q:<\013o?\276\217t.\322O\220\236A"
 280      C933713A 
 280      3C0B6F3F 
 280      BE8F742E 
 280      D24F909E 
 281 0a7b 7A16E939 		.ascii	"z\026\3519\244W\220\016\306\012}\013\351\010\244s\220"
 281      A457900E 
 281      C60A7D0B 
 281      E908A473 
 281      90
 282 0a8c CE47BA1C 		.ascii	"\316G\272\034\351J\244\237#\335\216tG:\003\320F\201"
 282      E94AA49F 
 282      23DD8E74 
 282      473A03D0 
 282      4681
 283 0a9e 6FD61DBC 		.ascii	"o\326\035\274\357\023\354\253\247\240\371\177\232e\264"
 283      EF13ECAB 
 283      A7A0F97F 
 283      9A65B4
 284 0aad BCD98AE1 		.ascii	"\274\331\212\341~H\312\015\275\365YNo\214\2625\2406"
 284      7E48CA0D 
 284      BDF5594E 
 284      6F8CB235 
 284      A036
 285 0abf 7EB9EEB4 		.ascii	"~\271\356\264k\020y\300\214\232\177H^\353Rx@\276\301"
 285      6B1079C0 
 285      8C9A7F48 
 285      5EEB5278 
 285      40BEC1
 286 0ad2 98CD3A38 		.ascii	"\230\315:8+\211\317\230>C\254\207\362\350`\275\222*"
 286      2B89CF98 
 286      3E43AC87 
 286      F2E860BD 
 286      922A
 287 0ae4 5978626B 		.ascii	"Yxbk\227!\330\035\355\303\3068\364\266\264w[y\034\242"
 287      9721D81D 
 287      EDC3C638 
 287      F4B6B477 
 287      5B791CA2 
 288 0af8 A403865E 		.ascii	"\244\003\206^.\276|;>\243v }\0177tH\374\363\355c\223"
 288      2EBE7C3B 
 288      3EA37620 
 288      7D0F3774 
 288      48FCF3ED 
 289 0b0e 3EE5105B 		.ascii	">\345\020[\237\022\332:\336\207\027\361\020kP\222\003"
 289      9F12DA3A 
 289      DE8717F1 
ARM GAS  /tmp/ccGgN9d3.s 			page 23


 289      106B5092 
 289      03
 290 0b1f 2D1B5881 		.ascii	"-\033X\201\255\325\333q\0249\204\243\310\030\307`\001"
 290      ADD5DB71 
 290      143984A3 
 290      C818C760 
 290      01
 291 0b30 0E6C2D0B 		.ascii	"\016l-\0136A\004\314\252\327\005\260:\026l\212c0\236"
 291      364104CC 
 291      AAD705B0 
 291      3A166C8A 
 291      63309E
 292 0b43 B33D2CD8 		.ascii	"\263=,\330L\0210\2535;\000\333\313\202\315u\014\306"
 292      4C1130AB 
 292      353B00DB 
 292      CB82CD75 
 292      0CC6
 293 0b55 73B69F05 		.ascii	"s\266\237\005\233/\002f\325H\000\354\000\013\266\330"
 293      9B2F0266 
 293      D54800EC 
 293      000BB6D8 
 294 0b65 3118CF59 		.ascii	"1\030\317Y\003\013\266R\004,`\315\331a\026l\235c0\236"
 294      030BB652 
 294      042C60CD 
 294      D961166C 
 294      9D63309E 
 295 0b79 B3232CD8 		.ascii	"\263#,\330F\0210+\277\014\300\316\261`\233\035\203\361"
 295      4611302B 
 295      BF0CC0CE 
 295      B1609B1D 
 295      83F1
 296 0b8b 9CFDC282 		.ascii	"\234\375\302\202}%\002f\345\341\001\330E\026l\267c0"
 296      7D250266 
 296      E5E101D8 
 296      45166CB7 
 296      6330
 297 0b9d 9EB3CB2C 		.ascii	"\236\263\313,\330~\0210\253!\033\300\256\262`\207\034"
 297      D87E1130 
 297      AB211BC0 
 297      AEB26087 
 297      1C
 298 0bae 83F19C5D 		.ascii	"\203\361\234]g\301\032E\300\236\262\346\354\006\013"
 298      67C11A45 
 298      C09EB2E6 
 298      EC060B
 299 0bbd 76DC3118 		.ascii	"v\3341\030\317\331-\026\354\224\010\230\325M+\000\253"
 299      CFD92D16 
 299      EC940898 
 299      D54D2B00 
 299      AB
 300 0bce D9C980FD 		.ascii	"\331\311\200\375\354\030, Y\376\261CSH>\210\236c\003"
 300      EC182C20 
 300      59FEB143 
 300      53483E88 
 300      9E6303
 301 0be1 BA0CDF20 		.ascii	"\272\014\337 =\212\364[\244\337!=\216\364$\322\037\221"
 301      3D8AF45B 
ARM GAS  /tmp/ccGgN9d3.s 			page 24


 301      A4DF213D 
 301      8EF424D2 
 301      1F91
 302 0bf3 9E46FA13 		.ascii	"\236F\372\023\322\237\221\236Gz\001\351%\244W\220^C"
 302      D29F919E 
 302      477A01E9 
 302      25A45790 
 302      5E43
 303 0c05 DA84F426 		.ascii	"\332\204\364&\322f\244\203\334\002\376\351^\326q\374"
 303      D266A483 
 303      DC02FEE9 
 303      5ED671FC 
 304 0c15 E5360127 		.ascii	"\3456\001'\303\372vs\343\361\023\342O\261\277\242\343"
 304      C3FA7673 
 304      E3F113E2 
 304      4FB1BFA2 
 304      E3
 305 0c26 9117F574 		.ascii	"\221\027\365tG\351\347\255\377\223x\005&\243?\227\034"
 305      47E9E7AD 
 305      FF937805 
 305      26A33F97 
 305      1C
 306 0c37 5C35B7E9 		.ascii	"\\5\267\351s\354\\*\222\356\035\267\301E\270\264\023"
 306      73EC5C2A 
 306      92EE1DB7 
 306      C145B8B4 
 306      13
 307 0c48 5D04129F 		.ascii	"]\004\022\237~\322|Ep\022\026O\270N\355%\326\305\371"
 307      7ED27C45 
 307      7012164F 
 307      B84EED25 
 307      D6C5F9
 308 0c5b 337571DE 		.ascii	"3uq\336u\023\027gM\353\264.\016\217C\370\2531\362\277"
 308      75131767 
 308      4DEBB42E 
 308      0E8F43F8 
 308      AB31F2BF 
 309 0c6f 7817F25F 		.ascii	"x\027\362_\223\236\177\260\360\345\332\303;\272\221"
 309      939E7FB0 
 309      F0E5DAC3 
 309      3BBA91
 310 0c7e D7210B24 		.ascii	"\327!\013$o\313|\223\025\273\230\026S\357\030,\300\201"
 310      6FCB7C93 
 310      15BB9816 
 310      53EF182C 
 310      C081
 311 0c90 AD62C10E 		.ascii	"\255b\301\016\210\200\331\370&\253Y\260\303\216\301"
 311      8880D9F8 
 311      26AB59B0 
 311      C38EC1
 312 0c9f 78CED6B2 		.ascii	"x\316\326\262`\337\212\200\331\370&u,\330\011\307`\001"
 312      60DF8A80 
 312      D9F82675 
 312      2CD809C7 
 312      6001
 313 0cb1 B3EA9552 		.ascii	"\263\352\225R\254#$\217r\223^f\264\233\264\374\261H"
 313      AC23248F 
ARM GAS  /tmp/ccGgN9d3.s 			page 25


 313      72935E66 
 313      B49BB4FC 
 313      B148
 314 0cc3 C7239D88 		.ascii	"\307#\235\210t2\322\251\"=\302\0107\323#\234B\206\337"
 314      7432D2A9 
 314      223DC208 
 314      37D3239C 
 314      4286DF
 315 0cd6 6999C540 		.ascii	"i\231\305@\217\360\315\317\337\3763\275?kx\200\214\350"
 315      8FF0CDCF 
 315      DFFE33BD 
 315      3F6B7880 
 315      8CE8
 316 0ce8 C38A835A 		.ascii	"\303\212\203Z\226\203\363\2169\010\260\034\304\233v"
 316      9683F38E 
 316      3908B01C 
 316      C49B76
 317 0cf7 D27B8BFA 		.ascii	"\322{\213\372\015\276\313F<\263\233-vk\017;3\027\274"
 317      0DBECB46 
 317      3CB39B2D 
 317      766B0F3B 
 317      3317BC
 318 0d0a A283DD74 		.ascii	"\242\203\335t\014\346\343\300jv1`o\335\356\024\254M"
 318      0CE6E3C0 
 318      6A763160 
 318      6FDDEE14 
 318      AC4D
 319 0d1c 8A45505B 		.ascii	"\212EP[\030\206\2660\034\353|\006\322YH\347 \375\200"
 319      1886B630 
 319      1CEB7C06 
 319      D25948E7 
 319      20FD80
 320 0d2f B502451A 		.ascii	"\265\002E\032y\273q6J;G\0065\331\213J\242\270Vu\373"
 320      79BB7136 
 320      4A3B4706 
 320      35D98B4A 
 320      A2B85675 
 321 0d44 265BB733 		.ascii	"&[\2673ow:\336pu\333x\374\244\366\376\227\376\340\365"
 321      6F773ADE 
 321      7075DB78 
 321      FCA4F6FE 
 321      97FEE0F5 
 322 0d58 3C114033 		.ascii	"<\021@3\007\317\354\217}):$\317\305\031\340<|\366\371"
 322      07CFEC8F 
 322      7D293A24 
 322      CFC519E0 
 322      3C7CF6F9 
 323 0d6c 73A45F21 		.ascii	"s\244_!=\200\364\033\244\223q1a\017\216\276\365H\207"
 323      3D80F41B 
 323      A4937131 
 323      610F8EBE 
 323      F54887
 324 0d7f A2663E12 		.ascii	"\242f>\022\321\314\314\344s\320\\[i+\325\34081\2575"
 324      D1CCCCE4 
 324      73D05C5B 
 324      692BD5E0 
 324      3831AF35 
ARM GAS  /tmp/ccGgN9d3.s 			page 26


 325 0d93 7D1351CB 		.ascii	"}\023Q\313\337\330N\007\370D\321\020\346\273\333b\210"
 325      DFD84E07 
 325      F844D110 
 325      E6BBDB62 
 325      88
 326 0da4 BB0D8649 		.ascii	"\273\015\206I\254\312\374\324\235\274\367\237\345O\006"
 326      ACCAFCD4 
 326      9DBCF79F 
 326      E54F06
 327 0db3 C6C96998 		.ascii	"\306\311i\230\375$Y\215fS\365\304\353d\244\276\264\361"
 327      FD24598D 
 327      6653F5C4 
 327      EB64A4BE 
 327      B4F1
 328 0dc5 7077D3C1 		.ascii	"pw\323\301?\340-\267\317p8\334`0\273\2640\244\330E\306"
 328      3FE02DB7 
 328      CF7038DC 
 328      6030BBB4 
 328      30A4D845 
 329 0dda E1B0A938 		.ascii	"\341\260\2518@c\323\257h6\317!+\232\351\234\006\215"
 329      4063D3AF 
 329      6836CF21 
 329      2B9AE99C 
 329      068D
 330 0dec D9E5B7BE 		.ascii	"\331\345\267\276\375Gdv)2\373mzfS\\\217\025F^\327\020"
 330      FD476476 
 330      2932FB6D 
 330      7A66535C 
 330      8F15465E 
 331 0e02 5E570839 		.ascii	"^W\0109\036\273\227\254\224\325\352,\361W\204V\372\024"
 331      1EBB97AC 
 331      94D5EA2C 
 331      F1578456 
 331      FA14
 332 0e14 304B3779 		.ascii	"0K7yC\350'\003\257\202o\010\255u\033\336\020Z\350Vh"
 332      43E82703 
 332      AF826F08 
 332      AD751BDE 
 332      105AE856 
 333 0e29 6CFAF783 		.ascii	"l\372\367\203n\336\236\372~Pu\033\323\027\351\207\267"
 333      6EDE9EFA 
 333      7E50751B 
 333      D317E987 
 333      B7
 334 0e3a E15FA4D7 		.ascii	"\341_\244\327l\314\366\201\206$k!y\035vmq\267\371kC"
 334      6CCCF681 
 334      86246B21 
 334      791D766D 
 334      71B7F96B 
 335 0e4f 217915EE 		.ascii	"!y\025\356f\260\302\276\023\345l\233\327|\375\305\025"
 335      66B0C2BE 
 335      13E56C9B 
 335      D77CFDC5 
 335      15
 336 0e60 44F37A9F 		.ascii	"D\363z\237\\\323Fv\010\307w\360\373jq\341;\255\003\231"
 336      5CD34676 
 336      08C777F0 
ARM GAS  /tmp/ccGgN9d3.s 			page 27


 336      FB6A71E1 
 336      3BAD0399 
 337 0e74 D893A14B 		.ascii	"\330\223\241K\322\006\317\317j\370\033}#a\033\032\341"
 337      D206CFCF 
 337      6AF81B7D 
 337      23611B1A 
 337      E1
 338 0e85 376DD23B 		.ascii	"7m\322;\220\034\016tQn\242\215\035FK<O\367v\330!d\213"
 338      901C0E74 
 338      516EA28D 
 338      1D464B3C 
 338      4FF776D8 
 339 0e9c D71A9CEE 		.ascii	"\327\032\234\356\3550c\356\365\337Q\317\267\016-rr\333"
 339      ED3063EE 
 339      F5DF51CF 
 339      B70E2D72 
 339      72DB
 340 0eae 165964BD 		.ascii	"\026Yd\275\321\"w\323\315\035\352\205l\362\375\266\251"
 340      D12277D3 
 340      CD1DEA85 
 340      6CF2FDB6 
 340      A9
 341 0ebf 36B9A0AD 		.ascii	"6\271\240\255\251M\256lk\272\271\303\306\266\246\233"
 341      A94DAE6C 
 341      6BBAB9C3 
 341      C6B6A69B 
 342 0ecf 3BEC6E6B 		.ascii	";\354nk\272\271\303\321\266\3167w\250g\014{/\032\366"
 342      BAB9C3D1 
 342      B6CE3777 
 342      A8670C7B 
 342      2F1AF6
 343 0ee2 BE3486BD 		.ascii	"\2764\206\275\243\245\206\015\326\264\241tm\252'&<9"
 343      A3A5860D 
 343      D6B4A174 
 343      6DAA2726 
 343      3C39
 344 0ef4 8BAF317F 		.ascii	"\213\2571\177\303\33001\373^pbv\302h\223\323\350\336"
 344      C3D83031 
 344      FB5E7062 
 344      76C26893 
 344      D3E8DE
 345 0f07 0E27846C 		.ascii	"\016'\204lra\3038g6\031?\3775\271\363\363#\332\343\251"
 345      7261C338 
 345      6736193F 
 345      FF35B9F3 
 345      F323DAE3 
 346 0f1c 96D9E319 		.ascii	"\226\331\343\031\243=\036\234\200\366xF\310\036/\263"
 346      A33D1E9C 
 346      80F67846 
 346      C81E2FB3 
 347 0f2c B6A7C50D 		.ascii	"\266\247\305\015jgjx\343\332\361\206'bJg\030S\372\011"
 347      6A676A78 
 347      E3DAF186 
 347      27624A67 
 347      1853FA09 
 348 0f40 4DE9AC85 		.ascii	"M\351\254\205))\322\334v\262V\003-\353#\0277\214\343"
 348      2929D2DC 
ARM GAS  /tmp/ccGgN9d3.s 			page 28


 348      76B25603 
 348      2DEB2317 
 348      378CE3
 349 0f53 5E5EFCCC 		.ascii	"^^\374\314\210\347\320E_\321\000^\260xU\216i Uy\025"
 349      88E7D045 
 349      5FD1005E 
 349      B078558E 
 349      69205579 
 350 0f68 ABF2F376 		.ascii	"\253\362\363v-\252\312&cU6\321\252l\022\252\312m\355"
 350      2DAACA26 
 350      635536D1 
 350      AA6C12AA 
 350      CA6DED
 351 0f7b 52ABF2A0 		.ascii	"R\253\362\240yU\236nAU61Uy\003\253\362\246eU\252w\010"
 351      79559E6E 
 351      41553631 
 351      557903AB 
 351      F2A66555 
 352 0f92 54A5D96C 		.ascii	"T\245\331l\206)\217\226t\022K\372\001\375"
 352      86298F96 
 352      74124BFA 
 352      01FD
 353 0fa0 D54B48AF 		.ascii	"\325KH\257\360\363\204\341w\030\347\011'\214\363\204"
 353      F0F384E1 
 353      7718E709 
 353      278CF384 
 354 0fb0 13DC3CC1 		.ascii	"\023\334<\301\022\313\312\251<\226t*C\362vc\177\347"
 354      12CBCAA9 
 354      3C96742A 
 354      43F27663 
 354      7FE7
 355 0fc2 D0A8261D 		.ascii	"\320\250&\035r\270\375K|\335\004|\235\277\332C\252p"
 355      72B8FD4B 
 355      7CDD047C 
 355      9DBFDA43 
 355      AA70
 356 0fd4 5C8AB42D 		.ascii	"\\\212\264-z^\250\026a\322Ha\375\306Y|\361\241\3512"
 356      7A5EA816 
 356      61D24861 
 356      FDC6597C 
 356      F1A1E932 
 357 0fe8 6D6AEC5D 		.ascii	"mj\354];\006\317\364\256\235\315\313B{\017\341r\304"
 357      3B06CFF4 
 357      AE9DCDCB 
 357      427B0FE1 
 357      72C4
 358 0ffa 14BCBFB8 		.ascii	"\024\274\277\270\333\210"
 358      DB88
 359 1000 66C69DCD 		.ascii	"f\306\235\315[4\207\2478\332/a)U\360\273\250\340\271"
 359      5B3487A7 
 359      38DA2F61 
 359      2955F0BB 
 359      A8E0B9
 360 1013 290A6EC1 		.ascii	")\012n\301~\011\013\215\3525\333/!`\245\336\301\361"
 360      7E090B8D 
 360      EA35DB2F 
 360      2160A5DE 
ARM GAS  /tmp/ccGgN9d3.s 			page 29


 360      C1F1
 361 1025 4B87F8D7 		.ascii	"K\207\370\327\260\227\211T\027\207\307+\344\306!\346"
 361      B0978954 
 361      1787C72B 
 361      E4C621E6 
 362 1035 2DE0B808 		.ascii	"-\340\270\010\230\315\313;\343\264\033\254t\322\014"
 362      98CDCB3B 
 362      E3B41BAC 
 362      74D20C
 363 1044 DD8E633C 		.ascii	"\335\216c<\236\271\251G\2209\012V'\002f\363\260\313"
 363      9EB9A947 
 363      90390A56 
 363      270266F3 
 363      B0CB
 364 1056 9223022F 		.ascii	"\222#\002/\332\306Mv*i\\xb\375\313\324;\234\342!n\355"
 364      DAC64D76 
 364      2A695C78 
 364      62FDCBD4 
 364      3B9CE221 
 365 106c FE3BD2BB 		.ascii	"\376;\322\273\265)\333\223L\367\030\334\207k\365\350"
 365      B529DB93 
 365      4CF718DC 
 365      876BF5E8 
 366 107c 3E90F8F4 		.ascii	">\220\370\364\353\2427\353\331u\321\220|\004\333\001"
 366      EBA237EB 
 366      D975D190 
 366      7C04DB01 
 367 108c C92BDAD7 		.ascii	"\311+\332\327\360x\267\352\023k|!\271\3211X\200\003"
 367      F078B7EA 
 367      136B7C21 
 367      B9D13158 
 367      8003
 368 109e ABD9CF2C 		.ascii	"\253\331\317,\030\036C\345\244\001\263Y\027\035\315"
 368      181E43E5 
 368      A401B359 
 368      171DCD
 369 10ad 829D740C 		.ascii	"\202\235t\014\306s6v?#\346`\267\200\2306\353\242\343"
 369      C6733676 
 369      3F23E660 
 369      B7809836 
 369      EBA2E3
 370 10c0 59CECE88 		.ascii	"Y\316\316\210pfs\317v\"\013vN\004\314\346\236\355d\026"
 370      706673CF 
 370      76220B76 
 370      4E04CCE6 
 370      9EED6416 
 371 10d4 ECA26330 		.ascii	"\354\242c0\236\263\251,\330U\021\260\2005g\323Y\260"
 371      9EB3A92C 
 371      D85511B0 
 371      803567D3 
 371      59B0
 372 10e6 5B8EC102 		.ascii	"[\216\301\002fM\202\376\261-*$\317\360\020_\240\326"
 372      664D82FE 
 372      B12D2A24 
 372      CFF0105F 
 372      A0D6
 373 10f8 4346EE99 		.ascii	"CF\356\231Hg!\235\203\364\003\244s\221~\210\364c\244"
ARM GAS  /tmp/ccGgN9d3.s 			page 30


 373      4867219D 
 373      83F403A4 
 373      73917E88 
 373      F463A4
 374 110b F3917EE6 		.ascii	"\363\221~\346\021\030\351'{\230U\300!w:\355\212l\005"
 374      1118E927 
 374      7B9855C0 
 374      21773AED 
 374      8A6C05
 375 111e 49CE7643 		.ascii	"I\316vC\362Ntjv\241\013\362-\3227\221\311aH\207#\035"
 375      F24E746A 
 375      76A10BF2 
 375      2DD23791 
 375      C9614887 
 376 1134 817414D2 		.ascii	"\201t\024\3221H\307!\235\200t\222\2108[Y\307e\241\307"
 376      3148C721 
 376      9D807492 
 376      88385B59 
 376      C765A1C7 
 377 1148 B002E1CC 		.ascii	"\260\002\341\314qi\\~\353\340/\362\250!\352\226l\361"
 377      71695C7E 
 377      EBE02FF2 
 377      A821EA96 
 377      6CF1
 378 115a A79DBF3E 		.ascii	"\247\235\277>\325\370\201\366d\374b\034]\337\272\363"
 378      D5F881F6 
 378      64FC621C 
 378      5DDFBAF3 
 379 116a 37715F46 		.ascii	"7q_F\335)\247\227\305\326\275\344\212\\\301T\315J\254"
 379      DD29A797 
 379      C5D6BDE4 
 379      8A5CC154 
 379      CD4AAC
 380 117d 9A555829 		.ascii	"\232UX)\233\220nA\272\210U\270\"MB\016\026%9\340f\222"
 380      9B906E41 
 380      BA8855B8 
 380      224D420E 
 380      162539E0 
 381 1193 69BA6655 		.ascii	"i\272fUm\334\335\264\376{\031\006\224y\331\354:\352"
 381      6DDCDDB4 
 381      FE7B1906 
 381      9479D9EC 
 381      3AEA
 382 11a5 EEE43A6A 		.ascii	"\356\344:j\312\314t\245\307\351*\352*\217\371*\252'"
 382      CACC74A5 
 382      C7E92AEA 
 382      2A8FF92A 
 382      AA27
 383 11b7 2145AD88 		.ascii	"!E\255\210\024\226^\233\032\037\363\323D\027>?\371H"
 383      14965E9B 
 383      1A1FF3D3 
 383      44173E3F 
 383      F948
 384 11c9 2B409B63 		.ascii	"+@\233cDs\322\301\001\332\330\035\362\226l\015k\276"
 384      4473D2C1 
 384      01DAD81D 
 384      F2966C0D 
ARM GAS  /tmp/ccGgN9d3.s 			page 31


 384      6BBE
 385 11db 63AC805D 		.ascii	"c\254\200]\015/bjx1\326\360\022\254\325\025\330\230"
 385      0D2F626A 
 385      7831D6F0 
 385      12ACD515 
 385      D898
 386 11ed 56235DCB 		.ascii	"V#]\313\326\260\340z\354\321\357\032\376\013\256\307"
 386      D6B0E07A 
 386      ECD1EF1A 
 386      FE0BAEC7 
 387 11fd C6D167D8 		.ascii	"\306\321g\330j0o\221\025\207\215F\227\341<Y\217\335"
 387      6A306F91 
 387      15878D46 
 387      97E13C59 
 387      8FDD
 388 120f 98DE6120 		.ascii	"\230\336a w\215\347\320\247a\227\242x\313\261\205o\364"
 388      778DE7D0 
 388      A76197A2 
 388      78CBB185 
 388      6FF4
 389 1221 38B64973 		.ascii	"8\266Is\235mdz\336/\260\347\375\262\005\032\332w\342"
 389      9D6D647A 
 389      DE2FB0E7 
 389      FDB2051A 
 389      DA77E2
 390 1234 14D5D026 		.ascii	"\024\325\320&\324\320\367-\320\320V\243\206.\021\015"
 390      D4D0F72D 
 390      D0D056A3 
 390      862E110D 
 391 1244 6D15D2D0 		.ascii	"m\025\322\3205\023\015m\375\2554\264\225\321\3206\324"
 391      35130D6D 
 391      FDAD34B4 
 391      95D1D036 
 391      D4
 392 1255 D0765643 		.ascii	"\320vVC\017H\323\325\332\306\306\317O^\037@\356\006"
 392      0F48D3D5 
 392      DAC6C6CF 
 392      4F5E1F40 
 392      EE06
 393 1267 A9CDCD6F 		.ascii	"\251\315\315oH\206=\272jln7\356\360\0306\351\302\315"
 393      48863DBA 
 393      6A6C6E37 
 393      EEF01836 
 393      E9C2CD
 394 127a 2898CDA7 		.ascii	"(\230\315\247`\2545h\363\017\322lU\035\255^*~N{\242"
 394      60AC3568 
 394      F30FD26C 
 394      551DAD5E 
 394      2A7E4E7B 
 395 128f 75F85D24 		.ascii	"u\370]$\301W\236\007LK\321\367\273\370\257\322\373\204"
 395      C1579E07 
 395      4C4BD1F7 
 395      BBF8AFD2 
 395      FB84
 396 12a1 A9CFAADF 		.ascii	"\251\317\252\337l\343\246<I6\2714\366vy\024\211\371"
 396      6CE3A63C 
 396      4936B934 
ARM GAS  /tmp/ccGgN9d3.s 			page 32


 396      F6767914 
 396      89F9
 397 12b3 43617F88 		.ascii	"Ca\177\210\037\330\234U3\250\261\271\371\001\007\202"
 397      1FD89C55 
 397      33A8B1B9 
 397      F9010782 
 398 12c3 EEE5054D 		.ascii	"\356\345\005M\373\340\346=:\000\331CY\267\263u\2476"
 398      FBE0E63D 
 398      3A00D943 
 398      59B7B375 
 398      A736
 399 12d5 FC37B4B3 		.ascii	"\3747\264\263\257\321\316j\357J\177\033\207\307!\234"
 399      AFD1CE6A 
 399      EF4A7F1B 
 399      87C7219C 
 400 12e5 34182D6D 		.ascii	"4\030-mq8@c\005^!\271\026\227\325aY\372n\232\237!\003"
 400      71384063 
 400      055E21B9 
 400      1697D561 
 400      59FA6E9A 
 401 12fc 0D1EDB29 		.ascii	"\015\036\333)\240\231\251ip+\177\324\026\374\351\346"
 401      A099A969 
 401      702B7FD4 
 401      16FCE9E6 
 402 130c 832B8D70 		.ascii	"\203+\215pi\327\306\330\035\370\324\370\347\037Z\334"
 402      69D7C6D8 
 402      1DF8D4F8 
 402      E71F5ADC 
 403 131c 65327B0C 		.ascii	"e2{\0146>\315\257\200c\202\212\\/\240\310\224'`\277"
 403      363ECDAF 
 403      8063828A 
 403      5C2FA0C8 
 403      942760BF 
 404 1330 37EAF102 		.ascii	"7\352\361\002i\261\337\013\265\330+\027}\330b\351\323"
 404      69B1DF0B 
 404      B5D82B17 
 404      7DD862E9 
 404      D3
 405 1341 F03BB1F8 		.ascii	"\360;\261\370\357=\366\013\013\226z\204\016\340\014"
 405      EF3DF60B 
 405      0B967A84 
 405      0EE00C
 406 1350 3B44ED31 		.ascii	";D\3551\3029\231\035\000\332\365\257\222CT\203c\254"
 406      C239991D 
 406      00DAF5AF 
 406      92435483 
 406      63AC
 407 1362 00877583 		.ascii	"\000\207u\203\301:&\202e3t\336b\260N9\306\342\371\252"
 407      C13A2682 
 407      653374DE 
 407      62B04E39 
 407      C6E2F9AA 
 408 1376 6186E14B 		.ascii	"a\206\341K\"X\001k\276F3X\267\034c\361|\261\356\301"
 408      2258016B 
 408      BE463358 
 408      B71C63F1 
 408      7CB1EEC1 
ARM GAS  /tmp/ccGgN9d3.s 			page 33


 409 138a DB770B60 		.ascii	"\333w\013`\331\274c3\236\301\032\353\030\213\343K=\310"
 409      D9BC6333 
 409      9EC11AEB 
 409      188BE34B 
 409      3DC8
 410 139c E87EAA08 		.ascii	"\350~\252\010\226\345\362\205\25261Xs\034c\361\372\232"
 410      96E5F285 
 410      AA363158 
 410      731C63F1 
 410      FA9A
 411 13ae C43967F3 		.ascii	"\3049g\363E\320,_\276P\325z\206\263E\216\261x\215\035"
 411      45D02C5F 
 411      BE50D57A 
 411      86B3458E 
 411      B1788D1D 
 412 13c2 65B0968B 		.ascii	"e\260\226\213`=e]\223S8)W;F\013XJ\271^\004\313r\363"
 412      603D655D 
 412      93533829 
 412      573B460B 
 412      584AB95E 
 413 13da 115ECA4D 		.ascii	"\021^\312M\216\261\002\222\345\037\333\277\302\370\200"
 413      8EB10292 
 413      E51FDBBF 
 413      C2F880
 414 13e9 8EC70974 		.ascii	"\216\307\011ta\177@z\012\351\031\244g\221\236C\372\013"
 414      617F407A 
 414      0AE919A4 
 414      67919E43 
 414      FA0B
 415 13fb D28B482F 		.ascii	"\322\213H/#\275\212\364:\322\033Ho!U\275\204\016F:\024"
 415      23BD8AF4 
 415      3AD21B48 
 415      6F2155BD 
 415      840E463A 
 416 1410 69B5979B 		.ascii	"i\265\227\233\376l\277\3330\034\361c\200Y\267\314*z"
 416      FE6CBFDB 
 416      301CF163 
 416      8059B7CC 
 416      2A7A
 417 1422 707CCD4C 		.ascii	"p|\315L\355\315+2G\325'\247\015\366\372\261\331\001"
 417      EDCD2B32 
 417      47D527A7 
 417      0DF6FAB1 
 417      D901
 418 1434 656D98A8 		.ascii	"em\230\250z&n\263:\304-\200e\271\001\212\032\257\277"
 418      7A266EB3 
 418      3AC42D80 
 418      65B9018A 
 418      1AAFBF
 419 1447 E6331F2A 		.ascii	"\3463\037*k\315\366\347\333}\371\030}|d\204\227\214"
 419      6BCDF6E7 
 419      DB7DF918 
 419      7D7C6484 
 419      978C
 420 1459 57C7EE4E 		.ascii	"W\307\356N;\\\3620\244:\337\363\232=>BbE\037\037\341"
 420      3B5CF230 
 420      A43ADFF3 
ARM GAS  /tmp/ccGgN9d3.s 			page 34


 420      9A3D3E42 
 420      62451F1F 
 421 146e 1D5C92D3 		.ascii	"\035\\\222\323\241\203\253\241\215bZSH^cDK;\315\346"
 421      A183ABA1 
 421      8D625A53 
 421      485E6344 
 421      4B3BCDE6 
 422 1482 5A13D7FB 		.ascii	"Z\023\327\373\237F\305\244\301\262\031y\307]\"\265\242"
 422      9F46C5A4 
 422      C1B21979 
 422      C75D22B5 
 422      A2
 423 1493 4F96C9CC 		.ascii	"O\226\311\314w\214\313z\262<\336\353t\262<\301k>Y\326"
 423      778CCB7A 
 423      B23CDEEB 
 423      74B23CC1 
 423      6B3E59D6 
 424 14a7 9D5C45BA 		.ascii	"\235\\E\272j\224\300L\2676\343\375x\317\226l\013\376"
 424      6A94C04C 
 424      B736E3FD 
 424      78CF966C 
 424      0BFE
 425 14b9 6B130BC9 		.ascii	"k\023\013\311\177\320\330\231\354X\200)\026\002\370"
 425      7FD0D899 
 425      EC588029 
 425      1602F8
 426 14c8 12025C37 		.ascii	"\022\002\\7\012\300\027k3\232\233\375\261f\013\376\275"
 426      0AC0176B 
 426      339A9BFD 
 426      B1660BFE 
 426      BD
 427 14d9 97F442A3 		.ascii	"\227\364B\243\260\257\030\215t\014\322qH'\361\275\307"
 427      B0AF188D 
 427      740CD271 
 427      4827F1BD 
 427      C7
 428 14ea 0D63EFC1 		.ascii	"\015c\357\3017\011\263&\312\251\022\234\375='\310\352"
 428      3709B326 
 428      CAA9129C 
 428      FD3D27C8 
 428      EA
 429 14fb C9966C93 		.ascii	"\311\226l\223\366\325\330JG\370\204y\370c\302\365\206"
 429      F6D5D84A 
 429      47F88479 
 429      F863C2F5 
 429      86
 430 150c 7BE94AD4 		.ascii	"{\351J\324\014l\250\343\376!mC5\000\021\221g\031[\352"
 430      0C6CA8E3 
 430      FE216D43 
 430      35001191 
 430      67195BEA 
 431 1520 BE4DB8BE 		.ascii	"\276M\270\276?K\250\255\036\3324V\273kF\037\337\232"
 431      3F4BA8AD 
 431      1EDA3456 
 431      BB6B461F 
 431      DF9A
 432 1532 8E3CCC6A 		.ascii	"\216<\314jqk=\374\014Yv\245X\363D\260l\332\352\321M"
ARM GAS  /tmp/ccGgN9d3.s 			page 35


 432      716B3DFC 
 432      0C5976A5 
 432      58F344B0 
 432      6CDAEAD1 
 433 1547 2381B7F5 		.ascii	"#\201\267\365rr9*\031\322\214P\344\223\002;\227\321"
 433      7272392A 
 433      19D28C50 
 433      E493023B 
 433      97D1
 434 1559 5D6B3EF6 		.ascii	"]k>\366\222\370E\006%\213\003-\335\363\001\335\010\343"
 434      92F84506 
 434      258B032D 
 434      DDF301DD 
 434      08E3
 435 156b 53045A65 		.ascii	"S\004Ze\000\012\311\306\335L\024~\331P!\033S\334jnN"
 435      000AC9C6 
 435      DD4C147E 
 435      D950211B 
 435      53DC6A6E 
 436 1580 6E4C4136 		.ascii	"nLA6\016J\271\247-\234K\037\346R\036\375\373\310qC]"
 436      0E4AB9A7 
 436      2D9C4B1F 
 436      E6521EFD 
 436      FBC87143 
 437 1595 68D150F5 		.ascii	"h\321P\365oi\350E%6\316|E\313\370\241VT\262\263\002"
 437      6F69E845 
 437      2536CE7C 
 437      45CBF8A1 
 437      5654B2B3 
 438 15aa CD7C61AC 		.ascii	"\315|a\254w>\237\026\264\236:@\303\330p\3574h\031oz"
 438      773E9F16 
 438      B49E3A40 
 438      C3D870EF 
 438      3468196F 
 439 15bf CDAA9ED6 		.ascii	"\315\252\236\326\244\016\315\315\275\010#K\035K\277"
 439      A40ECDCD 
 439      BD08234B 
 439      1D4BBF
 440 15ce CC427A7D 		.ascii	"\314Bz}\243\021\275\250\304\023c\331Z\306%f\322\357"
 440      A311BDA8 
 440      C41363D9 
 440      5AC62566 
 440      D2EF
 441 15e0 4A919ECB 		.ascii	"J\221\236\313\247\005\007Z7\241\013\325#\223[<\251B"
 441      A705075A 
 441      37A10BD5 
 441      23935B3C 
 441      A942
 442 15f2 1B33EDFC 		.ascii	"\0333\355\374\344a\264\314\225h\231\015\346&.\2621\323"
 442      E461B4CC 
 442      9568990D 
 442      E6262EB2 
 442      31D3
 443 1604 9E691D10 		.ascii	"\236i\035\020h5\002}\233b\342\222\301\304%\336X\341"
 443      6835027D 
 443      9B62E292 
 443      C1C425DE 
ARM GAS  /tmp/ccGgN9d3.s 			page 36


 443      58E1
 444 1616 526D6E66 		.ascii	"Rmnf\215\025b\336\220Z\224\007f\215FM\232-0\314\223"
 444      8D1562DE 
 444      905A9407 
 444      668D464D 
 444      9A2D30CC 
 445 162b EDEC68CF 		.ascii	"\355\354h\317\275Sq\327\"]5W\234C\372$\313?\266\363"
 445      BD5371D7 
 445      225D3557 
 445      9C43FA24 
 445      CB3FB6F3 
 446 163f 0DC9B371 		.ascii	"\015\311\263q\274\231\203\243\313\007H\347!]\214t\005"
 446      BC9983A3 
 446      CB0748E7 
 446      215D8C74 
 446      05
 447 1650 D2383FEA 		.ascii	"\3228?\352\014mo\030u\014\375\273\026\256\265\221q\335"
 447      0C6D6F18 
 447      750CFDBB 
 447      16AEB591 
 447      71DD
 448 1662 A9066DDC 		.ascii	"\251\006m\334\321\037\027\036n\004\345{\010-\270Ea1"
 448      D11F171E 
 448      6E04E57B 
 448      082DB845 
 448      6131
 449 1674 039C051E 		.ascii	"\003\234\005\036\360\0204\272~<\332\210f\326\211\377"
 449      F01034BA 
 449      7E3CDA88 
 449      66D689FF 
 450 1684 6003D6C0 		.ascii	"`\003\326\300\200M\025\001\273\252XJ\033\377\346'\237"
 450      804D1501 
 450      BBAA584A 
 450      1BFFE627 
 450      9F
 451 1695 5A9D7084 		.ascii	"Z\235p\204\031k\346\306&\315\232\247\315\336\376 Z\363"
 451      196BE6C6 
 451      26CD9AA7 
 451      CDDEFE20 
 451      5AF3
 452 16a7 361C5E97 		.ascii	"6\034^\227\2667\037^\255Pp\301\3238\270\316\367*46\375"
 452      B6371F5E 
 452      AD5070C1 
 452      D338B8CE 
 452      F72A3436 
 453 16bc D0BA7081 		.ascii	"\320\272p\201_\234\327+\263\353)\257u\310\353\336\026"
 453      5F9CD72B 
 453      B3EB29AF 
 453      75C8EBDE 
 453      16
 454 16cd F05A6FE4 		.ascii	"\360Zo\344\3653\302k\275=\257f\177,TH\336\013f\315\374"
 454      F533C26B 
 454      BD3DAF66 
 454      7F2C5448 
 454      DE0B66CD 
 455 16e2 44DDF91D 		.ascii	"D\335\371\035\311\026\304\361a\343 \230\227\264\203"
 455      C916C4F1 
ARM GAS  /tmp/ccGgN9d3.s 			page 37


 455      61E32098 
 455      97B483
 456 16f1 29692736 		.ascii	")i'6\240]|\023\371\316h2f\345\251.\266\300\000[\015"
 456      A05D7C13 
 456      F9CE6832 
 456      66E5A92E 
 456      B6C0005B 
 457 1706 D040AE27 		.ascii	"\320@\256'\032\010]\360?)b\205\246\220\346240S\337C"
 457      1A085DF0 
 457      3F296285 
 457      A690E632 
 457      343053DF 
 458 171b 38F53D8C 		.ascii	"8\365=\214S\326#H\033\221\276\203\315\177\030\322\341"
 458      53D62348 
 458      1B91BE83 
 458      CD7F18D2 
 458      E1
 459 172c 48A723DD 		.ascii	"H\247#\335\210\364K\244\233\221nE\272\237\325\202\325"
 459      88F44BA4 
 459      9B916E45 
 459      BA9FD582 
 459      D5
 460 173d C0B5DFC3 		.ascii	"\300\265\337\303\334L\345V\341\317\032\354\207\256\302"
 460      DC4CE556 
 460      E1CF1AEC 
 460      87AEC2
 461 174c 377E7EF2 		.ascii	"7~~\362\330\357\017,RU?\315\253?\326To\271\030\257\225"
 461      D8EF0F2C 
 461      52553FCD 
 461      AB3FD654 
 461      6FB918AF 
 462 1761 60BE1A6F 		.ascii	"`\276\032o\225Mc\350\2007e5\276\221\354\360p\376\311"
 462      954D63E8 
 462      80376535 
 462      BE91ECF0 
 462      70FEC9
 463 1774 898BD4A1 		.ascii	"\211\213\324\241\357\200S\363\206,\376}\220\303^\303"
 463      EF8053F3 
 463      862CFE7D 
 463      90C35EC3 
 464 1784 AD87C5F8 		.ascii	"\255\207\305\370\261!N\352f\203\324:'GL99\277\351\253"
 464      B1214EEA 
 464      6683D43A 
 464      27474C39 
 464      39BFE9AB 
 465 1798 B1F2A821 		.ascii	"\261\362\250!\265[\324s\344\036\256\203\273\003\215"
 465      B55BD473 
 465      E41EAE83 
 465      BB038D
 466 17a7 465EB88F 		.ascii	"F^\270\217\277\0341|\374E\344c0\212\364\336=\346\274"
 466      BF1C317C 
 466      FC45E463 
 466      308AF4DE 
 466      3DE6BC
 467 17ba 1F37E57D 		.ascii	"\0377\345}w\323\372\252I\352\006\3077pNz\255\357k\320"
 467      77D3FAAA 
 467      49EA06C7 
ARM GAS  /tmp/ccGgN9d3.s 			page 38


 467      37704E7A 
 467      ADEF6BD0 
 468 17ce F1C3     		.ascii	"\361\303"
 469 17d0 2AE78FDE 		.ascii	"*\347\217\336\204\255%$y,\323\344\322 \327d\013\271"
 469      84AD2524 
 469      792CD3E4 
 469      D220D764 
 469      0BB9
 470 17e2 CE98CA75 		.ascii	"\316\230\312u\344\273c\356\226\310u\326V\256\270\305"
 470      E4BB63EE 
 470      96C875D6 
 470      56AEB8C5 
 471 17f2 C20BC979 		.ascii	"\302\013\311y\316R.\203 \237Z\010\362\213\251 {O\354"
 471      CE522E83 
 471      209F5A08 
 471      F28BA920 
 471      7B4FEC
 472 1805 69912017 		.ascii	"i\221 \027m\005\331d#\310eQA6X\010r\325T\220\272\246"
 472      6D05D964 
 472      23C86551 
 472      41365808 
 472      72D55490 
 473 181b 1F5B24C8 		.ascii	"\037[$\310uc\033!\006\224\270\320\036\003I\\k;A\032"
 473      75631B21 
 473      0694B8D0 
 473      1E03495C 
 473      6B3B411A 
 474 182f 383D68C1 		.ascii	"8=h\301\351-SN\217~w\252\310\212S\233\216E\31500z\316"
 474      E92D534E 
 474      8F7E77AA 
 474      C88A539B 
 474      8E45CD30 
 475 1846 39A3C72D 		.ascii	"9\243\307-\030\035\232an\033\327]-`\264\332\310\350"
 475      181D9A61 
 475      6E1BD75D 
 475      2D60B4DA 
 475      C8E8
 476 1858 65E78C9E 		.ascii	"e\347\214\236\267`t\230)\2433\346n{\270%}\365\010#\247"
 476      B7607498 
 476      29A333E6 
 476      6E7BB825 
 476      7DF50823 
 477 186d 84B9C485 		.ascii	"\204\271\304\205\366\354\262\201\263\233\026\234\275"
 477      F6ECB281 
 477      B39B169C 
 477      BD
 478 187a 67CAD9D4 		.ascii	"g\312\331\324U\353\357o\201\012G\031\031#{N\031\030"
 478      55EBEF6F 
 478      810A4719 
 478      19237B4E 
 478      1918
 479 188c A9FE9D39 		.ascii	"\251\376\2359#cxF\376Q\232I\030y\363\343\021\017\017"
 479      23637846 
 479      FE519A49 
 479      1879F3E3 
 479      110F0F
 480 189f 228CA837 		.ascii	"\"\214\2507`\372\"\353\237\233\035\237\000\321X\341"
ARM GAS  /tmp/ccGgN9d3.s 			page 39


 480      60FA22EB 
 480      9F9B1D9F 
 480      00D158E1 
 481 18af 3F254BF0 		.ascii	"?%K\360\306%\361\010V]\035\214\316{F\313c\301S!k\250"
 481      C625F108 
 481      565D1D8C 
 481      CE7B46CB 
 481      63C15321 
 482 18c5 CDF20321 		.ascii	"\315\362\003!\371(\202M5\202\245>\3449A\003\353,-V\337"
 482      F928824D 
 482      3582A53E 
 482      E4394103 
 482      EB2C2D56 
 483 18da 8E2F70D1 		.ascii	"\216/p\321\254\364\2234$)\375\002\034\3758\015\271v"
 483      ACF49334 
 483      2429FD02 
 483      1CFD380D 
 483      B976
 484 18ec 9187ECE9 		.ascii	"\221\207\354\351Wj\310\345e\034\242\350\367j\310\365"
 484      576AC8E5 
 484      651CA2E8 
 484      F76AC8F5 
 485 18fc DB0ABD26 		.ascii	"\333\012\275&_\256!\327\031t\300\037\221\274$\012wK"
 485      5FAE21D7 
 485      1974C01F 
 485      91BC240A 
 485      774B
 486 190e F47B365A 		.ascii	"\364{6Z\324\275\022\375\260\215vI\360Gs\031\210\024"
 486      D4BD12FD 
 486      B08D7649 
 486      F0477319 
 486      8814
 487 1920 6379C4F1 		.ascii	"cy\304\361\311\313\370_5M\304\353\342\223\026\372\325"
 487      C9CBF85F 
 487      354DC4EB 
 487      E29316FA 
 487      D5
 488 1931 D12A8ECB 		.ascii	"\321*\216\313\364]ME\372\300\250\004\223\267:'\363*"
 488      F45D4D45 
 488      FAC0A804 
 488      93B73A27 
 488      F32A
 489 1943 2563FCAC 		.ascii	"%c\374\254\015\377\367\243\301\304\202\325\253\315r"
 489      0DFFF7A3 
 489      C1C482D5 
 489      ABCD72
 490 1952 B34B7F41 		.ascii	"\263K\177AlI\212J\271\327\301\010\330T#X\274\346(\310"
 490      6C498A4A 
 490      B9D7C108 
 490      D8542358 
 490      BCE628C8 
 491 1966 50334825 		.ascii	"P3H%F\247\003\255J\0174\335\244\242Wu!;L%\214\346;\304"
 491      46A703AD 
 491      4A0F34DD 
 491      A4A25775 
 491      213B4C25 
 492 197e 8A1BB152 		.ascii	"\212\033\261R\326\220k\271j\316\246\031\351\353\003"
ARM GAS  /tmp/ccGgN9d3.s 			page 40


 492      D6906BB9 
 492      6ACEA619 
 492      E9EB03
 493 198d 242579B3 		.ascii	"$%y\263\205@\\r'\325\276\264\275D\337) \021M\370&\010"
 493      85405C72 
 493      27D5BEB4 
 493      BD44DF29 
 493      20114DF8 
 494 19a3 E543DD13 		.ascii	"\345C\335\023?\275=K\023'\355\343\311\335tV\0160{6N"
 494      3FBD3D4B 
 494      1327EDE3 
 494      C9DD7456 
 494      0E307B36 
 495 19b8 5B567F1F 		.ascii	"[V\177\037\3359tN\006\021\340\206\241\351\244\007\202"
 495      DD39744E 
 495      0611E086 
 495      A1E9A407 
 495      82
 496 19c9 997206F1 		.ascii	"\231r\006\361@\347f\030\037R~\013\0271I|\372\347\034"
 496      40E76618 
 496      1F527E0B 
 496      1731497C 
 496      FAE71C
 497 19dc 6E6E9E63 		.ascii	"nn\236c\271\371D-\377\272\026?\027V\244w\356\225\323"
 497      B9F9442D 
 497      FFBA163F 
 497      1756A477 
 497      EE95D3
 498 19ef BF4F1B92 		.ascii	"\277O\033\222?A.\347\033\271\254\247\\\316\027\342r"
 498      3F412EE7 
 498      1BB9ACA7 
 498      5CCE17E2 
 498      72
 499 1a00 DFE6D417 		.ascii	"\337\346\324\027\034\015]\327A\331f\215\316\330w=\231"
 499      1C0D5DD7 
 499      41D9668D 
 499      CED8773D 
 499      99
 500 1a11 69EA2508 		.ascii	"i\352%\010l\233\036\222o\340\336oi\266[\266\342dI\006"
 500      6C9B1E92 
 500      6FE0DE6F 
 500      69B65BB6 
 500      E2644906 
 501 1a25 BB059BE3 		.ascii	"\273\005\233\343\217\034\222$\0132\230\247Z'\335+k\312"
 501      8F1C9224 
 501      0B3298A7 
 501      5A27DD2B 
 501      6BCA
 502 1a37 354B6E33 		.ascii	"5Kn3\245\244\212U\311\204\306\333R\265\256\022T+\035"
 502      A5A48A55 
 502      C984C6DB 
 502      52B5AE12 
 502      542B1D
 503 1a4a 51AD50D6 		.ascii	"Q\255P\326\374z\225\254dU2\303\261J\002\316Tb\347\272"
 503      FC7A95AC 
 503      645532C3 
 503      B14A02CE 
ARM GAS  /tmp/ccGgN9d3.s 			page 41


 503      5462E7BA 
 504 1a5e 6DB05689 		.ascii	"m\260V\211\271_a\005\264\236\025i\216\210H\326\273I"
 504      B95F6105 
 504      B49E1569 
 504      8E8848D6 
 504      BB49
 505 1a70 9888449F 		.ascii	"\230\210D\237G\263*|s\206a_\300y\216\031\370\015u\272"
 505      47B32A7C 
 505      7386615F 
 505      C0798E19 
 505      F80D75BA 
 506 1a84 5D40A7DC 		.ascii	"]@\247\334\324VT\307\333X\035\177\"\"\242\365\027\035"
 506      D45654C7 
 506      DB581D7F 
 506      2222A2F5 
 506      171D
 507 1a96 7E9D887B 		.ascii	"~\235\210{\354Dt\"\322nV\244\205\216ErXkv\235\303\001"
 507      EC447422 
 507      D26E56A4 
 507      858E4572 
 507      586B769D 
 508 1aac 3B91B46E 		.ascii	";\221\264n\320\330\330[$\362\327\254\310\313DD\266\336"
 508      D0D8D85B 
 508      24F2D7AC 
 508      C8CB4444 
 508      B6DE
 509 1abe 6EF2D789 		.ascii	"n\362\327\211\334h'\362\232\337P\344\243\254\310k\034"
 509      DC6827F2 
 509      9ADF50E4 
 509      A3ACC86B 
 509      1C
 510 1acf 8B1C90F8 		.ascii	"\213\034\220\370\277\344\313\224\237e\340z;\3228\322"
 510      BFE4CB94 
 510      9F65E07A 
 510      3BD238D2 
 511 1adf 4D48B722 		.ascii	"MH\267\"\255C\272\037\351\221\014\201E\266\217X>7\""
 511      AD43BA1F 
 511      E9910C81 
 511      45B68F58 
 511      3E3722
 512 1af2 9F735B38 		.ascii	"\237s[8T\251\361[\344+'\242{\221O_\333t\017\256\011"
 512      54A9F15B 
 512      E42B27A2 
 512      7B914F5F 
 512      DB740FAE 
 513 1b07 FF80DED5 		.ascii	"\377\200\336\325\255{M\275+\273\255\310\337\275\217"
 513      AD7B4DBD 
 513      2BBBADC8 
 513      DFBD8F
 514 1b16 64396D74 		.ascii	"d9mt[\226W\343w`O\013\271-+\315\276\261h\366\014I\342"
 514      5B9657E3 
 514      77604F0B 
 514      B92D2BCD 
 514      BEB168F6 
 515 1b2d 4EDC9D52 		.ascii	"N\334\235Rr\027\341\233r\000f\324\310\377\344\373\322"
 515      7217E19B 
 515      720066D4 
ARM GAS  /tmp/ccGgN9d3.s 			page 42


 515      C8FFE4FB 
 515      D2
 516 1b3e 3F87C261 		.ascii	"?\207\302a(\322\307\230\345\202\221\377K\241\000\215"
 516      28D2C798 
 516      E58291FF 
 516      4BA1008D 
 517 1b4e 4DCFFD15 		.ascii	"M\317\375\025};\345\2373\310\303\307\253\022\200-r5"
 517      7D3BE59F 
 517      33C8C3C7 
 517      AB12802D 
 517      7235
 518 1b60 E237F0A1 		.ascii	"\3427\360\241\036mkf\307X\001\016k\324&}Sm\272\017\366"
 518      1E6D6B66 
 518      C758010E 
 518      6BD4267D 
 518      536DBA0F 
 519 1b75 4E113C9B 		.ascii	"N\021<\233\355\226\306\222}\306\235l\373\277E\333\366"
 519      ED96C692 
 519      7DC69D6C 
 519      FBBF45DB 
 519      F6
 520 1b86 FF6606EE 		.ascii	"\377f\006\356+f\250\236\026\276\007s\334\261\024\234"
 520      2B66A89E 
 520      16BE0773 
 520      DCB1149C 
 521 1b96 561A67AC 		.ascii	"V\032g\254\375\256\275\276\2432e\354\254\010\242\331"
 521      FDAEBDBE 
 521      A33265EC 
 521      AC08A2D9 
 522 1ba6 A066F6C7 		.ascii	"\240f\366\307Z\023L\2242\210\033|\031;\203\253H\257"
 522      5A134C94 
 522      32881B7C 
 522      193B83AB 
 522      48AF
 523 1bb8 23BD8174 		.ascii	"#\275\201t\220O\240{\370\231\355\036\256&\332\233C\363"
 523      904FA07B 
 523      F899ED1E 
 523      AE26DA9B 
 523      43F3
 524 1bca 3267F534 		.ascii	"2g\3654\303\352O\310\352Y\266\307R$\365~\247\335\021"
 524      C3EA4FC8 
 524      EA59B6C7 
 524      5224F57E 
 524      A7DD11
 525 1bdd AFEC69CB 		.ascii	"\257\354i\313\232\036\2700X\235\230-\276\245\300urS"
 525      9A1EB830 
 525      589D982D 
 525      BEA5C075 
 525      7253
 526 1bef A9DA47E6 		.ascii	"\251\332G\346\221\325\367\363\026#\270\243\300;>\303"
 526      91D5F7F3 
 526      1623B8A3 
 526      C03B3EC3 
 527 1bff 8E0217E8 		.ascii	"\216\002\027\350f%$\336\246Ak\333\004\324\334\237\272"
 527      662524DE 
 527      A6416BDB 
 527      04D4DC9F 
ARM GAS  /tmp/ccGgN9d3.s 			page 43


 527      BA
 528 1c10 59C9E4FB 		.ascii	"Y\311\344\373\231]\006\222\321\263\356\3477\032\220"
 528      995D0692 
 528      D1B3EEE7 
 528      371A90
 529 1c1f CCA7399C 		.ascii	"\314\2479\234\312\223\314\205\344a>\334\033\314g\277"
 529      CA93CC85 
 529      E4613EDC 
 529      1BCC67BF 
 530 1c2f CF08A37D 		.ascii	"\317\010\243}G\373\243\251\361\346\315\026\017\300\363"
 530      47FBA3A9 
 530      F1E6CD16 
 530      0FC0F3
 531 1c3e 0F41E9FB 		.ascii	"\017A\351\373,\235>\255m\215=\332\207\217\365\335\237"
 531      2C9D3EAD 
 531      6D8D3DDA 
 531      878FF5DD 
 531      9F
 532 1c4f BE3B35C1 		.ascii	"\276;5\301\201n\347>\242\355q\010r\316)\210\"5a\226"
 532      816EE73E 
 532      A2ED7108 
 532      72CE2988 
 532      22356196 
 533 1c63 893EE396 		.ascii	"\211>\343\226M\3258\025&\361\351ze5\276n\323T\355\251"
 533      4DD53815 
 533      26F1E97A 
 533      6535BE6E 
 533      D354EDA9 
 534 1c77 23BA69FE 		.ascii	"#\272i\376\320\337\353\230Z\241O\261\352K\337-\327\321"
 534      D0DFEB98 
 534      5AA14FB1 
 534      EA4BDF2D 
 534      D7D1
 535 1c89 4F2C1CC4 		.ascii	"O,\034\304\327\034F\032\301\034\366\243\365\211\357"
 535      D71C461A 
 535      C11CF6A3 
 535      F589EF
 536 1c98 3FACC131 		.ascii	"?\254\3011c\242c<\256\221\305\367R\346(\330L\0210\233"
 536      63A2633C 
 536      AE91C5F7 
 536      52E628D8 
 536      4C11309B 
 537 1cac 6FAE1D60 		.ascii	"o\256\035`\301\346:\006\3439k`\301>\023\001\263\331"
 537      C1E63A06 
 537      E3396B60 
 537      C13E1301 
 537      B3D9
 538 1cbe E4FC1B6D 		.ascii	"\344\374\033m8\263s<m\226f?\364\331\335\370\030g\301"
 538      38B3733C 
 538      6D96663F 
 538      F4D9DDF8 
 538      1867C1
 539 1cd1 16C9F9B1 		.ascii	"\026\311\371\261\317\374.\250\365\330\027\237@\035\240"
 539      CFFC2EA8 
 539      F5D8179F 
 539      401DA0
 540 1ce0 793EFC72 		.ascii	"y>\374r\350\357\3716`(\2320fU\364\247\276L\013[O\371"
ARM GAS  /tmp/ccGgN9d3.s 			page 44


 540      E8EFF936 
 540      60289A30 
 540      6655F4A7 
 540      BE4C0B5B 
 541 1cf6 4D91D63B 		.ascii	"M\221\326;V0_[G\253\271/\003l\023\201\013\230\324\227"
 541      56305F5B 
 541      47ABB92F 
 541      036C1381 
 541      0B98D497 
 542 1d0a D91FDBA0 		.ascii	"\331\037\333\240C\362d\354\370\246\370\310 8\015\351"
 542      43F264EC 
 542      F8A6F8C8 
 542      20380DE9 
 543 1d1a 0CA43391 		.ascii	"\014\2443\221\316F\372>\322\271H\027\260\003\345\177"
 543      CE46FA3E 
 543      D2B94817 
 543      B003E57F 
 544 1d2a 0EAA22ED 		.ascii	"\016\252\"\355\376\275a\254\2535{T\324\372qB\034\354"
 544      FEBD61AC 
 544      AB357B54 
 544      D4FA7142 
 544      1CEC
 545 1d3c C6583CA0 		.ascii	"\306X<\240i\321\343\326\377\236\366\270K\260\263<`0"
 545      69D1E3D6 
 545      FF9EF6B8 
 545      4BB0B33C 
 545      6030
 546 1d4e 146A96FF 		.ascii	"\024j\226\377Y\362\236\024\222\327\372\305\015]\336"
 546      59F29E14 
 546      92D7FAC5 
 546      0D5DDE
 547 1d5d 8989277C 		.ascii	"\211\211'|'\362\213Xj\302`\324\304\032\224\317\361\013"
 547      27F28B58 
 547      6AC260D4 
 547      C41A94CF 
 547      F10B
 548 1d6f BD3EF367 		.ascii	"\275>\363g\347\232]\011A\316\032\0051\024\254\205-\037"
 548      E79A5D09 
 548      41CE1A05 
 548      3114AC85 
 548      2D1F
 549 1d81 A5C72D53 		.ascii	"\245\307-S\\^\312\235\"\235\027\203\253s[\341\231M\220"
 549      5C5ECA9D 
 549      229D1783 
 549      AB735BE1 
 549      994D90
 550 1d94 CD1EB54D 		.ascii	"\315\036\265M\314E\356K\232\304\202\023\327\336\321"
 550      CC45EE4B 
 550      9AC48213 
 550      D7DED1
 551 1da3 3E0E1347 		.ascii	">\016\023G\233\270h\260\211\264@\350X\033\007\317i\307"
 551      9BB868B0 
 551      89B440E8 
 551      581B07CF 
 551      69C7
 552 1db5 B6C838D3 		.ascii	"\266\3108\323\333\230~\370\034:$\276\360\330\026E\333"
 552      DB987EF8 
ARM GAS  /tmp/ccGgN9d3.s 			page 45


 552      1C3A24BE 
 552      F0D81645 
 552      DB
 553 1dc6 CC93EE30 		.ascii	"\314\223\3560q\030\037\343\330h\337\027H\026\246\002"
 553      71181FE3 
 553      D868DF17 
 553      4816A602 
 554 1dd6 808B48F9 		.ascii	"\200\213H\371d\226\304nX\341\004.\300\301-a\341\024"
 554      6496C46E 
 554      58E1042E 
 554      C0C12D61 
 554      E114
 555 1de8 69F00372 		.ascii	"i\360\003rz8\233\2359\226\361\334\035\021\021\326fo"
 555      7A389B9D 
 555      3996F1DC 
 555      1D1111D6 
 555      666F
 556 1dfa 8E153C5C 		.ascii	"\216\025<\\\243\010\234\315\356\034\253xa\253E\204\265"
 556      A3089CCD 
 556      EE1CAB78 
 556      61AB4584 
 556      B5
 557 1e0b D99F6335 		.ascii	"\331\237c5\0177L\004\316lT6\373c-/$\177\201\375\323"
 557      0F374C04 
 557      CE6C5436 
 557      FB632D2F 
 557      247F81FD 
 558 1e20 97D8F76C 		.ascii	"\227\330\367lB\272\031\351V\244\333\220nG\272Cd\"\264"
 558      42BA19E9 
 558      56A4DB90 
 558      6E47BA43 
 558      6422B4
 559 1e33 CEC74C84 		.ascii	"\316\307L\204\336{@`bRg\373\375\036\216\357\271\314"
 559      DE7B4060 
 559      625267FB 
 559      FD1E8EEF 
 559      B9CC
 560 1e45 4C681ECE 		.ascii	"Lh\036\316\204>\304)\332I\244o\"\227\243\220.F\272\002"
 560      843EC429 
 560      DA49A46F 
 560      2297A390 
 560      2E46BA02 
 561 1e59 E96AA46B 		.ascii	"\351j\244kE\270\237\315N\343\306=`\270\021\227\222\274"
 561      45B89FCD 
 561      4EE3C63D 
 561      60B81197 
 561      92BC
 562 1e6b CE67BCD3 		.ascii	"\316g\274\323x\345\372\205\177\231\317\335i\244\367"
 562      78E5FA85 
 562      7F99CFDD 
 562      69A4F7
 563 1e7a C48E1BB1 		.ascii	"\304\216\033\261\014w\300p\3454\211fp>\310\015k+\036"
 563      0C77C070 
 563      E5348966 
 563      703EC80D 
 563      6B2B1E
 564 1e8d EA930A37 		.ascii	"\352\223\0127\344\"\302X\345\332k\231k\204MY\373,sU"
ARM GAS  /tmp/ccGgN9d3.s 			page 46


 564      E422C258 
 564      E5DA6B99 
 564      6B844D59 
 564      FB2C7355 
 565 1ea1 DBE4DA6F 		.ascii	"\333\344\332o\231K\265\311\365\265e.\362L\211U\256\003"
 565      994BB5C9 
 565      F5B5652E 
 565      F24C8955 
 565      AE03
 566 1eb3 C95C66F7 		.ascii	"\311\\f\367\363\270'\320\265\316|q\363\241r\272\275"
 566      F3B827D0 
 566      B5CE7C71 
 566      F3A172BA 
 566      BD
 567 1ec4 D241ECCB 		.ascii	"\322A\354\313\027\004\322\366\345\251O\300\0376\366"
 567      1704D2F6 
 567      E5A94FC0 
 567      1F36F6
 568 1ed3 E537E9EE 		.ascii	"\3457\351\356\214\207\205z\362\346\206\251&\333+\035"
 568      8C87857A 
 568      F2E686A9 
 568      26DB2B1D 
 569 1ee3 6E71475E 		.ascii	"nqG^s(e{%'`\001\016l\364!f\017\235\325\250\2344`6\235"
 569      7328657B 
 569      25276001 
 569      0E6CF421 
 569      660F9DD5 
 570 1efd F858166C 		.ascii	"\370X\026l\275c0\236\263\361\254\230\207E\304\264\351"
 570      BD63309E 
 570      B3F1AC98 
 570      8745C4B4 
 570      E9
 571 1f0e C027B29C 		.ascii	"\300'\262\234m\022\341\314\246\373\236\314\202m\023"
 571      6D12E1CC 
 571      A6FB9ECC 
 571      826D13
 572 1f1d 01B3D95E 		.ascii	"\001\263\331^i*\013V\347\030\214\347l:\013\266_\004"
 572      692A0B56 
 572      E7188CE7 
 572      6C3A0BB6 
 572      5F04
 573 1f2f 2C60CDD9 		.ascii	",`\315\331\002\026\354\220c0\236\263E,\330Q\0210\233"
 573      0216EC90 
 573      63309EB3 
 573      452CD851 
 573      11309B
 574 1f42 4FE22C61 		.ascii	"O\342,a\301\276s\014\306s\266\214\005;)\002f\371I\234"
 574      C1BE730C 
 574      C673B68C 
 574      053B2902 
 574      66F9499C 
 575 1f56 41F115FF 		.ascii	"A\361\025\377^\023b_\266c\366\3657\276\305\302&\333"
 575      5E13625F 
 575      B663F6F5 
 575      37BEC5C2 
 575      26DB
 576 1f68 28DBBCEC 		.ascii	"(\333\274\354r\305\261\303~\325\302aO\316\233\331T\020"
ARM GAS  /tmp/ccGgN9d3.s 			page 47


 576      72C5B1C3 
 576      7ED5C261 
 576      4FCE9BD9 
 576      5410
 577 1f7a FCC46368 		.ascii	"\374\304ch^\246\333\035\330|\275g\025\253\304\323\""
 577      5EA6DB1D 
 577      D87CBD67 
 577      15ABC4D3 
 577      22
 578 1f8b 4A7CCA1A 		.ascii	"J|\312\032l5\013vN\004\314\346\2636kY\260\213\216\301"
 578      6C350B76 
 578      4E04CCE6 
 578      B3366B59 
 578      B08B8EC1 
 579 1f9f 78       		.ascii	"x"
 580 1fa0 CEEA58B0 		.ascii	"\316\352X\260k\"`\275\2549\333\303\202\335p\014\306"
 580      6B2260BD 
 580      AC39DBC3 
 580      82DD700C 
 580      C6
 581 1fb1 723628BE 		.ascii	"r6(\2767ix\344\363\251\234\345=\305\367\266\\2\306\362"
 581      376978E4 
 581      F3A99CE5 
 581      3DC5F7B6 
 581      5C32C6F2 
 582 1fc5 0CC9C0E5 		.ascii	"\014\311\300\345\362;5\274j\277\271\341\261+\260\311"
 582      F23B35BC 
 582      6ABFB9E1 
 582      B12BB0C9 
 583 1fd5 5464DAF0 		.ascii	"Td\332\360\240Al\216\011-h\366\322\264\331\037;P\207"
 583      A0416C8E 
 583      092D68F6 
 583      D2B4D91F 
 583      3B5087
 584 1fe8 E46FD0F5 		.ascii	"\344o\320\365=\202\356\341Q\244\215H\217!\375\036\351"
 584      3D82EEE1 
 584      51A48D48 
 584      8F21FD1E 
 584      E9
 585 1ff9 71A42791 		.ascii	"q\244'\221\376\210\364"
 585      FE88F4
 586 2000 34D29F90 		.ascii	"4\322\237\220\376\214\364<\322\013H/!\275\206\264\011"
 586      FE8CF43C 
 586      D20B482F 
 586      21BD86B4 
 586      09
 587 2011 E94DA4CD 		.ascii	"\351M\244\315H\007\371\011\035\342g\\Q\203ss\320f\211"
 587      4807F909 
 587      1DE2675C 
 587      51837373 
 587      D06689
 588 2024 EB6DBF95 		.ascii	"\353m\277\225Kt\321\306%z\3072\327Y\233\\\303,s\235"
 588      4B74D1C6 
 588      257AC732 
 588      D7599B5C 
 588      C32C739D 
 589 2038 B4C935DC 		.ascii	"\264\3115\3342W\243M\256\021\226\271\016\333\344z7\231"
ARM GAS  /tmp/ccGgN9d3.s 			page 48


 589      3257A34D 
 589      AE1196B9 
 589      0EDBE47A 
 589      3799
 590 204a 8B3C0E1A 		.ascii	"\213<\016\032?\3278\375\243\021\267p#8|d\260\326gXv"
 590      3FD738FD 
 590      A311B770 
 590      23387C64 
 590      B0D66758 
 591 205f 24B7A5AD 		.ascii	"$\267\245\255\300\336\363\337\255\205\364\245CE\332"
 591      C0DEF3DF 
 591      AD85F4A5 
 591      4345DA
 592 206e FE20EF08 		.ascii	"\376 \357\010j/@\014V\027\315#\257N\320\273\334!y\244"
 592      6A2F400C 
 592      5617CD23 
 592      AF4ED0BB 
 592      DC2179A4 
 593 2082 DFF6FD87 		.ascii	"\337\366\375\207\032?\367\300\250\224\327\241\177EY"
 593      1A3FF7C0 
 593      A894D7A1 
 593      7F4559
 594 2091 B8435145 		.ascii	"\270CQE\361\353\035\212\303\003:\024\365/\351SR\021"
 594      F1EB1D8A 
 594      C3033A14 
 594      F52FE953 
 594      5211
 595 20a3 ED108B54 		.ascii	"\355\020\213T\225\377\275\003\004\372\207J;TVDb\321"
 595      95FFBD03 
 595      04FA874A 
 595      3B545644 
 595      62D1
 596 20b5 0E05853D 		.ascii	"\016\005\205=:\345P\372L\347\201\003;\204\212\213\202"
 596      3AE550FA 
 596      4CE78103 
 596      3B848A8B 
 596      82
 597 20c6 A5A5C58F 		.ascii	"\245\245\305\217\364\227\374]\363r\363\"%\003\302\021"
 597      F497FC5D 
 597      F372F322 
 597      2503C211 
 598 20d6 EFB32FF4 		.ascii	"\357\263/\364\016\344J9\"\250%\345E\245U\305a\202\003"
 598      0EE44A39 
 598      22A825E5 
 598      45A555C5 
 598      618203
 599 20e9 18ADE014 		.ascii	"\030\255\340\024\215\205b\341`\254\025\300\005{\277"
 599      8D8562E1 
 599      60AC15C0 
 599      057BBF
 600 20f8 D0FD85EE 		.ascii	"\320\375\205\356\205>\022,(\354\331\213\024\021\314"
 600      853E122C 
 600      28ECD98B 
 600      1411CC
 601 2107 EFD635EF 		.ascii	"\357\3265\357e\374\265kna\367\027\273e\221`n\317\036"
 601      65FCB56B 
 601      6E61F717 
ARM GAS  /tmp/ccGgN9d3.s 			page 49


 601      BB659160 
 601      6ECF1E
 602 211a BD9EEF56 		.ascii	"\275\236\357V\330\015St\313\317\357\231\357A\234?t\250"
 602      D80D5374 
 602      CBCFEF99 
 602      EF419C3F 
 602      74A8
 603 212c 8A463A84 		.ascii	"\212F:\204\"e\177*\257(\017\377)\034\352S\222(2\032"
 603      22657F2A 
 603      AF280FFF 
 603      291CEA53 
 603      9228321A 
 604 2140 2B2E298F 		.ascii	"+.)\217A\251\276*8w\312\011\306:\333\244.\013\001\377"
 604      41A9BE2A 
 604      3877CA09 
 604      C63ADBA4 
 604      2E0B01FF 
 605 2154 E5E10EC1 		.ascii	"\345\341\016\301\342p\337PUi,\030{\2752\034%<\007\203"
 605      E270DF50 
 605      55692C18 
 605      7BBD321C 
 605      253C0783 
 606 2168 7A7E4F71 		.ascii	"z~OqUY\331\353\204\207\334\212\362\276%\375\274Ex\312"
 606      5559D9EB 
 606      8487DC8A 
 606      F2BE25FD 
 606      BC4578CA 
 607 217c 245285CA 		.ascii	"$R\205\312*KA,,\253\343c \037\315F\202\031\364\307h"
 607      2A4B412C 
 607      2CABE363 
 607      201FCD46 
 607      8219F4C7 
 608 2191 0E165F5A 		.ascii	"\016\026_Z\322\247C\277\242\"\003\033\235\037\351\362"
 608      D2A743BF 
 608      A222031B 
 608      9D1FE9F2 
 609 21a1 48679675 		.ascii	"Hg\226u`\003\012\367FK\376#L\012\016W\306\372{\202O"
 609      60030AF7 
 609      464BFE23 
 609      4C0A0E57 
 609      C6FA7B82 
 610 21b6 575494FA 		.ascii	"WT\224\372\212J\"EU\245\241H;R7E\375C\345\345\341\322"
 610      8A4A2245 
 610      55A5A148 
 610      3B523745 
 610      FD43E5E5 
 611 21cc 68B0BCAA 		.ascii	"h\260\274\252,\030\313\"T\217\272\015~/\012\225\226"
 611      2C18CB22 
 611      548FBA0D 
 611      7E2F0A95 
 611      96
 612 21dd F60915FD 		.ascii	"\366\011\025\375=\030\363\206\313\213\203E}H\015\204"
 612      3D18F386 
 612      CB8B8345 
 612      7D480D84 
 613 21ed 23918A48 		.ascii	"#\221\212H0\326N\323e0\257G\327g\272v\177\276w~\267"
 613      30D64ED3 
ARM GAS  /tmp/ccGgN9d3.s 			page 50


 613      6530AF47 
 613      D767BA76 
 613      7FBE777E 
 614 2202 367A54CF 		.ascii	"6zT\317\027\273\345?\363|\317\177k\247'O\002\371h\366"
 614      17BBE53F 
 614      F37CCF7F 
 614      6BA7274F 
 614      02F968F6 
 615 2216 A23EAEA2 		.ascii	"\242>\256\242HG8r<\321\262\312HG\2449\356\350\253\221"
 615      48473872 
 615      3CD1B2CA 
 615      4847A439 
 615      EEE8AB91 
 616 222a 8E8460A8 		.ascii	"\216\204`\250S;\252*\260\231hIE\371\263\221\212\252"
 616      533BAA2A 
 616      B0996849 
 616      45F9B391 
 616      8AAA
 617 223c 4A77BF48 		.ascii	"Jw\277Hee\227t\246\023\211%tQ\324?\372zT\257\014_\254"
 617      65659774 
 617      A6138925 
 617      7451D43F 
 617      FA7A54AF 
 618 2253 7F241C2A 		.ascii	"\177$\034*\016\306\374E\375\2034\334\331\031VQ\177b"
 618      0EC6FC45 
 618      FD8334DC 
 618      D9195651 
 618      7F62
 619 2265 CCDECA60 		.ascii	"\314\336\312`yx`\014N\225\221\360\200\347\004 h\363"
 619      7978600C 
 619      4E9591F0 
 619      80E70420 
 619      68F3
 620 2277 E89ADF23 		.ascii	"\350\232\337#\267\307@HYVYR\012Rux67\027\222\353\354"
 620      B7C74048 
 620      59565952 
 620      0A527578 
 620      36371792 
 621 228d 65C42A23 		.ascii	"e\304*#%\025A\212[R\221\001\366\021\203b\236p\214\337"
 621      2515418A 
 621      5B529101 
 621      F6118362 
 621      9E708CDF 
 622 22a1 BFA82212 		.ascii	"\277\250\"\022\006\300L\022\035\004;*\212\015\374_-"
 622      06C04C12 
 622      1D043B2A 
 622      8A0DFC5F 
 622      2D
 623 22b2 43090E78 		.ascii	"C\011\016x\274\214h.\022\356\007&\027\214\271\242\035"
 623      BC8C682E 
 623      12EE0726 
 623      178CB9A2 
 623      1D
 624 22c3 1F83E371 		.ascii	"\037\203\343q8\272\300\361\204+\232\223\015GG8r\340"
 624      38BAC0F1 
 624      842B9A93 
 624      0D474738 
ARM GAS  /tmp/ccGgN9d3.s 			page 51


 624      72E0
 625 22d5 E8044767 		.ascii	"\350\004Gg8\036\205\003\322\345@\272\034H\227\003\351"
 625      381E8503 
 625      D2E540BA 
 625      1C489703 
 625      E9
 626 22e6 3A41BA4E 		.ascii	":A\272N\035\225Hg%\362\250\022yL\211<\256D\272(\221"
 626      1D954867 
 626      25F2A812 
 626      794C893C 
 626      AE44BA28 
 627 22fb 275C918E 		.ascii	"'\\\221\216\331ptTJ#p\352\344\251\014\002\267\031D\303"
 627      D9707454 
 627      4A2370EA 
 627      E4A90C02 
 627      B71944C3 
 628 230f AF852370 		.ascii	"\257\205#p\256(-\016G\334`\226\021\242\366PY\330\027"
 628      AE282D0E 
 628      47DC6096 
 628      11A2F650 
 628      59D817
 629 2322 D33A810C 		.ascii	"\323:\201\014\322D\272@m\322\306\002!H\216\277e\304"
 629      D244BA40 
 629      6DD2C602 
 629      21488EBF 
 629      65C4
 630 2334 CA2A8AC3 		.ascii	"\312*\212\303x\335\2674\324/\232\021\213\204\373FQ\263"
 630      78DDB734 
 630      D42F9A11 
 630      8B84FB46 
 630      51B3
 631 2346 24E0298B 		.ascii	"$\340)\213\366\203\037\265v\011\331\265\2207R\374:\374"
 631      F6831FB5 
 631      7609D9B5 
 631      903752FC 
 631      3AFC
 632 2358 E40B0F2C 		.ascii	"\344\013\017,\211\201\242\302\336\327b\025}\376V\231"
 632      8981A2C2 
 632      DED76215 
 632      7DFE5699 
 633 2368 191E102E 		.ascii	"\031\036\020.\217\225\205\242\330\020^#\001We\260\252"
 633      8F9585A2 
 633      D8105E23 
 633      015765B0 
 633      AA
 634 2379 35B5A068 		.ascii	"5\265\240h\260\264$\012\015\376\366\204M\321\030\177"
 634      B0B4240A 
 634      0DFEF684 
 634      4DD1187F 
 635 2389 65F0B550 		.ascii	"e\360\265PI\254\244\274\337\355z\364\253U\341*\340\252"
 635      49ACA4BC 
 635      DFED7AF4 
 635      AB55E12A 
 635      E0AA
 636 239b 0D9312A3 		.ascii	"\015\223\022\243ZU\006\241X\014z0\010\021\341Jhr\220"
 636      5A5506A1 
 636      580C7A30 
ARM GAS  /tmp/ccGgN9d3.s 			page 52


 636      0811E14A 
 636      687290
 637 23ae D9535605 		.ascii	"\331SV\005F\320\311\221\231\226\305\006\022s*\243\350"
 637      46D0C991 
 637      9996C506 
 637      12732AA3 
 637      E8
 638 23bf 70AE78AD 		.ascii	"p\256x\255\034t\211H B\031Z/\360\007\351\010\247\255"
 638      1C748948 
 638      2042195A 
 638      2FF007E9 
 638      08A7AD
 639 23d2 885642A5 		.ascii	"\210VB\245hs\020Y\011\335\304\343\216\312\323\204\201"
 639      68731059 
 639      09DDC4E3 
 639      8ECAD384 
 639      81
 640 23e3 32DB692D 		.ascii	"2\333i-\014\264\034\216\204\313\213@Z/\215\372\347t"
 640      0CB41C8E 
 640      84CB8B40 
 640      5A2F8DFA 
 640      E774
 641 23f5 88C05287 		.ascii	"\210\300R\207\334\036\005\335\013`\374\200.\254\254"
 641      DC1E05DD 
 641      0B60FC80 
 641      2EACAC
 642 2404 534EDFCE 		.ascii	"SN\337\316\331\035\007\222\216?\223t,\205\320J\362\302"
 642      D91D0792 
 642      8E3F9374 
 642      2C85D04A 
 642      F2C2
 643 2416 7D95827C 		.ascii	"}\225\202|Wn~G8r<\005=z\345wD\232\343\371K\317g L(\015"
 643      576E7E47 
 643      38723C05 
 643      3D7AE577 
 643      449AE3F9 
 644 2431 7742DAD9 		.ascii	"wB\332\331\365\\a\276\353\371\302|w\301\277\346w$$\207"
 644      F55C61BE 
 644      EBF9C27C 
 644      77C1BFE6 
 644      77242487 
 645 2445 904EEEBF 		.ascii	"\220N\356\277\000u\377%\017\342\200\344\020\322\211"
 645      0075FF25 
 645      0FE280E4 
 645      10D289
 646 2454 90CE4A5E 		.ascii	"\220\316J^\276\013z\255gZ>\346!\353\301\342\262\020"
 646      BE0B7AAD 
 646      675A3EE6 
 646      21EBC1E2 
 646      B210
 647 2466 5107748E 		.ascii	"Q\007t\216\301\0020\276PY\202\377\334|\367\013y\300"
 647      C10230BE 
 647      505982FF 
 647      DC7CF70B 
 647      79C0
 648 2478 54AFAEF9 		.ascii	"T\257\256\371\356\036\331\204t\354\232\357z&7\337\033"
 648      EE1ED984 
ARM GAS  /tmp/ccGgN9d3.s 			page 53


 648      74EC9AEF 
 648      7A2637DF 
 648      1B
 649 2489 C584EE92 		.ascii	"\305\204\356\222\276E\021oI\264\177I\337\230?\032.\355"
 649      BE45116F 
 649      49B47F49 
 649      DF983F1A 
 649      2EED
 650 249b 5B525E1C 		.ascii	"[R^\034\036\350\035\020.\212UD\332%\320\20345\350\027"
 650      1EE81D10 
 650      2E8A5544 
 650      DA25D083 
 650      3435E817 
 651 24af 2EA2B1CA 		.ascii	".\242\261\312\0148\021\243oKG\331h\207\262\350\243\217"
 651      0C3811A3 
 651      6F4B47D9 
 651      6887B2E8 
 651      A38F
 652 24c1 653F4EDA 		.ascii	"e?N\332.\015\005cw\351?\225\344\024\005\243\341\362"
 652      2E0D0563 
 652      77E93F95 
 652      E41405A3 
 652      E1F2
 653 24d3 68458428 		.ascii	"hE\204(\267{Nn\001^\200\015'\303\330\216|\335_\240\303"
 653      B77B4E6E 
 653      015E800D 
 653      27C3D88E 
 653      7CDD5FA0 
 654 24e8 A8BB7BDE 		.ascii	"\250\273{\336\363\335\334O\367.x9#T\\\034\011G\243\216"
 654      F3DDDC4F 
 654      F72E7839 
 654      23545C1C 
 654      0947A38E 
 655 24fc BD82E79F 		.ascii	"\275\202\347\237\317\353\000\360\003:b\361\232W\000"
 655      CFEB00F0 
 655      033A62F1 
 655      9A5700
 656 250b 11942947 		.ascii	"\021\224)G\356\000\000\220\241\025N\272;\0008\272;@"
 656      EE000090 
 656      A1154EBA 
 656      3B0038BA 
 656      3B40
 657 251d 82E80E90 		.ascii	"\202\350\016\220\000\272\003\267\221\020\225#X\370\022"
 657      00BA03B7 
 657      91109523 
 657      58F812
 658 252c 7B95FF12 		.ascii	"{\225\377\022\346|\276g\356\277t\313\313\004\274\212"
 658      E67CBE67 
 658      EEBF74CB 
 658      CB04BC8A 
 659 253c 4ADA71B4 		.ascii	"J\332q\264\352\331\253G\317\274nA\370\365\016-X\320"
 659      EAD9AB47 
 659      CFBC6E41 
 659      F8F50E2D 
 659      58D0
 660 254e 03C40FE6 		.ascii	"\003\304\017\346u{\261{n\267\266\\\334s=\013\0123*\240"
 660      757BB17B 
ARM GAS  /tmp/ccGgN9d3.s 			page 54


 660      6EB7B65C 
 660      DC733D0B 
 660      0A332AA0 
 661 2562 E540D6CC 		.ascii	"\345@\326\314\242\322\012\030\347\242\225\341pqk\000"
 661      A2D20A18 
 661      E7A295E1 
 661      70716B00 
 662 2572 2CAE8ABD 		.ascii	",\256\212\275^\364z\021\031\334[\027\024\346\005\363"
 662      5EF47A11 
 662      19DC5B17 
 662      14E605F3 
 663 2582 7A17BE1C 		.ascii	"z\027\276\034\314}9\367\371nm\237\351ZP\310\\\007s\356"
 663      CC7D39F7 
 663      F96E6D9F 
 663      E95A50C8 
 663      5C0773EE 
 664 2596 34C6C0F0 		.ascii	"4\306\300\360\377D+\202\020D\010\"\021u\035\210\350"
 664      FF442B82 
 664      10440822 
 664      11751D88 
 664      E8
 665 25a7 D8B1910E 		.ascii	"\330\261\221\016\211\014\250Q?\304\220\232\011\306\334"
 665      890CA851 
 665      3FC4909A 
 665      09C6DC
 666 25b6 E4E48F0C 		.ascii	"\344\344\217\014\324\354\301\037\323C\0368G\006\022"
 666      D4ECC11F 
 666      D3431E38 
 666      470612
 667 25c5 1A1B482A 		.ascii	"\032\033H*]\267Hw\317\256\320\014\200\344\270\012\240"
 667      5DB74877 
 667      CFAED00C 
 667      80E4B80A 
 667      A0
 668 25d6 6115C039 		.ascii	"a\025\300977\337S\230\337\275\240\233\373\031h;.\300"
 668      3737DF53 
 668      98DFBDA0 
 668      9BFB1968 
 668      3B2EC0
 669 25e9 F69361B4 		.ascii	"\366\223a\264\244\214\364\251\344TQ\025\363R\013r\301"
 669      A48CF4A9 
 669      E4545115 
 669      F3520B72 
 669      C1
 670 25fa D8EE2B05 		.ascii	"\330\356+\005\013,\014\227U\372I\240\0271\217\204\031"
 670      0B2C0C97 
 670      55FA49A0 
 670      17318F84 
 670      19
 671 260b 464B1ECF 		.ascii	"FK\036\317\036\230M\314\220\206\202\261\304O\261\262"
 671      1E984DCC 
 671      908682B1 
 671      C44FB1B2 
 672 261b CA9CC71F 		.ascii	"\312\234\307\037\305q\031C\3203F5C\304.\343\221\")\213"
 672      C5711943 
 672      D0334635 
 672      43C42EE3 
ARM GAS  /tmp/ccGgN9d3.s 			page 55


 672      9122298B 
 673 262f 4614E2B5 		.ascii	"F\024\342\265+\024\351gH\321_j\315\246\200\316<Z\032"
 673      2B14E967 
 673      48D15F6A 
 673      CDA680CE 
 673      3C5A1A
 674 2642 0E571602 		.ascii	"\016W\026\002\213\031`9\345\320\201j\020y\241X\010\206"
 674      8B196039 
 674      E5D0816A 
 674      1079A158 
 674      0886
 675 2654 2FE8F232 		.ascii	"/\350\3622b\300\351\323e\225x\206b\361\234\037+nE\316"
 675      62C0E9D3 
 675      65957886 
 675      62F19C1F 
 675      2B6E45CE 
 676 2668 3DB0ADF8 		.ascii	"=\260\255\370*\211\014\220\306\217\201\036\225\003\313"
 676      2A890C90 
 676      C68F811E 
 676      9503CB
 677 2677 3269087F 		.ascii	"2i\010\177\316\350_UV\334\275<\206\347n\003c>r~,\273"
 677      CEE85F55 
 677      56DCBD3C 
 677      86E76E03 
 677      633E727E 
 678 268d 53B63B54 		.ascii	"S\266;TT\364\022!/\023\362WwY\250\337K\204\274L\310"
 678      54F41221 
 678      2F13F257 
 678      7759A8DF 
 678      4B84BC4C 
 679 26a2 5FDDC5C0 		.ascii	"_\335\305\300CB\372>Px\027T\014\015\201\377\225\320"
 679      4342FA3E 
 679      50781754 
 679      0C0D81FF 
 679      95D0
 680 26b4 5E55242C 		.ascii	"^U$,\027\312\275\274\364\227D\226\322hY\247\354N$\013"
 680      17CABDBC 
 680      F4974496 
 680      D26859A7 
 680      EC4E240B 
 681 26c8 0D81B850 		.ascii	"\015\201\270P\014m\260~(\201\20624\307\221\216k\350"
 681      0C6DB07E 
 681      28818632 
 681      34C7918E 
 681      6BE8
 682 26da 4D42AA60 		.ascii	"MB\252`\237\252\276\320'\267\202dZ\320K\307L\037&\203"
 682      9FAABED0 
 682      27B78264 
 682      5AD04BC7 
 682      4C1F2683 
 683 26ee 405608E2 		.ascii	"@V\010\342\203E\025U\340uD\262\312\230\013/-\316K;\022"
 683      83451555 
 683      E07544B2 
 683      CA980B2F 
 683      2DCE4B3B 
 684 2703 3F242F80 		.ascii	"?$/\200\272\314\311\366C\237MC\255u\026#1R)\0368\005"
 684      BACCC9F6 
ARM GAS  /tmp/ccGgN9d3.s 			page 56


 684      439F4D43 
 684      AD751623 
 684      3152291E 
 685 2719 63EDF5C8 		.ascii	"c\355\365\310Py\250\264\242_\262\313iM#\364^\307\005"
 685      5079A8B4 
 685      A25FB2CB 
 685      694D23F4 
 685      5EC705
 686 272c A9BDD404 		.ascii	"\251\275\324\004\332\260\265Y\020\253\250\204Q\265\260"
 686      DAB0B559 
 686      10ABA884 
 686      51B5B0
 687 273b 7F7101A9 		.ascii	"\177q\001\251\324\336\345\261\222R\342\201R\2370v\207"
 687      D4DEE5B1 
 687      9252E281 
 687      529F3076 
 687      87
 688 274c D6AF91A4 		.ascii	"\326\257\221\244\272\326\356\320\214\214\304=WUVR\\"
 688      BAD6EED0 
 688      8C8CC43D 
 688      57555652 
 688      5C
 689 275d 127BFD6E 		.ascii	"\022{\375n\315\272H\0341\322p$\024\203\244\231Z\366"
 689      CDBA481C 
 689      31D27024 
 689      1483A499 
 689      5AF6
 690 276f 92F29258 		.ascii	"\222\362\222X\246\226\015\303Zr\022\366\201\345\027"
 690      A6960DC3 
 690      5A7212F6 
 690      81E517
 691 277e C4421132 		.ascii	"\304B\0212\270\367\210\015\354\331\347o\320\013w\207"
 691      B8F7880D 
 691      ECD9E76F 
 691      D00B7787 
 692 278e 1F3C643A 		.ascii	"\037<d:\323\321O\345x6Ry\233&\021u\325=\244[\353\204"
 692      D3D14FE5 
 692      78365279 
 692      9B261175 
 692      D53DA45B 
 693 27a4 B4A38734 		.ascii	"\264\243\2074\325~\217:\351\336\242\341HI\250\024\364"
 693      D57E8F3A 
 693      E9DEA2E1 
 693      4849A814 
 693      F4
 694 27b5 94558021 		.ascii	"\224U\200!\252\306\333\331\213\027{\024z^\213\224\304"
 694      AAC6DBD9 
 694      8B177B14 
 694      7A5E8B94 
 694      C4
 695 27c6 C26E6C18 		.ascii	"\302nl\030\225U1W\277p"
 695      95553157 
 695      BF70
 696 27d0 CC0DE798 		.ascii	"\314\015\347\230\033\0021/\376\030\363\220_c\256\001"
 696      1B02312F 
 696      FE18F390 
 696      5F63AE01 
ARM GAS  /tmp/ccGgN9d3.s 			page 57


 697 27e0 65B1C71C 		.ascii	"e\261\307\034\015\350\350\360\220\361\2745\206\202\321"
 697      0DE8E8F0 
 697      90F1BC35 
 697      8682D1
 698 27ef 8AAA0819 		.ascii	"\212\252\010\031\313\263\330\3136\364\202x\020ap/\240"
 698      CBB3D8CB 
 698      36F48278 
 698      1061702F 
 698      A0
 699 2800 83E32332 		.ascii	"\203\343#2\302\245\350hd\302Y\217\363C\230\202S(\255"
 699      C2A5E868 
 699      64C2598F 
 699      F3439882 
 699      5328AD
 700 2813 13F34134 		.ascii	"\023\363A4\006\311\357\257Q\227-\034\305\334\036L\347"
 700      06C9EFAF 
 700      51972D1C 
 700      C5DC1E4C 
 700      E7
 701 2824 8F166B5D 		.ascii	"\217\026k]\275\277 O\353\3513 D:z\037\234\261\237w&"
 701      BDBF204F 
 701      EBE93320 
 701      443A7A1F 
 701      9CB19F77 
 702 2839 23FA4644 		.ascii	"#\372FD\306\333J\312Ao\272s\326\012<p-\350\323\203\376"
 702      C6DB4ACA 
 702      416FBA73 
 702      D60A3C70 
 702      2DE8D383 
 703 284e 5775570E 		.ascii	"WuW\016BZ\233\360\275\2525#\317\253A\260\323\014H\022"
 703      425A9BF0 
 703      BDAA3523 
 703      CFAB41B0 
 703      D30C4812 
 704 2862 A98C45E0 		.ascii	"\251\214E\340\034)\206\263\377\325\362\212XI\337\327"
 704      1C2986B3 
 704      FFD5F28A 
 704      5849DFD7 
 705 2872 01E5D520 		.ascii	"\001\345\325 \015z_\0055\224\377\335[\202\230\255\241"
 705      0D7A5F05 
 705      3594FFDD 
 705      5B8298AD 
 705      A1
 706 2883 0B658AF5 		.ascii	"\013e\212\365V`@)\351\243T\364\271\255wA\327\374B\275"
 706      56604029 
 706      E9A354F4 
 706      B9AD7741 
 706      D7FC42BD 
 707 2897 7F763D9D 		.ascii	"\177v=\235O\\\236N\356g\013{\345{\252\242`\216\236\274"
 707      4F5C9E4E 
 707      EE670B7B 
 707      E57BAAA2 
 707      608E9EBC 
 708 28ab 6E4FF77E 		.ascii	"nO\367~\266{K\206`\204\206A\230\032\2316\016\273\012"
 708      B67B4B86 
 708      60848641 
 708      981A9936 
ARM GAS  /tmp/ccGgN9d3.s 			page 58


 708      0EBB0A
 709 28be F21E73EC 		.ascii	"\362\036s\354\362\020\264\302\356=\010\026:%0.\020w"
 709      F210B4C2 
 709      EE3D0816 
 709      3A25302E 
 709      1077
 710 28d0 22710143 		.ascii	"\"q\001CQA\017\360v\362\272w\313wu{6\337\223\233\333"
 710      51410FF0 
 710      76F2BA77 
 710      CB77757B 
 710      36DF939B 
 711 28e5 035C3442 		.ascii	"\003\\4Bs\334\271\271\020\231\373B\241\253WA\256\253"
 711      73DCB9B9 
 711      1099FB42 
 711      A1AB5741 
 711      AEAB
 712 28f7 2B08980F 		.ascii	"+\010\230\017)\237&~Q\036\311\322\243k\276\322\223\346"
 712      299F267E 
 712      511EC9D2 
 712      A36BBED2 
 712      93E6
 713 2909 E804695F 		.ascii	"\350\004i_\312\317\3755\334iR\266\243\241 4\020\275"
 713      CACFFD35 
 713      DC6952B6 
 713      A3A12034 
 713      10BD
 714 291b 16FF1FF4 		.ascii	"\026\377\037\364X\300J"
 714      58C04A
 715              		.text
 716              		.section	.gnu.lto_.symtab.50dde759bd827499,"",%progbits
 717 0000 73656E73 		.ascii	"sensorThread\000\000\000\000\000\000\000\000\000\000"
 717      6F725468 
 717      72656164 
 717      00000000 
 717      00000000 
 718 0016 0000CC02 		.ascii	"\000\000\314\002\000\000sensorThreadStop\000\000\000"
 718      00007365 
 718      6E736F72 
 718      54687265 
 718      61645374 
 719 002f 00000000 		.ascii	"\000\000\000\000\000\000\000\000\000\323\002\000\000"
 719      00000000 
 719      00D30200 
 719      00
 720 003c 53443600 		.ascii	"SD6\000\000\002\000\000\000\000\000\000\000\000\000"
 720      00020000 
 720      00000000 
 720      000000
 721 004b 51040000 		.ascii	"Q\004\000\000I2CD1\000\000\002\000\000\000\000\000\000"
 721      49324344 
 721      31000002 
 721      00000000 
 721      0000
 722 005d 0000009D 		.ascii	"\000\000\000\235\003\000\000I2CD3\000\000\002\000\000"
 722      03000049 
 722      32434433 
 722      00000200 
ARM GAS  /tmp/ccGgN9d3.s 			page 59


 722      00
 723 006e 00000000 		.ascii	"\000\000\000\000\000\000\000\233\003\000\000ADCD1\000"
 723      0000009B 
 723      03000041 
 723      44434431 
 723      00
 724 007f 00020000 		.ascii	"\000\002\000\000\000\000\000\000\000\000\000\224\003"
 724      00000000 
 724      00000094 
 724      03
 725 008c 00006368 		.ascii	"\000\000chThdSleepUntil\000\000\002\000\000\000\000"
 725      54686453 
 725      6C656570 
 725      556E7469 
 725      6C000002 
 726 00a4 00000000 		.ascii	"\000\000\000\000\000[\003\000\000adcConvert\000\000"
 726      005B0300 
 726      00616463 
 726      436F6E76 
 726      65727400 
 727 00b9 02000000 		.ascii	"\002\000\000\000\000\000\000\000\000\000_\003\000\000"
 727      00000000 
 727      00005F03 
 727      0000
 728 00c7 6D733536 		.ascii	"ms5607_readPressure\000\000\002\000\000\000\000\000"
 728      30375F72 
 728      65616450 
 728      72657373 
 728      75726500 
 729 00e2 00000000 		.ascii	"\000\000\000\000f\003\000\000si70x0_readHumidity\000"
 729      66030000 
 729      73693730 
 729      78305F72 
 729      65616448 
 730 00fe 00020000 		.ascii	"\000\002\000\000\000\000\000\000\000\000\000m\003\000"
 730      00000000 
 730      0000006D 
 730      0300
 731 010c 00746D70 		.ascii	"\000tmp275_readTemperature\000\000\002\000\000\000\000"
 731      3237355F 
 731      72656164 
 731      54656D70 
 731      65726174 
 732 012a 00000000 		.ascii	"\000\000\000\000\000s\003\000\000ms5607_init\000\000"
 732      00730300 
 732      006D7335 
 732      3630375F 
 732      696E6974 
 733 0140 02000000 		.ascii	"\002\000\000\000\000\000\000\000\000\000y\003\000\000"
 733      00000000 
 733      00007903 
 733      0000
 734 014e 73693730 		.ascii	"si70x0_init\000\000\002\000\000\000\000\000\000\000"
 734      78305F69 
 734      6E697400 
 734      00020000 
 734      00000000 
ARM GAS  /tmp/ccGgN9d3.s 			page 60


 735 0163 00007F03 		.ascii	"\000\000\177\003\000\000tmp275_init\000\000\002\000"
 735      0000746D 
 735      70323735 
 735      5F696E69 
 735      74000002 
 736 0178 00000000 		.ascii	"\000\000\000\000\000\000\000\000\205\003\000\000i2c"
 736      00000000 
 736      85030000 
 736      693263
 737 0187 53746172 		.ascii	"Start\000\000\002\000\000\000\000\000\000\000\000\000"
 737      74000002 
 737      00000000 
 737      00000000 
 737      00
 738 0198 8B030000 		.ascii	"\213\003\000\000chMtxObjectInit\000\000\002\000\000"
 738      63684D74 
 738      784F626A 
 738      65637449 
 738      6E697400 
 739 01b0 00000000 		.ascii	"\000\000\000\000\000\000\000\220\003\000\000"
 739      00000090 
 739      030000
 740              		.text
 741              		.section	.gnu.lto_.opts,"",%progbits
 742 0000 272D6D63 		.ascii	"'-mcpu=cortex-m4' '-mfloat-abi=hard' '-mfpu=fpv4-sp"
 742      70753D63 
 742      6F727465 
 742      782D6D34 
 742      2720272D 
 743 0033 2D643136 		.ascii	"-d16' '-mno-thumb-interwork' '-mthumb' '-O2' '-fomi"
 743      2720272D 
 743      6D6E6F2D 
 743      7468756D 
 743      622D696E 
 744 0066 742D6672 		.ascii	"t-frame-pointer' '-falign-functions=16' '-ffunction"
 744      616D652D 
 744      706F696E 
 744      74657227 
 744      20272D66 
 745 0099 2D736563 		.ascii	"-sections' '-fdata-sections' '-fno-common' '-flto' "
 745      74696F6E 
 745      73272027 
 745      2D666461 
 745      74612D73 
 746 00cc 272D6673 		.ascii	"'-fsingle-precision-constant'\000"
 746      696E676C 
 746      652D7072 
 746      65636973 
 746      696F6E2D 
 747              		.text
 748              		.section	.text.sensorThread,"ax",%progbits
 749              		.align	2
 750              		.p2align 4,,15
 751              		.global	sensorThread
 752              		.thumb
 753              		.thumb_func
 754              		.type	sensorThread, %function
ARM GAS  /tmp/ccGgN9d3.s 			page 61


 755              	sensorThread:
 756              		@ args = 0, pretend = 0, frame = 0
 757              		@ frame_needed = 0, uses_anonymous_args = 0
 758 0000 2DE9F041 		push	{r4, r5, r6, r7, r8, lr}
 759 0004 0446     		mov	r4, r0
 760 0006 0430     		adds	r0, r0, #4
 761 0008 FFF7FEFF 		bl	chMtxObjectInit
 762 000c 284B     		ldr	r3, .L9
 763 000e 294A     		ldr	r2, .L9+4
 764 0010 2948     		ldr	r0, .L9+8
 765 0012 2A49     		ldr	r1, .L9+12
 766 0014 1A60     		str	r2, [r3]
 767 0016 04F5C276 		add	r6, r4, #388
 768 001a FFF7FEFF 		bl	i2cStart
 769 001e 2848     		ldr	r0, .L9+16
 770 0020 2649     		ldr	r1, .L9+12
 771 0022 FFF7FEFF 		bl	i2cStart
 772 0026 3046     		mov	r0, r6
 773 0028 2549     		ldr	r1, .L9+16
 774 002a 4822     		movs	r2, #72
 775 002c FFF7FEFF 		bl	tmp275_init
 776 0030 04F5B678 		add	r8, r4, #364
 777 0034 04F5BC70 		add	r0, r4, #376
 778 0038 2149     		ldr	r1, .L9+16
 779 003a 4022     		movs	r2, #64
 780 003c FFF7FEFF 		bl	si70x0_init
 781 0040 04F5A677 		add	r7, r4, #332
 782 0044 4046     		mov	r0, r8
 783 0046 1C49     		ldr	r1, .L9+8
 784 0048 4022     		movs	r2, #64
 785 004a FFF7FEFF 		bl	si70x0_init
 786 004e 3846     		mov	r0, r7
 787 0050 1B49     		ldr	r1, .L9+16
 788 0052 7622     		movs	r2, #118
 789 0054 FFF7FEFF 		bl	ms5607_init
 790 0058 4FF08043 		mov	r3, #1073741824
 791 005c 5D6A     		ldr	r5, [r3, #36]
 792              	.L2:
 793 005e A378     		ldrb	r3, [r4, #2]	@ zero_extendqisi2
 794 0060 04F11801 		add	r1, r4, #24
 795 0064 3046     		mov	r0, r6
 796 0066 05F57A75 		add	r5, r5, #1000
 797 006a F3B1     		cbz	r3, .L7
 798 006c FFF7FEFF 		bl	tmp275_readTemperature
 799 0070 04F13001 		add	r1, r4, #48
 800 0074 4046     		mov	r0, r8
 801 0076 FFF7FEFF 		bl	si70x0_readHumidity
 802 007a 04F12C01 		add	r1, r4, #44
 803 007e 04F12002 		add	r2, r4, #32
 804 0082 3846     		mov	r0, r7
 805 0084 FFF7FEFF 		bl	ms5607_readPressure
 806 0088 0E4A     		ldr	r2, .L9+20
 807 008a 0F48     		ldr	r0, .L9+24
 808 008c 0F49     		ldr	r1, .L9+28
 809 008e 3223     		movs	r3, #50
 810 0090 FFF7FEFF 		bl	adcConvert
 811 0094 4FF08043 		mov	r3, #1073741824
ARM GAS  /tmp/ccGgN9d3.s 			page 62


 812 0098 5A6A     		ldr	r2, [r3, #36]
 813 009a 9542     		cmp	r5, r2
 814 009c 01D8     		bhi	.L8
 815 009e 5D6A     		ldr	r5, [r3, #36]
 816 00a0 DDE7     		b	.L2
 817              	.L8:
 818 00a2 2846     		mov	r0, r5
 819 00a4 FFF7FEFF 		bl	chThdSleepUntil
 820 00a8 D9E7     		b	.L2
 821              	.L7:
 822 00aa 0020     		movs	r0, #0
 823 00ac BDE8F081 		pop	{r4, r5, r6, r7, r8, pc}
 824              	.L10:
 825              		.align	2
 826              	.L9:
 827 00b0 00000000 		.word	.LANCHOR0
 828 00b4 00000000 		.word	SD6
 829 00b8 00000000 		.word	I2CD1
 830 00bc 00000000 		.word	.LANCHOR1
 831 00c0 00000000 		.word	I2CD3
 832 00c4 00000000 		.word	.LANCHOR3
 833 00c8 00000000 		.word	ADCD1
 834 00cc 00000000 		.word	.LANCHOR2
 835              		.size	sensorThread, .-sensorThread
 836              		.section	.text.sensorThreadStop,"ax",%progbits
 837              		.align	2
 838              		.p2align 4,,15
 839              		.global	sensorThreadStop
 840              		.thumb
 841              		.thumb_func
 842              		.type	sensorThreadStop, %function
 843              	sensorThreadStop:
 844              		@ args = 0, pretend = 0, frame = 0
 845              		@ frame_needed = 0, uses_anonymous_args = 0
 846              		@ link register save eliminated.
 847 0000 0346     		mov	r3, r0
 848 0002 0022     		movs	r2, #0
 849 0004 9A70     		strb	r2, [r3, #2]
 850 0006 7047     		bx	lr
 851              		.size	sensorThreadStop, .-sensorThreadStop
 852 0008 AFF30080 		.section	.bss.analogSamples,"aw",%nobits
 852      AFF30080 
 853              		.align	2
 854              		.set	.LANCHOR3,. + 0
 855              		.type	analogSamples, %object
 856              		.size	analogSamples, 300
 857              	analogSamples:
 858 0000 00000000 		.space	300
 858      00000000 
 858      00000000 
 858      00000000 
 858      00000000 
 859              		.section	.bss.DEBUG,"aw",%nobits
 860              		.align	2
 861              		.set	.LANCHOR0,. + 0
 862              		.type	DEBUG, %object
 863              		.size	DEBUG, 4
ARM GAS  /tmp/ccGgN9d3.s 			page 63


 864              	DEBUG:
 865 0000 00000000 		.space	4
 866              		.section	.rodata.analogGrp,"a",%progbits
 867              		.align	2
 868              		.set	.LANCHOR2,. + 0
 869              		.type	analogGrp, %object
 870              		.size	analogGrp, 40
 871              	analogGrp:
 872 0000 00       		.byte	0
 873 0001 00       		.space	1
 874 0002 0300     		.short	3
 875 0004 00000000 		.word	0
 876 0008 00000000 		.word	0
 877 000c 00000000 		.word	0
 878 0010 00000040 		.word	1073741824
 879 0014 1B000000 		.word	27
 880 0018 03000000 		.word	3
 881 001c 00002000 		.word	2097152
 882 0020 00000000 		.word	0
 883 0024 402D0000 		.word	11584
 884              		.section	.rodata.i2cfg,"a",%progbits
 885              		.align	2
 886              		.set	.LANCHOR1,. + 0
 887              		.type	i2cfg, %object
 888              		.size	i2cfg, 12
 889              	i2cfg:
 890 0000 01       		.byte	1
 891 0001 000000   		.space	3
 892 0004 801A0600 		.word	400000
 893 0008 02       		.byte	2
 894 0009 000000   		.space	3
 895              		.comm	__gnu_lto_v1,1,1
 896              		.ident	"GCC: (GNU Tools for ARM Embedded Processors) 4.8.4 20140526 (release) [ARM/embedded-4_8-br
ARM GAS  /tmp/ccGgN9d3.s 			page 64


DEFINED SYMBOLS
                            *ABS*:0000000000000000 sensor_thread.c
     /tmp/ccGgN9d3.s:749    .text.sensorThread:0000000000000000 $t
     /tmp/ccGgN9d3.s:755    .text.sensorThread:0000000000000000 sensorThread
     /tmp/ccGgN9d3.s:827    .text.sensorThread:00000000000000b0 $d
     /tmp/ccGgN9d3.s:837    .text.sensorThreadStop:0000000000000000 $t
     /tmp/ccGgN9d3.s:843    .text.sensorThreadStop:0000000000000000 sensorThreadStop
     /tmp/ccGgN9d3.s:853    .bss.analogSamples:0000000000000000 $d
     /tmp/ccGgN9d3.s:857    .bss.analogSamples:0000000000000000 analogSamples
     /tmp/ccGgN9d3.s:860    .bss.DEBUG:0000000000000000 $d
     /tmp/ccGgN9d3.s:864    .bss.DEBUG:0000000000000000 DEBUG
     /tmp/ccGgN9d3.s:867    .rodata.analogGrp:0000000000000000 $d
     /tmp/ccGgN9d3.s:871    .rodata.analogGrp:0000000000000000 analogGrp
     /tmp/ccGgN9d3.s:885    .rodata.i2cfg:0000000000000000 $d
     /tmp/ccGgN9d3.s:889    .rodata.i2cfg:0000000000000000 i2cfg
                            *COM*:0000000000000001 __gnu_lto_v1

UNDEFINED SYMBOLS
chMtxObjectInit
i2cStart
tmp275_init
si70x0_init
ms5607_init
tmp275_readTemperature
si70x0_readHumidity
ms5607_readPressure
adcConvert
chThdSleepUntil
SD6
I2CD1
I2CD3
ADCD1
