ARM GAS  /tmp/ccuXmPnF.s 			page 1


   1              		.syntax unified
   2              		.cpu cortex-m4
   3              		.eabi_attribute 27, 3
   4              		.eabi_attribute 28, 1
   5              		.fpu fpv4-sp-d16
   6              		.eabi_attribute 20, 1
   7              		.eabi_attribute 21, 1
   8              		.eabi_attribute 23, 3
   9              		.eabi_attribute 24, 1
  10              		.eabi_attribute 25, 1
  11              		.eabi_attribute 26, 1
  12              		.eabi_attribute 30, 2
  13              		.eabi_attribute 34, 1
  14              		.eabi_attribute 18, 4
  15              		.thumb
  16              		.file	"sensor_thread.c"
  17              		.section	.gnu.lto_.jmpfuncs.7014f8687c79b587,"",%progbits
  18 0000 789C6362 		.ascii	"x\234cb`b\300\006\342\030!4\023\003##S\004c&#\303\013"
  18      6062C006 
  18      E2182134 
  18      13032323 
  18      53046326 
  19 0017 76060616 		.ascii	"v\006\006\026\246j\206_\015\035\015\002\231\214\214"
  19      A66A865F 
  19      0D1D0D02 
  19      998C8C
  20 0026 B9101560 		.ascii	"\271\020\025`\221\031 \021\246\\FF\270\010X\015s.#\330"
  20      91192011 
  20      A65C4646 
  20      B808580D 
  20      732E23D8 
  21 003a 74B0012C 		.ascii	"t\260\001,F\014\014\314,\017D2\031Y\241v0\261<\020\313"
  21      460C0CCC 
  21      2C0F4432 
  21      1959A176 
  21      30B13C10 
  22 004f 646483B2 		.ascii	"dd\203\262\027Hd2\262\203\331\010U\010\2438r\031\231"
  22      17486432 
  22      B283D908 
  22      5508A338 
  22      721999
  23 0062 E1467196 		.ascii	"\341Fq\226\201\025A5\243(bA(r\000): \216E\0213\232\""
  23      81154135 
  23      A3286241 
  23      28720029 
  23      3A208E45 
  24 007a 98D5B814 		.ascii	"\230\325\270\024y\000\031X\344\340>\347\312\205\370"
  24      79001958 
  24      E4E03EE7 
  24      CA85F8
  25 0089 89098B53 		.ascii	"\211\011\213S0\0241\262(d2r\003\031\234\214\014\000"
  25      301431B2 
  25      28643272 
  25      03199C8C 
  25      0C00
  26 009b 099D3D1B 		.ascii	"\011\235=\033"
  27              		.text
ARM GAS  /tmp/ccuXmPnF.s 			page 2


  28              		.section	.gnu.lto_.inline.7014f8687c79b587,"",%progbits
  29 0000 789C758E 		.ascii	"x\234u\216\273\015\2000\014D\317v\"\013%a\015Z&\311"
  29      BB0D8030 
  29      0C44CF76 
  29      220B2561 
  29      0D5A26C9 
  30 0014 38AC0065 		.ascii	"8\254\000e\012\026b\006jz*f \006D\005n\356\235\377\014"
  30      0A166206 
  30      6A7A2A66 
  30      20064405 
  30      6EEE9DFF 
  31 0029 C657CC8F 		.ascii	"\306W\314\217\326j\177x\"\220\031]\027\201\216\3035"
  31      D66A7F78 
  31      2290195D 
  31      17818EC3 
  31      35
  32 003a C3C1B2BE 		.ascii	"\303\301\262\276%8\263.\021d\323\222K\226H`\303\027"
  32      2538B32E 
  32      1164D392 
  32      4B964860 
  32      C317
  33 004c 5C02A464 		.ascii	"\\\002\244d\353\372\005\211\327\271G8\000Tr\003'u\007"
  33      EBFA0589 
  33      D7B94738 
  33      00547203 
  33      277507
  34 005f ED0A9DBA 		.ascii	"\355\012\235\272\373\327\023\271\202\021|"
  34      FBD713B9 
  34      82117C
  35              		.text
  36              		.section	.gnu.lto_.pureconst.7014f8687c79b587,"",%progbits
  37 0000 789C6362 		.ascii	"x\234cb`b`e\200\000&\006KN)\000\001s\000h"
  37      60626065 
  37      80002606 
  37      4B4E2900 
  37      01730068 
  38              		.text
  39              		.section	.gnu.lto_sensorThread.7014f8687c79b587,"",%progbits
  40 0000 789CA595 		.ascii	"x\234\245\225\317k\023A\024\307\337\233\375\231\244"
  40      CF6B1341 
  40      14C7DF9B 
  40      FD99A4
  41 000f B1E9EF9F 		.ascii	"\261\351\357\237j\255\277j\177\035\004\241 \202\340"
  41      6AADBF6A 
  41      7F1D04A1 
  41      2082E0
  42 001e C53FA005 		.ascii	"\305?\240\005=I\\C\334\303*4\"h\017\335\264\251\366"
  42      3D495C43 
  42      DCC32A34 
  42      22680FDD 
  42      B4A9F6
  43 0031 10212082 		.ascii	"\020! \202\350\245\245\027)H\361\240(^\342A\354EE<\210"
  43      E8A5A517 
  43      2948F1A0 
  43      285EE241 
  43      EC45453C 
  44 0046 0A1A10C4 		.ascii	"\012\032\020\304\203\340AD\354\301\370fvv\223\270\321"
ARM GAS  /tmp/ccuXmPnF.s 			page 3


  44      83E04144 
  44      ECC1F866 
  44      767693B8 
  44      D1
  45 0057 545CD837 		.ascii	"T\\\3307\263\263o\276\3573of\3372`\360\373u\210\356"
  45      B3B36FBE 
  45      EF336F66 
  45      DF3260F0 
  45      FB7588EE 
  46 006b 0E03A097 		.ascii	"\016\003\240\227Z\324\001Y\341\031@\326d\250z\035\305"
  46      5AD40159 
  46      E11940D6 
  46      64A87A1D 
  46      C5
  47 007c EB3C3255 		.ascii	"\353<2U\246\344\237\000\270Q-g\200\333\244!\362q@\230"
  47      A6E49F00 
  47      B8512D67 
  47      80DBA421 
  47      F2714098 
  48 0090 658AAAE1 		.ascii	"e\212\252\341\354q\344r8\010\313\256{\275\364\370\335"
  48      EC71E472 
  48      3808CBAE 
  48      7BBDF4F8 
  48      DD
  49 00a1 951E7769 		.ascii	"\225\036wi\256\340\376,\227\321F\012\334\206`!\034\243"
  49      AEE0FE2C 
  49      97D1460A 
  49      DC866021 
  49      1CA3
  50 00b3 071C100D 		.ascii	"\007\034\020\015SkI\326X\261T.\347\327\012\257\260\237"
  50      536B49D6 
  50      58B1542E 
  50      E7D70AAF 
  50      B09F
  51 00c5 A183A080 		.ascii	"\241\203\240\200\215J\204\214\032#\243\305\271i&\243"
  51      8D4A848C 
  51      1A23A3C5 
  51      B96926A3 
  52 00d5 B790315A 		.ascii	"\267\2201Z\311\230\355\334tr\323\305M\037&q\231\020"
  52      C998EDDC 
  52      7472D3C5 
  52      4D1F2671 
  52      9910
  53 00e7 E8D220E7 		.ascii	"\350\322 \347\272\205\001\377\331\022t\223d\211~\012"
  53      BA8501FF 
  53      D9127493 
  53      64897E0A 
  54 00f7 1935CA53 		.ascii	"\0315\312S\230\333\230\377\362\201%q\0055H\2432\003"
  54      98DB98FF 
  54      F2812571 
  54      053548A3 
  54      3203
  55 0109 1729E208 		.ascii	"\027)\342\010\254\272t]#\304\210\354_\2601z\023n\320"
  55      ACBA745D 
  55      23C488EC 
  55      5FB0317A 
  55      136ED0
ARM GAS  /tmp/ccuXmPnF.s 			page 4


  56 011c 482C8D8C 		.ascii	"H,\215\214\3037\011\344\223\010\262\305\312:\236C\256"
  56      C33709E4 
  56      9308B2C5 
  56      CA3A9E43 
  56      AE
  57 012d 38EA6902 		.ascii	"8\352i\002\314\300\206\273\350&l\214[\322\207\342\330"
  57      CCC086BB 
  57      E8266C8C 
  57      5BD287E2 
  57      D8
  58 013e B8054044 		.ascii	"\270\005@D\377\376\026=OR\317\272\334\2579\230\221p"
  58      FFFE163D 
  58      4F52CFBA 
  58      DCAF3998 
  58      9170
  59 0150 C40C1E2D 		.ascii	"\304\014\036-!fzo\334\203\344\344 \223\261\026\226f"
  59      21667A6F 
  59      DC83E4E4 
  59      2093B116 
  59      9666
  60 0162 43B15A2C 		.ascii	"C\261Z,\371\232\217\2306\266:\250H'>\322mc\233\203\252"
  60      F99A8F98 
  60      36B63AA8 
  60      48273ED2 
  60      6D639B83 
  61 0177 1CB1B1DD 		.ascii	"\034\261\261\335\323YT6#\244\375]H\254j-?\344\3474\""
  61      D3595436 
  61      23A4FD5D 
  61      48AC6A2D 
  61      3FE4E734 
  62 018c 72AACA3C 		.ascii	"r\252\312<fl\354\250\237GV\235\277K\305\241\020J\247"
  62      666CECA8 
  62      9F47569D 
  62      BF4BC5A1 
  62      104AA7
  63 019f 858ACC5F 		.ascii	"\205\212\314_$L\303\245\272\216\022B\267D\270\323\344"
  63      244CC3A5 
  63      BA8E1242 
  63      B744B8D3 
  63      E4
  64 01b0 13C40481 		.ascii	"\023\304\004\201V!\350\251O\2404\"\350\265P\225\004"
  64      5621E8A9 
  64      4FA03422 
  64      E8B55095 
  64      04
  65 01c1 B13F101C 		.ascii	"\261?\020\034&\202>Ip7 \210o\222@\375\007\202xxkC\004"
  65      26823E49 
  65      70372088 
  65      6F9240FD 
  65      07827878 
  66 01d8 0F028266 		.ascii	"\017\002\202fA\240W\010\372\353\023h\215\010\266Z\322"
  66      41A05708 
  66      FAEB1368 
  66      8D08B65A 
  66      D2
  67 01e9 27ED1DD4 		.ascii	"'\355\035\324:98O\004\333<\215)J*\325\014\357C\373\232"
  67      3A39384F 
ARM GAS  /tmp/ccuXmPnF.s 			page 5


  67      04DB3C8D 
  67      294A2AD5 
  67      0CEF43FB 
  68 01fe 9FF0715A 		.ascii	"\237\360qZ\005\216)q\276\321\254\355\262\377\032\033"
  68      058E2971 
  68      BED1ACED 
  68      B2FF1A1B 
  69 020e 7E697A35 		.ascii	"~iz5\343Bq\"\3048`I\037:)\024\313\306\035\376\307\226"
  69      E3427122 
  69      C4386049 
  69      1F3A2914 
  69      CBC61DFE 
  70 0224 1FF309DA 		.ascii	"\037\363\011\332\377\207\300\250%\030\013\021\014Z\322"
  70      FF87C0A8 
  70      25180B11 
  70      0C5AD2
  71 0233 87F68962 		.ascii	"\207\366\211b\331\270S\022\374\010v\244\263\006\340"
  71      D9B85312 
  71      FC0876A4 
  71      B306E0
  72 0242 7D15C0CB 		.ascii	"}\025\300\313\306\000f\005@\310\336C_\266\253F\366\225"
  72      C6006605 
  72      40C8DE43 
  72      5FB6AB46 
  72      F695
  73 0254 5E917DA8 		.ascii	"^\221}\2507\224\215\324\356~x]\273,\031\232v\237\226"
  73      37948DD4 
  73      EE7E785D 
  73      BB2C199A 
  73      769F96
  74 0267 40E16CDC 		.ascii	"@\341l\334\315\235/\227n\315\033!\367=\226\224\224'"
  74      CD9D2F97 
  74      6ECD1B21 
  74      F73D9694 
  74      9427
  75 0279 65AF837A 		.ascii	"e\257\203zm\365\030r\320\250\032\241\342v\225\270\366"
  75      6DF51872 
  75      D0A81AA1 
  75      E27695B8 
  75      F6
  76 028a 3968569D 		.ascii	"9hV\235\250\341\375t\242FD]-\255\036\011E\031\2650*"
  76      A8E1FD74 
  76      A246445D 
  76      2DAD1E09 
  76      4519B530 
  77 029f A270DFB1 		.ascii	"\242p\337\261O\0069\217\373\307O\005\372G\361\343\367"
  77      4F06398F 
  77      FBC74F05 
  77      FA47F1E3 
  77      F7
  78 02b0 E6FEC7F5 		.ascii	"\346\376\307\365\240\316\267\214\3000\375@\352'#*3\260"
  78      A0CEB78C 
  78      C030FD40 
  78      EA27232A 
  78      33B0
  79 02c2 0EB9CFD9 		.ascii	"\016\271\317\331\003\301\024\356R\265\357\\\\\343\377"
  79      03C114EE 
ARM GAS  /tmp/ccuXmPnF.s 			page 6


  79      52B5EF5C 
  79      5CE3FF
  80 02d1 9017902D 		.ascii	"\220\027\220-\335^\011\362\337\347\275\234\244\312\235"
  80      DD5E09F2 
  80      DFE7BD9C 
  80      A4CA9D
  81 02e0 33784D4B 		.ascii	"3xMKdRg2g\247O\234;=\235J\236\032\267\300pR\231L2\235"
  81      64526732 
  81      67A74F9C 
  81      3B3D9D4A 
  81      9E1AB7C0 
  82 02fa FA056913 		.ascii	"\372\005i\023\223\307"
  82      93C7
  83              		.text
  84              		.section	.gnu.lto_sensorThreadStop.7014f8687c79b587,"",%progbits
  85 0000 789C6362 		.ascii	"x\234cb`b@\007\222@<\003\210\205\200\230\221\231\201"
  85      60624007 
  85      92403C03 
  85      88858098 
  85      919981
  86 0013 9169C239 		.ascii	"\221i\3029\006\206F\016&FF\020\203\201\221\241\236\211"
  86      0686460E 
  86      26464610 
  86      838191A1 
  86      9E89
  87 0025 B13E9211 		.ascii	"\261>\222\021\254v=\323\201\007\377\377\257\373ql\301"
  87      AC763DD3 
  87      8107FFFF 
  87      AFFB716C 
  87      C1
  88 0036 3E464616 		.ascii	">FF\026&\306\\\2600+CKC\303\004\005\006\206d07\004H"
  88      26C65CB0 
  88      302B434B 
  88      43C30405 
  88      06866430 
  89 004d 82B48632 		.ascii	"\202\264\20622\201h\346\263\014M;v\274\177\301\224\310"
  89      328168E6 
  89      B30C4D3B 
  89      76BC7FC1 
  89      94C8
  90 005f B8909195 		.ascii	"\270\220\221\225A\233aU\003\020\230g22\314f\230\305"
  90      419B6155 
  90      03109867 
  90      3232CC66 
  90      98C5
  91 0071 98C9C898 		.ascii	"\230\311\310\230\316\310\024\001\244!.K\202X\304\000"
  91      CEC81401 
  91      A4212E4B 
  91      8258C400 
  92 0081 1201332E 		.ascii	"\022\0013.24>\330\247\014\321\013\003!\214\214 \223"
  92      32343ED8 
  92      A70CD10B 
  92      03218C8C 
  92      2093
  93 0093 413A048A 		.ascii	"A:\004\212S\363\212\363\213\342K2\212R\023S\364\222"
  93      53F38AF3 
  93      8BE24B32 
ARM GAS  /tmp/ccuXmPnF.s 			page 7


  93      8A521353 
  93      F492
  94 00a5 1900F602 		.ascii	"\031\000\366\002,\376"
  94      2CFE
  95              		.text
  96              		.section	.gnu.lto_.symbol_nodes.7014f8687c79b587,"",%progbits
  97 0000 789C45CC 		.ascii	"x\234E\314MR\302@\020\305\3617o2D@\004\364\000\234\307"
  97      4D52C240 
  97      10C5F137 
  97      6F324440 
  97      04F4009C 
  98 0015 53756014 		.ascii	"Su`\024\3027z\0007\234\303U\026TA\025g\200\312\3263"
  98      C2377A00 
  98      379CC355 
  98      16544115 
  98      6780CAD6 
  99 002a 18E984B2 		.ascii	"\030\351\204\262g\363\177\277^\014A\274:4\217\221\002"
  99      67F37FBF 
  99      5E0C41BC 
  99      3A348F91 
  99      02
 100 003b ECCE80C8 		.ascii	"\354\316\200\310W\356B\345Z\211\3700e\012A\310\231h"
 100      57EE42E5 
 100      5A89F830 
 100      650A41C8 
 100      9968
 101 004d 32063DCE 		.ascii	"2\006=\316\351U\037\204fL\247\307\011y\013\337(\316"
 101      E9551F84 
 101      664CA7C7 
 101      09790BDF 
 101      28CE
 102 005f BE719F14 		.ascii	"\276q\237\0246\3142\347v\024o\332R\022\323\206\022L"
 102      36CC32E7 
 102      76146FDA 
 102      5212D386 
 102      124C
 103 0071 6B4ACBB4 		.ascii	"kJ\313\264\242\244\246%\345\301\264\240\264M3J\307\364"
 103      A2A4A625 
 103      E5C1B4A0 
 103      B44D334A 
 103      C7F4
 104 0083 4EE9FECB 		.ascii	"N\351\376\313\343\005\373\313\357\255\317(\357\215W"
 104      E305FBCB 
 104      EFADCF28 
 104      EF8D57
 105 0092 ED1045DD 		.ascii	"\355\020E\335\001\342\364g\244-\352\366\021g\332'\024"
 105      01E2F467 
 105      A42DEAF6 
 105      1167DA27 
 105      14
 106 00a3 87EA3B78 		.ascii	"\207\352;x\364\020\217\365xD\331\214.\342\251\036\035"
 106      F4108FF5 
 106      7844D98C 
 106      2EE2A91E 
 106      1D
 107 00b4 EC75E00F 		.ascii	"\354u\340\017\250\331[\221"
 107      A8D95B91 
ARM GAS  /tmp/ccuXmPnF.s 			page 8


 108              		.text
 109              		.section	.gnu.lto_.refs.7014f8687c79b587,"",%progbits
 110 0000 789C6362 		.ascii	"x\234cb`b\220e\200\000^\006FF&&&f&\026&V0f\005\262Y"
 110      60629065 
 110      80005E06 
 110      46462626 
 110      26662616 
 111 001b 99D898D8 		.ascii	"\231\330\230\330\2318\030\000\012l\000\202"
 111      99381800 
 111      0A6C0082 
 112              		.text
 113              		.section	.gnu.lto_.decls.7014f8687c79b587,"",%progbits
 114 0000 789CBD7D 		.ascii	"x\234\275}\011\230\024\305\226nf\326\322Ut\313\3462"
 114      099814C5 
 114      966E66D6 
 114      D25574CB 
 114      E632
 115 0012 78D56BDD 		.ascii	"x\325k\335ywf\374|\367\332M\203\212o\336\250\330\215"
 115      797766FC 
 115      7CF7DA4D 
 115      838A6FDE 
 115      A8D88D
 116 0025 CA1D11A6 		.ascii	"\312\035\021\246\273u\364\316\274\257,\272\013\350{"
 116      BB75F4CE 
 116      BCAF2CBA 
 116      0BE87B
 117 0034 7BB3AA1A 		.ascii	"{\263\252\032a\346\233\317\004\244U\340z\233\245\331"
 117      61E69BCF 
 117      04A455E0 
 117      7A9BA5D9 
 118 0044 77504045 		.ascii	"wP@Ee\223E\226\002\224U\240\241Y\233\255\000\001YD\220"
 118      65934596 
 118      029455A0 
 118      A1599BAD 
 118      00015944 
 119 0059 BD1BE839 		.ascii	"\275\033\3509q\"\263*\"+3+\263t^\177\235'#\243\"\376"
 119      7122B32A 
 119      222B332B 
 119      B3745E7F 
 119      9D2723A3 
 120 006f 38E7C489 		.ascii	"8\347\304\211\210\023\221\231\221\222 \011\235%Ah\201"
 120      88139199 
 120      91922009 
 120      9D254168 
 120      81
 121 0080 BFA7C709 		.ascii	"\277\247\307\011\302\2116\202\340\020\004\341i8\262"
 121      C2893682 
 121      E01004E1 
 121      6938B2
 122 008f E0C88063 		.ascii	"\340\310\200c\006\034G\340\370\035\244;\000\347l8G\341"
 122      061C47E0 
 122      F81DA43B 
 122      00E76C38 
 122      47E1
 123 00a1 D8004777 		.ascii	"\330\000Gw8\376S\024\204\336\344\032\316\202\222\357"
 123      38FE5314 
 123      84DEE41A 
ARM GAS  /tmp/ccuXmPnF.s 			page 9


 123      CE8292EF 
 124 00b1 5BB86E80 		.ascii	"[\270n\200\343\337\000\314\017G\0378\312\341\010\303"
 124      E3DF00CC 
 124      0F471F38 
 124      CAE108C3 
 125 00c1 31108EB7 		.ascii	"1\020\216\267\341\030\012\307p8j\341\360@\2361p\036"
 125      E1180AC7 
 125      70386AE1 
 125      F0409E31 
 125      701E
 126 00d3 0BC70438 		.ascii	"\013\307\0048&\3011\005\216ip\314\204\343_\234\002\367"
 126      26C13105 
 126      8E6970CC 
 126      84E35F9C 
 126      02F7
 127 00e5 47F0B3E1 		.ascii	"G\360\263\341\\\013e\266V\312\374\006\302\375!m\025"
 127      5C0B65B6 
 127      56CAFC06 
 127      C2FD216D 
 127      15
 128 00f6 1CA5709C 		.ascii	"\034\245p\234\204\270'\004\312\3271H\277\017\216\275"
 128      84B82704 
 128      CAD73148 
 128      BF0F8EBD 
 129 0106 701402D6 		.ascii	"p\024\002\326H\370}\026\034E\020~\305I\345 2\214pP\271"
 129      48F87D16 
 129      1C45107E 
 129      C549E520 
 129      328C7050 
 130 011b 5E7552B9 		.ascii	"^uR\271j\034T\326\177\205k\331Ae\177\015\302\377\001"
 130      6A1C54D6 
 130      7F856BD9 
 130      41657F0D 
 130      C2FF01
 131 012e E1C700FB 		.ascii	"\341\307\000\373u\010G \374G8W\300\371\337\340\334\027"
 131      75084720 
 131      FC473857 
 131      C0F9DFE0 
 131      DC17
 132 0140 CEFFEE4C 		.ascii	"\316\377\356L\326\333\033\020\377\377\234T\247\377\016"
 132      D6DB1B10 
 132      FFFF9C54 
 132      A7FF0E
 133 014f E14C38C7 		.ascii	"\341L8\307\340\267S\244<\270~\001\216np\344\301q\026"
 133      E0B753A4 
 133      3CB87E01 
 133      8E6E70E4 
 133      C17116
 134 0162 E2AEC171 		.ascii	"\342\256\301q\005\216\013p\034\221hz\"w\255\242\267"
 134      058E0B70 
 134      1C91687A 
 134      2277ADA2 
 134      B7
 135 0173 A18A1E07 		.ascii	"\241\212\036\007*z-W\364L\364M\364\356\205\364\365R"
 135      2A7A2D57 
 135      F44CF44D 
 135      F4EE85F4 
ARM GAS  /tmp/ccuXmPnF.s 			page 10


 135      F552
 136 0185 427FAA3E 		.ascii	"B\177\252>\211nY]\263\177\244\316H\024\321\235\252/"
 136      896E595D 
 136      B37FA4CE 
 136      4814D19D 
 136      AA2F
 137 0197 52AD4794 		.ascii	"R\255G\224s\203r~]\223/S\030&\313\203\345\3515\362\213"
 137      7383727E 
 137      5D932F53 
 137      1826CB83 
 137      E5E935F2 
 138 01ac 9B5AB717 		.ascii	"\233Z\267\027F\312\360\347\333\0045\363\232\030\020"
 138      46CAF0E7 
 138      DB0435F3 
 138      9A1810
 139 01bb 5B7B85E9 		.ascii	"[{\205\351\016\014ey\205\316\220\372\357\204\331\262"
 139      0E0C6579 
 139      85CE90FA 
 139      EF84D9B2 
 140 01cb 5C1B3BB9 		.ascii	"\\\033;\271z\227C\226=\001q\246\330\036\354\360\005"
 140      7A974396 
 140      3D0171A6 
 140      D81EECF0 
 140      05
 141 01dc 51785498 		.ascii	"QxT\230\007\031key\346\243\242\220\374\227\0228 \316"
 141      07196B65 
 141      79E6A3A2 
 141      90FC9712 
 141      3820CE
 142 01ef 1625A01F 		.ascii	"\026%\240\037\001`@\374P|\224\026%G[&f\311N\032/(\277"
 142      016040FC 
 142      507C9416 
 142      25475B26 
 142      66C94E1A 
 143 0206 E8FCFD46 		.ascii	"\350\374\375F\230\016RD\307\035\234\3727r,*f\0105D\250"
 143      980E5244 
 143      C71D9CFA 
 143      37722C2A 
 143      66083544 
 144 021b D8D0C11D 		.ascii	"\330\320\301\035\306'J\364\250\005\212\011I.m\330\335"
 144      C6274AF4 
 144      A8058A09 
 144      492E6DD8 
 144      DD
 145 022c 11259907 		.ascii	"\021%\231\007\231$a\270(r\205X\000\"\\}\012\2319\256"
 145      992461B8 
 145      28728558 
 145      00225C7D 
 145      0A9939AE 
 146 0240 97D4B421 		.ascii	"\227\324\264!\\\223x\023\256\035P\"\374\217\205B\011"
 146      5C937813 
 146      AE1D5022 
 146      FC8F8542 
 146      09
 147 0251 A0D39B88 		.ascii	"\240\323\233\210\233\221\210\023\231\244\037'\242%&"
 147      9B918813 
 147      99A41F27 
ARM GAS  /tmp/ccuXmPnF.s 			page 11


 147      A22526
 148 0260 7A7122DA 		.ascii	"zq\"\332\301D\257ID;\231\350o\023\321.\205\023r)z\023"
 148      C144AF49 
 148      443B99E8 
 148      6F13D12E 
 148      85137229 
 149 0276 8116BE12 		.ascii	"\201\026\276\022Y\011\003\342|\361\357\200~&:t\263I"
 149      590903E2 
 149      7CF1EF80 
 149      7E263A74 
 149      B349
 150 0288 C25E5422 		.ascii	"\302^T\"\2511=})\301D\271\255\325\013\245\026c'\027"
 150      A9313D7D 
 150      29C144B9 
 150      ADD50BA5 
 150      16632717 
 151 029c 5D764C90 		.ascii	"]vL\220\243\3578\364l\023.D\306\212|*\2363^\247\321"
 151      A3EF38F4 
 151      6C132E44 
 151      C68A7C2A 
 151      9E335EA7 
 152 02b1 AB8DA24F 		.ascii	"\253\215\242OM\3556J\033\020W\203\030)\223\221\204Q"
 152      4DED364A 
 152      1B105783 
 152      18299391 
 152      8451
 153 02c3 AD4D5E6A 		.ascii	"\255M^jD\233\214Z\262\311\313\215S\357\227\247\257\003"
 153      449B8C5A 
 153      B2C9CB8D 
 153      53EF97A7 
 153      AF03
 154 02d5 EDBC9710 		.ascii	"\355\274\227\020\306\214\377\330\315\017\276Y+\016\226"
 154      C68CFFD8 
 154      CD0FBE59 
 154      2B0E96
 155 02e4 65F861BD 		.ascii	"e\370a\275H*z\220\304[\245u\250%\243V>\205\346\275\001"
 155      482A7A90 
 155      C45BA575 
 155      A825A356 
 155      3E85E6BD 
 156 02f9 81D66880 		.ascii	"\201\326h\200\002b\206\227e\031\257\325\004\004-\303"
 156      02628697 
 156      6519AFD5 
 156      04042DC3 
 157 0309 9B089091 		.ascii	"\233\010\220\221\246\215`7\271$l\301B\243\011s\340\030"
 157      A68D6037 
 157      B9246CC1 
 157      42A30973 
 157      E018
 158 031b 353107A6 		.ascii	"51\007\246\034jxk\321\360\326\211\277I\374$AG\251\225"
 158      1C6A786B 
 158      D1F0D689 
 158      BF49FC24 
 158      4147A995 
 159 032f 89D60B93 		.ascii	"\211\326\013\223;Q\201\2026\277Q\235\257\0243\023E4"
 159      3B518182 
 159      36BF519D 
ARM GAS  /tmp/ccuXmPnF.s 			page 12


 159      AF143313 
 159      4534
 160 0341 4A1A834E 		.ascii	"J\032\203N)\201\2175\201\330\311/\365\014Z\251E\271"
 160      29818F35 
 160      81D8C92F 
 160      F50C5AA9 
 160      45B9
 161 0353 467E646E 		.ascii	"F~dn\242\026\333\252xR\274\026\243\323F\337K\354m;\326"
 161      A216DBAA 
 161      7852BC16 
 161      A3D346DF 
 161      4BEC6D3B 
 162 0368 E1317D63 		.ascii	"\3411}cH\015\003v\265\364wh\014;\021\350\207\264\201"
 162      480D0376 
 162      B5F47768 
 162      0C3B11E8 
 162      87B481
 163 037b 968C9A43 		.ascii	"\226\214\232C\255j7\002]K\252\001\207\306\252\034\274"
 163      AD6A3702 
 163      5D4BAA01 
 163      87C6AA1C 
 163      BC
 164 038c 9938BC89 		.ascii	"\2318\274\211@K\013? \375\302\211\215\352w\033[\277"
 164      404B0B3F 
 164      20FDC289 
 164      8DEA771B 
 164      5BBF
 165 039e 831C16EA 		.ascii	"\203\034\026\352\327\303\326\257\300\327\357\322s\264"
 165      D7C3D6AF 
 165      C0D7EFD2 
 165      73B4
 166 03ac 7EAD37CC 		.ascii	"~\2557\314E\023\367^V\332\370\001T\342J\207V\211.\215"
 166      4513F75E 
 166      56DAF801 
 166      54E24A87 
 166      56892E8D 
 167 03c0 125DBCA8 		.ascii	"\022]\274\250.o\"\020ok\353mK\242\261\324\025f]\257"
 167      2E6F2210 
 167      6F6BEB6D 
 167      4BA2B1D4 
 167      15665DAF 
 168 03d4 CC75BDE0 		.ascii	"\314u\275\340])\200\217$LuO\242\357\365\031\246\015"
 168      5D29808F 
 168      244C754F 
 168      A2EFF519 
 168      A60D
 169 03e6 88B144DF 		.ascii	"\210\261D\337k\234\214$<\236\324\367\356\305\276\367"
 169      6B9C8C24 
 169      3C9ED4F7 
 169      EEC5BEF7 
 170 03f6 B8A5BEF7 		.ascii	"\270\245\276\367\346^\352\017x\204w\3510.\017\022\337"
 170      E65EEA0F 
 170      788477E9 
 170      302E0F12 
 170      DF
 171 0407 34F10788 		.ascii	"4\361\007\210\003#\005\304\223\220A\0226;\364<\031,"
 171      032305C4 
ARM GAS  /tmp/ccuXmPnF.s 			page 13


 171      93904112 
 171      363BF43C 
 171      192C
 172 0419 95245075 		.ascii	"\225$PuH\303j\010\007\300\035X\013\307\323\035\000\243"
 172      48C36A08 
 172      07C01D58 
 172      0BC7D31D 
 172      00A3
 173 042b B5E3B2EA 		.ascii	"\265\343\262\352\337\260\336=,\247\335\303Y\264\243"
 173      DFB0DE3D 
 173      2CA7DDC3 
 173      59B4A3
 174 043a FD4976B4 		.ascii	"\375Iv\264S\264\331\032%\341\234V\000\256X=\001\332"
 174      53B4D91A 
 174      25E19C56 
 174      00AE583D 
 174      01DA
 175 044c 72024CD8 		.ascii	"r\002L\330G\307<\316\212\356\023\352\224\001\\\026#"
 175      47C73CCE 
 175      8AEE13EA 
 175      94015C16 
 175      23
 176 045d 01F1E97B 		.ascii	"\001\361\351{\015\033\347E\361>\0149\250\223\023\020"
 176      0D1BE745 
 176      F13E0C39 
 176      A8931310 
 177 046d 670052FC 		.ascii	"g\000R\374Bi\272\361\353\003T\276\200\370J\242s0\361"
 177      4269BAF1 
 177      EB0354BE 
 177      80F84AA2 
 177      7330F1
 178 0480 0E268DBD 		.ascii	"\016&\215\275\207h\353G@\221\204\033\032mq\014SF\214"
 178      8768EB47 
 178      4091841B 
 178      1A6D710C 
 178      53468C
 179 0493 98BC0600 		.ascii	"\230\274\006\000\372\366\227\364\233$\32485\012\265"
 179      FAF697F4 
 179      9B24D438 
 179      350AB5
 180 04a2 37824417 		.ascii	"7\202D\027\374<\2056\231(\324\262\257\034=\334 \372"
 180      FC3C8536 
 180      9928D4B2 
 180      AF1C3DDC 
 180      20FA
 181 04b4 02E26D74 		.ascii	"\002\342mt\224\377\342L\313Q\226%\215\243\274o4:\312"
 181      94FFE24C 
 181      CB519625 
 181      8DA3BC6F 
 181      343ACA
 182 04c7 243EB5A3 		.ascii	"$>\265\243<\336\231\354(\177\342\344\035e\301\2023\233"
 182      3CDE99EC 
 182      287FE2E4 
 182      1D65C182 
 182      339B
 183 04d9 E022200E 		.ascii	"\340\" \016\222\210O1X\322wfm\330\325*jW7\321\256V:"
 183      92884F31 
ARM GAS  /tmp/ccuXmPnF.s 			page 14


 183      58D27766 
 183      6DD8D52A 
 183      6A5737D1 
 184 04f0 4DEDAAC9 		.ascii	"M\355\252\311\304\256\336\223\214\355J\363\033\3644"
 184      C4AEDE93 
 184      8CED4AF3 
 184      1BF434
 185 04ff 56ECCA78 		.ascii	"V\354\312x\344\212\256Q\354J\3654\367\333\306\343\355"
 185      E48AAE51 
 185      EC4AF534 
 185      F7DBC6E3 
 185      ED
 186 0510 F4D0BEAC 		.ascii	"\364\320\276\254\332\200\012v\310\012X[c\346n\260`1"
 186      DA800A76 
 186      C80A585B 
 186      63E66EB0 
 186      6031
 187 0522 DB603C67 		.ascii	"\333`<gc\032\031\260SV\300:\030s6\225\005;o\033\214"
 187      631A19B0 
 187      5356C03A 
 187      18733695 
 187      053B6F1B 
 188 0537 E76C190B 		.ascii	"\347l\031\013v\311\012\230\317\230\263],\3305\333`\276"
 188      76C90A98 
 188      CF98B35D 
 188      2CD835DB 
 188      60BE
 189 0549 2493A3AD 		.ascii	"$\223\243\255\344\004z\336\337\201\347\034\020\317 "
 189      E4047ADE 
 189      DF81E71C 
 189      10CF20
 190 0558 BD80F406 		.ascii	"\275\200\364\006\322a\022\241#\220~\200\264\026\351"
 190      D26112A1 
 190      23907E80 
 190      B416E9
 191 0567 28A46390 		.ascii	"(\244c\220\216\2258\257\275\331\251\035\246\216k\275"
 191      8E9538AF 
 191      BDD9A91D 
 191      A68E6BBD 
 192 0577 F6E39CD7 		.ascii	"\366\343\234\327\376\213\225m\324\356\216\260\036\341"
 192      FE8B956D 
 192      D4EE8EB0 
 192      1EE1
 193 0585 072E0B7E 		.ascii	"\007.\013~\224\211\351^<\010\325\220ri\305\251\"\345"
 193      9489E95E 
 193      3C08D590 
 193      7269C5A9 
 193      22E5
 194 0597 0B71C770 		.ascii	"\013q\307p\337\331h\207\025\262\3346 N\226\310\332\312"
 194      DFD96887 
 194      15B2DC36 
 194      204E96C8 
 194      DACA
 195 05a9 B72E5E51 		.ascii	"\267.^Q)q$a\017f\231&\361\236S\254\345B\354\201\361"
 195      29712461 
 195      0F669926 
 195      F19E53AC 
ARM GAS  /tmp/ccuXmPnF.s 			page 15


 195      E542EC81 
 196 05be 884C7E4A 		.ascii	"\210L~J\355<5\327LI\036s([F:\234\245\355\237\306\270"
 196      ED3C35D7 
 196      4C491E73 
 196      285B463A 
 196      9CA5ED9F 
 197 05d4 55566CCE 		.ascii	"UVl\316\375\024\036\356l@s&\270\2220\3116\230\217\003"
 197      FD141EEE 
 197      6C407326 
 197      B89230C9 
 197      36988F03 
 198 05e8 1BBD71B2 		.ascii	"\033\275q\262\315\231x\335\345\357\357_\205*\233+\221"
 198      CD9978DD 
 198      E5EFEF5F 
 198      852A9B2B 
 198      91
 199 05f9 0675CEAD 		.ascii	"\006u\316\255\265\332\365Z\347\312\312\214\370\262\025"
 199      B5DAF55A 
 199      E7CACA8C 
 199      F8B215
 200 0608 410C7B6D 		.ascii	"A\014{mR\223\365\017._(\313\357\273S\256_HB\023\026"
 200      5293F50F 
 200      2E5F28CB 
 200      EFBB53AE 
 200      5F484213 
 201 061d 365F6B0D 		.ascii	"6_k\015uM\365\277\247\3260\337\2225,\335:.\331\032\364"
 201      754DF5BF 
 201      A7D630DF 
 201      92352CDD 
 201      3A2ED91A 
 202 0632 8CD1AD16 		.ascii	"\214\321\255\026_\202\305\257\314 \305/\324\026\277"
 202      5F82C5AF 
 202      CC20C52F 
 202      D416BF
 203 0641 E0CEF74F 		.ascii	"\340\316\367O\323\342\027Z*\376\350\2161z\306h\340\363"
 203      D3E2175A 
 203      2AFEE88E 
 203      317AC668 
 203      E0F3
 204 0653 A8D5D774 		.ascii	"\250\325\327t\361\221iX\310\227h@5\036m\365=\223\311"
 204      F1916958 
 204      C8976840 
 204      351E6DF5 
 204      3D93C9
 205 0666 9685D79C 		.ascii	"\226\205\327\234\375\376\325\243r\237\226\375\202\230"
 205      FDFED5A3 
 205      729F96FD 
 205      8298
 206 0674 D167E661 		.ascii	"\321g\346aM\251<\214\266\215\310\033\361O;\260EP\260"
 206      4DA93C8C 
 206      B68DC81B 
 206      F14F3BB0 
 206      4550B0
 207 0687 7156C04C 		.ascii	"qV\300L\206\377+,\330$\333`<g\327X\260iV\300\314\306"
 207      86FF2B2C 
 207      D824DB60 
 207      3C67D758 
ARM GAS  /tmp/ccuXmPnF.s 			page 16


 207      B06956C0 
 208 069d 7E166C96 		.ascii	"~\026l\226m0\236\263&\026l\216\0250\223\261\377\026"
 208      6D309EB3 
 208      26166C8E 
 208      153093B1 
 208      FF16
 209 06af 0BF6896D 		.ascii	"\013\366\211m0\236\263;,\330\347V\300|\306\234\325\356"
 209      309EB33B 
 209      2CD8E756 
 209      C07CC69C 
 209      D5EE
 210 06c1 62C016D9 		.ascii	"b\300\026\331\006\3439\033\305\202-\265\002\366\210"
 210      06E3391B 
 210      C5822DB5 
 210      02F688
 211 06d0 31676358 		.ascii	"1gcX\260\257l\203\361\234\215e\301\326X\001\3131\346"
 211      B0AF6C83 
 211      F19C8D65 
 211      C1D65801 
 211      CB31E6
 212 06e3 6C3C0BB6 		.ascii	"l<\013\266\3366\030\317\331D\026l\243\025\260.\306\234"
 212      DE3618CF 
 212      D944166C 
 212      A315B02E 
 212      C69C
 213 06f5 4D66C1B6 		.ascii	"Mf\301\266\332\006\3439\373\202\005\333a\005\354Yc\316"
 213      DA06E339 
 213      FB8205DB 
 213      6105EC59 
 213      63CE
 214 0707 16B260BB 		.ascii	"\026\262`\273l\203\361\234-f\301\366X\001{\321\230\263"
 214      6C83F19C 
 214      2D66C1F6 
 214      58017BD1 
 214      98B3
 215 0719 2F59B0FD 		.ascii	"/Y\260\375\266\301x\316\226\261`\007\255\200\3652\346"
 215      B6C178CE 
 215      96B16007 
 215      AD80F532 
 215      E6
 216 072a 6C050B76 		.ascii	"l\005\013v\3046\030\317\331J\026\354\230\025\260\327"
 216      C43618CF 
 216      D94A16EC 
 216      9815B0D7 
 217 073a 8C395BCD 		.ascii	"\2149[\315\202\235\264\015\306sV\317\202\235\261\002"
 217      829DB40D 
 217      C67356CF 
 217      829DB102 
 218 074a F6860E67 		.ascii	"\366\206\016g\361?#?s\201\304\370\352\347=\252\203c"
 218      F13F233F 
 218      7381C4F8 
 218      EAE73DAA 
 218      8363
 219 075c 738C1612 		.ascii	"s\214\026\022\030\027=v=2Nn\342[?\270B\031\347\251\263"
 219      18173D76 
 219      3D324E6E 
 219      E25B3FB8 
ARM GAS  /tmp/ccuXmPnF.s 			page 17


 219      4219E7A9 
 220 0771 7ACD0AA2 		.ascii	"z\315\012\242\311\0008q#\343\371\336\261\015\2461\345"
 220      C9003871 
 220      23E3F9DE 
 220      B10DA631 
 220      E5
 221 0782 8DDAE988 		.ascii	"\215\332\351\210\342\003\307>\214\232\257\372\340\212"
 221      E203C73E 
 221      8C9AAFFA 
 221      E08A
 222 0790 683CB1DC 		.ascii	"h<\261\334\241\203~\332\200x\031\327Q\256H\3368\027"
 222      A1837EDA 
 222      807819D7 
 222      51AE48DE 
 222      3817
 223 07a2 34AC86E8 		.ascii	"4\254\206\350\255\301\032\257\341\232\252yV#K\270\304"
 223      ADC11AAF 
 223      E19AAA79 
 223      56234BB8 
 223      C4
 224 07b3 5AC270AF 		.ascii	"Z\302p\257\0055\231\014\355G7N\306\345bF\336\024\267"
 224      0535990C 
 224      ED47374E 
 224      C6E56246 
 224      DE14B7
 225 07c6 8FEB2ED7 		.ascii	"\217\353.\327+\023\204\0338A"
 225      2B13841B 
 225      3841
 226 07d0 18E5D5BD 		.ascii	"\030\345\325\275\247b\001\351\346\007\363\3777\336S"
 226      A76201E9 
 226      E607F3FF 
 226      37DE53
 227 07df 6946A049 		.ascii	"iF\240Ii\003-\0315\265\013\002\335A\240Y\032 e\215\213"
 227      69032D19 
 227      35B50B02 
 227      DD41A059 
 227      1A20658D 
 228 07f4 51BCC8CF 		.ascii	"Q\274\310\317XLW\316~\301\264\2220_[]z\313\344\306\316"
 228      584C57CE 
 228      7EC1B492 
 228      305F5B5D 
 228      7ACBE4C6 
 229 0809 1334BAFD 		.ascii	"\0234\272\375\017/\377L\226\207\270\355T\330&\245\302"
 229      0F2FFF4C 
 229      9687B8ED 
 229      54D826A5 
 229      C2
 230 081a 8638887A 		.ascii	"\2068\210z\226$\251\247Y\262\247\037IXe[\216G4rD\037"
 230      9624A9A7 
 230      59B2A71F 
 230      4958655B 
 230      8E473472 
 231 0830 B12FC77E 		.ascii	"\261/\307~E\216\367P\216o~\0019\266\331\226#\207\221"
 231      458EF750 
 231      8E6F7E01 
 231      39B6D996 
 231      238791
ARM GAS  /tmp/ccuXmPnF.s 			page 18


 232 0843 03A7A58F 		.ascii	"\003\247\245\217\321i\351\335\302\250\324\267\325\377"
 232      D169E9DD 
 232      C2A8D4B7 
 232      D5FF
 233 0851 E2B89B9B 		.ascii	"\342\270\233\233\023F\017l!\353\313$:\325|P\216^\337"
 233      13460F6C 
 233      21EBCB24 
 233      3AD57C50 
 233      8E5EDF
 234 0864 C2CCE565 		.ascii	"\302\314\345eks\371\213\212\306jQc\273\365Z\230%\244"
 234      6B73F98B 
 234      8AC66A51 
 234      63BBF55A 
 234      9825A4
 235 0877 9BDBBF5E 		.ascii	"\233\333\277^\240\334\273\033\215P\215iC-\331\265\224"
 235      A0DCBB1B 
 235      8D508D69 
 235      432DD9B5 
 235      94
 236 0888 36D6B108 		.ascii	"6\326\261\010t<\251\026\335\232Jt\363\225\010\227\244"
 236      743CA916 
 236      DD9A4A74 
 236      F3950897 
 236      A4
 237 0899 A41B6469 		.ascii	"\244\033diA|[\211!\027\031\302\377\367|0\022#\373\244"
 237      417C5B89 
 237      211719C2 
 237      FFF77C30 
 237      1223FBA4 
 238 08ad 026D8EC4 		.ascii	"\002m\216\304\011\003\372\335re\024\245\225t\371g!\016"
 238      0903FADD 
 238      726514A5 
 238      9574F967 
 238      210E
 239 08bf 8E2E1A3E 		.ascii	"\216.\032>EY\337~\206\214\243\267~&\334\316\255\366"
 239      4559DF7E 
 239      868CA3B7 
 239      7E26DCCE 
 239      ADF6
 240 08d1 5790A2BF 		.ascii	"W\220\242\277\242V7\015\005\032\322\352\027YA\372k\253"
 240      A256370D 
 240      051AD2EA 
 240      175941FA 
 240      6BAB
 241 08e3 340589FF 		.ascii	"4\005\211\377I\302\330V\026FK\237Ym\335x\314\342*T|"
 241      49C2D856 
 241      16464B9F 
 241      596DDD78 
 241      CCE22A54 
 242 08f8 6DF3FB0E 		.ascii	"m\363\373\016\233P\031\037:\310\332\346D\2152,\254f"
 242      9B50191F 
 242      3AC8DAE6 
 242      448D322C 
 242      AC66
 243 090a CDC32C73 		.ascii	"\315\303,s\035Ik\233\365\367\323\345$\362\223\205\325"
 243      1D496B9B 
 243      F5F7D3E5 
ARM GAS  /tmp/ccuXmPnF.s 			page 19


 243      24F29385 
 243      D5
 244 091b AC1AD52E 		.ascii	"\254\032\325.\350\222\345lIR`\323\325'W\205\011\376"
 244      E892E56C 
 244      495260D3 
 244      D5275785 
 244      09FE
 245 092d 02E2C70E 		.ascii	"\002\342\307\016\342\030}\342\340\226\277\227\333\326"
 245      E2187DE2 
 245      E096BF97 
 245      DBD6
 246 093b BD8FD57D 		.ascii	"\275\217\325}\264y\353d\221\360\257\263\000\367,\353"
 246      B479EB64 
 246      91F0AFB3 
 246      00F72CEB 
 247 094b AEC6151F 		.ascii	"\256\306\025\037\273\1773\252\3473T\374z\003\305?k\204"
 247      BB7F33AA 
 247      E73354FC 
 247      7A03C53F 
 247      6B84
 248 095d 23090D98 		.ascii	"#\011\015\230eA\262\3427\375\212*~\201%\305\357\321"
 248      6541B2E2 
 248      37FD8A2A 
 248      7E8125C5 
 248      EFD1
 249 096f 55FC02FB 		.ascii	"U\374\002\373\212W\360\366&\026\210\003\342G\266\301"
 249      8A57F0F6 
 249      26168803 
 249      E247B6C1 
 250 097f 7C66B5B8 		.ascii	"|f\265\270\200\251\305EX\213\213\035\344v\302\022\276"
 250      80A9C545 
 250      588B8B1D 
 250      E476C212 
 250      BE
 251 0990 2EBFD3D6 		.ascii	".\277\323\326%\2479%h\2708\"GGo\237\254\250\204\366"
 251      25A73925 
 251      68B83822 
 251      47476F9F 
 251      ACA884F6 
 252 09a4 793F5AB1 		.ascii	"y?Z\261\015\223%\215\251\333Q%\264\277\271j\033\314"
 252      0D93258D 
 252      A9DB5125 
 252      B4BFB96A 
 252      1BCC
 253 09b6 C781ADFA 		.ascii	"\307\201\255\372@\347&\200\216\325\311\";\015\221\004"
 253      40E72680 
 253      8ED5C922 
 253      3B0D9104 
 254 09c6 399394BB 		.ascii	"9\223\224\273Jk.SV\354|W\034\204C\347*\013\366\002\343"
 254      4A6B2E53 
 254      56EC7C57 
 254      1C8443E7 
 254      2A0BF602 
 255 09db FC49AF3C 		.ascii	"\374I\257<*K\265\333\025qT\023U\233XK\363\231\315\""
 255      2A4BB5DB 
 255      15715413 
 255      559B584B 
ARM GAS  /tmp/ccuXmPnF.s 			page 20


 255      F399CD22 
 256 09ef C2D169D5 		.ascii	"\302\321i\325:-\\\312Y\037\017w'\270)\307\236b\224{"
 256      3A2D5CCA 
 256      591F0F77 
 256      27B829C7 
 256      9E62947B 
 257 0a03 C5079713 		.ascii	"\305\007\227\023Og\003\312\264%S;\"P\3150\206\270\212"
 257      4F6703CA 
 257      B425533B 
 257      2250CD30 
 257      86B88A
 258 0a16 31C43568 		.ascii	"1\3045h\210Q4\304uH\277f\315\321\310\331\372\306\301"
 258      885134C4 
 258      7548BF66 
 258      CDD1C8D9 
 258      FAC6C1
 259 0a29 CC9376D9 		.ascii	"\314\223v\331\226\333\247\251\035\243bV\262\305\034"
 259      96DBA7A9 
 259      1DA36256 
 259      B2C51C
 260 0a38 C8B4607B 		.ascii	"\310\264`{\306+`\244S\377?\252;@\357\277\234\260\215"
 260      C62B60A4 
 260      53FF3FAA 
 260      3B40EFBF 
 260      9CB08D
 261 0a4b C85BF3A5 		.ascii	"\310[\363\245\0178w\340\202\025\270gu\030\324\373c\357"
 261      0F3877E0 
 261      8215B867 
 261      7518D4FB 
 261      63EF
 262 0a5d B805C419 		.ascii	"\270\005\304\0318\035\236\211\267\037?D:\007\351\247"
 262      381D9E89 
 262      B71F3F44 
 262      3A07E9A7 
 263 0a6d 48CF23BD 		.ascii	"H\317#\275\200\364\"\322\353H\007c\205\276\213t\004"
 263      80F422D2 
 263      EB480763 
 263      85BE8B74 
 263      04
 264 0a7e D2D948E7 		.ascii	"\322\331H\347#]\212t9\322\257\220nE\272-\225\001(\243"
 264      235D8A74 
 264      39D2AF90 
 264      6E45BA2D 
 264      950128A3 
 265 0a92 C0E13507 		.ascii	"\300\3415\007\036\374\024\373\352Ih\376\237ei-o\226"
 265      1EFC14FB 
 265      EA4968FE 
 265      9F65692D 
 265      6F96
 266 0aa4 A4B91F92 		.ascii	"\244\271\037\222tCom\226\335\033\243l\015\310\261o\326"
 266      74436F6D 
 266      96DD1BA3 
 266      6C0DC8B1 
 266      6FD6
 267 0ab6 9C730C22 		.ascii	"\234s\014\"\017\230Q\363\017\210\253\035\022\017\310"
 267      0F9851F3 
 267      0F88AB1D 
ARM GAS  /tmp/ccuXmPnF.s 			page 21


 267      120FC8
 268 0ac5 3718BD59 		.ascii	"7\030\275Y\007g%\321iS\247Y\353\241\\*X\257\204J\026"
 268      076725D1 
 268      6953A759 
 268      EBA15C2A 
 268      58AF844A 
 269 0ada 9CDADC65 		.ascii	"\234\332\334e\010vG{\2601\276sW\312\273\255<\016Q\322"
 269      0876477B 
 269      B031BE73 
 269      57CABBAD 
 269      3C0E51D2 
 270 0aee 7E4D2F17 		.ascii	"~M/\027]\272\025\237Q\333\237\272\207{gH\364\253\255"
 270      5DBA159F 
 270      51DB9FBA 
 270      877B6748 
 270      F4ABAD
 271 0b01 63123EE5 		.ascii	"c\022>\345\020S\237\022\332:\336\207\267\342!\326\242"
 271      10539F12 
 271      DA3ADE87 
 271      B7E221D6 
 271      A2
 272 0b12 24FBD31B 		.ascii	"$\373\323\033X\201\255\225[q\0249\210\243\310h\333`"
 272      5881AD95 
 272      5B711439 
 272      88A3C868 
 272      DB60
 273 0b24 3E0E6C35 		.ascii	">\016l5\0136\316\012\230Q\257\013`\365,\330$\333`<g"
 273      0B36CE0A 
 273      9851AF0B 
 273      60F52CD8 
 273      24DB603C 
 274 0b39 BB58B019 		.ascii	"\273X\260\031V\300\214\326\354\000l7\0136\3076\030\317"
 274      56C08CD6 
 274      EC006C37 
 274      0B36C736 
 274      18CF
 275 0b4b D95E166C 		.ascii	"\331^\026l\276\0250\243F\002`\373Y\260E\266\301x\316"
 275      BE1530A3 
 275      460260FB 
 275      59B045B6 
 275      C178CE
 276 0b5e 1A59B0E5 		.ascii	"\032Y\260\345V\300|\306\234\035b\301\326\330\006\343"
 276      56C07CC6 
 276      9C1D62C1 
 276      D6D806E3 
 277 0b6e 393BC282 		.ascii	"9;\302\202\255\267\002f\344\227\001\330E\026l\243m0"
 277      ADB70266 
 277      E49701D8 
 277      45166CA3 
 277      6D30
 278 0b80 9EB39F58 		.ascii	"\236\263\237X\260o\255\200\031yx\000v\205\005\333i\033"
 278      B06FAD80 
 278      19797800 
 278      768505DB 
 278      691B
 279 0b92 8CE7EC1A 		.ascii	"\214\347\354\032\013\266\327\012\230\321\220\015`7X"
 279      0BB6D70A 
ARM GAS  /tmp/ccuXmPnF.s 			page 22


 279      98D1900D 
 279      603758
 280 0ba1 B083B6C1 		.ascii	"\260\203\266\301x\316\232X\260\230\025\260g\2159\273"
 280      78CE9A58 
 280      B09815B0 
 280      678D39BB 
 281 0bb1 C5829DB4 		.ascii	"\305\202\235\264\015\306sv\207\005;k\005\314\350\246"
 281      0DC67376 
 281      87053B6B 
 281      05CCE8A6 
 282 0bc1 1580D56E 		.ascii	"\025\200\325ng\300~\264\015\346\023\014\377\330\241"
 282      67C07EB4 
 282      0DE6130C 
 282      FFD8A1
 283 0bd0 29201E40 		.ascii	") \036@\317\261\021]\206\303H\217\"=\206\364\004\322"
 283      CFB1115D 
 283      86C3488F 
 283      223D86F4 
 283      04D2
 284 0be2 93484F23 		.ascii	"\223HO#=\203\364\034\322\037\220\376\210\364\022\322"
 284      3D83F41C 
 284      D21F90FE 
 284      88F412D2 
 285 0bf2 CB48AF22 		.ascii	"\313H\257\"\275\216\364&\322f\244\267\221\266 \035\344"
 285      BD8EF426 
 285      D266A4B7 
 285      91B6201D 
 285      E4
 286 0c03 B4E09FEE 		.ascii	"\264\340\237\356f\035\307\237\356\262\340d\030\337n"
 286      661DC79F 
 286      EEB2E064 
 286      18DF6E
 287 0c12 8E9D3C65 		.ascii	"\216\235<e\375)\3667T<\362\"\242\352(\375\270\371\377"
 287      FD29F637 
 287      543CF222 
 287      A2EA28FD 
 287      B8F9FF
 288 0c25 12AF4067 		.ascii	"\022\257@g\364\347\222\203\253\346\324}\216\235KE\322"
 288      F4E79283 
 288      ABE6D47D 
 288      8E9D4B45 
 288      D2
 289 0c36 BDEFD4B8 		.ascii	"\275\357\324\270\010W\267\243\213@\342SO\232\257[\234"
 289      0857B7A3 
 289      8B40E253 
 289      4F9AAF5B 
 289      9C
 290 0c47 8445E3AE 		.ascii	"\204E\343\256S\007\201uq\236\246.\316_\234\304\305Y"
 290      53078175 
 290      719EA62E 
 290      CE5F9CC4 
 290      C559
 291 0c59 D53AA58B 		.ascii	"\325:\245\213\303\343\020\376j\265\374/\332\201\374"
 291      C3E310FE 
 291      6AB5FC2F 
 291      DA81FC
 292 0c68 D7A6E61F 		.ascii	"\327\246\346\037,|\251\362\360\216j\344\365\310\002"
ARM GAS  /tmp/ccuXmPnF.s 			page 23


 292      2C7CA9F2 
 292      F08E6AE4 
 292      F5C802
 293 0c77 C99B9E6F 		.ascii	"\311\233\236o\262l\007\323b\032l\203\3718\260\025,\330"
 293      B26C07D3 
 293      621A6C83 
 293      F938B015 
 293      2CD8
 294 0c89 7E2B6026 		.ascii	"~+`&\276\311J\026\354\220m0\236\263\325,\3301+`&\276"
 294      BEC94A16 
 294      EC906D30 
 294      9EB3D52C 
 294      D8312B60 
 295 0c9f 493D0B76 		.ascii	"I=\013v\3126\230O\257z\205$\353\010\210#\235\244\227"
 295      CA36984F 
 295      AF7A8524 
 295      EB088823 
 295      9DA497
 296 0cb2 19E5242D 		.ascii	"\031\345$-\177\014\322\261H\307#\235\210t\262\225\036"
 296      7F0CD2B1 
 296      48C7239D 
 296      8874B295 
 296      1E
 297 0cc3 618493E9 		.ascii	"a\204\223\351\021\316\"\303\357\247g1\320#\034\376\361"
 297      11CE22C3 
 297      EFA76731 
 297      D0231CFE 
 297      F1
 298 0cd4 D83FD2FB 		.ascii	"\330?\322\373\263\232\007\310\210>\2148\230\316rp\311"
 298      B39A07C8 
 298      883E8C38 
 298      98CE7270 
 298      C9
 299 0ce5 36073E96 		.ascii	"6\007>\226\203h\363vzoQ\275\301wM\213\247w\263\305l"
 299      8368F376 
 299      7A6F51BD 
 299      C1774D8B 
 299      A777B3C5 
 300 0cfa ED617BE6 		.ascii	"\355a{\346\027o\250`\267m\203y8\260\332\035\014\330"
 300      176FA860 
 300      B76D8379 
 300      38B0DA1D 
 300      0CD8
 301 0d0c BB6DEC82 		.ascii	"\273m\354\202\265M\262\010j\013\303\320\026\206c\235"
 301      B54DB208 
 301      6A0BC3D0 
 301      1686639D 
 302 0d1c 4F433A13 		.ascii	"OC:\023\351l\244\037\261V \011\037\264\321\316Fi\347"
 302      E96CA41F 
 302      B1562009 
 302      1FB4D1CE 
 302      4669E7
 303 0d2f C8A0267A 		.ascii	"\310\240&zQ\301*\256Q\335\016e\353vF\033\273\343\015"
 303      51C12AAE 
 303      51DD0E65 
 303      EB76461B 
 303      BBE30D
ARM GAS  /tmp/ccuXmPnF.s 			page 24


 304 0d42 57B7B193 		.ascii	"W\267\261\223\247\225\367\277\324\007\257\347Z\001\324"
 304      A795F7BF 
 304      D407AFE7 
 304      5A01D4
 305 0d51 73F0F4FE 		.ascii	"s\360\364\376\330\227\242\003\342\034\234\001\316\305"
 305      D897A203 
 305      E21C9C01 
 305      CEC5
 306 0d5f 679FBF42 		.ascii	"g\237\277B\372-\322\375H\017#\235\210\213\011\273p\364"
 306      FA2DD2FD 
 306      480F239D 
 306      888B09BB 
 306      70F4
 307 0d71 6D40FA0E 		.ascii	"m@\372\016j\346c+\232\231\221x\016\232k+\355\204Z\034"
 307      6AE6632B 
 307      9A999178 
 307      0E9A6B2B 
 307      ED845A1C 
 308 0d85 27E6B6A6 		.ascii	"'\346\266\246o\"*\371c\355U\200O%\005a\276\263\035\206"
 308      6F222AF9 
 308      63ED5580 
 308      4F250561 
 308      BEB31D86 
 309 0d99 B8DB6098 		.ascii	"\270\333`\230\304\250\314\317\234\211{\377Y\336D\240"
 309      C4A8CCCF 
 309      9C897BFF 
 309      59DE44A0 
 310 0da9 4E4CC1EC 		.ascii	"NL\301\354\247\211j\324\233\252\307_'#\365\245\214\207"
 310      A7896AD4 
 310      9BAAC75F 
 310      2723F5A5 
 310      8C87
 311 0dbb 3B9B0FFC 		.ascii	";\233\017\374\026o\271}\216\303\341:\215\331\245\204"
 311      166FB97D 
 311      8EC3E13A 
 311      8DD9A584 
 312 0dcb 21C52ED4 		.ascii	"!\305.\324\016\207\315%>\032\233zE\263e6Y\321L\3454"
 312      0E87CD25 
 312      3E1A9B7A 
 312      45B36536 
 312      59D14CE5 
 313 0de0 28CC2EBD 		.ascii	"(\314.\275s\354o\221\331%\310\354\261\324\314&\271\036"
 313      73EC6F91 
 313      D925C8EC 
 313      B1D4CC26 
 313      B91E
 314 0df2 CBB4BCAE 		.ascii	"\313\264\274\256\"\274.\263\344x\354\\\274\\\224k\262"
 314      22BC2EB3 
 314      E478EC5C 
 314      BC5C946B 
 314      B2
 315 0e03 ACBF22B4 		.ascii	"\254\277\"\264\334#\201Y:\311\033B?hx\265\370\206\320"
 315      DC238159 
 315      3AC91B42 
 315      3F6878B5 
 315      F886D0
 316 0e16 6AA7E60D 		.ascii	"j\247\346\015\241\005N\211\306\246~?\350v\233\344\367"
ARM GAS  /tmp/ccuXmPnF.s 			page 25


 316      A1054E89 
 316      C6A67E3F 
 316      E8769BE4 
 316      F7
 317 0e27 836ADAEA 		.ascii	"\203j\332\352\276H?\274-\377\"\275bc\246\0174$X\013"
 317      BE483FBC 
 317      2DFF22BD 
 317      6263A60F 
 317      3424580B 
 318 0e3b 886BB06B 		.ascii	"\210k\260k\213:\365_\033\012\210+p7\203e\346\235(g\333"
 318      8B3AF55F 
 318      1B0A882B 
 318      70378365 
 318      E69D2867 
 319 0e50 BCE61BAE 		.ascii	"\274\346\033\256,#\232W\373\344\332\266\242M8\276\203"
 319      2C239A57 
 319      FBE4DAB6 
 319      A24D38BE 
 319      83
 320 0e61 DF331D17 		.ascii	"\3373\035\027\276S:\220\361=\031\272$l\360\322\314\306"
 320      BE533A90 
 320      F13D19BA 
 320      246CF0D2 
 320      CCC6
 321 0e73 3FD13712 		.ascii	"?\3217\022\266\240\021\036n\233\332\201\344p\240\213"
 321      B6A0111E 
 321      6E9BDA81 
 321      E470A08B 
 322 0e83 72126D6C 		.ascii	"r\022ml\323Z\342%\272\267\3036K\266x\263\321\356\336"
 322      D35AE225 
 322      BAB7C336 
 322      4BB678B3 
 322      D1EEDE
 323 0e96 0ED3E634 		.ascii	"\016\323\3464\375\212z\276\365h\221\023\333\245e\221"
 323      FD8A7ABE 
 323      F5689113 
 323      DBA56591 
 324 0ea6 0D5A8BDC 		.ascii	"\015Z\213\334I7wh\260d\223\037\266K\266\311/\332\351"
 324      49377768 
 324      B064931F 
 324      B64BB6C9 
 324      2FDAE9
 325 0eb9 DAE4F276 		.ascii	"\332\344\362v\272\233;\254o\247\273\271\303\316v\272"
 325      BA9B3BAC 
 325      6FA7BBB9 
 325      C3CE76BA 
 326 0ec9 9B3B1C6D 		.ascii	"\233;\034mg\177s\207\006\306\260w\243a\357Ia\330\333"
 326      677F7387 
 326      06C6B077 
 326      A361EF49 
 326      61D8DB
 327 0edc D2356CB0 		.ascii	"\3225l\260\246ue\253\223=1\313\223\263\350*\3757\214"
 327      A67565AB 
 327      933D31CB 
 327      93B3E82A 
 327      FD378C
 328 0eef 3513B3EF 		.ascii	"5\023\263\357,N\314Nimr\012\335\333\341\224%\233\\\320"
ARM GAS  /tmp/ccuXmPnF.s 			page 26


 328      2C4ECC4E 
 328      696D720A 
 328      DDDBE194 
 328      259B5CD0 
 329 0f03 5867CF26 		.ascii	"Xg\317&\243\227\366\221;?g\320\036\317\246g\217\347"
 329      A397F691 
 329      3B3F67D0 
 329      1ECFA667 
 329      8FE7
 330 0f15 B5F67860 		.ascii	"\265\366x`\034\332\343yK\366x\215\265=%nP{]\303\253"
 330      1CDAE379 
 330      4BF6788D 
 330      B53D256E 
 330      507B5DC3 
 331 0f2a 6BCF1B9E 		.ascii	"k\317\033\236\025S:\317\230\322\017hJ\027\014LI\022"
 331      15533ACF 
 331      98D20F68 
 331      4A170C4C 
 331      4912
 332 0f3c E6B41795 		.ascii	"\346\264\027\225\032H\257\217\\\324X\307\275\274\370"
 332      1A48AF8F 
 332      5CD458C7 
 332      BDBCF8
 333 0f4b B916CFA6 		.ascii	"\271\026\317\246\213\276\254\021\274`\353U9\272\221"
 333      8BBEAC11 
 333      BC60EB55 
 333      39BA91
 334 0f5a 54E50DAC 		.ascii	"T\345\015\254\312\257\332\247U\225\315\332\252l\246"
 334      CAAFDAA7 
 334      5595CDDA 
 334      AA6CA6
 335 0f69 55D96CA9 		.ascii	"U\331l\251*\267\264O\256\312\003\372Uy.\215\252lf\252"
 335      2AB7B44F 
 335      AECA03FA 
 335      55792E8D 
 335      AA6C66AA 
 336 0f7d F21656E5 		.ascii	"\362\026V\345m\303\252\224\357\266P\225z\263\031\246"
 336      6DC3AA94 
 336      EFB65095 
 336      7AB319A6 
 337 0f8d 3C5AD269 		.ascii	"<Z\322i,\351{\364W\257\"\275\316\317\023\206\337\255"
 337      2CE97BF4 
 337      57AF22BD 
 337      CECF1386 
 337      DFAD
 338 0f9f 9D       		.ascii	"\235"
 339 0fa0 279CD2CE 		.ascii	"'\234\322\316\023Nq\363\004C,#\247\362x\302\251\014"
 339      134E71F3 
 339      04432C23 
 339      A7F278C2 
 339      A90C
 340 0fb2 885BB5FD 		.ascii	"\210[\265\375\235M\243\232p\320\346\366/\3215\343\360"
 340      9D4DA39A 
 340      70D0E6F6 
 340      2FD135E3 
 340      F0
 341 0fc3 75FE1A17 		.ascii	"u\376\032\027\251\302\272$i\323z^h:\302\244\220\302"
ARM GAS  /tmp/ccuXmPnF.s 			page 27


 341      A9C2BA24 
 341      69D37A5E 
 341      683AC2A4 
 341      90C2
 342 0fd5 F88DB3E8 		.ascii	"\370\215\263\350\242\203SE\332\324\330\273v\014\236"
 342      A2835345 
 342      DAD4D8BB 
 342      760C9E
 343 0fe4 EE5D3B93 		.ascii	"\356];\223\227\205v\037\304\345\210Ix\177q\247\026M"
 343      9785761F 
 343      C4E58849 
 343      787F71A7 
 343      164D
 344 0ff6 8F3B93B7 		.ascii	"\217;\223\267h\016M\262\265_"
 344      680E4DB2 
 344      B55F
 345 1000 C212AAE0 		.ascii	"\302\022\252\340\277\240\202\347$)8\215\375\022\026"
 345      BFA082E7 
 345      2429388D 
 345      FD1216
 346 100f 68D5ABB7 		.ascii	"h\325\253\267_\202\317H\275\203\243W\017\362\257a\177"
 346      5F82CF48 
 346      BD83A357 
 346      0FF2AF61 
 346      7F
 347 1020 69A5BA38 		.ascii	"i\245\2728<^!\267\0162o\001G\255\200\231\274\274S\247"
 347      3C5E21B7 
 347      0E326F01 
 347      47AD8099 
 347      BCBC53A7 
 348 1034 DC60A593 		.ascii	"\334`\245\223f\350vl\343\361\314M>\202\314Q\260z+`&"
 348      66E8766C 
 348      E3F1CC4D 
 348      3E82CC51 
 348      B07A2B60 
 349 1049 0FBB2C3E 		.ascii	"\017\273,>b\341E\333\250\316N%\261\005\247\326\276N"
 349      62E145DB 
 349      A8CE4E25 
 349      B105A7D6 
 349      BE4E
 350 105b BDC3492E 		.ascii	"\275\303I.\342\326\356\275;\265[\233\264=\311T\227\306"
 350      E2D6EEBD 
 350      3BB55B9B 
 350      B43DC954 
 350      97C6
 351 106d 7DB8D980 		.ascii	"}\270\331\200\356\003\211O\275.z\273\201]\027\015\210"
 351      EE03894F 
 351      BD2E7ABB 
 351      815D170D 
 351      88
 352 107e 47B01D90 		.ascii	"G\260\035\220\274V\373\032\036\357NC|\215/ \306l\203"
 352      BC56FB1A 
 352      1EEF4E43 
 352      7C8D2F20 
 352      C66C83
 353 1091 F938B0DA 		.ascii	"\3718\260\332\275\314\202\341qTN\0120\223u\321Q,\330"
 353      BDCC82E1 
ARM GAS  /tmp/ccuXmPnF.s 			page 28


 353      71544E0A 
 353      309375D1 
 353      512CD8
 354 10a4 69DB603C 		.ascii	"i\333`<gc\3662b\016vZ\020\323d]t,\313\331y+\234\231"
 354      6763F632 
 354      620E765A 
 354      10D3645D 
 354      742CCBD9 
 355 10bc DCB31DCF 		.ascii	"\334\263\035\317\202]\264\002fr\317v\"\013v\3056\030"
 355      825DB402 
 355      6672CF76 
 355      220B76C5 
 355      3618
 356 10ce CFD96416 		.ascii	"\317\331d\026\354\206\0250\2371gSY\260;\266\301|zM\202"
 356      EC861530 
 356      9F316753 
 356      59B03BB6 
 356      C17C7A4D 
 357 10e3 FEB12D2A 		.ascii	"\376\261-* Ns\021_`\272\213\214\3343\220\316D:\033\351"
 357      204E7311 
 357      5F60BA8B 
 357      8CDC3390 
 357      CE443A1B 
 358 10f8 4748E720 		.ascii	"GH\347 \235\207\364\023\244\363\221~\356\2620\322Ot"
 358      9D87F413 
 358      A4F3917E 
 358      EEB230D2 
 358      4F74
 359 110a 31AB8043 		.ascii	"1\253\200C\356\261\333\025\231\012\222\230\355\006\304"
 359      EEB1DB15 
 359      990A9298 
 359      ED06C4
 360 1119 EDE8D4EC 		.ascii	"\355\350\324\354@\027\344\030\322\241\310\3440\244\303"
 360      4017E418 
 360      D2A1C8E4 
 360      30A4C3
 361 1128 918E403A 		.ascii	"\221\216@:\022\351h\244uH\307!\235`E\234\315\254\343"
 361      12E968A4 
 361      7548C721 
 361      9D60459C 
 361      CDACE3
 362 113b B2C0A559 		.ascii	"\262\300\245Y\201\260\347\270\304\226\3369\360\2238"
 362      81B0E7B8 
 362      C496DE39 
 362      F09338
 363 114a 7288BC29 		.ascii	"r\210\274)\307\372\323\316\373\316\306>R\236\214_\204"
 363      C7FAD3CE 
 363      FBCEC63E 
 363      529E8C5F 
 363      84
 364 115b A3EBBBF7 		.ascii	"\243\353\273\367\374\"\356\313\310{\304\324\262\230"
 364      FC22EECB 
 364      C87BC4D4 
 364      B298
 365 1169 BA975C91 		.ascii	"\272\227\\\221\313\230\252Y\216U\263\002+e\003\322M"
 365      CB98AA59 
 365      8E55B302 
ARM GAS  /tmp/ccuXmPnF.s 			page 29


 365      2B6503D2 
 365      4D
 366 117a 4817B20A 		.ascii	"H\027\262\012\227\204\011\310\301\302\004\007\334L2"
 366      978409C8 
 366      C1C20407 
 366      DC4C32
 367 1189 45D72CCB 		.ascii	"E\327,\313\261\235\315k\277\023a@\231\233\303\256\243"
 367      B19DCD6B 
 367      BF136140 
 367      999BC3AE 
 367      A3
 368 119a EE4CACA3 		.ascii	"\356L\254\243&\315L\227\273\354\256\242\256p\351\257"
 368      26CD4C97 
 368      BBECAEA2 
 368      AE70E9AF 
 369 11aa A2BAE252 		.ascii	"\242\272\342RL\267\"\205\241\327&GG\3770\336\201\317"
 369      4CB72285 
 369      A1D72647 
 369      47FF30DE 
 369      81CF
 370 11bc 4F3ED60A 		.ascii	"O>\326\012\320fk\321\354tp\2006f\233\270)G\301\232o"
 370      D0666BD1 
 370      EC747080 
 370      36669BB8 
 370      2947C19A 
 371 11d1 1BCB6756 		.ascii	"\033\313gV\303\013\231\032^\2045\274\030ku\0316\246"
 371      C30B991A 
 371      5E8435BC 
 371      186B7519 
 371      36A6
 372 11e3 954857B3 		.ascii	"\225HW\2635lq=\366\350\211\306\377\205\353\261Q\364"
 372      356C713D 
 372      F6E889C6 
 372      FF85EBB1 
 372      51F4
 373 11f5 19366BCC 		.ascii	"\0316k\314\333\312\212\303z\255\313p\211\254\307\256"
 373      DBCA8AC3 
 373      7AADCB70 
 373      89ACC7AE 
 374 1205 4FED3090 		.ascii	"O\3550\220\273\306\263\351\323\260KP\274\245\330\302"
 374      BBC6B3E9 
 374      D3B04B50 
 374      BCA5D8C2 
 375 1215 D7BB6CDB 		.ascii	"\327\273l\333\244\276\316\3263=\357\327\330\363~\223"
 375      A4BECED6 
 375      333DEFD7 
 375      D8F37E93 
 376 1225 8686F69C 		.ascii	"\206\206\366\234:K5\264\0015\364]\032\032\332\254\325"
 376      3A4B35B4 
 376      0135F45D 
 376      1A1ADAAC 
 376      D5
 377 1236 D055A2A1 		.ascii	"\320U\242\241\315\2264tSGC\233\177)\015mf4\264\0055"
 377      CD963474 
 377      5347439B 
 377      7F290D6D 
 377      6634B405 
ARM GAS  /tmp/ccuXmPnF.s 			page 30


 378 124b B495D5D0 		.ascii	"\264\225\325\320\303\302Tyz,\366\325\351\246\376\344"
 378      C3C25479 
 378      7A2CF6D5 
 378      E9A6FEE4 
 379 125b 6E90DCD2 		.ascii	"n\220\334\322\362\266\240\331\243\253\326\344v\3436"
 379      F2B6A0D9 
 379      A3ABD6E4 
 379      76E336
 380 126a 9766932E 		.ascii	"\227f\223.\334\214\202\331|\012\306Z\2156\177+\314\222"
 380      DC8C82D9 
 380      7C0AC65A 
 380      8D367F2B 
 380      CC92
 381 127c E551F2D5 		.ascii	"\345Q\362\325\222\027\225'Z\207\337K\022|\353zX\267"
 381      92179527 
 381      5A87DF4B 
 381      127CEB7A 
 381      58B7
 382 128e 1475BF8B 		.ascii	"\024u\277\213\277\027>$L}^3\264\255\223\362$\230\344"
 382      BF173E24 
 382      4C7D5E33 
 382      B4AD93F2 
 382      2498E4
 383 12a1 52D8DBE1 		.ascii	"R\330\333\341\222\004\346\017\205\375>zmCV\355\240X"
 383      9204E60F 
 383      85FD3E7A 
 383      6D4356ED 
 383      A058
 384 12b3 4BCBC336 		.ascii	"K\313\3036\004\335\315\013\232\362\301\315\373U\000"
 384      04DDCD0B 
 384      9AF2C1CD 
 384      FB5500
 385 12c2 B27FB26A 		.ascii	"\262\177\262jgk\316\256\373\007\264\263}hg\323\357M"
 385      676BCEAE 
 385      FB07B4B3 
 385      7D6867D3 
 385      EF4D
 386 12d4 7D1B87C7 		.ascii	"}\033\207\307!\2344j-mQ\320Gc-\274Br3*\312\303\262\324"
 386      219C346A 
 386      2D6D51D0 
 386      47632DBC 
 386      4272332A 
 387 12ec DD343F47 		.ascii	"\3354?G\006\032]\246S@=SS\340\226\237Q\026\374\351\346"
 387      061A5DA6 
 387      53403D53 
 387      53E0969F 
 387      5116FCE9 
 388 1301 83CBB570 		.ascii	"\203\313\265p)\327\306\330\035\370\344\350W\363\014"
 388      29D7C6D8 
 388      1DF8E4E8 
 388      57F30C
 389 1310 EE32E93D 		.ascii	"\3562\351=\006\033\235\342\225\3001AE\256\265\240\310"
 389      061B9DE2 
 389      95C03141 
 389      45AEB5A0 
 389      C8
 390 1321 A42760BF 		.ascii	"\244'`\277\323\352\3612i\261\337Yj\261\327\257x\260"
ARM GAS  /tmp/ccuXmPnF.s 			page 31


 390      D3EAF132 
 390      69B1DF59 
 390      6AB1D7AF 
 390      78B0
 391 1333 C5D2A7E1 		.ascii	"\305\322\247\341\267c\361\337\271\314\027\026\014\365"
 391      B763F1DF 
 391      B9CC1716 
 391      0CF5
 392 1341 081DC079 		.ascii	"\010\035\300yv\210\332\245\205\2633;\000\264\246o\023"
 392      7688DAA5 
 392      85B3333B 
 392      00B4A66F 
 392      13
 393 1352 4354A36D 		.ascii	"CT\243m,\037\207u\213\301:n\005\313d\350\274\303`\235"
 393      2C1F8775 
 393      8BC13A6E 
 393      05CB64E8 
 393      BCC3609D 
 394 1366 B58DC5F3 		.ascii	"\265\215\305\363U\313\014\303W\255`\371\214\371\032"
 394      55CB0CC3 
 394      57AD60F9 
 394      8CF91A
 395 1375 C560DDB1 		.ascii	"\305`\335\261\215\305\363\305\272\007\357\335g\001\313"
 395      8DC5F3C5 
 395      BA07EFDD 
 395      6701CB
 396 1384 E41D9BB1 		.ascii	"\344\035\233\261\014\326\030\333X\034_\362\001F\367"
 396      0CD618DB 
 396      581C5FF2 
 396      0146F7
 397 1393 93AD6019 		.ascii	"\223\255`\031._\310r3\2035\3336\026\257\257\011\234"
 397      2E5FC872 
 397      338335DB 
 397      3616AFAF 
 397      099C
 398 13a5 7336DF0A 		.ascii	"s6\337\012\232\341\313\027\262\334\300p\266\3206\026"
 398      9AE1CB17 
 398      B2DCC070 
 398      B6D03616 
 399 13b5 AFB1A30C 		.ascii	"\257\261\243\014\326R+X\317\032\327\344$N\312\225\266"
 399      D6522B58 
 399      CF1AD7E4 
 399      244ECA95 
 399      B6
 400 13c6 D17C8652 		.ascii	"\321|\206R\256\265\202e\270\371\010/\345\006\333X>\301"
 400      AEB58265 
 400      B8F9082F 
 400      E506DB58 
 400      3EC1
 401 13d8 F08FED5F 		.ascii	"\360\217\355_a|@\307\343\024\272\260\337#=\213\364<"
 401      617C40C7 
 401      E314BAB0 
 401      DF233D8B 
 401      F43C
 402 13ea D20B482F 		.ascii	"\322\013H/\"\375\011\351\025\244\327\220\336@\332\204"
 402      22FD09E9 
 402      15A4D790 
ARM GAS  /tmp/ccuXmPnF.s 			page 32


 402      DE40DA84 
 403 13fa F416D23B 		.ascii	"\364\026\322;He7\241\203\221\276\203\264\306\315M\177"
 403      486537A1 
 403      8391BE83 
 403      B4C6CD4D 
 403      7F
 404 140b B6DEA719 		.ascii	"\266\336\247\031\216\3701@\257[f\025=8\272j\206\362"
 404      8EF83140 
 404      AF5B6615 
 404      3D38BA6A 
 404      86F2
 405 141d E61599A3 		.ascii	"\346\025\231\243\252\223\323Fs\375\230\354\200\262:"
 405      AA93D346 
 405      73FD98EC 
 405      80B23A
 406 142c 48543D03 		.ascii	"HT=\003\267Y\035\342\264\200e\270\001\212\034m\270\351"
 406      B7591DE2 
 406      B48065B8 
 406      018A1C6D 
 406      B8E9
 407 143e D11F2AA7 		.ascii	"\321\037*\247\353\355\317\267\363\332q\372\370\310\010"
 407      EBEDCFB7 
 407      F3DA71FA 
 407      F8C808
 408 144d 3719AF8E 		.ascii	"7\031\257\216\337\227r\270\344aHu\376\325\255\367\370"
 408      DF9772B8 
 408      E4614875 
 408      FED5ADF7 
 408      F8
 409 145e 0889B5FA 		.ascii	"\010\211\265\372\370\010\357\340\222\2346\035\\\005"
 409      F808EFE0 
 409      929C361D 
 409      5C05
 410 146c 6D24D39A 		.ascii	"m$\323\232\002\342*-Z\312i6\327\232\270\336\377\034"
 410      02E22A2D 
 410      5ACA6936 
 410      D79AB8DE 
 410      FF1C
 411 147e 2A260596 		.ascii	"*&\005\226\311\310[w\225\324\212:Y&3\337\321\016\343"
 411      C9C85B77 
 411      95D48A3A 
 411      592633DF 
 411      D10EE3
 412 1491 C9F258B7 		.ascii	"\311\362X\267\335\311\3628\267\376dYur%\341\206V\002"
 412      DDC9F238 
 412      B7FE6459 
 412      757225E1 
 412      865602
 413 14a4 3DDD9A8C 		.ascii	"=\335\232\214\367c]\233r\014\370\237\036_H\376\255\302"
 413      F7635D9B 
 413      720CF89F 
 413      1E5F48FE 
 413      ADC2
 414 14b6 CE44DB02 		.ascii	"\316D\333\002L2\020\300\023\027\240I+\000_\254\311h"
 414      4C3210C0 
 414      1317A049 
 414      2B005FAC 
ARM GAS  /tmp/ccuXmPnF.s 			page 33


 414      C968
 415 14c8 AEF7C79A 		.ascii	"\256\367\307\232-\370\367n\322\013\215\304\276b\024"
 415      2DF8F76E 
 415      D20B8DC4 
 415      BE6214
 416 14d7 D2D148EB 		.ascii	"\322\321H\353\220N\340{\217[\332\336\203o\022zM\224"
 416      904EE07B 
 416      8F5BDADE 
 416      836F127A 
 416      4D94
 417 14e9 532538FB 		.ascii	"S%8\373\273N\221\325\223M9:\355+\326JE\370\224y\370"
 417      BB4E91D5 
 417      934D393A 
 417      ED2BD64A 
 417      45F89479 
 418 14fe 635C53E3 		.ascii	"c\\S\343\003t%j\0326\324\272\277I\331P5@D\344\231\332"
 418      0374256A 
 418      1A36D4BA 
 418      BF49D950 
 418      354044E4 
 419 1514 96BA6703 		.ascii	"\226\272g\003\256\357\317\264\324V\017n\030\243\334"
 419      AEEFCFB4 
 419      D4560F6E 
 419      18A3DC
 420 1523 35A38F6F 		.ascii	"5\243\217oME\036f\246\335Z\017=O\226])\326\\+X&m\365"
 420      4D451E66 
 420      A6DD5A0F 
 420      3D4F965D 
 420      29D65C2B 
 421 153b E8860F80 		.ascii	"\350\206\017\200\267\265bb9*\021R\214\320\312'\005\266"
 421      B7B56262 
 421      392A1152 
 421      8CD0CA27 
 421      05B6
 422 154d 7F4977AD 		.ascii	"\177Iw\255\371\304M\342\027j\224l\035h\311\256\217\350"
 422      F9C44DE2 
 422      176A946C 
 422      1D68C9AE 
 422      8FE8
 423 155f 46189F21 		.ascii	"F\030\237!\320\012\015P@\324\356f\"\361\313\206\022"
 423      D00A0D50 
 423      40D4EE66 
 423      22F1CB86 
 423      12
 424 1570 D998E24E 		.ascii	"\331\230\342NKKbc\012\262qP\322=m\313\271\324a.\351"
 424      4B4B6263 
 424      0AB27150 
 424      D23D6DCB 
 424      B9D4612E 
 425 1585 D1BF8F6D 		.ascii	"\321\277\217m7\324\005\006\015U\375\226\206ZT|\343\314"
 425      37D40506 
 425      0D55FD96 
 425      865A547C 
 425      E3CC
 426 1597 37948CF3 		.ascii	"7\224\214\363\224\242\022\235\025h\346km\275\363\371"
 426      94A2129D 
 426      1568E66B 
ARM GAS  /tmp/ccuXmPnF.s 			page 34


 426      6DBDF3F9 
 427 15a7 94A0F1D4 		.ascii	"\224\240\361\324\001\032\306\272\007\246@\313\030\352"
 427      011AC6BA 
 427      07A640CB 
 427      18EA
 428 15b5 D6AB7A5A 		.ascii	"\326\253zZ\223*47\367\"\214,\261-\375\227\006\322\253"
 428      932A3437 
 428      F7228C2C 
 428      B12DFD97 
 428      06D2AB
 429 15c8 1B8DA845 		.ascii	"\033\215\250E\305\237\030\313Q2.\326\223~G\222\364\\"
 429      C59F18CB 
 429      51322ED6 
 429      937E4792 
 429      F45C
 430 15da 3E2538C0 		.ascii	">%8\300\270\011]\256\371 \261\305\223lic\246\355\237"
 430      B8095DAE 
 430      F920B1C5 
 430      936C6963 
 430      A6ED9F
 431 15ed 3E8A96B9 		.ascii	">\212\226\271\034-\263Q\337\304\255l\314\264kJ6\002"
 431      1C2DB351 
 431      DFC4AD6C 
 431      CCB46B4A 
 431      3602
 432 15ff AD44A063 		.ascii	"\255D\240cI&.hL\\\340\215\025.\345\226\026\326X!\346"
 432      49262E68 
 432      4C5CE08D 
 432      152EE596 
 432      16D65821 
 433 1614 6D21AD3C 		.ascii	"m!\255<0k\324jRo\201a\256hfG\273\036\230\214\273\026"
 433      306BD46A 
 433      526F8161 
 433      AE686647 
 433      BB1E988C 
 434 162a A9AAB96E 		.ascii	"\251\252\271n\037\322#\030\376\261\235o@\234\205\343"
 434      1FD22318 
 434      FEB19D6F 
 434      409C85E3 
 435 163a CD6C1C5D 		.ascii	"\315l\034]>B:\027\351\"\244\313\220F\371Q\347\235\016"
 435      3E423A17 
 435      E922A4CB 
 435      9046F951 
 435      E79D0E
 436 164d 9A5147D3 		.ascii	"\232QG\323\277+\341\351&2\2569\333\250\214;\352\343"
 436      BF2BE1E9 
 436      2632AE39 
 436      DBA88C3B 
 436      EAE3
 437 165f C2C3B5A0 		.ascii	"\302\303\265\240|\017\241\0047I,\246\217\263\300\375"
 437      7C0FA104 
 437      37492CA6 
 437      8FB3C0FD 
 438 166f 2E8246D7 		.ascii	".\202F\327\217Gi\321\364:\361\357M\300\032\031\260\311"
 438      8F4769D1 
 438      F43AF1EF 
 438      4DC01A19 
ARM GAS  /tmp/ccuXmPnF.s 			page 35


 438      B0C9
 439 1681 56C06E48 		.ascii	"V\300nH\206\322F\017\377\340\221k\342\2160c\315\334"
 439      86D2460F 
 439      FFE0916B 
 439      E28E3063 
 439      CDDC
 440 1693 D8A458F3 		.ascii	"\330\244X\363\224Y[\177\203\326\274\005\207\327%\035"
 440      94595B7F 
 440      83D6BC05 
 440      87D7251D 
 441 16a3 F4875723 		.ascii	"\364\207W#\024\\\360\324\016\256\363\335\022\215M=\264"
 441      145CF0D4 
 441      0EAEF3DD 
 441      128D4D3D 
 441      B4
 442 16b4 2EF8C26B 		.ascii	".\370\302k\235\327\353\263\032(\257\365\310\353\356"
 442      9DD7EBB3 
 442      1A28AFF5 
 442      C8EBEE
 443 16c3 34786DD0 		.ascii	"4xm\320\362\3729\341\265\301\234W\275?\026* \356\006"
 443      F2FA39E1 
 443      B5C19C57 
 443      BD3F162A 
 443      20EE06
 444 16d6 B3667EA2 		.ascii	"\263f~\242\356\374\266D\013\342\3700q\020\364K\332\306"
 444      EEFCB644 
 444      0BE2F830 
 444      7110F44B 
 444      DAC6
 445 16e8 94B41D1B 		.ascii	"\224\264\035\033\320\016\276\211\234\320\232\214^y\262"
 445      D00EBE89 
 445      9CD09A8C 
 445      5E79B2
 446 16f7 832DD0C7 		.ascii	"\203-\320\307V\0034\220\246x\003\241\013\376\247\255"
 446      56033490 
 446      A67803A1 
 446      0BFEA7AD 
 447 1707 58A12EA4 		.ascii	"X\241.\244\276\014\215\314\324\367 N}\017\341\224\365"
 447      BE0C8DCC 
 447      D4F7204E 
 447      7D0FE194 
 447      F5
 448 1718 08D218D2 		.ascii	"\010\322\030\322\367\261\371\017C:\034\351T\244\353"
 448      F7B1F90F 
 448      433A1CE9 
 448      54A4EB
 449 1727 917E8374 		.ascii	"\221~\203t#\322\315H\367\262Z0\032\270\366\272\230\233"
 449      23D2CD48 
 449      F7B25A30 
 449      1AB8F6BA 
 449      989B
 450 1739 A9DC2AFC 		.ascii	"\251\334*\374\005\215\375\320U\370\330W\247\033\037"
 450      058DFDD0 
 450      55F8D857 
 450      A71B1F
 451 1748 D8BF5096 		.ascii	"\330\277P\226\2754\257\372XS\203\341b\274R\202\376j"
 451      BD34AFFA 
ARM GAS  /tmp/ccuXmPnF.s 			page 36


 451      585383E1 
 451      62BC5282 
 451      FE6A
 452 175a BC513685 		.ascii	"\274Q6\205\241\375\356\244\325\370\030\331\341\341\314"
 452      A1FDEEA4 
 452      D5F818D9 
 452      E1E1CC
 453 1769 33E317CA 		.ascii	"3\343\027\312\357\274\017N\315\333\242\365\357\203\034"
 453      EFBC0F4E 
 453      CDDBA2F5 
 453      EF831C
 454 1778 726B6E3D 		.ascii	"rkn=,\302\217\015qR\267h\244V99\242\313\311\245\015"
 454      2CC28F0D 
 454      7152B768 
 454      A4563939 
 454      A2CBC9A5 
 455 178d DF8E1147 		.ascii	"\337\216\021G\016\231\276I\276H\356\341\332\270;\020"
 455      0E99BE49 
 455      BE48EEE1 
 455      DAB83B10 
 456 179d D3F2C27D 		.ascii	"\323\362\302}\374\345\210\346\343/V>\006#\011\303\356"
 456      FCE588E6 
 456      E32F563E 
 456      062309C3 
 456      EE
 457 17ae D7E7FDA4 		.ascii	"\327\347\375\244.\357;\233\327VO\220\327\331\276\201"
 457      2EEF3B9B 
 457      D7564F90 
 457      D7D9BE81 
 458 17be 73DA6D7C 		.ascii	"s\332m|_\203\216\037F9\317\270\343\266\026\227\344\211"
 458      5F838E1F 
 458      4639CFB8 
 458      E3B61697 
 458      E489
 459 17d0 4C9D4B8D 		.ascii	"L\235K\215\\u\006r\235\327\225\353\310\211\343\316t"
 459      5C750672 
 459      9DD795EB 
 459      C889E3CE 
 459      74
 460 17e1 E4BA602A 		.ascii	"\344\272`*W\324`\341\205\344\274h(\227F\220y\006\202"
 460      57D460E1 
 460      85E4BC68 
 460      28974690 
 460      790682
 461 17f4 FCA42BC8 		.ascii	"\374\244+\310\356S\273\322\022\344\212\251 \033L\004"
 461      EE53BBD2 
 461      12E48AA9 
 461      201B4C04 
 462 1804 B9665590 		.ascii	"\271fU\220U\006\202\334\320\025\244\276\371LZ\2024i"
 462      550682DC 
 462      D015A4BE 
 462      F94C5A82 
 462      3469
 463 1816 DB0831A0 		.ascii	"\333\0101\240\370\205\362\030H\374Z\331\011R\303\351"
 463      F885F218 
 463      48FC5AD9 
 463      0952C3E9 
ARM GAS  /tmp/ccuXmPnF.s 			page 37


 464 1826 6E034EEF 		.ascii	"n\003N\357\350rz\364\304\331b#NM:\0269C\303\350E\373"
 464      E8727AF4 
 464      C4D96223 
 464      4E4D3A16 
 464      3943C3E8 
 465 183c 8CC60C18 		.ascii	"\214\306\014\030}'C\3376\232\034i0Z\243e\364\232}F\317"
 465      7D2743DF 
 465      369A1C69 
 465      305AA365 
 465      F49A7D46 
 466 1851 1B303A4C 		.ascii	"\0330:L\227\321is\266<\232N_=B\313)a.~\241<\273\254"
 466      97D16973 
 466      B63C9A4E 
 466      5F3D42CB 
 466      29612E7E 
 467 1869 E1EC8601 		.ascii	"\341\354\206\001g\177\325\345l\362\212\265\017\245\241"
 467      677FD5E5 
 467      6CF28AB5 
 467      0FA5A1
 468 1878 C2915AC6 		.ascii	"\302\221Z\306\310\236S\032F\006\375J\237\221\321<#\177"
 468      C89E531A 
 468      4606FD4A 
 468      9F91D13C 
 468      237F
 469 188a 2BCC208C 		.ascii	"+\314 \214\014\375d\304\243\203\010#\362-\230\276\210"
 469      0CFD64C4 
 469      A3830823 
 469      F22D98BE 
 469      88
 470 189b EAE76647 		.ascii	"\352\347fG\306A\024V\370O\311\022\274\272\004\036\301"
 470      C6411456 
 470      F84FC912 
 470      BCBA041E 
 470      C1
 471 18ac AAAF87D1 		.ascii	"\252\257\207\321y\327(q\014x*d\015\265E|8 \036E\260"
 471      79D72871 
 471      0C782A64 
 471      0DB5457C 
 471      38201E45 
 472 18c1 715AB0E4 		.ascii	"qZ\260\344\207<\307)`\235\205E\362{\321/\0344+\375$"
 472      873CC729 
 472      609D8545 
 472      F27BD12F 
 472      1C342BFD 
 473 18d6 0D494ABF 		.ascii	"\015IJ\277\000G?NC\256\035\344!{\372\225\032ry\015\207"
 473      00473F4E 
 473      43AE1DE4 
 473      217BFA95 
 473      1A72790D 
 474 18eb 28FABD1A 		.ascii	"(\372\275\032r\375\236D\257\311\227k\310u\006\035\360"
 474      72FD9E44 
 474      AFC9976B 
 474      C875061D 
 474      F0
 475 18fc 47242E89 		.ascii	"G$.\211\302\235\002\375\236\215\022\365\200@?l\243\\"
 475      C29D02FD 
 475      9E8D12F5 
ARM GAS  /tmp/ccuXmPnF.s 			page 38


 475      80403F6C 
 475      A35C
 476 190e 12FC515C 		.ascii	"\022\374Q\\\006\"\305\030\036ql\3422\372GE\023\321\372"
 476      0622C518 
 476      1E716CE2 
 476      32FA4745 
 476      13D1FA
 477 1921 E884055E 		.ascii	"\350\204\005^y\224\214\3432}WS\022fh\225\240\363V\347"
 477      79948CE3 
 477      327D5753 
 477      12666895 
 477      A0F356E7 
 478 1935 445EA564 		.ascii	"D^\245d\214\237\271\356\277>\036L,X\276\321\"\2668\324"
 478      8C9FB9EE 
 478      BF3E1E4C 
 478      2C58BED1 
 478      22B638D4 
 479 1949 17C43E4F 		.ascii	"\027\304>OR)\367:\030\001\233\254\005\213\326\036\005"
 479      5229F73A 
 479      18019BAC 
 479      058BD61E 
 479      05
 480 195a 196A07C9 		.ascii	"\031j\007\311\304\350T\240%\251\201\246\352T\364\212"
 480      C4E854A0 
 480      25A981A6 
 480      EA54F48A 
 481 196a 2E6487A9 		.ascii	".d\207\251\270\321\234@\254\257\264XIk\310\323\271j"
 481      B8D19C40 
 481      ACAFB458 
 481      496BC8D3 
 481      B96A
 482 197c CEA119E9 		.ascii	"\316\241\031\351\353\003$%y\263\205@\\u&\324\276\244"
 482      EB032425 
 482      79B38540 
 482      5C7526D4 
 482      BEA4
 483 198e 8340DF29 		.ascii	"\203@\337) \021\315\370&\010\345C\336\025=\2675K\021"
 483      2011CDF8 
 483      2608E543 
 483      DE153DB7 
 483      354B11
 484 19a1 27E5E3C9 		.ascii	"'\345\343\311\335TV\3663{6\216\376\262\341A\272s\350"
 484      DD5456F6 
 484      337B368E 
 484      FEB2E141 
 484      BA73E8
 485 19b4 EC0C22C0 		.ascii	"\354\014\"\300uM\323I\015\0043\345\014\342\201\316\311"
 485      754DD349 
 485      0D0433E5 
 485      0CE281CE 
 485      C9
 486 19c5 D03EA4FC 		.ascii	"\320>\244\374..b\222\370\324\3179\334\3368\333p\363"
 486      2E2E6292 
 486      F8D4CF39 
 486      DCDE38DB 
 486      70F3
 487 19d7 89E9FCEB 		.ascii	"\211\351\374\353Z\374\\\030f\340\017\210\251\337\247"
ARM GAS  /tmp/ccuXmPnF.s 			page 39


 487      5AFC5C18 
 487      66E00F88 
 487      A9DFA7
 488 19e6 0D889F22 		.ascii	"\015\210\237\"\227\363\265\\6P.\347[\342r\317\306\344"
 488      97F3B55C 
 488      36502EE7 
 488      5BE272CF 
 488      C6E4
 489 19f8 171C355D 		.ascii	"\027\0345]\327\001\321d\215N\333w=\223\251\353%X\330"
 489      D701D164 
 489      8D4EDB77 
 489      3D93A9EB 
 489      2558D8
 490 1a0b 363D20DE 		.ascii	"6= \336\302\275\337Rl\267l\304\311\342\014v\0136\333"
 490      C2BDDF52 
 490      6CB76CC4 
 490      C9E20C76 
 490      0B36DB
 491 1a1e 1F392449 		.ascii	"\0379$I\276\310`\236j\035\363\200\250(W/\271\311\224"
 491      BEC8609E 
 491      6A1DF380 
 491      A828572F 
 491      B9C994
 492 1a31 922A5626 		.ascii	"\222*V&\023\032w\272j]aQ\255tD5BY\365\363U\262\234U"
 492      131A77BA 
 492      6A5D6151 
 492      AD744435 
 492      4259F5F3 
 493 1a49 C944DB2A 		.ascii	"\311D\333*\361\331S\211\231\353\266\316X%\372~\205\021"
 493      F1D95389 
 493      99EBB6CE 
 493      5825FA7E 
 493      8511
 494 1a5b D05A56A4 		.ascii	"\320ZV\244iVD2\336MBG$\372<\232Q\341\03334\373\002\316"
 494      69564432 
 494      DE4D4247 
 494      24FA3C9A 
 494      51E11B33 
 495 1a73 B2CDC02F 		.ascii	"\262\315\300/\250\323\255\026t\312Mm\255\352x\013\253"
 495      A8D3AD16 
 495      74CA4D6D 
 495      ADEA780B 
 495      AB
 496 1a84 E3395644 		.ascii	"\3439VD4\376\242\303\317\023q\227\231\210vD\332\311"
 496      34FEA2C3 
 496      CF137197 
 496      99887644 
 496      DAC9
 497 1a96 8AF4A96D 		.ascii	"\212\364\251m\221l\326\232Y\347\260\337L$\245\033\324"
 497      916CD69A 
 497      59E7B0DF 
 497      4C24A51B 
 497      D4
 498 1aa7 36F6B444 		.ascii	"6\366\264D\336\307\212\274\300\212\310\306\333M\376"
 498      DEC78ABC 
 498      C08AC8C6 
 498      DB4DFE
ARM GAS  /tmp/ccuXmPnF.s 			page 40


 499 1ab6 3C916366 		.ascii	"<\221cf\"\257\372\005E>\312\212\274\314\266\310>\201"
 499      22AFFA05 
 499      453ECA8A 
 499      BCCCB6C8 
 499      3E81
 500 1ac8 FF4BBC4C 		.ascii	"\377K\274L\371y\006\256\267#\215\"\335\200t3\322z\244"
 500      F97906AE 
 500      B7238D22 
 500      DD807433 
 500      D27AA4
 501 1adb 7B911EC9 		.ascii	"{\221\036\311\260\260\310\3661\313\347j\344sN\232C\225"
 501      B0B0C8F6 
 501      31CBE76A 
 501      E4734E9A 
 501      4395
 502 1aed 1CBD43BE 		.ascii	"\034\275C\276rbu/\3621\253\233\357\3075\341\357\321"
 502      7262752F 
 502      F231AB9B 
 502      EFC735E1 
 502      EFD1
 503 1aff BBBAF980 		.ascii	"\273\272\371\200\256we\266\025\371{\017\222,\347\264"
 503      AE7765B6 
 503      15F97B0F 
 503      922CE7B4 
 504 1b0f 6ECBD21A 		.ascii	"n\313\322\032\374\016\3549Kn\313r\275o,\352=C\022\277"
 504      FC0EEC39 
 504      4B6ECB72 
 504      BD6F2CEA 
 504      3D4312BF 
 505 1b23 13778F90 		.ascii	"\023w\217\220\330E\370\266\350\203\0315\362_\367`\352"
 505      D845F8B6 
 505      E8831935 
 505      F25FF760 
 505      EA
 506 1b34 E750380C 		.ascii	"\347P8\014I\370\010\263\\\326\362\1775\340\243\261\251"
 506      49F808B3 
 506      5CD6F27F 
 506      35E0A3B1 
 506      A9
 507 1b45 B9BFAE6E 		.ascii	"\271\277\256n\247\374c\006y\370xI\0340-W#z\013\037\352"
 507      A7FC6306 
 507      79F87849 
 507      1C302D57 
 507      237A0B1F 
 508 1b5a A15B33AF 		.ascii	"\241[3\257\262\215\345\343\260FnP7\325\246\373`o\266"
 508      B28DE5E3 
 508      B0466E50 
 508      37D5A6FB 
 508      606FB6
 509 1b6d 8267B2DD 		.ascii	"\202g\262\335\322\030\262\317\270\235m\3777)\333\376"
 509      D218B2CF 
 509      B89D6DFF 
 509      3729DBFE 
 510 1b7d DFCEC04D 		.ascii	"\337\316\300M\3124\325\223\346{01\333RpZ\211\325\255"
 510      CA34D593 
 510      E67B3031 
 510      DB52705A 
ARM GAS  /tmp/ccuXmPnF.s 			page 41


 510      89D5AD
 511 1b90 3ED141DD 		.ascii	">\321A\335Q\2312v\306\012\242\336\240\246\367\307Z\023"
 511      51993276 
 511      C60AA2DE 
 511      A0A6F7C7 
 511      5A13
 512 1ba2 4C943288 		.ascii	"L\2242\210\033|\015;\203\033H\233\220\336B:\310c\241"
 512      1B7C0D3B 
 512      831B489B 
 512      90DE423A 
 512      C863A1
 513 1bb5 7BF891ED 		.ascii	"{\370\221\355\036.\307\333\233M\363\322g\365\034\303"
 513      1E2EC7DB 
 513      9B4DF3D2 
 513      67F51CC3 
 514 1bc5 EA0FC8EA 		.ascii	"\352\017\310\352\005\266\307\222\204\346\007\355vG\274"
 514      05B6C792 
 514      84E607ED 
 514      7647BC
 515 1bd4 B2477FD9 		.ascii	"\262G\177\331\374\360\345\301\362\370\034\353[\0124"
 515      FCF0E5C1 
 515      F2F81CEB 
 515      5B0A34
 516 1be3 919B4A35 		.ascii	"\221\233J5\0362\217\034\364\020o1\026w\024x\337\243"
 516      1E328F1C 
 516      F4106F31 
 516      16771478 
 516      DFA3
 517 1bf5 D951E032 		.ascii	"\331Q\3402\335\254\204\304\2334huW\234\207\2227+\251"
 517      DDAC84C4 
 517      9B346875 
 517      579C8792 
 517      372BA9
 518 1c08 7B88D965 		.ascii	"{\210\331e \021=\345!~\243\001A\177\232\303\251<\301"
 518      20113DE5 
 518      217EA301 
 518      417F9AC3 
 518      A93CC1
 519 1c1b 5C401CE6 		.ascii	"\\@\034\346\301\275\301<\346\373\2140\332\267\265?\232"
 519      C1BDC13C 
 519      E6FB8C30 
 519      DAB7B53F 
 519      9A
 520 1c2c 1C6DD968 		.ascii	"\034m\331h\360\000<\377\020\224z7\363\3349ek\354Q\036"
 520      F0003CFF 
 520      10947A37 
 520      F3DC3965 
 520      6BEC511E 
 521 1c40 DCE3E6A1 		.ascii	"\334\343\346\241\324\335\251\016\016t;\017\022m\327"
 521      D4DDA90E 
 521      0E743B0F 
 521      126DD7
 522 1c4f 21C839BB 		.ascii	"!\3109\273 \222p\015\263\214\367h\267l\252\301\2510"
 522      2092700D 
 522      B38CF768 
 522      B76CAAC1 
 522      A930
ARM GAS  /tmp/ccuXmPnF.s 			page 42


 523 1c61 894FD52B 		.ascii	"\211O\325+\313\3215\033&+O\035\321M\363[\342\230J\241"
 523      CBD1351B 
 523      262B4F1D 
 523      D14DF35B 
 523      E2984AA1 
 524 1c75 CFB2EA4B 		.ascii	"\317\262\352K\335-\327\323O,\034\300\327\034\336\377"
 524      DD2DD7D3 
 524      4F2C1CC0 
 524      D71CDEFF 
 525 1c85 B506CC66 		.ascii	"\265\006\314f?\332\020\377\376\303*\0343F\333\306\343"
 525      3FDA10FF 
 525      FEC32A1C 
 525      3346DBC6 
 525      E3
 526 1c96 1A597437 		.ascii	"\032Yt7e\216\202M\266\002f\362\315\265\375,\330L\333"
 526      658E824D 
 526      B60266F2 
 526      CDB5FD2C 
 526      D84CDB
 527 1ca9 603C678D 		.ascii	"`<g\215,\330\307V\300L69?\254\014gf\216\247\311\322"
 527      2CD8C756 
 527      C04C3639 
 527      3FAC0C67 
 527      668EA7C9 
 528 1cbe EC3C8FD9 		.ascii	"\354<\217\331\215\217:\003\266H\316O<\372wA\215\307"
 528      8D8F3A03 
 528      B648CE4F 
 528      3CFA7741 
 528      8DC7
 529 1cd0 BEE838EA 		.ascii	"\276\3508\352\000\315\365\020\301\027\376\232o\003\232"
 529      00CDF510 
 529      C117FE9A 
 529      6F039A
 530 1cdf A2096346 		.ascii	"\242\011cFE\177\346\3114\260\365\244\337$a\245m\005"
 530      457FE6C9 
 530      34B0F5A4 
 530      DF2461A5 
 530      6D05
 531 1cf1 F3B575B4 		.ascii	"\363\265u\264\206\3732\3007V\340|:\365\245\367\3076"
 531      86FB32C0 
 531      3756E07C 
 531      3AF5A5F7 
 531      C736
 532 1d03 E8803811 		.ascii	"\350\2008\021;\276I\0362\010NA:\015\351\014\244\263"
 532      3BBE491E 
 532      32084E41 
 532      3A0DE90C 
 532      A4B3
 533 1d15 907E8874 		.ascii	"\220~\210t\016\322/\330\201\362\177\006U\022\276\375"
 533      0ED22FD8 
 533      81F27F06 
 533      5512BEFD 
 534 1d25 B566AC9B 		.ascii	"\265f\254\233\256\367\250\250\361\343\2048\330\2156"
 534      AEF7A8A8 
 534      F1E38438 
 534      D88D36
 535 1d34 7840D3A0 		.ascii	"x@\323\240\307m\3705\355q\027cg\331\2401\024j\226\377"
ARM GAS  /tmp/ccuXmPnF.s 			page 43


 535      C76DF835 
 535      ED711763 
 535      67D9A031 
 535      146A96FF 
 536 1d48 53F21EB7 		.ascii	"S\362\036\267$\257\361\213\033\252\274\343\343O\370"
 536      24AFF18B 
 536      1BAABCE3 
 536      E34FF8
 537 1d57 8EE717B1 		.ascii	"\216\347\027\261\344\270\301\310\3615(\217\355\027z"
 537      E4B8C1C8 
 537      F135288F 
 537      ED177A
 538 1d66 3DFACFCE 		.ascii	"=\372\317\316\2658\342\202\234\321\012\242)X\011\033"
 538      B538E282 
 538      9CD10AA2 
 538      2958091B 
 539 1d76 3E4A8F5B 		.ascii	">J\217[\2468\334\224;I8o\015\256\336i\204\2477A\326"
 539      A638DC94 
 539      3B49386F 
 539      0DAEDE69 
 539      84A73741 
 540 1d8b 7BD4363E 		.ascii	"{\3246>\027y0a\022_\234\272\371\276\362q\230(\332\304"
 540      17793061 
 540      125F9CBA 
 540      F9BEF271 
 540      9828DAC4 
 541 1d9f 8F1A9B48 		.ascii	"\217\032\233H\011\204\216\265v\360\234r|\223\2103\275"
 541      09848EB5 
 541      76F09C72 
 541      7C938833 
 541      BD
 542 1db0 F5A987CF 		.ascii	"\365\251\207\317w\206D\027\034\337$)\233y\322\035&\016"
 542      77864417 
 542      1CDF2429 
 542      9B79D21D 
 542      260E
 543 1dc2 E1631CEB 		.ascii	"\341c\034\353\315\373\002\301\300T\000p!)\237\314\222"
 543      CDFB02C1 
 543      C0540070 
 543      21299FCC 
 543      92
 544 1dd3 D80D2BEC 		.ascii	"\330\015+\354\300\3718\270\305,\234$\334F\035\245\200"
 544      C0F938B8 
 544      C52C9C24 
 544      DC461DA5 
 544      80
 545 1de4 33D999E3 		.ascii	"3\331\231\343K\236\273#V\2045\331\233c\031\017\027\263"
 545      4B9EBB23 
 545      568435D9 
 545      9B63190F 
 545      17B3
 546 1df6 0267B23B 		.ascii	"\002g\262;\307\012^\330A\017[\020\326d\177\216\225<"
 546      C70A5ED8 
 546      410F5B10 
 546      D6647F8E 
 546      953C
 547 1e08 DC502B70 		.ascii	"\334P+pz\243\262\336\037ky\001\361k\354\237\276\301"
ARM GAS  /tmp/ccuXmPnF.s 			page 44


 547      7AA3B2DE 
 547      1F6B7901 
 547      F16BEC9F 
 547      BEC1
 548 1e1a BE6703D2 		.ascii	"\276g\003\322\215H7#\335\202t+\322mV&Bk<\314Dh\330\303"
 548      8D483723 
 548      DD82742B 
 548      D26D5626 
 548      426B3CCC 
 549 1e32 162626F5 		.ascii	"\026&&\365\246\337\357\341\370\236\303\314\204\346\342"
 549      A6DFEFE1 
 549      F89EC3CC 
 549      84E6E2
 550 1e41 4C681E4E 		.ascii	"Lh\036N\321N#\035\212\\\216D\272\010\3512\244+\221\256"
 550      D14E231D 
 550      8A5C8E44 
 550      BA08E932 
 550      A42B91AE 
 551 1e55 B6C2FD2C 		.ascii	"\266\302\375,v\032W\373\260\346F\\R\362z\217\366N\343"
 551      761A57FB 
 551      B0E6465C 
 551      52F27A8F 
 551      F64EE3
 552 1e68 E1A6CBFF 		.ascii	"\341\246\313\377<\237\273\323H\357\211\305\264X\232"
 552      3C9FBBD3 
 552      48EF89C5 
 552      B4589A
 553 1e77 3B60B872 		.ascii	";`\270r\232@\3238\037\344\206\265\021\017\015\011\205"
 553      9A40D338 
 553      1FE486B5 
 553      110F0D09 
 553      85
 554 1e88 6B721161 		.ascii	"kr\021a\214r\3556\3145\302\244\254=\206\271jLr\3555"
 554      8C72ED36 
 554      CC35C2A4 
 554      AC3D86B9 
 554      6A4C72ED 
 555 1e9d CC259BE4 		.ascii	"\314%\233\344\332g\230\213<Sb\224k\277a\256+&\271\016"
 555      DA67988B 
 555      3C536294 
 555      6BBF61AE 
 555      2B26B90E 
 556 1eb1 18E6BA60 		.ascii	"\030\346\272`\222\253\3210\327i\223\\\007\015s\305L"
 556      92ABD130 
 556      D769935C 
 556      070D73C5 
 556      4C
 557 1ec2 721D32CC 		.ascii	"r\0352\314u\310$\327\341D.!?\273_ey0\273\270\262d`v"
 557      75C824D7 
 557      E1442E21 
 557      3FBB5F65 
 557      7930BBB8 
 558 1eda 49B07F76 		.ascii	"I\260\177vq\277\322\336\245\225\341\354H\250\272\342"
 558      71BFD2DE 
 558      A595E1EC 
 558      48A8BAE2 
 559 1eea CFD910E8 		.ascii	"\317\331\020\350\027(\313\256\252\014E\302\331\205E"
ARM GAS  /tmp/ccuXmPnF.s 			page 45


 559      1728CBAE 
 559      AA0C45C2 
 559      D98545
 560 1ef9 3D3AE552 		.ascii	"=:\345R\372|\347\001\003\262\003%\305\376\262\262\222"
 560      FA7CE701 
 560      03B20325 
 560      C5FEB2B2 
 560      92
 561 1f0a C7FA09DE 		.ascii	"\307\372\011\336\256\371y\371\241\322\376\301\220\373"
 561      AEF979F9 
 561      A1D2FEC1 
 561      90FB
 562 1f18 85975FF1 		.ascii	"\205\227_\361\345\011\271VPK+\212\313\252K\202\004\007"
 562      E509B956 
 562      504B2B8A 
 562      CBAA4B82 
 562      0407
 563 1f2a 305AC129 		.ascii	"0Z\301)\034\011D\202\376H+\200\363\277\362r\367\227"
 563      1C094482 
 563      FE482B80 
 563      F3BFF272 
 563      F797
 564 1f3c BB177948 		.ascii	"\273\027yH\260\260\250g/R\204\277\240[\327\374\327\361"
 564      B0B0A867 
 564      2F5284BF 
 564      A05BD7FC 
 564      D7F1
 565 1f4e D7AE7945 		.ascii	"\327\256yE\335_\355\226E\202y={\364z\251[Q7L\321\255"
 565      DD5FED96 
 565      4582793D 
 565      7BF47AA9 
 565      5B51374C 
 566 1f64 A0A06781 		.ascii	"\240\240g\201\013q~\233]\035\016e\007B\345\277\257\250"
 566      0B717E9B 
 566      5D1D0E65 
 566      0742E5BF 
 566      AFA8
 567 1f76 AC08FE3E 		.ascii	"\254\010\376>\030\350]\032/2\034))\255\210@\251\236"
 567      18E85D1A 
 567      2F321C29 
 567      29AD8840 
 567      A99E
 568 1f88 6A3877CA 		.ascii	"j8w\312\365G:\233\244.\017\000\377\025\301l\177I\260"
 568      F5473A9B 
 568      A42E0F00 
 568      FF15C16C 
 568      7F49B0
 569 1f9b 4FA0BA2C 		.ascii	"O\240\272,\342"
 569      E2
 570 1fa0 8F0CAC0A 		.ascii	"\217\014\254\012\206\011\317~\277\232\337UR]^>\220\360"
 570      8609CF7E 
 570      BF9ADF55 
 570      525D5E3E 
 570      90F0
 571 1fb2 905759D1 		.ascii	"\220WY\321\247\264\257\273\030O\231D\252@yU\031\210"
 571      A7B4AFBB 
 571      184F9944 
ARM GAS  /tmp/ccuXmPnF.s 			page 46


 571      AA407955 
 571      1988
 572 1fc4 8565757C 		.ascii	"\205eu|\002\344\243\331H0\203\376\030\316\305\342\313"
 572      02E4A3D9 
 572      483083FE 
 572      18CEC5E2 
 572      CB
 573 1fd5 4A7B67F7 		.ascii	"J{g\367-.\326\260\321\371\261.\217ufY\0076\240pw\270"
 573      2D2ED6B0 
 573      D1F9B12E 
 573      8F756659 
 573      0736A070 
 574 1feb F43F82A4 		.ascii	"\364?\202\244\340`U\244\237\313\377\\ee\231\247\270"
 574      E06055A4 
 574      9FCBFF5C 
 574      656599A7 
 574      B8
 575 1ffc 34545C5D 		.ascii	"4T\\]"
 576 2000 1608B527 		.ascii	"\026\010\265'uS\334/PQ\021,\013\373+\252\313\375\221"
 576      7553DC2F 
 576      5051112C 
 576      0BFB2BAA 
 576      CBFD91
 577 2013 2C42D5A8 		.ascii	",B\325\250\273\340\367\342@YY\357@\361\237\375\021w"
 577      BBE0F7E2 
 577      405959EF 
 577      40F19FFD 
 577      1177
 578 2025 B0A2C45F 		.ascii	"\260\242\304_\334\233\324@0\024\252\014\371#\355\025"
 578      DC9BD440 
 578      3014AA0C 
 578      F923ED15 
 579 2035 5DFAF37B 		.ascii	"]\372\363{t}\276k\367\227^)\350\326V\215\352\371j\267"
 579      747DBE6B 
 579      F7975E29 
 579      E8D6568D 
 579      EAF96AB7 
 580 2049 82E75FEA 		.ascii	"\202\347_\352\371\257\355\325\344\011 \017\315^\334"
 580      F9AFEDD5 
 580      E409200F 
 580      CD5EDC
 581 2058 DB511CEA 		.ascii	"\333Q\034\352\010G\256+\\^\025\352\2104\327\031~3\324"
 581      0847AE2B 
 581      5C5E15EA 
 581      8834D719 
 581      7E33D4
 582 206b 91100C75 		.ascii	"\221\020\014ujOU\0056\023.\255\254x!TY]\345\354\033"
 582      6A4F5505 
 582      36132EAD 
 582      AC782154 
 582      595DE5EC 
 583 2080 AAAAEA92 		.ascii	"\252\252\352\222\312tB\221\270.\212\373\205\007\206"
 583      CA744291 
 583      B82E8AFB 
 583      850786
 584 208f D5CAF044 		.ascii	"\325\312\360D\372\205\202\201\022\177\304[\334\317O"
 584      FA858281 
ARM GAS  /tmp/ccuXmPnF.s 			page 47


 584      127FC45B 
 584      DCCF4F
 585 209e C39DED61 		.ascii	"\303\235\355a\025\367#\306\354\256\362W\004\007D\340"
 585      15F723C6 
 585      ECAEF257 
 585      040744E0 
 586 20ae 54150AF6 		.ascii	"T\025\012\366\177\321\002\004m\036]\013z\344\365\030"
 586      7FD10204 
 586      6D1E5D0B 
 586      7AE4F518 
 587 20be 0029CBAB 		.ascii	"\000)\313\253J\313@\252\354\027\362\362 \271\312^F\244"
 587      4ACB40AA 
 587      EC17F2F2 
 587      20B9CA5E 
 587      46A4
 588 20d0 2A545AE9 		.ascii	"*TZ\351\247\270\245\225\031`\037\021(\346)\333\370\375"
 588      A7B8A595 
 588      19601F11 
 588      28E629DB 
 588      F8FD
 589 20e2 8A2B4341 		.ascii	"\212+CA\000\314$\321~\260\243\342\310\200\177J\017\305"
 589      00CC24D1 
 589      7EB0A3E2 
 589      C8807F4A 
 589      0FC5
 590 20f4 DFFFC972 		.ascii	"\337\377\311r\242\271P\260/\230\234?\342\010w|\002\216"
 590      A2B950B0 
 590      2F989C3F 
 590      E208777C 
 590      028E
 591 2106 27E1E802 		.ascii	"'\341\350\002\307S\216pn\016\034\035\341\310\205\243"
 591      C7538E70 
 591      6E0E1C1D 
 591      E1C885A3 
 592 2116 131C9DE1 		.ascii	"\023\034\235\341x\034\016H\227\013\351r!].\244\353\004"
 592      781C0E48 
 592      970BE972 
 592      215D2EA4 
 592      EB04
 593 2128 E93A7594 		.ascii	"\351:u\224B\235\245\320\343R\350\011)\364\244\024\352"
 593      429DA5D0 
 593      E352E809 
 593      29F4A414 
 593      EA
 594 2139 22859E72 		.ascii	"\"\205\236r\204:\346\300\321Q*\013\301\251\223\253\312"
 594      843AE6C0 
 594      D1512A0B 
 594      C1A993AB 
 594      CA
 595 214a 0FDC6610 		.ascii	"\017\334f\020\015\277\025\014\301\271\262\254$\030r"
 595      0DBF150C 
 595      C1B9B2AC 
 595      241872
 596 2159 82598688 		.ascii	"\202Y\206\210\332\003\345AOD\351\0042H\023\351\002\265"
 596      DA03E541 
 596      4F44E904 
 596      324813E9 
ARM GAS  /tmp/ccuXmPnF.s 			page 48


 596      02B5
 597 216b 491B0B84 		.ascii	"I\033\013\204 9\376\226\021)\257,\011\342u\237\262@"
 597      2039FE96 
 597      1129AF2C 
 597      09E2759F 
 597      B240
 598 217d DF704624 		.ascii	"\337pF$\024\354\023F\315\222\200\253<\334\027~T\332"
 598      14EC1346 
 598      CD9280AB 
 598      3CDC177E 
 598      54DA
 599 218f 25645742 		.ascii	"%dWB\356P\311@\370\311\023\034P\032\001E\005\335oE*"
 599      EE50C940 
 599      F8C9131C 
 599      501A0145 
 599      05DD6F45 
 600 21a4 7BFFA92A 		.ascii	"{\377\251*3\330?X\021)\017\204\261!\274E\002\216*\177"
 600      33D83F58 
 600      11290F84 
 600      B121BC45 
 600      028E2A7F 
 601 21b8 756B6A41 		.ascii	"ukjAa\177Yi\030\032|\233\270M\321\030o\225\377\255@"
 601      617F5969 
 601      181A7C9B 
 601      B84DD118 
 601      6F95FFAD 
 602 21cd 69A4B4A2 		.ascii	"i\244\264\242o\0335\372\315\352`5p\325\226I\211Q\255"
 602      6F1B35FA 
 602      CDEA6035 
 602      70D59649 
 602      8951AD
 603 21e0 AAFC502C 		.ascii	"\252\374P,\006]\030\204\210`\02549\310\354*\257\006"
 603      065D1884 
 603      88601534 
 603      39C8EC2A 
 603      AF06
 604 21f2 23E864CB 		.ascii	"#\350d\313L\313#\003\2109\225St8W\276U\001\272D$\020"
 604      4CCB2303 
 604      88399553 
 604      743857BE 
 604      5501BA44 
 605 2208 A11CAD17 		.ascii	"\241\034\255\027\370\203t\204\323VD+\2012\2649\210\254"
 605      F8837484 
 605      D356442B 
 605      8132B439 
 605      88AC
 606 221a 826EE249 		.ascii	"\202n\342I[\345)\302@\231\355\225\026\006Z\016\206\202"
 606      5BE529C2 
 606      4099ED95 
 606      16065A0E 
 606      8682
 607 222c 15C520AD 		.ascii	"\025\305 \255\233F\375c*D`);\257Ga\367B\030?\240\013"
 607      9B46FD63 
 607      2A446029 
 607      3BAF4761 
 607      F742183F 
 608 2242 2BEF94DB 		.ascii	"+\357\224\333\247sN\307\001\244\343\317$\035K\021\264"
ARM GAS  /tmp/ccuXmPnF.s 			page 49


 608      A7734EC7 
 608      01A4E3CF 
 608      241D4B11 
 608      B4
 609 2253 92FC601F 		.ascii	"\222\374`\037\251\260\300\221W\320\021\216\\Wa\217^"
 609      A9B0C091 
 609      57D0118E 
 609      5C57618F 
 609      5E
 610 2264 051D91E6 		.ascii	"\005\035\221\346\272\376\320\363y\010\023J\303\235\220"
 610      BAFED0F3 
 610      7908134A 
 610      C39D90
 611 2273 7676BC58 		.ascii	"vv\274XT\340x\251\250\300Y\370/\005\035\011\311%\244"
 611      54E078A9 
 611      A8C059F8 
 611      2F051D09 
 611      C925A4
 612 2286 93F30F40 		.ascii	"\223\363\017@\235\177\310\2078 \271\204t\"\244\263\224"
 612      9D7FC887 
 612      3820B984 
 612      7422A4B3 
 612      94
 613 2297 5FE0805E 		.ascii	"_\340\200^\353\371\364\307<d\335_R\036 \352\200\316"
 613      EBF9F4C7 
 613      3C64DD5F 
 613      521E20EA 
 613      80CE
 614 22a9 D15F08C6 		.ascii	"\321_\010\306\027(\217\363\237W\340|9\037\230\352\325"
 614      17288FF3 
 614      9F57E07C 
 614      391F98EA 
 614      D5
 615 22ba B5C0D923 		.ascii	"\265\300\331#\207\220\216]\013\034\317\347\025\270\303"
 615      87908E5D 
 615      0B1CCFE7 
 615      15B8C3
 616 22c9 98D059DA 		.ascii	"\230\320Y\332\2478\344.\015\367+\355\023\361\206\203"
 616      A738E42E 
 616      0DF72BED 
 616      13F18683 
 617 22d9 657D4A2B 		.ascii	"e}J+J\202\003\334\375\203\305\221\312P\3738\272\237"
 617      4A8203DC 
 617      FD83C591 
 617      CA50FB38 
 617      BA9F
 618 22eb A606FDC2 		.ascii	"\246\006\375\302E8R\225\001'b\364\355\350(\033\316."
 618      45385295 
 618      012762F4 
 618      EDE8281B 
 618      CE2E
 619 22fd 0F3FFE44 		.ascii	"\017?\376D\316\223\244\355\322\220?r\257\372Sin\261"
 619      CE93A4ED 
 619      D2903F72 
 619      AFFA5369 
 619      6EB1
 620 230f 3F1CAC08 		.ascii	"?\034\254\010W\206\210r\273\347\346\025\342\005\330"
ARM GAS  /tmp/ccuXmPnF.s 			page 50


 620      57868872 
 620      BBE7E615 
 620      E205D8
 621 231e 70228CED 		.ascii	"p\"\214\355\310\323\375e:\214:\273\347\277\324\315\371"
 621      C8D3FD65 
 621      3A8C3ABB 
 621      E7BFD4CD 
 621      F9
 622 232f DC2B85AF 		.ascii	"\334+\205\257g\004JJB\301p\330\266W\360\322K\371\331"
 622      67044A4A 
 622      42C170D8 
 622      B657F0D2 
 622      4BF9D9
 623 2342 00DFBF23 		.ascii	"\000\337\277#\026\257x\005\020A\231\262\345\016\000"
 623      16AF7805 
 623      104199B2 
 623      E50E00
 624 2351 00195AE1 		.ascii	"\000\031Z\341\244\272\003\200\243\272\003$\210\356\000"
 624      A4BA0380 
 624      A3BA0324 
 624      88EE00
 625 2360 09A03B70 		.ascii	"\011\240;p\027\011Q9\374E\257\261W\005\257a\316\227"
 625      17095139 
 625      FC45AFB1 
 625      5705AF61 
 625      CE97
 626 2372 7AE6FD73 		.ascii	"z\346\375s\267\374L\300\253\254\242\035G\253\236\275"
 626      B7FC4CC0 
 626      ABACA21D 
 626      47AB9EBD 
 627 2382 7AF4CCEF 		.ascii	"z\364\314\357\346\207_\357V\202\205=@|\177~\267W\273"
 627      E6875FEF 
 627      5682853D 
 627      407C7F7E 
 627      B757BB
 628 2395 E7756BC7 		.ascii	"\347uk\307\305\275\330\263\260(\243\022Z\016d\315,."
 628      C5BDD8B3 
 628      B028A312 
 628      5A0E64CD 
 628      2C2E
 629 23a7 AB84712E 		.ascii	"\253\204q.\\\025\014\226\264\006\300\222\352\310\300"
 629      5C150C96 
 629      B406C092 
 629      EAC8C0
 630 23b6 E281C564 		.ascii	"\342\201\305dpo]X\224\357\317\177\245\350u\177\336\353"
 630      706F5D58 
 630      94EFCF7F 
 630      A5E8757F 
 630      DEEB
 631 23c8 792F756B 		.ascii	"y/uk\367|\327\302\"\346\332\237{\2176\006\206\377\247"
 631      F77CD7C2 
 631      22E6DA9F 
 631      7B8F3606 
 631      86FFA7
 632 23db 5A11043F 		.ascii	"Z\021\004?B\020\211\250\353@D\307\216\215tHd@\015{!"
 632      421089A8 
 632      EB4044C7 
ARM GAS  /tmp/ccuXmPnF.s 			page 51


 632      8E8D7448 
 632      64400D7B 
 633 23f0 86D48C3F 		.ascii	"\206\324\214?\342$'oh\200b\017\336\210\032r\30194\200"
 633      E224276F 
 633      6880620F 
 633      DE881A72 
 633      C1393480 
 634 2404 D0C80052 		.ascii	"\320\310\000R\351\252E:{v\205f\000$\327Q\010\015\253"
 634      E9AA453A 
 634      7B768566 
 634      0024D751 
 634      080DAB
 635 2417 10CE7979 		.ascii	"\020\316yy\005\256\242\202\356\205\335\234\317C\333"
 635      05AEA282 
 635      EE85DD9C 
 635      CF43DB
 636 2426 7100B697 		.ascii	"q\000\266\227\014\243\245\345\244O%\247\312\352\210"
 636      0CA3A5E5 
 636      A44F25A7 
 636      CAEA88
 637 2435 9B5A9003 		.ascii	"\233Z\220\003\306vO\031X`Q\260\274\312K\002\275\210"
 637      C6764F19 
 637      586051B0 
 637      BCCA4B02 
 637      BD88
 638 2447 79C4CD30 		.ascii	"y\304\3150\\\372d\316\200\034b\2064\344\217\304\177"
 638      5CFA64CE 
 638      801C6286 
 638      34E48FC4 
 638      7F
 639 2458 8A9457E5 		.ascii	"\212\224W\345>\3718\216\313\030\202\2361\254\030\"v"
 639      3EF9388E 
 639      CB18829E 
 639      31AC1822 
 639      76
 640 2469 198F150B 		.ascii	"\031\217\025\013Y4\242\010\257\035\201P_M\212~Bk6\005"
 640      5934A208 
 640      AF1D8150 
 640      5F4D8A7E 
 640      426B3605 
 641 247d 74E6E1B2 		.ascii	"t\346\341\262`\260\252\010X\314\000\313\251\200\016"
 641      60B0AA08 
 641      58CC00CB 
 641      A9800E
 642 248c 5481C80F 		.ascii	"T\201\310\017D\0020|A\227\227\021\001N\237+\257\302"
 642      4402307C 
 642      41979711 
 642      014E9F2B 
 642      AFC2
 643 249e 33148BE7 		.ascii	"3\024\213\347\202HI+r\356\201m\305SEd\2004^\014\364"
 643      8248492B 
 643      72EE816D 
 643      C5534564 
 643      80345E0C 
 644 24b3 A81A509E 		.ascii	"\250\032P\236IC\370sF\277\352\362\222\356\025\021<w"
 644      4943F873 
 644      46BFEAF2 
ARM GAS  /tmp/ccuXmPnF.s 			page 52


 644      92EE1511 
 644      3C77
 645 24c5 1B10F190 		.ascii	"\033\020\361\220\363\0239\235r\234\201\342\342\327\010"
 645      F313399D 
 645      729C81E2 
 645      E2D708
 646 24d4 799D903F 		.ascii	"y\235\220?:\313\003}_#\344uB\376\350,\001\036\342\322"
 646      3ACB037D 
 646      5F23E475 
 646      42FEE82C 
 646      011EE2D2 
 647 24e8 F786C2BB 		.ascii	"\367\206\302\273\240bh\010\374\257\270\366\252CA\261"
 647      A0626808 
 647      FCAFB8F6 
 647      AA4341B1 
 648 24f8 48ECE5A6 		.ascii	"H\354\345\246\277\304\263\224\205\313;\345t\"Yh\010"
 648      BFC4B394 
 648      85CB3BE5 
 648      74225968 
 648      08
 649 2509 C4856268 		.ascii	"\304\205bh\203\365B\0114\224\2418\216t\\Co\022R\371"
 649      83F54209 
 649      3494A138 
 649      8E745C43 
 649      6F1252F9 
 650 251d 7B57F781 		.ascii	"{W\367\201>\271\025$S\202n:fz0\031\004\262\002\020\357"
 650      3EB91524 
 650      53826E3A 
 650      667A3019 
 650      04B20210 
 651 2532 2FAEAC06 		.ascii	"/\256\254\006\257#\224U\316\\\270iqn\332\221x!y!\324"
 651      AF239455 
 651      CE5CB869 
 651      716EDA91 
 651      78217921 
 652 2547 656E8E17 		.ascii	"en\216\027\372l\032j\255\262\030\212\220Jq\301\311\037"
 652      FA6C1A6A 
 652      ADB2188A 
 652      904A71C1 
 652      C91F
 653 2559 E9A04606 		.ascii	"\351\240F\006*\002e\225}\023]Nk\032\241\366:\016H\355"
 653      2A026595 
 653      7D135D4E 
 653      6B1AA1F6 
 653      3A0E48ED 
 654 256d A626D096 		.ascii	"\246&\320\226\255\315\302HeU\253\342~E\375J\012I\245"
 654      ADCDC248 
 654      6555ABE2 
 654      7E45FD4A 
 654      0A49A5
 655 2580 12E793BA 		.ascii	"\022\347\223\272\203\221\273\225.\215\244R\025v\267"
 655      8391BB95 
 655      2E8DA452 
 655      1576B7
 656 258f 625F24EE 		.ascii	"b_$\356\305\352\362\322\222\322\310\300\373\024\303"
 656      C5EAF2D2 
 656      92D2C8C0 
ARM GAS  /tmp/ccuXmPnF.s 			page 53


 656      FB14C3
 657 259e 2271C43E 		.ascii	"\"q\304>\203\241@\004\222f*\331K+J#\231J6\014+\311I"
 657      83A14004 
 657      92662AD9 
 657      4B2B4A23 
 657      994A360C 
 658 25b5 D803465F 		.ascii	"\330\003F_\030\011\204\310\270\336#2\240g\357?A\007"
 658      180984C8 
 658      B8DE2332 
 658      A067EF3F 
 658      4107
 659 25c7 DC1D7E70 		.ascii	"\334\035~p\221\231LG/\025\341\205P\325]\2120\324Kw\221"
 659      91994C47 
 659      2F15E185 
 659      50D55D8A 
 659      30D44B77 
 660 25dc 1EAD13D2 		.ascii	"\036\255\023\322\216.\322J\373>n\247g\013\007C\245\201"
 660      8E2ED24A 
 660      FB3E6EA7 
 660      670B0743 
 660      A581
 661 25ee 32505156 		.ascii	"2PQV!\206\250\006\333\260\027\257\366(r\275\025*\215"
 661      2186A806 
 661      DBB017AF 
 661      F62872BD 
 661      152A8D
 662 2601 049DD826 		.ascii	"\004\235\330&\252\252#\216\276\301\210\023\316\021'"
 662      AAAA238E 
 662      BEC18813 
 662      CE1127
 663 2610 04226EFC 		.ascii	"\004\"n\3741\342\"\277F\034\375\313#O\330\032\313\321"
 663      31E222BF 
 663      461CFDCB 
 663      234FD81A 
 663      CBD1
 664 2622 D7214379 		.ascii	"\327!Cyk\014\371\303\225\325!2\214g\261\227m\351\005"
 664      6B0CF9C3 
 664      95D52132 
 664      8C67B197 
 664      6DE905
 665 2635 711E82E0 		.ascii	"q\036\202\340Y@\337\306Gd\004\313\320\307\310\204\263"
 665      5940DFC6 
 665      476404CB 
 665      D0C7C884 
 665      B3
 666 2646 1AE78530 		.ascii	"\032\347\2050\005\247PJ\377\345\201h\014\222\337\337"
 666      05A7504A 
 666      FFE58168 
 666      0C92DFDF 
 667 2656 A2DE5A30 		.ascii	"\242\336Z0\214\271]\230\316\033.Qzyoa\276\322\311g@"
 667      8CB95D98 
 667      CE1B2E51 
 667      7A796F61 
 667      BED2C967 
 668 266b 88F4F11E 		.ascii	"\210\364\361\0368c\027oOFt\213\210\214w\225V\200\336"
 668      3863176F 
 668      4F46748B 
ARM GAS  /tmp/ccuXmPnF.s 			page 54


 668      888C7795 
 668      5680DE
 669 267e 54BFAC15 		.ascii	"T\277\254\0258\337J\320\243\006\275o\252^\034\204\224"
 669      38DF4AD0 
 669      A306BD6F 
 669      AA5E1C84 
 669      94
 670 268f E6E07953 		.ascii	"\346\340ySiA\2567\375`\242\031\220$T\025\011\3019T\002"
 670      6941AE37 
 670      FD60A219 
 670      90245415 
 670      09C13954 
 671 26a4 67EF9B15 		.ascii	"g\357\233\025\225\221\322>\003\001\345M?\015\272\337"
 671      9591D23E 
 671      0301E54D 
 671      3F0DBADF 
 672 26b4 043554FC 		.ascii	"\0045T\374\331]\212\230\255\241\367d\212uWb@*\355-U"
 672      D95D8A98 
 672      ADA1F764 
 672      8A755762 
 672      402AED2D 
 673 26c9 F6BEEB95 		.ascii	"\366\276\353\225\302\256\005Ej\327\354x\256\200x;\235"
 673      C2AE0545 
 673      6AD7EC78 
 673      AE80783B 
 673      9D
 674 26da 9C2F14F5 		.ascii	"\234/\024\365*pU\207\301\034]\371\335\236{\345\205\356"
 674      2A705587 
 674      C11C5DF9 
 674      DD9E7BE5 
 674      85EE
 675 26ec E98CBE08 		.ascii	"\351\214\276\010\015\343/52e\010v\024\346?\361\337\266"
 675      0DE32F35 
 675      32650876 
 675      14E63FF1 
 675      DFB6
 676 26fe 0BC8F4   		.ascii	"\013\310\364"
 677              		.text
 678              		.section	.gnu.lto_.symtab.7014f8687c79b587,"",%progbits
 679 0000 73656E73 		.ascii	"sensorThread\000\000\000\000\000\000\000\000\000\000"
 679      6F725468 
 679      72656164 
 679      00000000 
 679      00000000 
 680 0016 0000CC02 		.ascii	"\000\000\314\002\000\000sensorThreadStop\000\000\000"
 680      00007365 
 680      6E736F72 
 680      54687265 
 680      61645374 
 681 002f 00000000 		.ascii	"\000\000\000\000\000\000\000\000\000\323\002\000\000"
 681      00000000 
 681      00D30200 
 681      00
 682 003c 53443600 		.ascii	"SD6\000\000\002\000\000\000\000\000\000\000\000\000"
 682      00020000 
 682      00000000 
 682      000000
ARM GAS  /tmp/ccuXmPnF.s 			page 55


 683 004b 51040000 		.ascii	"Q\004\000\000I2CD1\000\000\002\000\000\000\000\000\000"
 683      49324344 
 683      31000002 
 683      00000000 
 683      0000
 684 005d 0000009D 		.ascii	"\000\000\000\235\003\000\000I2CD3\000\000\002\000\000"
 684      03000049 
 684      32434433 
 684      00000200 
 684      00
 685 006e 00000000 		.ascii	"\000\000\000\000\000\000\000\233\003\000\000ADCD1\000"
 685      0000009B 
 685      03000041 
 685      44434431 
 685      00
 686 007f 00020000 		.ascii	"\000\002\000\000\000\000\000\000\000\000\000\224\003"
 686      00000000 
 686      00000094 
 686      03
 687 008c 00006368 		.ascii	"\000\000chThdSleep\000\000\002\000\000\000\000\000\000"
 687      54686453 
 687      6C656570 
 687      00000200 
 687      00000000 
 688 00a1 0000005B 		.ascii	"\000\000\000[\003\000\000adcConvert\000\000\002\000"
 688      03000061 
 688      6463436F 
 688      6E766572 
 688      74000002 
 689 00b6 00000000 		.ascii	"\000\000\000\000\000\000\000\000_\003\000\000ms5607"
 689      00000000 
 689      5F030000 
 689      6D733536 
 689      3037
 690 00c8 5F726561 		.ascii	"_readPressure\000\000\002\000\000\000\000\000\000\000"
 690      64507265 
 690      73737572 
 690      65000002 
 690      00000000 
 691 00df 00006603 		.ascii	"\000\000f\003\000\000si70x0_readHumidity\000\000\002"
 691      00007369 
 691      37307830 
 691      5F726561 
 691      6448756D 
 692 00fb 00000000 		.ascii	"\000\000\000\000\000\000\000\000\000m\003\000\000tm"
 692      00000000 
 692      006D0300 
 692      00746D
 693 010a 70323735 		.ascii	"p275_readTemperature\000\000\002\000\000\000\000\000"
 693      5F726561 
 693      6454656D 
 693      70657261 
 693      74757265 
 694 0126 00000000 		.ascii	"\000\000\000\000s\003\000\000ms5607_init\000\000\002"
 694      73030000 
 694      6D733536 
 694      30375F69 
ARM GAS  /tmp/ccuXmPnF.s 			page 56


 694      6E697400 
 695 013c 00000000 		.ascii	"\000\000\000\000\000\000\000\000\000y\003\000\000si"
 695      00000000 
 695      00790300 
 695      007369
 696 014b 37307830 		.ascii	"70x0_init\000\000\002\000\000\000\000\000\000\000\000"
 696      5F696E69 
 696      74000002 
 696      00000000 
 696      00000000 
 697 015f 007F0300 		.ascii	"\000\177\003\000\000tmp275_init\000\000\002\000\000"
 697      00746D70 
 697      3237355F 
 697      696E6974 
 697      00000200 
 698 0174 00000000 		.ascii	"\000\000\000\000\000\000\000\205\003\000\000i2cStar"
 698      00000085 
 698      03000069 
 698      32635374 
 698      6172
 699 0186 74000002 		.ascii	"t\000\000\002\000\000\000\000\000\000\000\000\000\213"
 699      00000000 
 699      00000000 
 699      008B
 700 0194 03000063 		.ascii	"\003\000\000chMtxObjectInit\000\000\002\000\000\000"
 700      684D7478 
 700      4F626A65 
 700      6374496E 
 700      69740000 
 701 01ac 00000000 		.ascii	"\000\000\000\000\000\000\220\003\000\000"
 701      00009003 
 701      0000
 702              		.text
 703              		.section	.gnu.lto_.opts,"",%progbits
 704 0000 272D6D63 		.ascii	"'-mcpu=cortex-m4' '-mfloat-abi=hard' '-mfpu=fpv4-sp"
 704      70753D63 
 704      6F727465 
 704      782D6D34 
 704      2720272D 
 705 0033 2D643136 		.ascii	"-d16' '-mno-thumb-interwork' '-mthumb' '-O2' '-fomi"
 705      2720272D 
 705      6D6E6F2D 
 705      7468756D 
 705      622D696E 
 706 0066 742D6672 		.ascii	"t-frame-pointer' '-falign-functions=16' '-ffunction"
 706      616D652D 
 706      706F696E 
 706      74657227 
 706      20272D66 
 707 0099 2D736563 		.ascii	"-sections' '-fdata-sections' '-fno-common' '-flto' "
 707      74696F6E 
 707      73272027 
 707      2D666461 
 707      74612D73 
 708 00cc 272D6673 		.ascii	"'-fsingle-precision-constant'\000"
 708      696E676C 
 708      652D7072 
ARM GAS  /tmp/ccuXmPnF.s 			page 57


 708      65636973 
 708      696F6E2D 
 709              		.text
 710              		.section	.text.sensorThread,"ax",%progbits
 711              		.align	2
 712              		.p2align 4,,15
 713              		.global	sensorThread
 714              		.thumb
 715              		.thumb_func
 716              		.type	sensorThread, %function
 717              	sensorThread:
 718              		@ args = 0, pretend = 0, frame = 0
 719              		@ frame_needed = 0, uses_anonymous_args = 0
 720 0000 2DE9F84F 		push	{r3, r4, r5, r6, r7, r8, r9, r10, fp, lr}
 721 0004 0446     		mov	r4, r0
 722 0006 0430     		adds	r0, r0, #4
 723 0008 FFF7FEFF 		bl	chMtxObjectInit
 724 000c 264B     		ldr	r3, .L10
 725 000e 274A     		ldr	r2, .L10+4
 726 0010 2748     		ldr	r0, .L10+8
 727 0012 2849     		ldr	r1, .L10+12
 728 0014 1A60     		str	r2, [r3]
 729 0016 04F5C275 		add	r5, r4, #388
 730 001a FFF7FEFF 		bl	i2cStart
 731 001e 2648     		ldr	r0, .L10+16
 732 0020 2449     		ldr	r1, .L10+12
 733 0022 FFF7FEFF 		bl	i2cStart
 734 0026 2846     		mov	r0, r5
 735 0028 2349     		ldr	r1, .L10+16
 736 002a 4822     		movs	r2, #72
 737 002c FFF7FEFF 		bl	tmp275_init
 738 0030 04F5B676 		add	r6, r4, #364
 739 0034 04F5BC70 		add	r0, r4, #376
 740 0038 1F49     		ldr	r1, .L10+16
 741 003a 4022     		movs	r2, #64
 742 003c FFF7FEFF 		bl	si70x0_init
 743 0040 04F5A677 		add	r7, r4, #332
 744 0044 3046     		mov	r0, r6
 745 0046 1A49     		ldr	r1, .L10+8
 746 0048 4022     		movs	r2, #64
 747 004a FFF7FEFF 		bl	si70x0_init
 748 004e 3846     		mov	r0, r7
 749 0050 1949     		ldr	r1, .L10+16
 750 0052 7622     		movs	r2, #118
 751 0054 FFF7FEFF 		bl	ms5607_init
 752 0058 A378     		ldrb	r3, [r4, #2]	@ zero_extendqisi2
 753 005a 0BB3     		cbz	r3, .L6
 754 005c 04F1180B 		add	fp, r4, #24
 755 0060 04F1300A 		add	r10, r4, #48
 756 0064 04F12C09 		add	r9, r4, #44
 757 0068 04F12008 		add	r8, r4, #32
 758              	.L4:
 759 006c 5946     		mov	r1, fp
 760 006e 2846     		mov	r0, r5
 761 0070 FFF7FEFF 		bl	tmp275_readTemperature
 762 0074 5146     		mov	r1, r10
 763 0076 3046     		mov	r0, r6
ARM GAS  /tmp/ccuXmPnF.s 			page 58


 764 0078 FFF7FEFF 		bl	si70x0_readHumidity
 765 007c 4946     		mov	r1, r9
 766 007e 4246     		mov	r2, r8
 767 0080 3846     		mov	r0, r7
 768 0082 FFF7FEFF 		bl	ms5607_readPressure
 769 0086 3223     		movs	r3, #50
 770 0088 0C49     		ldr	r1, .L10+20
 771 008a 0D4A     		ldr	r2, .L10+24
 772 008c 0D48     		ldr	r0, .L10+28
 773 008e FFF7FEFF 		bl	adcConvert
 774 0092 4FF47A70 		mov	r0, #1000
 775 0096 FFF7FEFF 		bl	chThdSleep
 776 009a A378     		ldrb	r3, [r4, #2]	@ zero_extendqisi2
 777 009c 002B     		cmp	r3, #0
 778 009e E5D1     		bne	.L4
 779              	.L6:
 780 00a0 0020     		movs	r0, #0
 781 00a2 BDE8F88F 		pop	{r3, r4, r5, r6, r7, r8, r9, r10, fp, pc}
 782              	.L11:
 783 00a6 00BF     		.align	2
 784              	.L10:
 785 00a8 00000000 		.word	.LANCHOR0
 786 00ac 00000000 		.word	SD6
 787 00b0 00000000 		.word	I2CD1
 788 00b4 00000000 		.word	.LANCHOR1
 789 00b8 00000000 		.word	I2CD3
 790 00bc 00000000 		.word	.LANCHOR2
 791 00c0 00000000 		.word	.LANCHOR3
 792 00c4 00000000 		.word	ADCD1
 793              		.size	sensorThread, .-sensorThread
 794 00c8 AFF30080 		.section	.text.sensorThreadStop,"ax",%progbits
 794      AFF30080 
 795              		.align	2
 796              		.p2align 4,,15
 797              		.global	sensorThreadStop
 798              		.thumb
 799              		.thumb_func
 800              		.type	sensorThreadStop, %function
 801              	sensorThreadStop:
 802              		@ args = 0, pretend = 0, frame = 0
 803              		@ frame_needed = 0, uses_anonymous_args = 0
 804              		@ link register save eliminated.
 805 0000 0346     		mov	r3, r0
 806 0002 0022     		movs	r2, #0
 807 0004 9A70     		strb	r2, [r3, #2]
 808 0006 7047     		bx	lr
 809              		.size	sensorThreadStop, .-sensorThreadStop
 810 0008 AFF30080 		.section	.bss.analogSamples,"aw",%nobits
 810      AFF30080 
 811              		.align	2
 812              		.set	.LANCHOR3,. + 0
 813              		.type	analogSamples, %object
 814              		.size	analogSamples, 300
 815              	analogSamples:
 816 0000 00000000 		.space	300
 816      00000000 
 816      00000000 
ARM GAS  /tmp/ccuXmPnF.s 			page 59


 816      00000000 
 816      00000000 
 817              		.section	.bss.DEBUG,"aw",%nobits
 818              		.align	2
 819              		.set	.LANCHOR0,. + 0
 820              		.type	DEBUG, %object
 821              		.size	DEBUG, 4
 822              	DEBUG:
 823 0000 00000000 		.space	4
 824              		.section	.rodata.analogGrp,"a",%progbits
 825              		.align	2
 826              		.set	.LANCHOR2,. + 0
 827              		.type	analogGrp, %object
 828              		.size	analogGrp, 40
 829              	analogGrp:
 830 0000 00       		.byte	0
 831 0001 00       		.space	1
 832 0002 0300     		.short	3
 833 0004 00000000 		.word	0
 834 0008 00000000 		.word	0
 835 000c 00000000 		.word	0
 836 0010 00000040 		.word	1073741824
 837 0014 1B000000 		.word	27
 838 0018 03000000 		.word	3
 839 001c 00002000 		.word	2097152
 840 0020 00000000 		.word	0
 841 0024 402D0000 		.word	11584
 842              		.section	.rodata.i2cfg,"a",%progbits
 843              		.align	2
 844              		.set	.LANCHOR1,. + 0
 845              		.type	i2cfg, %object
 846              		.size	i2cfg, 12
 847              	i2cfg:
 848 0000 01       		.byte	1
 849 0001 000000   		.space	3
 850 0004 801A0600 		.word	400000
 851 0008 02       		.byte	2
 852 0009 000000   		.space	3
 853              		.comm	__gnu_lto_v1,1,1
 854              		.ident	"GCC: (GNU Tools for ARM Embedded Processors) 4.8.4 20140526 (release) [ARM/embedded-4_8-br
ARM GAS  /tmp/ccuXmPnF.s 			page 60


DEFINED SYMBOLS
                            *ABS*:0000000000000000 sensor_thread.c
     /tmp/ccuXmPnF.s:711    .text.sensorThread:0000000000000000 $t
     /tmp/ccuXmPnF.s:717    .text.sensorThread:0000000000000000 sensorThread
     /tmp/ccuXmPnF.s:785    .text.sensorThread:00000000000000a8 $d
     /tmp/ccuXmPnF.s:795    .text.sensorThreadStop:0000000000000000 $t
     /tmp/ccuXmPnF.s:801    .text.sensorThreadStop:0000000000000000 sensorThreadStop
     /tmp/ccuXmPnF.s:811    .bss.analogSamples:0000000000000000 $d
     /tmp/ccuXmPnF.s:815    .bss.analogSamples:0000000000000000 analogSamples
     /tmp/ccuXmPnF.s:818    .bss.DEBUG:0000000000000000 $d
     /tmp/ccuXmPnF.s:822    .bss.DEBUG:0000000000000000 DEBUG
     /tmp/ccuXmPnF.s:825    .rodata.analogGrp:0000000000000000 $d
     /tmp/ccuXmPnF.s:829    .rodata.analogGrp:0000000000000000 analogGrp
     /tmp/ccuXmPnF.s:843    .rodata.i2cfg:0000000000000000 $d
     /tmp/ccuXmPnF.s:847    .rodata.i2cfg:0000000000000000 i2cfg
                            *COM*:0000000000000001 __gnu_lto_v1
     /tmp/ccuXmPnF.s:794    .text.sensorThread:00000000000000c8 $t

UNDEFINED SYMBOLS
chMtxObjectInit
i2cStart
tmp275_init
si70x0_init
ms5607_init
tmp275_readTemperature
si70x0_readHumidity
ms5607_readPressure
adcConvert
chThdSleep
SD6
I2CD1
I2CD3
ADCD1
