ARM GAS  /tmp/cctxkxwm.s 			page 1


   1              		.syntax unified
   2              		.cpu cortex-m4
   3              		.eabi_attribute 27, 3
   4              		.eabi_attribute 28, 1
   5              		.fpu fpv4-sp-d16
   6              		.eabi_attribute 20, 1
   7              		.eabi_attribute 21, 1
   8              		.eabi_attribute 23, 3
   9              		.eabi_attribute 24, 1
  10              		.eabi_attribute 25, 1
  11              		.eabi_attribute 26, 1
  12              		.eabi_attribute 30, 2
  13              		.eabi_attribute 34, 1
  14              		.eabi_attribute 18, 4
  15              		.thumb
  16              		.file	"sensor_thread.c"
  17              		.section	.gnu.lto_.jmpfuncs.7aa76a50f65f33d0,"",%progbits
  18 0000 789C7591 		.ascii	"x\234u\221=N\0031\020\205\347\331^\226l\002\004\004"
  18      3D4E0331 
  18      1085E7D9 
  18      5E966C02 
  18      0404
  19 0012 1152C42A 		.ascii	"\021R\304*\015\027\240\244J\021\244\244\210D\021$\270"
  19      0D17A0A4 
  19      4A11A4A4 
  19      88441124 
  19      B8
  20 0023 00D2146E 		.ascii	"\000\322\024n\323\244\310\226\034!\015w\341(\224\234"
  20      D3A4C896 
  20      1C210D77 
  20      E128949C 
  21 0033 818AF1B0 		.ascii	"\201\212\361\260\377\331\335\302~3\363\215=\317k\310"
  21      FFD9DDC2 
  21      7E33F38D 
  21      3DCF6BC8 
  22 0043 50D7B797 		.ascii	"P\327\267\227\364DvK\026\262Z\221\333\020\021\266\241"
  22      F444764B 
  22      16B25A91 
  22      DB1011B6 
  22      A1
  23 0054 2C55F30A 		.ascii	",U\363\012F\320\200l\3200\304\316\354\3507\373\310\306"
  23      46D0806C 
  23      D030C4CE 
  23      ECE837FB 
  23      C8C6
  24 0066 0CE31520 		.ascii	"\014\343\025 \315\034B\306ze\250b\234\207N\240\375\321"
  24      CD1C42C6 
  24      7A65A862 
  24      9C874EA0 
  24      FDD1
  25 0078 8308F735 		.ascii	"\203\010\3675b\234\024\2518\\\357\262k\306i>\232\000"
  25      629C14A9 
  25      385CEFB2 
  25      6BC6693E 
  25      9A00
  26 008a 53C64075 		.ascii	"S\306@u\355\262\304\3036/\033\246\204\317\3540g\214"
  26      EDB2C4C3 
ARM GAS  /tmp/cctxkxwm.s 			page 2


  26      362F1BA6 
  26      84CFEC30 
  26      678C
  27 009c 4A5FD27C 		.ascii	"J_\322|[4\267t\3128S\235{A\235(\355\375\027\317\177"
  27      5B34B774 
  27      CA38539D 
  27      7B419D28 
  27      EDFD17CF 
  28 00b1 E2E3EA71 		.ascii	"\342\343\352qC<\014\303\177G\214\213\206\351\261\207"
  28      433C0CC3 
  28      7F478C8B 
  28      86E9B187 
  29 00c1 2B4DC7F2 		.ascii	"+M\307\362\242\2562\335\003\335\025\"\255\277G\203\216"
  29      A2AE32DD 
  29      03DD1522 
  29      ADBF4783 
  29      8E
  30 00d2 1A47DA6A 		.ascii	"\032G\332j\224\236#\347\012M;\240\250\015\345o\323\007"
  30      949E23E7 
  30      0A4D3BA0 
  30      A80DE56F 
  30      D307
  31 00e4 2D4574D4 		.ascii	"-Et\324\312?q\351\325[\013r\335\020\334\214q%\"\001"
  31      CA3F71E9 
  31      D55B0B72 
  31      DD10DC8C 
  31      71252201 
  32 00f8 DD2C5FD6 		.ascii	"\335,_\326\253\305j\363\366x\377>\333<\255\237eO\350"
  32      ABC56AF3 
  32      F678FF3E 
  32      DB3CAD9F 
  32      654FE8
  33 010b 0FEF1868 		.ascii	"\017\357\030h\260"
  33      B0
  34              		.text
  35              		.section	.gnu.lto_.inline.7aa76a50f65f33d0,"",%progbits
  36 0000 789C7D50 		.ascii	"x\234}P\261\015\0021\014<'\206H\237<b\200\227\220h\330"
  36      B10D0231 
  36      0C3C2786 
  36      489F3C62 
  36      80979068 
  37 0015 26735166 		.ascii	"&sQf\000\012\326`\004\304\000T_\"1\006\361\345\011\024"
  37      000AD660 
  37      04C40054 
  37      5F223106 
  37      F1E50914 
  38 0029 88A438FB 		.ascii	"\210\2448\373|>;qp\370u\366\322\320C\343\004\212\326"
  38      7C3E3B71 
  38      70F875F6 
  38      D2D043E3 
  38      048AD6
  39 003c E75DD70A 		.ascii	"\347]\327\012V\233Z,\331\256O\024\210>p\211\"\260V7"
  39      569B5A2C 
  39      D9AE4F14 
  39      883E7089 
  39      22B05637 
  40 0050 DDAF09C3 		.ascii	"\335\257\011\303\355$\354q\261\322%\023j\253@i\236\004"
ARM GAS  /tmp/cctxkxwm.s 			page 3


  40      ED24EC71 
  40      B1D22513 
  40      6AAB4069 
  40      9E04
  41 0062 6E0ED051 		.ascii	"n\016\320Q\340\347\320\274H\225\034\266\024\031ge\223"
  41      E0E7D0BC 
  41      48951CB6 
  41      14196765 
  41      93
  42 0073 F55A0F9A 		.ascii	"\365Z\017\232\037\347\227\\\207\340+{\243\216\\\024"
  42      1FE7975C 
  42      87E02B7B 
  42      A38E5C14 
  43 0083 DC582DF8 		.ascii	"\334X-\370P\177\202\345Q\013\320\272\344\001\352\353"
  43      507F82E5 
  43      510BD0BA 
  43      E401EAEB 
  44 0093 68790684 		.ascii	"hy\006\204\343\241\375\306\013\366\013!>"
  44      E3A1FDC6 
  44      0BF60B21 
  44      3E
  45              		.text
  46              		.section	.gnu.lto_.pureconst.7aa76a50f65f33d0,"",%progbits
  47 0000 789C6362 		.ascii	"x\234cb`b`g\200\000f\006\011F).)\000\001\321\000f"
  47      60626067 
  47      80006606 
  47      0946292E 
  47      290001D1 
  48              		.text
  49              		.section	.gnu.lto_chprintf.7aa76a50f65f33d0,"",%progbits
  50 0000 789C8550 		.ascii	"x\234\205P\315J\002Q\024>\337\0355uc\333v\342\0034\213"
  50      CD4A0251 
  50      143EDF1D 
  50      357563DB 
  50      76E20334 
  51 0015 22E80D7A 		.ascii	"\"\350\015z\000\203Z\3058\216z\011\035\321Q\260\026"
  51      00835AC5 
  51      388E7A09 
  51      1DD151B0 
  51      16
  52 0026 5EC1C245 		.ascii	"^\301\302E\013ig\021)\321:\244\027\030\202\332DI\273"
  52      0B696711 
  52      29D13AA4 
  52      171882DA 
  52      4449BB
  53 0039 162D2497 		.ascii	"\026-$\227\265h\321*\202\351\336\031\024\372\201\016"
  53      B568D12A 
  53      82E9DE19 
  53      14FA810E 
  54 0049 DC7B7EBE 		.ascii	"\334{~\276s\276\363\303\210\321OY\220o\010\2425\251"
  54      73BEF3C3 
  54      88D14F59 
  54      906F08A2 
  54      35A9
  55 005b A11158F7 		.ascii	"\241\021X\367\236\250\025e\2002\010\324dhnB\245\262"
  55      9EA81565 
  55      803208D4 
ARM GAS  /tmp/cctxkxwm.s 			page 4


  55      64686E42 
  55      A5B2
  56 006d 140D84DB 		.ascii	"\024\015\204\333\035_O\036\321\023n\273/>=\017\340\220"
  56      1D5F4F1E 
  56      D1136EBB 
  56      2F3E3D0F 
  56      E090
  57 007f B42B2013 		.ascii	"\264+ \023\264!\035$}\305B\337\373\250Z\321uOon!\016"
  57      B4211D24 
  57      7DC542DF 
  57      FBA85AD1 
  57      754F6F6E 
  58 0095 45EBCDF3 		.ascii	"E\353\315\363\022\034\032\243\325\377\012/\230\373\354"
  58      121C1AA3 
  58      D5FF0A2F 
  58      98FBEC
  59 00a4 794FC3F7 		.ascii	"yO\303\367\203W\364XLC\021\024\222\037\"d\340\014)\225"
  59      8357F458 
  59      4C431114 
  59      921F2264 
  59      E00C2995 
  60 00b8 13A6B624 		.ascii	"\023\246\266$O\032\030H\177\0325\375\241\323\362W\233"
  60      4F1A1848 
  60      7F1A35FD 
  60      A1D3F257 
  60      9B
  61 00c9 AC8329AD 		.ascii	"\254\203)\255\215ho\3343\015\234#,\321]\372\020\035"
  61      8D686FDC 
  61      330D9C23 
  61      2CD15DFA 
  61      101D
  62 00db 31CF1132 		.ascii	"1\317\0212\341\247\313\310\016Gx\312\344g\251\2514\""
  62      E1A7CBC8 
  62      0E4778CA 
  62      E467A9A9 
  62      3422
  63 00ed 2E3BD288 		.ascii	".;\322\210\366\307G\223x\200\344\021\231\021\314\231"
  63      F6C74793 
  63      7880E411 
  63      9911CC99 
  64 00fd 088E9B87 		.ascii	"\010\216\233\207\226G( \340\210\252\222\366\370\370"
  64      96472820 
  64      E088AA92 
  64      F6F8F8
  65 010c 77C798A9 		.ascii	"w\307\230\251H\377\356\310\021'\272\243\253\027\026"
  65      48FFEEC8 
  65      1127BAA3 
  65      AB1716
  66 011b 04027099 		.ascii	"\004\002p\231.EG\235[\312\003\265\372'\332l\214\340"
  66      2E45479D 
  66      5BCA03B5 
  66      FA27DA6C 
  66      8CE0
  67 012d 5469B983 		.ascii	"Ti\271\203\334Q\315\261\244\027\354\242\245\233v\266"
  67      DC51CDB1 
  67      A417ECA2 
  67      A59B76B6 
ARM GAS  /tmp/cctxkxwm.s 			page 5


  68 013d A167ADBA 		.ascii	"\241g\255\272n\026x\206\333U\335\251\324J\333\2724\352"
  68      6E167886 
  68      DB55DDA9 
  68      D44ADBBA 
  68      34EA
  69 014f 4685DBB5 		.ascii	"F\205\333\265\252\004\312\025^rr\213\005bF9\221\263"
  69      AA04CA15 
  69      5E72728B 
  69      05624639 
  69      91B3
  70 0161 2B45C371 		.ascii	"+E\303q\254\354V\246\341X\325/\251H\201#"
  70      ACEC56A6 
  70      E158D52F 
  70      A9488123 
  71              		.text
  72              		.section	.gnu.lto_sensorThread.7aa76a50f65f33d0,"",%progbits
  73 0000 789C9D57 		.ascii	"x\234\235Wkl\024U\024\276g\3661\273\333\355\203\322"
  73      6B6C1455 
  73      14BE67F6 
  73      31BBDBED 
  73      83D2
  74 0012 D6823C5A 		.ascii	"\326\202<Zj\261\264\265\333\226G\225\026\001\001\245"
  74      6AB1B4B5 
  74      DB964795 
  74      160101A5 
  75 0022 090D46DA 		.ascii	"\011\015F\332D\342\017\262L\327\355\304.%\335\225\210"
  75      44E20FB2 
  75      4CD7EDC4 
  75      2E25DD95 
  75      88
  76 0033 9830650B 		.ascii	"\2300e\013\026E\334`\321* 4\206\020%J\014A!\001Y\036"
  76      1645DC60 
  76      D12A2034 
  76      8610254A 
  76      0C412101 
  77 0049 5A7E8848 		.ascii	"Z~\210Hb\302CbJ\010\010\202DC\014\017\221\365\334\307"
  77      62C24362 
  77      4A080882 
  77      44430C0F 
  77      91F5DCC7 
  78 005d CC4ED90D 		.ascii	"\314N\331\015\2730\311\336;{\346\234\357|\347\334s\317"
  78      BB30C9DE 
  78      3B7BE69C 
  78      EF7CE7DC 
  78      73CF
  79 006f 9D918844 		.ascii	"\235\221\210D\356\277\226\343O\312&\3444\316\220A@\212"
  79      EEBF96E3 
  79      4FCA26E4 
  79      34CE9041 
  79      408A
  80 0081 FC444897 		.ascii	"\374DH\227C\002'\277\261H\326_\012\210\346\262\355\257"
  80      430227BF 
  80      B148D65F 
  80      0A88E6B2 
  80      EDAF
  81 0093 239ADB0A 		.ascii	"#\232\333\0126.\266Iv&\226\231\330\016\016.\226\365"
  81      362EB649 
ARM GAS  /tmp/cctxkxwm.s 			page 6


  81      76269699 
  81      D80E0E2E 
  81      96F5
  82 00a5 1B07B73F 		.ascii	"\033\007\267?\344pJ\226u\003\0045]\3352j\272\000\250"
  82      E4704A96 
  82      75030435 
  82      5DDD326A 
  82      BA00A8
  83 00b8 9C005929 		.ascii	"\234\000Y)Y\2546\273\354p\272`\345B\240Tl\343H\277\246"
  83      59AC36BB 
  83      EC70BA60 
  83      E542A054 
  83      6CE348BF 
  84 00cd 45062FDE 		.ascii	"E\006/\336\270,\355\356\215vo\323\356\306b\000* \355"
  84      B82CEDEE 
  84      8D766FD3 
  84      EEC66200 
  84      2A20ED
  85 00e0 E1401420 		.ascii	"\341@\024 /\343\037(b\223d\035\032\007\263\355\213\336"
  85      2FE31F28 
  85      6293641D 
  85      1A07B3ED 
  85      8BDE
  86 00f2 FEF31868 		.ascii	"\376\363\030h\033\264\256\277b\261l\025,\022\031\223"
  86      1BB4AEBF 
  86      62B16C15 
  86      2C121993 
  87 0102 96E186E8 		.ascii	"\226\341\206\350\251\037\336\037\241m[\025\321\356\241"
  87      A91FDE1F 
  87      A16D5B15 
  87      D1EEA1
  88 0111 4F15AC12 		.ascii	"O\025\254\022\031\237\226e$\332;\340\216t\365h\261\330"
  88      199F9665 
  88      24DA3BE0 
  88      8E74F568 
  88      B1D8
  89 0123 4AE6D093 		.ascii	"J\346\320\223\216Y4\022\375p`\204a\206\001NIe\266K\212"
  89      8E593412 
  89      FD706084 
  89      6186014E 
  89      4965B64B 
  90 0138 0EC6629B 		.ascii	"\016\306b\233wE\276\227\236\005\342\205\3550\016\315"
  90      7745BE97 
  90      9E05E285 
  90      ED300ECD 
  91 0148 F86C8700 		.ascii	"\370l\207\000\020'Q\301\226\205\203=\007\0079\227\016"
  91      102751C1 
  91      9685833D 
  91      07073997 
  91      0E
  92 0159 7938380A 		.ascii	"y88\012pp\026\342\340*\302!\243X\030\225\340\037w)\035"
  92      707016E2 
  92      E02AC221 
  92      A3581895 
  92      E01F7729 
  93 016e CA50B203 		.ascii	"\312P\262\003%\023\360\017)\307!\263\002%\375(\251\244"
  93      2513F00F 
ARM GAS  /tmp/cctxkxwm.s 			page 7


  93      29C721B3 
  93      0225FD28 
  93      A9A4
  94 0180 7FAAA84E 		.ascii	"\177\252\250N5\035j\3500\025\274\360\031>\253\307?\326"
  94      351D6AE8 
  94      3015BCF0 
  94      193EABC7 
  94      3FD6
  95 0192 063A4CA3 		.ascii	"\006:L\243\003]@\322\215\011)\342\217\271\023B\243\302"
  95      035D40D2 
  95      8D0929E2 
  95      8FB91342 
  95      A3C2
  96 01a4 AB19472C 		.ascii	"\253\031G,\200\026\220p\262\034'\253\366\336\372\255"
  96      80169070 
  96      B21C27AB 
  96      F6DEFAAD 
  97 01b4 C00B3BC1 		.ascii	"\300\013;\301F*\310\027\032^uHm\023\371\004#\317\362"
  97      462AC817 
  97      1A5E7548 
  97      6D13F904 
  97      23CFF2
  98 01c7 839D6620 		.ascii	"\203\235f \233\305\275\030x\374T\222A\357\321\370N\370"
  98      9BC5BD18 
  98      78FC5492 
  98      41EFD1F8 
  98      4EF8
  99 01d9 E605895B 		.ascii	"\346\005\211[\373\301\271\202\274\211\221\013\230\215"
  99      FBC1B982 
  99      BC89910B 
  99      988D
 100 01e7 A89623EE 		.ascii	"\250\226#\356\227\2530,9$\210\331\264\037N\220\356h"
 100      97AB302C 
 100      392488D9 
 100      B41F4E90 
 100      EE68
 101 01f9 25C72464 		.ascii	"%\307$d\005\271\243\365h9*\344*B\027\375\2500\\x\217"
 101      05B9A3F5 
 101      68392AE4 
 101      2A4217FD 
 101      A8305C78 
 102 020e FD0A5C13 		.ascii	"\375\012\\\023\321\2734\252\227gX\344\007\230\005\365"
 102      D1BB34AA 
 102      976758E4 
 102      079805F5 
 103 021e 96CF2CF9 		.ascii	"\226\317,\371\023\255\036\225\002\302\341\011\262z\333"
 103      13AD1E95 
 103      02C2E109 
 103      B27ADB
 104 022d 5A4B82B3 		.ascii	"ZK\202\263\002E<\247\022\207\012\217\005@W\242\222B"
 104      02453CA7 
 104      12870A8F 
 104      054057A2 
 104      9242
 105 023f 150A0360 		.ascii	"\025\012\003`\025\022\025Fp\240w\322\002\262=\030\210"
 105      15121546 
 105      70A077D2 
ARM GAS  /tmp/cctxkxwm.s 			page 8


 105      02B23D18 
 105      88
 106 0250 85F5EDBA 		.ascii	"\205\365\355\2722=\251Y,\251v\221\310\240\012#\223'"
 106      323DA959 
 106      2CA97691 
 106      C8A00A23 
 106      9327
 107 0262 D2624EE0 		.ascii	"\322bN\340\232hY\002\225\307\025\241\3030\357gC\241"
 107      9A685902 
 107      95C715A1 
 107      C330EF67 
 107      43A1
 108 0274 46CD450A 		.ascii	"F\315E\012\243\005\205}n\235A\016c \307\031\214I\316"
 108      A305857D 
 108      6E9D410E 
 108      6320C719 
 108      8C49CE
 109 0287 C09A8AC1 		.ascii	"\300\232\212\301XE\3500\314\244\014f \203\"\301\340"
 109      5845E830 
 109      CCA40C66 
 109      208322C1 
 109      E0
 110 0298 80C12037 		.ascii	"\200\301 7M\006\266\207`\220\233\270\264\011\014\316"
 110      4D06B687 
 110      60909BB8 
 110      B4090CCE 
 111 02a8 1B0CF218 		.ascii	"\033\014\362\030\003G\234Aqr\006\366T\014\306)\202\245"
 111      03479C41 
 111      717206F6 
 111      540CC629 
 111      82A5
 112 02ba 9F576A92 		.ascii	"\237Wj\222\034,C\006%\202\301E\203A\001c\340\2143x\""
 112      1C2C4306 
 112      2582C145 
 112      83410163 
 112      E08C3378 
 113 02cf 3903D9CC 		.ascii	"9\003\331\314\340\355$\014J\025\301\222a&\315\301h>"
 113      E0ED240C 
 113      4A15C192 
 113      6126CDC1 
 113      683E
 114 02e1 8D4122E3 		.ascii	"\215A\"\343\005\221+\006\221BF\304\025'\362dr\"\216"
 114      05912B06 
 114      914246C4 
 114      1527F264 
 114      72228E
 115 02f4 54A92853 		.ascii	"T\251(S\004Y\206\231\224\010M\305\004\266\271\0067\207"
 115      04598699 
 115      94084DC5 
 115      04B6B906 
 115      3787
 116 0306 B31310CA 		.ascii	"\263\023\020\312\025\341\005\227\223\351g\240~\005\327"
 116      15E10597 
 116      93E967A0 
 116      7E05D7
 117 0315 DF12CE4A 		.ascii	"\337\022\316J\320\257T\300i\326\307.\246\302S\254\343"
 117      D0AF54C0 
ARM GAS  /tmp/cctxkxwm.s 			page 9


 117      69D6C72E 
 117      A6C253AC 
 117      E3
 118 0326 0C7E7A41 		.ascii	"\014~zAN\320\257R\300\305\364\251\262\365\262\214\332"
 118      4ED0AF52 
 118      C0C5F4A9 
 118      B2F5B28C 
 118      DA
 119 0337 1E8EBE35 		.ascii	"\036\216\2765\035t\302\3211\177\373\372\376\370\331"
 119      1D74C2D1 
 119      317FFBFA 
 119      FEF8D9
 120 0346 32A4C92E 		.ascii	"2\244\311.\300\006\037\357\267)\232#\207\035I>\326h"
 120      C0061FEF 
 120      B7299A23 
 120      871D493E 
 120      D668
 121 0358 B82A131F 		.ascii	"\270*\023\037'\207\317\336\335z\264V\264z\275\347G\277"
 121      2787CFDE 
 121      DD7AB456 
 121      B47ABDE7 
 121      47BF
 122 036a EC3D87DB 		.ascii	"\354=\207\333\234\373R(\007\312\247\236\272\352\356"
 122      9CFB5228 
 122      07CAA79E 
 122      BAEAEE
 123 0379 1A8CF5F7 		.ascii	"\032\214\365\367\216T\241\2326\313\010\245\\C\275\325"
 123      8E54A19A 
 123      36CB08A5 
 123      5C43BDD5 
 124 0389 52125616 		.ascii	"R\022V\026c\255p\350\242\010\027\342\373\251\005[\007"
 124      63AD70E8 
 124      A20817E2 
 124      FBA9055B 
 124      07
 125 039a BE3CE071 		.ascii	"\276<\340q\021\3569\362\356\251~\233q\300\354`\007\314"
 125      11EE39F2 
 125      EEA97E9B 
 125      71C0EC60 
 125      07CC
 126 03ac E7EC80D1 		.ascii	"\347\354\200\3213\202\016\213\375 Q\300\211\227e\302"
 126      33820E8B 
 126      FD2051C0 
 126      899765C2 
 127 03bc F3BB2B9C 		.ascii	"\363\273+\234\341\205KC36I\001\267\221_\266\030\223"
 127      E1854B43 
 127      33364901 
 127      B7915FB6 
 127      1893
 128 03ce F553E5BD 		.ascii	"\365S\345\275\006\256\355\207\022Von\221\254\377 \236"
 128      06AEED87 
 128      12566F6E 
 128      91ACFF20 
 128      9E
 129 03df B8BF2165 		.ascii	"\270\277!e\3462\314E\270:\332\220@a\212\002\231b\321"
 129      E632CC45 
 129      B83ADA90 
ARM GAS  /tmp/cctxkxwm.s 			page 10


 129      40618A02 
 129      9962D1
 130 03f2 10A34485 		.ascii	"\020\243D\205:\301`\347\372Wt\006\245C\030\234\264\307"
 130      3AC160E7 
 130      FA577406 
 130      A543189C 
 130      B4C7
 131 0404 19ECB1A7 		.ascii	"\031\354\261\247\271v\006\203\261\011\014\236V K/\033"
 131      B9760683 
 131      B1090C9E 
 131      56204B2F 
 131      1B
 132 0415 F4A5C233 		.ascii	"\364\245\3023\274\304~\014\273t\002ef\345l]\231\012"
 132      BCC47E0C 
 132      BB740265 
 132      66E56C5D 
 132      990A
 133 0427 F1FA1A9D 		.ascii	"\361\372\032\235\272\371\022\010l\006q\214\034\375\375"
 133      BAF91208 
 133      6C06718C 
 133      1CFDFD
 134 0436 D096814C 		.ascii	"\320\226\201L\003\203\222\233JLW\013\366\302\023y\364"
 134      0383929B 
 134      4A4C570B 
 134      F6C21379 
 134      F4
 135 0447 15E0ECAD 		.ascii	"\025\340\354\255\033\321Q\272\342\204\012R\036\217\360"
 135      1BD151BA 
 135      E2840A52 
 135      1E8FF0
 136 0456 9FF42344 		.ascii	"\237\364#D\240\353\341o@\307)\367\323\255\213\302F]"
 136      A0EBE16F 
 136      40C729F7 
 136      D3AD8BC2 
 136      465D
 137 0468 52A1170A 		.ascii	"R\241\027\012\325\264\350\322J?\337\262rBf\352\025\310"
 137      D5B4E8D2 
 137      4A3FDFB2 
 137      724266EA 
 137      15C8
 138 047a 61C8E2E0 		.ascii	"a\310\342\340>\010\374\344\026\212T\332\247i\267Q\332"
 138      3E08FCE4 
 138      168A54DA 
 138      A769B751 
 138      DA
 139 048b 30861C81 		.ascii	"0\206\034\201-Z\337\014\025\246\351Y`\014*UxV\217\326"
 139      2D5ADF0C 
 139      15A6E959 
 139      600C2A55 
 139      78568FD6 
 140 049f 264A1817 		.ascii	"&J\030\027\367\352z\243\274\252\206,\356\007\246\305"
 140      F7EA7AA3 
 140      BCAA862C 
 140      EE07A6C5 
 141 04af BD99BABC 		.ascii	"\275\231\272\274\334\251\312\313\264\2709\350\213\255"
 141      DCA9CACB 
 141      B4B839E8 
ARM GAS  /tmp/cctxkxwm.s 			page 11


 141      8BAD
 142 04bd 0C63F0EF 		.ascii	"\014c\360\357\372\371:\203\352!\014v\233\030|\224:\371"
 142      FAF93A83 
 142      EA210C76 
 142      9B187C94 
 142      3AF9
 143 04cf 9971060C 		.ascii	"\231q\006\014\367;I\207\255\031\002\273I\216\303\306"
 143      F73B4987 
 143      AD1902BB 
 143      498EC3C6 
 144 04df 52C36699 		.ascii	"R\303f\231\003[\023\235\237\020\330t\005\206\211\300"
 144      035B139D 
 144      9F10D874 
 144      058689C0 
 145 04ef F2300474 		.ascii	"\3620\004t\247\302\014^\270W\302\271\011\3523\025\310"
 145      A7C20C5E 
 145      B857C2B9 
 145      09EA3315 
 145      C8
 146 0500 15EA05AC 		.ascii	"\025\352\005\254S\323\315\376\034;\242\006\257\353\205"
 146      53D3CDFE 
 146      1C3BA206 
 146      AFEB85
 147 050f 6ED29FA5 		.ascii	"n\322\237\245\320W<b\2747\315\016\200\335\264\354\370"
 147      D0573C62 
 147      BC37CD0E 
 147      80DDB4EC 
 147      F8
 148 0520 DE342700 		.ascii	"\3364'\000\262I\202\345\261\011q\237\017\200CH\251\233"
 148      B24982E5 
 148      B109719F 
 148      0F804348 
 148      A99B
 149 0532 176AD1CD 		.ascii	"\027j\321\315\\\336\200\356\244l@Do@\017\356\254\227"
 149      5CDE80EE 
 149      A46C4044 
 149      6F400FEE 
 149      AC97
 150 0544 CC9DB5E1 		.ascii	"\314\235\265\341Q:kDbm\022\267\350\245\363\027\357\235"
 150      513A6B44 
 150      626D12B7 
 150      E8A5F317 
 150      EF9D
 151 0556 36B60C76 		.ascii	"6\266\014v\315\006\363\376\264\323\375I\271\337\245"
 151      CD06F3FE 
 151      B4D3FD49 
 151      B9DFA5
 152 0565 87DF7DDC 		.ascii	"\207\337}\334\361p\312\023)-f\347\022\267\221\311\201"
 152      F170CA13 
 152      292D66E7 
 152      12B791C9 
 152      81
 153 0576 5ACB4385 		.ascii	"Z\313C\2050\355QB\330(\231\016\007\207\330Y\207\257"
 153      30ED5142 
 153      D828990E 
 153      0787D859 
 153      87AF
ARM GAS  /tmp/cctxkxwm.s 			page 12


 154 0588 8AEAE31B 		.ascii	"\212\352\343\033}\022\331\255\365\200*>\033\316\020"
 154      7D12D9AD 
 154      F5802A3E 
 154      1BCE10
 155 0597 40A6F6AF 		.ascii	"@\246\366\257\316\255\311G\237\362\265\203{\201\332"
 155      CEADC947 
 155      9FF2B583 
 155      7B81DA
 156 05a6 3A097E86 		.ascii	":\011~\206\262&\324w\365\230\361)Q\304\232\320\003?"
 156      B226D477 
 156      F598F129 
 156      51C49AD0 
 156      033F
 157 05b8 4368FEBA 		.ascii	"Ch\376\272\257uM6L\304\032\352\327\031\"\341\301'\355"
 157      AF754D36 
 157      4CC41AEA 
 157      D71922E1 
 157      C127ED
 158 05cb DFF3961F 		.ascii	"\337\363\226\037\300\301|\271\350'\317I\3225\270v;\350"
 158      C0C17CB9 
 158      E827CF49 
 158      D235B876 
 158      3BE8
 159 05dd 66A22536 		.ascii	"f\242%6c\351w\313\364]='\350[\022\354\350\\\024j\353"
 159      63E977CB 
 159      F45D3D27 
 159      E85B12EC 
 159      E85C146A 
 160 05f2 F4795BAB 		.ascii	"\364y[\253\024\342\012\371\002K\353\252k\253\253\252"
 160      14E20AF9 
 160      024BEBAA 
 160      6BABABAA 
 161 0602 E5802F18 		.ascii	"\345\200/\030\364\372}\216V|\324\256.\361\331\325\266"
 161      F4FA7D8E 
 161      567CD4AE 
 161      2EF1D9D5 
 161      B6
 162 0613 60C81B72 		.ascii	"`\310\033r\350*\263<m\035\001\237G\351h]\356i\365-\363"
 162      E82AB33C 
 162      6D1D019F 
 162      47E9685D 
 162      EE69F52D 
 163 0628 286DEA62 		.ascii	"(m\352b\265#\350\011u\276\276\3445\017\336\264y\333"
 163      B523E809 
 163      75BEBEE4 
 163      350FDEB4 
 163      79DB
 164 063a 3D4B3B3A 		.ascii	"=K;:CA\317\202\346\246\211\265\236y\363f{\232\033\233"
 164      4341CF82 
 164      E6A689B5 
 164      9E79F366 
 164      7B9A1B9B 
 165 064e 96D57882 		.ascii	"\226\325x\202\241E\355\355\255Umdz*\214\316\220\200"
 165      A145EDED 
 165      AD556D64 
 165      7A2A8CCE 
 165      9080
ARM GAS  /tmp/cctxkxwm.s 			page 13


 166 0660 98F952D3 		.ascii	"\230\371R\323\254\2467PA\351\350\364-\012\251\001_'"
 166      ACA63750 
 166      41E9E8F4 
 166      2D0AA901 
 166      5F27
 167 0672 DAE7CF6D 		.ascii	"\332\347\317mij\234\335\330\274pj\351\253E\315s\232"
 167      696A9CDD 
 167      D8BC706A 
 167      E9AB45CD 
 167      739A
 168 0684 5EC4D945 		.ascii	"^\304\331E\376\007\310\262\300!"
 168      FE07C8B2 
 168      C021
 169              		.text
 170              		.section	.gnu.lto_sensorThreadStop.7aa76a50f65f33d0,"",%progbits
 171 0000 789C6362 		.ascii	"x\234cb`b@\007\222@<\003\210\205\200\230\221\231\201"
 171      60624007 
 171      92403C03 
 171      88858098 
 171      919981
 172 0013 9169C239 		.ascii	"\221i\3029\006\206F\016&FF\020\203\201\221\241\236\211"
 172      0686460E 
 172      26464610 
 172      838191A1 
 172      9E89
 173 0025 B13E9211 		.ascii	"\261>\222\021\254v=\323\201\007\377\377\257\333pj\301"
 173      AC763DD3 
 173      8107FFFF 
 173      AFDB706A 
 173      C1
 174 0036 2C462616 		.ascii	",F&\026&\306\\\2600+CKC\303\004\005\006\206d07\004H"
 174      26C65CB0 
 174      302B434B 
 174      43C30405 
 174      06866430 
 175 004d 82B48632 		.ascii	"\202\264\20622\201h\346\263\014M;v,{\311\224\310\270"
 175      328168E6 
 175      B30C4D3B 
 175      762C7BC9 
 175      94C8B8
 176 0060 90919541 		.ascii	"\220\221\225A\233aU\003\020\230g22\314f\230\305\230"
 176      9B615503 
 176      10986732 
 176      32CC6698 
 176      C598
 177 0072 C9C898CE 		.ascii	"\311\310\230\316\310\024\001\244!.K\202X\304\000\022"
 177      C81401A4 
 177      212E4B82 
 177      58C40012 
 178 0082 01332E32 		.ascii	"\0013.24>\230\245\012\321\013\003!\214\214 \223A:\004"
 178      343E98A5 
 178      0AD10B03 
 178      218C8C20 
 178      93413A04 
 179 0096 8A53F38A 		.ascii	"\212S\363\212\363\213\342K2\212R\023S\364\222\031\000"
 179      F38BE24B 
 179      328A5213 
ARM GAS  /tmp/cctxkxwm.s 			page 14


 179      53F49219 
 179      00
 180 00a7 943E2C2D 		.ascii	"\224>,-"
 181              		.text
 182              		.section	.gnu.lto_.symbol_nodes.7aa76a50f65f33d0,"",%progbits
 183 0000 789C45CC 		.ascii	"x\234E\314\271R\002A\024\205\341\323g\030\\Pv\305\235"
 183      B9520241 
 183      1485E1D3 
 183      67185C50 
 183      76C59D
 184 0013 2723F005 		.ascii	"'#\360\005|\205\213\214\002\202\270\341\276\220\364"
 184      7C858B8C 
 184      0282B8E1 
 184      BE90F4
 185 0022 73184DAE 		.ascii	"s\030M\256\201U\232jMjL\250N\367P\336I\376\363\335\251"
 185      81559A6A 
 185      4D6A4CA8 
 185      4EF750DE 
 185      49FEF3DD 
 186 0037 6A82D823 		.ascii	"j\202\330#\262\217\277F\200\263\027@d\324\337\345\001"
 186      B28FBF46 
 186      80B31740 
 186      64D4DFE5 
 186      01
 187 0048 C5CC38E9 		.ascii	"\305\3148\351\233\260\315\271\234\004a\217\001\004\341"
 187      9BB0CDB9 
 187      9C04618F 
 187      0104E1
 188 0057 11732EFB 		.ascii	"\021s.\373\314\273\343\200\241\323}\372T\232\016\215"
 188      CCBBE380 
 188      A1D37DFA 
 188      549A0E8D 
 189 0067 3B46641A 		.ascii	";Fd\032\036R\250\317\230\011%\310\330n\033\363D\311"
 189      1E52A8CF 
 189      980925C8 
 189      D86E1BF3 
 189      44C9
 190 0079 A91E29A1 		.ascii	"\251\036)\241\352\201\222W\215)s\252;\312\274\352\226"
 190      EA819257 
 190      8D2973AA 
 190      3BCABCEA 
 190      96
 191 008a B2A0BAA1 		.ascii	"\262\240\272\241,\252\256(\005\3255eIuIYV\235S\212\252"
 191      2CAAAE28 
 191      05D53565 
 191      49754959 
 191      569D538A 
 192 009f 0B4A4975 		.ascii	"\013JIuF)\253N)\025\325\011\245\252\032Qj\252cJ]5\244"
 192      4629AB4E 
 192      2915D509 
 192      A5AA1A51 
 192      6AAA634A 
 193 00b6 ACA8FA94 		.ascii	"\254\250\372\224UU\227\322\370W\200eD\237?i\227`}\013"
 193      555597D2 
 193      F8578065 
 193      449F3F69 
 193      97607D0B 
ARM GAS  /tmp/cctxkxwm.s 			page 15


 194 00ca 885D4D73 		.ascii	"\210]Ms\326\035D_Y\255\3576\022\337-\330\356w\3235\361"
 194      D61D445F 
 194      59ADEF36 
 194      12DF2DD8 
 194      EE77D335 
 195 00df DD84EDB9 		.ascii	"\335\204\355\271n \361]\207\035\270\256!\366]E\342\333"
 195      6E20F15D 
 195      871DB8AE 
 195      21F65D45 
 195      E2DB
 196 00f1 4034CC6C 		.ascii	"@4\314l}K\260/\277\317a`V\220d\243\006\373\352G\035"
 196      7D4BB02F 
 196      BFCF6160 
 196      569064A3 
 196      06FBEA47 
 197 0106 713680CE 		.ascii	"q6\200\316x\332r\177\3427\177\250\302\276\373QA\234"
 197      78DA727F 
 197      E2377FA8 
 197      C2BEFB51 
 197      419C
 198 0118 8D32926C 		.ascii	"\2152\222l\224\020}\370QDr3m\341\017\234Z\267q"
 198      94107DF8 
 198      51447233 
 198      6DE10F9C 
 198      5AB771
 199              		.text
 200              		.section	.gnu.lto_.refs.7aa76a50f65f33d0,"",%progbits
 201 0000 789C6362 		.ascii	"x\234cb`bPf\200\000\001FF&&f&\026&V&60f\003\262A\230"
 201      60625066 
 201      80000146 
 201      46262666 
 201      26162656 
 202 001c 0528CACE 		.ascii	"\005(\312\316\304\301\304\311\000\000\020\007\000\252"
 202      C4C1C4C9 
 202      00001007 
 202      00AA
 203              		.text
 204              		.section	.gnu.lto_.decls.7aa76a50f65f33d0,"",%progbits
 205 0000 789CBD7D 		.ascii	"x\234\275}\011\224\024E\326nf\326\322U\320\"\240\":"
 205      09941445 
 205      D66E66D6 
 205      D255D022 
 205      A0223A
 206 0013 CE58F3CF 		.ascii	"\316X\363\317\314{\236Y\244\273Ae6\005\273A\231_\204"
 206      CC7B9E59 
 206      A4BB4165 
 206      3605BB41 
 206      995F84
 207 0026 D7DDCEAF 		.ascii	"\327\335\316\257\363\3369e\322]@\317\364fU5\342\373"
 207      F3DE3965 
 207      D25D40CF 
 207      F4665535 
 207      E2FB
 208 0038 FF734C40 		.ascii	"\377sL@\033\027\304f_eQ\020\001Q\032d\337\012\220\006"
 208      1B17C466 
 208      5F655110 
 208      01511A64 
ARM GAS  /tmp/cctxkxwm.s 			page 16


 208      DF0A9006 
 209 004c 41A0A101 		.ascii	"A\240\241\001\201\006iPP\020\021D\266n\240\337\215\033"
 209      81066950 
 209      50101144 
 209      B66EA0DF 
 209      8D1B
 210 005e 99551159 		.ascii	"\231U\021Y\231Y\231\245\377\253s\342fTV\306\0277n\334"
 210      995999A5 
 210      FFAB73E2 
 210      665456C6 
 210      17376EDC 
 211 0072 B87163C9 		.ascii	"\270qc\311(I\220\204\227\\\202\320\012\237\363K\004"
 211      28499084 
 211      975C82D0 
 211      0A9FF34B 
 211      04
 212 0083 61614741 		.ascii	"aaGAp\013\202\3600\204\333\004\032\237\015a\016\204"
 212      700B82F0 
 212      3084DB04 
 212      1A9F0D61 
 212      0E84
 213 0095 E3107E2F 		.ascii	"\343\020~/\011\302\021\270v\201\353\177\212\202p\010"
 213      09C211B8 
 213      7681EB7F 
 213      8A827008 
 214 00a5 AEE72064 		.ascii	"\256\347 d\000\3062\010\313!\254\204\260\024\356m\204"
 214      00C63208 
 214      CB21AC84 
 214      B014EE6D 
 214      84
 215 00b6 6B1FB80E 		.ascii	"k\037\270\016\200P\007\317\222Og\010\373\340\3769\010"
 215      805007CF 
 215      924F6708 
 215      FBE0FE39 
 215      08
 216 00c7 1721FC09 		.ascii	"\027!\374\0112\3703\204>\020\376\006\341I\010\371\020"
 216      32F83384 
 216      3E10FE06 
 216      E14908F9 
 216      10
 217 00d8 9E811084 		.ascii	"\236\201\020\2040\020B)\204r\010Q\010/@\370O\010\012"
 217      30104229 
 217      84720851 
 217      082F40F8 
 217      4F080A
 218 00eb 84911046 		.ascii	"\204\221\020FC\030\017a*\204Y\020\346B\360A\036\363"
 218      43180F61 
 218      2A845910 
 218      E642F041 
 218      1EF3
 219 00fd E1BA10C2 		.ascii	"\341\272\020\302\007\020\026CX\002\341#\010\313!\254"
 219      07101643 
 219      5802E123 
 219      08CB21AC 
 220 010d 720BDC87 		.ascii	"r\013\334\207\360\323\026\256=\340~;\270f\252\345^\003"
 220      F0D316AE 
 220      3DE07E3B 
ARM GAS  /tmp/cctxkxwm.s 			page 17


 220      B866AAE5 
 220      5E03
 221 011f 640384B5 		.ascii	"d\003\204\265\020b\020\376\002a#\204Mjz\267\232\266"
 221      106210FE 
 221      02612384 
 221      4D6A7AB7 
 221      9AB6
 222 0131 8F5A0652 		.ascii	"\217Z\006R\026(\252p\032\356}\343\342\363 \345\355\003"
 222      1628AA70 
 222      1AEE7DE3 
 222      E2F320E5 
 222      ED03
 223 0143 D7FB8544 		.ascii	"\327\373\205D\0365\"\225\323\026\270>\007iK \014\200"
 223      1E352295 
 223      D316B83E 
 223      07694B20 
 223      0C80
 224 0155 F07F208C 		.ascii	"\360\177 \214pS\271?\010!\013\302\025H\177\331E\345"
 224      7053B93F 
 224      08210BC2 
 224      15487FD9 
 224      45E5
 225 0167 28C26F1F 		.ascii	"(\302o\037Cx\327M\345\276\005\256u\356\204\254g\273"
 225      4378D74D 
 225      E5BE05AE 
 225      75EE84AC 
 225      67BB
 226 0179 691D6C75 		.ascii	"i\035lu\323:\232\346\246u\264\015\256\023\334\264\316"
 226      D33A9AE6 
 226      A675B40D 
 226      AE13DCB4 
 226      CE
 227 018a 3E81EB9B 		.ascii	">\201\353\233nZ\217\333\341\372\212\233\326\327\016"
 227      6E5A8FDB 
 227      E1FA8A9B 
 227      D6D70E
 228 0199 B80E83F0 		.ascii	"\270\016\203\360)\204\377\202\260\023B\025\204]\020"
 228      2984FF82 
 228      B0134215 
 228      845D10
 229 01a8 FE1D4223 		.ascii	"\376\035B#\340\355\206\353\015\2227\360u\023\256\375"
 229      E0ED86EB 
 229      0D9237F0 
 229      7513AEFD 
 230 01b8 20B442A8 		.ascii	" \264B\250 \002\361\010\302 \270z!*z\022:\261\037\202"
 230      2002F108 
 230      C220B87A 
 230      212A7A12 
 230      3AB11F82 
 231 01cc 04DF9F85 		.ascii	"\004\337\237\205\337\\p\375\007\\\335\236d\275*\200"
 231      DF5C70FD 
 231      075CDD9E 
 231      64BD2A80 
 232 01dc FBB7125C 		.ascii	"\373\267\022\\\027\025\260\027\302\003\020\272B\310"
 232      1715B017 
 232      C20310BA 
 232      42C8
ARM GAS  /tmp/cctxkxwm.s 			page 18


 233 01ea 26FC42F8 		.ascii	"&\374B\370\003\204\337A\350\004\341\013\010m t\206p"
 233      0384DF41 
 233      E804E10B 
 233      086D2074 
 233      8670
 234 01fc 3BA93F08 		.ascii	";\251?\010w\250\362\236\253\352\304TUGF\253:\243\250"
 234      77A8F29E 
 234      ABEAC454 
 234      554746AB 
 234      3AA3A8
 235 020f 3AA4E993 		.ascii	":\244\351\223\307C\365\256\234\3217R\257AU\017\363U"
 235      C743F5AE 
 235      9CD13752 
 235      AF41550F 
 235      F355
 236 0221 DDF403EE 		.ascii	"\335\364\003\356y\027\325\037M\247\226\253z\305\352"
 236      7917D51F 
 236      4DA796AB 
 236      7AC5EA
 237 0230 1BFB213A 		.ascii	"\033\373!:\356R\333\220V\207\242Z>Q\375\235\\\273\353"
 237      EE52DB90 
 237      5687A25A 
 237      3E51FD9D 
 237      5CBBEB
 238 0243 D2F98491 		.ascii	"\322\371\204\221\2122\\izY\031&>'\010O\213\262\330\316"
 238      8A325C69 
 238      7A591926 
 238      3E27084F 
 238      8BB2D8CE 
 239 0257 0F774924 		.ascii	"\017wI$\323\217I~#\314Q\024\245FQ$Y\234-\372@\365$Q"
 239      D38F497E 
 239      23CC5114 
 239      A5465124 
 239      599C2DFA 
 240 026f 30FCD0DF 		.ascii	"0\374\320\337\311\207$\247q-&\022\335\177\215\3445\253"
 240      C98724A7 
 240      712D2612 
 240      DD7F8DE4 
 240      35AB
 241 0281 5A797C5B 		.ascii	"Zy|[\273\216\302\030@U\002\333\332\305s\235\345\322"
 241      BB8EC218 
 241      405502DB 
 241      DAC5739D 
 241      E5D2
 242 0293 B2EDA665 		.ascii	"\262\355\246e[\323T{v\336\237\024\305'\213s\305\216"
 242      5BD3547B 
 242      76DE9F14 
 242      C5278B73 
 242      C58E
 243 02a5 90755F51 		.ascii	"\220u_Q\370\2550\237\362s\342wF|\244\004\226\305y\242"
 243      F8AD309F 
 243      F273E277 
 243      467CA404 
 243      96C579A2 
 244 02b9 04743E00 		.ascii	"\004t>\000\312\342{\342o\325\022\306Z\247f*nz_P\177"
 244      CAE27BE2 
 244      6FD512C6 
ARM GAS  /tmp/cctxkxwm.s 			page 19


 244      5AA7662A 
 244      6E7A5F50 
 245 02ce 31F8FC52 		.ascii	"1\370\374R\230\005\245\210Mj\234q\247\322\024\0233\204"
 245      9805A588 
 245      4D6A9C71 
 245      A7D21413 
 245      3384
 246 02e0 6A2AC0E1 		.ascii	"j*\300\341\235'\267\263\020`M\323\215\272}\331X\222"
 246      9D27B7B3 
 246      10604DD3 
 246      8DBA7DD9 
 246      5892
 247 02f2 F7219124 		.ascii	"\367!\221$\214\021E.\023\033@\204\253\017!1\307\365"
 247      8C11452E 
 247      131B4084 
 247      AB0F2131 
 247      C7F5
 248 0304 B2EA5B09 		.ascii	"\262\352[\011\327\344\276\005\327.b1$a:dJ\000\335\376"
 248      D7E4BE05 
 248      D72E6231 
 248      24613A64 
 248      4A00DDFE 
 249 0318 C4BD7989 		.ascii	"\304\275y\211{\"\363\350\342\304m\211\271\275:q\333"
 249      7B22F3E8 
 249      E2C46D89 
 249      B9BD3A71 
 249      DB
 250 0329 C5DCDE92 		.ascii	"\305\334\336\222\270\355fn\357M\334\366\250\234\220"
 250      B8ED666E 
 250      EF4DDCF6 
 250      A89C90
 251 0338 AFA23F11 		.ascii	"\257\242?\021i\345+\221-\241,.\026\177\003\264Vt\031"
 251      69E52B91 
 251      2DA12C2E 
 251      167F03B4 
 251      567419
 252 034b 26938423 		.ascii	"&\223\204#(DRcF\362R\243\211|\333i_\324Zl\252]\273\374"
 252      28445263 
 252      46F252A3 
 252      897CDB69 
 252      5FD45A6C 
 253 0363 E1294AEC 		.ascii	"\341)J\354%\227\221n\302\027\221\321\242\200\206\347"
 253      2597916E 
 253      C21791D1 
 253      A28086E7 
 254 0373 8ED769EC 		.ascii	"\216\327i\354\322a1\240=\3555{V\0267B1R>F\036\334\254"
 254      D26131A0 
 254      3DED357B 
 254      56163742 
 254      31523E46 
 255 038a D7C90B87 		.ascii	"\327\311\013\207Q'7\333\322\311\213\207g\334\245\314"
 255      512737DB 
 255      D2C98B87 
 255      67DCA5CC 
 256 039a DA04D279 		.ascii	"\332\004\322y%Q\030+\376\233&\274\271e\2438\\Q\340\207"
 256      2551182B 
 256      FE9B26BC 
ARM GAS  /tmp/cctxkxwm.s 			page 20


 256      B965A338 
 256      5C51E087 
 257 03ae 3A9154F4 		.ascii	":\221T\364H\211\327J\373P{\306\256\375#\252\367'\010"
 257      4889D74A 
 257      FB507BC6 
 257      AEFD23AA 
 257      F72708
 258 03c1 B4450724 		.ascii	"\264E\007$\213\031~\226e\374\256=@\3202\374\211\010"
 258      8B197E96 
 258      65FCAE3D 
 258      40D032FC 
 258      8908
 259 03d3 F1126E15 		.ascii	"\361\022n\025\234>.\011\365\230\351\346\204:p\214Z\250"
 259      9C3E2E09 
 259      F598E9E6 
 259      843A708C 
 259      5AA8
 260 03e5 03930F55 		.ascii	"\003\223\017U\274\217Q\361\266\210\277L\374$\011\007"
 260      BC8F51F1 
 260      B688BF4C 
 260      FC240907 
 261 03f5 92CA44EB 		.ascii	"\222\312D\353\205I\235\250@A\237\336\254\3167\210m\023"
 261      85499DA8 
 261      40419FDE 
 261      ACCE3788 
 261      6D13
 262 0407 5934493A 		.ascii	"Y4I:\205NY\202\000\253\002`.\215\024Z\255E\245Z\271"
 262      854E5982 
 262      00AB0260 
 262      2E8D145A 
 262      AD45A55A 
 263 041c EFBD442D 		.ascii	"\357\275D-\266\327\360\244x-\306f\216\273\203\350\333"
 263      B6D7F0A4 
 263      782DC666 
 263      8EBB83E8 
 263      DB
 264 042d 1EACC3AF 		.ascii	"\036\254\303\257\214\225!5\014\350\325\212\337\2432"
 264      8C952135 
 264      0CE8D58A 
 264      DFA332
 265 043c EC43A08B 		.ascii	"\354C\240\213i\003\355\031;\217j\325g\010t=\251\006"
 265      6903ED19 
 265      3B8F6AD5 
 265      6708743D 
 265      A906
 266 044e 5C3AAD72 		.ascii	"\\:\255r\361j\342\362'\"\255\255\274\263\364\023?lV"
 266      F16AE2F2 
 266      2722ADAD 
 266      BCB3F413 
 266      3F6C56
 267 0461 BFF56CFD 		.ascii	"\277\365l\375\216t\331\250\337D\037\232l\260\256/\377"
 267      8E74D9A8 
 267      DF441F9A 
 267      6CB0AE2F 
 267      FF
 268 0472 2BD6AFFD 		.ascii	"+\326\257\375\206\271a\352\201\213j\033?\202B\334\344"
 268      86B961EA 
ARM GAS  /tmp/cctxkxwm.s 			page 21


 268      818B6A1B 
 268      3F8242DC 
 268      E4
 269 0483 D20BD1A3 		.ascii	"\322\013\321\243\023\242\207/\252\307\237\210\304\333"
 269      13A2872F 
 269      AAC79F88 
 269      C4DB
 270 0491 DA278E4B 		.ascii	"\332'\216K\242\323\324\367WX\230^\2053\2751I\003\274"
 270      A2D3D4F7 
 270      5758985E 
 270      8533BD31 
 270      4903BC
 271 04a4 2FA1AAFB 		.ascii	"/\241\252\373\023\2667`\372\254,~\221\260\275\346\217"
 271      13B63760 
 271      FAAC2C7E 
 271      91B0BDE6 
 271      8F
 272 04b5 91074F26 		.ascii	"\221\007O&\331\336\003h{O\332\262\275\327\016P\177@"
 272      D9DE0368 
 272      7B4FDAB2 
 272      BDD70E50 
 272      7F40
 273 04c7 F39176A3 		.ascii	"\363\221v\243xN\246\3333\305j&e\326?k\277\335\256\242"
 273      784EA6DB 
 273      33C56A26 
 273      65D63F6B 
 273      BFDDAEA2 
 274 04db EDF60C56 		.ascii	"\355\366\014V\360\301\244\012\336':l&\022\214,t\005"
 274      F0C1A40A 
 274      DE273A6C 
 274      26128C2C 
 274      7405
 275 04ed E0B2352A 		.ascii	"\340\2625*@{\256\000S>\243\235\021W\275\235\204\011"
 275      407BAE00 
 275      533EA39D 
 275      1157BD9D 
 275      8409
 276 04ff 6ACFAA88 		.ascii	"j\317\252\210QY|\370\016\323Vs^\354\2041\027\365>dq"
 276      51597CF8 
 276      0ED35673 
 276      5EEC8431 
 276      17F53E64 
 277 0514 0E20C5BF 		.ascii	"\016 \305\277\250m*\376\375\010-\237,>\225h\265\026"
 277      A86D2AFE 
 277      FD082D9F 
 277      2C3E9568 
 277      B516
 278 0526 DDF6B489 		.ascii	"\335\366\264\211\267\023i}\007(\222pU'-\216a\312\210"
 278      B713697D 
 278      07289270 
 278      55272D8E 
 278      61CA88
 279 0539 19939701 		.ascii	"\031\223\227\001\300X1\222~\223\204j\267N\240\316L{"
 279      C0583192 
 279      7E93846A 
 279      B74EA0CE 
 279      4C7B
ARM GAS  /tmp/cctxkxwm.s 			page 22


 280 054b ACF6C709 		.ascii	"\254\366\307\011\264\331B\240\266\235\330\330\321\006"
 280      B4D942A0 
 280      B69DD8D8 
 280      D106
 281 0559 31208B37 		.ascii	"1 \2137\320\203}\303\235\226\007\253H:\017\366\263q"
 281      D0837DC3 
 281      9D9607AB 
 281      483A0FF6 
 281      B371
 282 056b E8C192FB 		.ascii	"\350\301\222\373\251=\330\311\356d\017v\241\233\367"
 282      A93DD8C9 
 282      EE640F76 
 282      A19BF7
 283 057a 60051B5E 		.ascii	"`\005\033^f\202\013Y\034&\221\316~\270d\354e:\320\253"
 283      66820B59 
 283      1C2691CE 
 283      7EB864EC 
 283      653AD0AB 
 284 058e 7554AFAE 		.ascii	"uT\257\256\241^\255u[\352U\263\205^\275\"\231\353\225"
 284      A15EAD75 
 284      5BEA55B3 
 284      855EBD22 
 284      99EB95
 285 05a1 EE37B034 		.ascii	"\3567\2604v\364\312\274K\211mP\365Js\001\017:\306\343"
 285      76F4CABC 
 285      4B896D50 
 285      F54A7301 
 285      0F3AC6E3 
 286 05b5 F5F4C867 		.ascii	"\365\364\310g\2315\262\006v\304\016X{s\346\256\262`"
 286      9935B206 
 286      76C40E58 
 286      7B73E6AE 
 286      B260
 287 05c7 4D8EC178 		.ascii	"M\216\301x\316\306\037f\300N\331\001\353l\316\331\014"
 287      CEC61F66 
 287      C04ED901 
 287      EB6CCED9 
 287      0C
 288 05d8 16ECAC63 		.ascii	"\026\354\254c0\236\263\225,\330\005;`\001s\316\366\262"
 288      309EB395 
 288      2CD8053B 
 288      600173CE 
 288      F6B2
 289 05ea 60971D83 		.ascii	"`\227\035\203\005\222T\216\266\222S\350\022\177\005"
 289      0592548E 
 289      B69253E8 
 289      127F05
 290 05f9 2EAD2C9E 		.ascii	".\255,\236Fz\016\351U\244\257I\204\216B:\032i\015\322"
 290      467A0EE9 
 290      55A4AF49 
 290      848E423A 
 290      1A690DD2 
 291 060d B148C723 		.ascii	"\261H\307#\235(q\356t\213[\337M\235\324\273\323'9w\372"
 291      9D2871EE 
 291      748B5BDF 
 291      4D9DD4BB 
 291      D3273977 
ARM GAS  /tmp/cctxkxwm.s 			page 23


 292 0622 27CBDBAC 		.ascii	"'\313\333\254\335\035g]\265\321\036\033\016\216\205"
 292      DD1D675D 
 292      B5D11E1B 
 292      0E8E85
 293 0631 EA9E6F84 		.ascii	"\352\236o\204jH9\347\341\326\220\362\204\270\307\366"
 293      6A4839E7 
 293      E1D690F2 
 293      84B8C7F6 
 294 0641 D99958E7 		.ascii	"\331\231X\347\325\212\322^\026\247Kd\322\343S\017/\250"
 294      D58AD25E 
 294      16A74B64 
 294      D2E3530F 
 294      2FA8
 295 0653 943892B0 		.ascii	"\2248\222\260\037\223\314\224x\227\246\251\365\\\323"
 295      1F93CC94 
 295      7897A6A9 
 295      F55CD3
 296 0662 CF262332 		.ascii	"\317&#2\371)\265W\323R\375Vr\237C\3312\223\341;z\373"
 296      F929B557 
 296      D352FD56 
 296      729F43D9 
 296      3293E13B 
 297 0678 34DEABB1 		.ascii	"4\336\253\261\342pP\246\362p\263\016\325\231\340J\302"
 297      E27050A6 
 297      F270B30E 
 297      D599E04A 
 297      C2
 298 0689 34C76001 		.ascii	"4\307`\001\016l\334\326\351N\207\310\027\277\276k\035"
 298      0E6CDCD6 
 298      E94E87C8 
 298      17BFBE6B 
 298      1D
 299 069a 8AEC3D89 		.ascii	"\212\354=\2114\250o\274z\255\255\323;Wv\206\252\027"
 299      34A86FBC 
 299      7AADADD3 
 299      3B577686 
 299      AA17
 300 06ac ED14C4D4 		.ascii	"\355\024\304\324j\223\232\254\277g\325\022Ey\325\233"
 300      6A939AAC 
 300      BF67D512 
 300      4579D59B 
 301 06bc 72624112 		.ascii	"rbA\022\2321\263Ezm\230\320\\\377\007\252\015\213li"
 301      9A31B345 
 301      7A6D98D0 
 301      5CFF07AA 
 301      0D8B6C69 
 302 06d0 C38A1D93 		.ascii	"\303\212\035\223\222\265\301H\031\275Z\366\305\230\375"
 302      92B5C148 
 302      19BD5AF6 
 302      C598FD
 303 06df DA0C92FD 		.ascii	"\332\014\222\375\022}\366\2657\277~\230f\277\304V\366"
 303      127DF6B5 
 303      37BF7E98 
 303      66BFC456 
 303      F6
 304 06f0 C7768F37 		.ascii	"\307v\2177RF\023\237G\253\276\346\363\367\315\304L\226"
 304      5246139F 
ARM GAS  /tmp/cctxkxwm.s 			page 24


 304      47ABBEE6 
 304      F3F7CDC4 
 304      4C96
 305 0702 A30255FB 		.ascii	"\243\002U\373\364\325\367H[6/\374\316\351\357\233>\215"
 305      F4D5F748 
 305      5B362FFC 
 305      CEE9EF9B 
 305      3E8D
 306 0714 FBB4F417 		.ascii	"\373\264\364\027\212\031{d>\326\224\306\3038\307\210"
 306      8A197B64 
 306      3ED694C6 
 306      C338C788 
 307 0724 BC127FBF 		.ascii	"\274\022\177\277\033[\004\005\233d\007\314\242\373\377"
 307      1B5B0405 
 307      9B6407CC 
 307      A2FBFF
 308 0733 81059BE6 		.ascii	"\201\005\233\346\030\214\347\3542\0136\323\016\230U"
 308      188CE7EC 
 308      320B36D3 
 308      0E9855
 309 0742 DFCF82BD 		.ascii	"\337\317\202\275\343\030\214\347\254\231\005\233g\007"
 309      E3188CE7 
 309      AC99059B 
 309      6707
 310 0750 CCA2EFBF 		.ascii	"\314\242\357\277\316\202-t\014\306sv\223\005\373\320"
 310      CE822D74 
 310      0CC67376 
 310      9305FBD0 
 311 0760 0E58C09C 		.ascii	"\016X\300\234\263\232\275\014\330R\307`<gcY\260\025"
 311      B39ABD0C 
 311      D852C760 
 311      3C676359 
 311      B015
 312 0772 76C0EE33 		.ascii	"v\300\3563\347l<\013\266\3061\030\317\331D\026l\203"
 312      E76C3C0B 
 312      B6C63118 
 312      CFD94416 
 312      6C83
 313 0784 1DB02C73 		.ascii	"\035\260,s\316&\263`\233\035\203\361\234Me\301\266\332"
 313      CE26B360 
 313      9B1D83F1 
 313      9C4D65C1 
 313      B6DA
 314 0796 01EB6ECE 		.ascii	"\001\353n\316\331t\026l\207c0\236\263\305,\330n;`=\314"
 314      D974166C 
 314      8763309E 
 314      B3C52CD8 
 314      6E3B603D 
 315 07ab 395BC282 		.ascii	"9[\302\202\355u\014\306s\366\021\013\266\337\016\330"
 315      ED750CC6 
 315      73F6110B 
 315      B6DF0ED8 
 316 07bb E3E69C2D 		.ascii	"\343\346\234-g\301\016:\006\3439[\311\2025\332\001\353"
 316      67C10E3A 
 316      06E3395B 
 316      C98235DA 
 316      01EB
ARM GAS  /tmp/cctxkxwm.s 			page 25


 317 07cd 6FCED9   		.ascii	"o\316\331"
 318 07d0 6A16EC73 		.ascii	"j\026\354s\307`<gkY\260\343v\300\2366\347l=\013v\322"
 318      C7603C67 
 318      6B59B0E3 
 318      76C09E36 
 318      E76C3D0B 
 319 07e6 3118CF59 		.ascii	"1\030\317Y=\013v\332\016\330\263\006\234\305?f~f\255"
 319      3D0B76DA 
 319      0ED8B306 
 319      9CC53F66 
 319      7E66AD
 320 07f9 C4F8EA67 		.ascii	"\304\370\352g}\232\203\343\260\217\026\022\030\347}"
 320      7D9A83E3 
 320      B08F1612 
 320      18E77D
 321 0808 4E3D32AE 		.ascii	"N=2\256\334\304\267\276g\265\332\317Sg\365\262\035D"
 321      DCC4B7BE 
 321      67B5DACF 
 321      5367F5B2 
 321      1D44
 322 081a 8B0E70EA 		.ascii	"\213\016p\352V\306\363\275\351\030L\247\312[\365\303"
 322      56C6F3BD 
 322      E9184CA7 
 322      CA5BF5C3 
 323 082a 11D5076E 		.ascii	"\021\325\007n\232\033\263\236\365\301\265\337\370\303"
 323      9A1BB39E 
 323      F5C1B5DF 
 323      F8C3
 324 0838 4AE7CEC6 		.ascii	"J\347\316\306\317\312\342E\234G\371A\362\307\271\240"
 324      CFCAE245 
 324      9C47F941 
 324      F2C7B9A0 
 325 0848 712D46D7 		.ascii	"q-F\327\354\252\375\246\313\307\326I\3154\341\002\253"
 325      ECAAFDA6 
 325      CBC7D649 
 325      CD34E102 
 325      AB
 326 0859 09AFFB6D 		.ascii	"\011\257\373m\210\311\242k?\266u:\316\3432\345M\261"
 326      88C9A26B 
 326      3FB6753A 
 326      CEE332E5 
 326      4DB1
 327 086b AE3BE162 		.ascii	"\256;\341b\275:@\270\212\003\204\261~\303\305\016;H"
 327      BD3A40B8 
 327      8A0384B1 
 327      7EC3C50E 
 327      3B48
 328 087d 6F2EFA1D 		.ascii	"o.\372\035.v\264 \320\264\264\201\366\214\235\321\035"
 328      2E76B420 
 328      D0B4B481 
 328      F68C9DD1 
 328      1D
 329 088e 816E22D0 		.ascii	"\201n\"\320;: u\216\213\021\274\310\217X,g\316~\302"
 329      3B3A2075 
 329      8E8B11BC 
 329      C88F582C 
 329      67CE7EC2 
ARM GAS  /tmp/cctxkxwm.s 			page 26


 330 08a2 67256191 		.ascii	"g%a\221\276\272\214\246\311\315\235'ht\007\357]\365"
 330      BEBA8CA6 
 330      C9CD9D27 
 330      687407EF 
 330      5DF5
 331 08b4 81A28CF0 		.ascii	"\201\242\214\360:\251\260mj\205\215p\021\361,K\022O"
 331      3AA9B06D 
 331      6A858D70 
 331      11F12C4B 
 331      124F
 332 08c6 8BE44C3E 		.ascii	"\213\344L>\222\260\316q9\356\323\225#v\237\363r\034"
 332      92B0CE71 
 332      39EED395 
 332      23769FF3 
 332      721C
 333 08d8 54CBF10A 		.ascii	"T\313\361\012\226c\313OP\216\235\216\313\221\305\224"
 333      9663CB4F 
 333      508E9D8E 
 333      CB91C594 
 334 08e8 0387A5F7 		.ascii	"\003\207\245\367\323a\351m\302\330\324\353\335o\270"
 334      D361E96D 
 334      C2D8D4EB 
 334      DD6FB8
 335 08f7 6EE3C684 		.ascii	"n\343\306\204\261C\333\311\3742\271\235j<\250\304\256"
 335      B143DBC9 
 335      FC32B99D 
 335      6A3CA8C4 
 335      AE
 336 0908 6C67C6F2 		.ascii	"lg\306\362\212\275\261\374yUb5(\261}F-\314\036\322\356"
 336      8ABDB1FC 
 336      79556235 
 336      28B17D46 
 336      2DCC1ED2 
 337 091d 8F6BD545 		.ascii	"\217k\325E\265q\010u8m\250={W\320\306:\021\201N$\325"
 337      B5710875 
 337      386DA83D 
 337      7B57D0C6 
 337      3A11814E 
 338 0933 A2575789 		.ascii	"\242WW\211^\276\022\341+\311\351*\231Z\020_T\357\220"
 338      5EBE12E1 
 338      2BC9E92A 
 338      995A105F 
 338      54EF90
 339 0946 2F19C2FF 		.ascii	"/\031\302\377\367t\320\023#\373\244\002\035\366\304"
 339      F774D013 
 339      23FBA402 
 339      1DF6C4
 340 0955 0905FAFD 		.ascii	"\011\005\372\375*\265\027\245\225t\361G!\016\217-}\375"
 340      2AB517A5 
 340      9574F147 
 340      210E8F2D 
 340      7DFD
 341 0967 2D757EFB 		.ascii	"-u~\373\021\322\217^\377\221p{v8\237A\212\335M\265n"
 341      11D28F5E 
 341      FF91707B 
 341      76389F41 
 341      8ADD4DB5 
ARM GAS  /tmp/cctxkxwm.s 			page 27


 342 097c 26166844 		.ascii	"&\026hD\233\237d\006\351\3156i\026$\376\221\204\211"
 342      9B9F6406 
 342      E9CD3669 
 342      1624FE91 
 342      8489
 343 098e 6D6CF496 		.ascii	"ml\364\226\001\253\332\272z\277\315Y\250\370\334\346"
 343      01ABDABA 
 343      7ABFCD59 
 343      A8F8DCE6 
 344 099e D79DB7A1 		.ascii	"\327\235\267\2410\346\272\310\334\346T\2350l\314f\315"
 344      30E6BAC8 
 344      DCE6549D 
 344      306CCC66 
 344      CD
 345 09af A7495C49 		.ascii	"\247I\\Is\233\365w\321\351$\362\223\215\331\254jM/\350"
 345      739BF577 
 345      D1E924F2 
 345      938DD9AC 
 345      6A4D2FE8 
 346 09c3 94E51C49 		.ascii	"\224\345\034IRa\323\225'W\205\011\376dq\201\2138F\013"
 346      5261D395 
 346      27578509 
 346      FE647181 
 346      8B38460B 
 347 09d7 5DDCF4F7 		.ascii	"]\334\364\367*\307\262\017\260\262\217\265\354\230."
 347      2AC7B20F 
 347      B0B28FB5 
 347      EC982E
 348 09e6 12FE0D26 		.ascii	"\022\376\015&\340z\260\356j\\\360Mw}\202\342\371\000"
 348      E07AB0EE 
 348      6A5CF04D 
 348      777D82E2 
 348      F900
 349 09f8 05BFD944 		.ascii	"\005\277\331D\360=\314p$\241\001\223\324&\013~\333\335"
 349      F03DCC70 
 349      24A10193 
 349      D4260B7E 
 349      DBDD
 350 0a0a 54F0B5B6 		.ascii	"T\360\265\266\004\277\337P\360\265\316\005\257\342\035"
 350      04BFDF50 
 350      F0B5CE05 
 350      AFE21D
 351 0a19 484C10CB 		.ascii	"HL\020\313\342\273\216\301\002V\265X\313\324\342R\254"
 351      E2BB8EC1 
 351      0256B558 
 351      CBD4E252 
 351      AC
 352 0a2a C58F5C64 		.ascii	"\305\217\\d9a\031_\227_\352\353\222\223\234\0325\235"
 352      3961195F 
 352      975FEAEB 
 352      92939C1A 
 352      359D
 353 0a3c 1C5162E3 		.ascii	"\034Qb\343vMWEBm\336wvt\303bJc\306.\024\011\2657\227"
 353      764D5745 
 353      426DDE77 
 353      7674C362 
 353      4A63C62E 
ARM GAS  /tmp/cctxkxwm.s 			page 28


 354 0a55 1C830538 		.ascii	"\034\203\0058\260u\243\015\026\001\014\264N\021\331"
 354      B075A30D 
 354      16010CB4 
 354      4E11D9
 355 0a64 61882428 		.ascii	"a\210$(mI\276\353\364\352\362\326\352=#\305a\330u\256"
 355      6D49BEEB 
 355      F4EAF2D6 
 355      EA3D23C5 
 355      61D875AE 
 356 0a78 B3A12FD0 		.ascii	"\263\241/\320\317\237\364+c35\275]\035G\265\020\265"
 356      CF9FF42B 
 356      633335BD 
 356      5D1D47B5 
 356      10B5
 357 0a8a 85B6B49C 		.ascii	"\205\266\264\234\376DD8:\254\332\244\207K9\352\343\341"
 357      FE444438 
 357      3AACDAA4 
 357      874B39EA 
 357      E3E1
 358 0a9c 6E86B665 		.ascii	"n\206\266e9\023\214\272V\334\270\212x:uX\246\355m\365"
 358      39138CBA 
 358      56DCB88A 
 358      783A7558 
 358      A6ED6DF5 
 359 0ab0 3D02950C 		.ascii	"=\002\225\014\243\210\353\030E\334\200\212\030CE\334"
 359      A388EB18 
 359      45DC808A 
 359      184345DC 
 360 0ac0 84F46356 		.ascii	"\204\364cV\035\315\234\255-.f\234\264\327q\271\003\272"
 360      1DCD9CAD 
 360      2D2E669C 
 360      B4D771B9 
 360      03BA
 361 0ad2 DA31CB66 		.ascii	"\3321\313f-\233\315\241\2666t\317|\006\214\030\365?"
 361      2D9BCDA1 
 361      B63674CF 
 361      7C068C18 
 361      F53F
 362 0ae4 69EE005D 		.ascii	"i\356\000]\177\371\3021\"\257\315\027Fs\356\3009;p="
 362      7FF9C231 
 362      22AFCD17 
 362      4673EEC0 
 362      393B703D 
 363 0af8 0C1834FA 		.ascii	"\014\0304\372\260+n\2628\033\207\303o\343\362\343\\"
 363      B02B6EB2 
 363      381B87C3 
 363      6FE3F2E3 
 363      5C
 364 0b09 A4F390BE 		.ascii	"\244\363\220\276\217\364,\322sH\317#\275\202t8V\350"
 364      8FF42CD2 
 364      7348CF23 
 364      BD827438 
 364      56E8
 365 0b1b 48A4A390 		.ascii	"H\244\243\220\316A\272\010\351\012\244\253\220\256A"
 365      CE41BA08 
 365      E90AA4AB 
 365      90AE41
ARM GAS  /tmp/cctxkxwm.s 			page 29


 366 0b2a BA03E9CE 		.ascii	"\272\003\351\316T\012\240\366\002G7\034\272\347}\264"
 366      540AA0F6 
 366      0247371C 
 366      BAE77DB4 
 367 0b3a D5D350FD 		.ascii	"\325\323P\375?\310\324k\336;\222n=$iAoc\246\323\205"
 367      3FC8D46B 
 367      DE3B926E 
 367      3D246941 
 367      6F63A6D3 
 368 0b4f 51B60694 		.ascii	"Q\266\006\224\246\332\253+\376:\214\354\374\242\352"
 368      A6DAAB2B 
 368      FE3A8CEC 
 368      FCA2EA
 369 0b5e 2F8BEB5D 		.ascii	"/\213\353]\022\017\3107\030\243Q\007\247%\261\2313f"
 369      120FC837 
 369      18A35107 
 369      A725B199 
 369      3366
 370 0b70 DAB3501E 		.ascii	"\332\263P\036\015\254\177B$\265\247>\351>\002\315\321"
 370      0DAC7F42 
 370      24B5A73E 
 370      E93E02CD 
 370      D1
 371 0b81 7E6C8C2F 		.ascii	"~l\214/\335\222r\265\225\307!B:\250\263r\261\025;p\363"
 371      DD9272B5 
 371      95C72142 
 371      3AA8B372 
 371      B1153B70 
 372 0b96 D8C1D416 		.ascii	"\330\301\324\026\356\245\021\2615;\306'|\312\021\226"
 372      EEA511B1 
 372      353BC627 
 372      7CCA1196 
 373 0ba6 3EA52C6E 		.ascii	">\245,n\305ux;\036b\015\226\344`z\035+\260\265v\007"
 373      C575783B 
 373      1E620D96 
 373      E4607A1D 
 373      2BB0B576 
 374 0bbb F6228DD8 		.ascii	"\366\"\215\330\213\214s\014\026\340\300\326\263`\223"
 374      8B8C730C 
 374      16E0C0D6 
 374      B36093
 375 0bca EC809959 		.ascii	"\354\200\231Y]\000\253g\301\2469\006\3439\333\313\202"
 375      5D00AB67 
 375      C1A63906 
 375      E339DBCB 
 375      82
 376 0bdb CDB60366 		.ascii	"\315\266\003f6g\007`\373X\260y\216\301x\316\016\260"
 376      36670760 
 376      FB58B079 
 376      8EC178CE 
 376      0EB0
 377 0bed 608BEC80 		.ascii	"`\213\354\200\2315\022\000;\310\202-u\014\306sv\230"
 377      99351200 
 377      3BC8822D 
 377      750CC673 
 377      7698
 378 0bff 055B6507 		.ascii	"\005[e\007,`\316\331\021\026l\203c0\236\263\317Y\260"
ARM GAS  /tmp/cctxkxwm.s 			page 30


 378      2C60CED9 
 378      11166C83 
 378      63309EB3 
 378      CF59B0
 379 0c12 CD76C0CC 		.ascii	"\315v\300\314\3742\000;\317\202mu\014\306s\366=\013"
 379      FC32003B 
 379      CF826D75 
 379      0CC673F6 
 379      3D0B
 380 0c24 F6A91D30 		.ascii	"\366\251\03503\017\017\300~`\301\3668\006\3439\273\314"
 380      330F0FC0 
 380      7E60C1F6 
 380      3806E339 
 380      BBCC
 381 0c36 821DB003 		.ascii	"\202\035\260\003f\326e\003\330U\026\254\3211\030\317"
 381      66D66503 
 381      D85516AC 
 381      D13118CF 
 382 0c46 59330BD6 		.ascii	"Y3\013\326d\007\254\2079g\327Y\260\223\216\301x\316"
 382      6407AC87 
 382      3967D759 
 382      B0938EC1 
 382      78CE
 383 0c58 6EB26067 		.ascii	"n\262`g\354\200\231-Z\001X\315.\006\354;\307`\001\301"
 383      EC80992D 
 383      5A0158CD 
 383      2E06EC3B 
 383      C76001C1 
 384 0c6c F4C3764D 		.ascii	"\364\303vM\262x\010=\307\303\3502\034Ez\014\351q\244"
 384      B278083D 
 384      C7C3E832 
 384      1C457A0C 
 384      E971A4
 385 0c7f 5F203D89 		.ascii	"_ =\211\364+\244\247\221~\203\364[\244\337!\275\200"
 385      F42BA4A7 
 385      917E83F4 
 385      5BA4DF21 
 385      BD80
 386 0c91 F422D24B 		.ascii	"\364\"\322KH\257 \275\206\264\005\351\015\244\255H\207"
 386      48AF20BD 
 386      86B405E9 
 386      0DA4AD48 
 386      87
 387 0ca2 B96DF8A7 		.ascii	"\271m\370\247\373X\307\361\373[l8\031\346\313\315M\265"
 387      FB58C7F1 
 387      FB5B6C38 
 387      19E6CBCD 
 387      4DB5
 388 0cb4 67D7DADE 		.ascii	"g\327\332\336^\376\254\206G\336\226\324\034\245\357"
 388      5EFEAC86 
 388      47DE96D4 
 388      1CA5EF
 389 0cc3 3EF90BF1 		.ascii	">\371\013\361\012\014z\177\356qp\325\334\206\033\314"
 389      0A0C7A7F 
 389      EE7170D5 
 389      DC861BCC 
 390 0cd3 B9A7C873 		.ascii	"\271\247\310s\257\272u.\302\245]\350\"\220\373\251\007"
ARM GAS  /tmp/cctxkxwm.s 			page 31


 390      AFBA752E 
 390      C2A55DE8 
 390      2290FBA9 
 390      07
 391 0ce4 CD576C0E 		.ascii	"\315Wl\016\302bq\327\251\263\300\2728\017S\027\347\015"
 391      C26271D7 
 391      A9B3C0BA 
 391      380F5317 
 391      E70D
 392 0cf6 377171D6 		.ascii	"7qq\326\265K\351\342\3608\204\277\032=\377Kw#\3775\251"
 392      B54BE9E2 
 392      F03884BF 
 392      1A3DFF4B 
 392      7723FF35 
 393 0d0b F9070D5F 		.ascii	"\371\007\015_\241n\336\321\224\274\036Y i\323\363MV"
 393      A16EDED1 
 393      94BC1E59 
 393      2069D3F3 
 393      4D56
 394 0d1d EE665A4C 		.ascii	"\356fZL\203c\260\000\007\266\232\005;h\007\314\3027"
 394      8363B000 
 394      07B69A05 
 394      3B6807CC 
 394      C237
 395 0d2f 59CB821D 		.ascii	"Y\313\202\035q\014\306s\266\236\005;n\007\314\3027\251"
 395      710CC673 
 395      B69E053B 
 395      6E07CCC2 
 395      37A9
 396 0d41 67C14E39 		.ascii	"g\301N9\006\013\030U\257\220\244\035\2628\306M\254\314"
 396      060B1855 
 396      AF90A41D 
 396      B238C64D 
 396      ACCC
 397 0d53 583769F9 		.ascii	"X7i\371\343\221ND:\031\351T\244\323\355X\204Qn\306\""
 397      E3914E44 
 397      3A19E954 
 397      A4D3ED58 
 397      84516EC6 
 398 0d68 9C41865F 		.ascii	"\234A\206_MOc\300\"\034\375\356\370\237\351\372\254"
 398      4D4F63C0 
 398      221CFDEE 
 398      F89FE9FA 
 398      AC
 399 0d79 6E031991 		.ascii	"n\003\031\221\207\031\007\263X\016.8\346 \300r\020k"
 399      871907B3 
 399      580E2E38 
 399      E620C072 
 399      106B
 400 0d8b D9355D7D 		.ascii	"\3315]}G\204.\360]\326\343\031-\266X\315=\354j\273\370"
 400      47842EF0 
 400      5DD6E319 
 400      2DB658CD 
 400      3DEC6ABB 
 401 0da0 590DEC86 		.ascii	"Y\015\354\206c0\037\007V\263\233\001\033y\253S\260\366"
 401      63301F07 
 401      56B39B01 
ARM GAS  /tmp/cctxkxwm.s 			page 32


 401      1B79AB53 
 401      B0F6
 402 0db2 491A4175 		.ascii	"I\032Au\3415\324\205\327\261\316g\"}\033\351\034\244"
 402      E135D485 
 402      D7B1CE67 
 402      227D1BE9 
 402      1CA4
 403 0dc4 EFB25A20 		.ascii	"\357\262Z \011\243o\325\217F\251qdP\023VT\260\213kV"
 403      09A36FD5 
 403      8F46A971 
 403      64501356 
 403      54B08B6B 
 404 0dd9 B72FB375 		.ascii	"\267/\263u;\373V\247\375\015W\267M\265\327\327\322\027"
 404      3BFB56A7 
 404      FD0D57B7 
 404      4DB5D7D7 
 404      D217
 405 0deb B3B48DD7 		.ascii	"\263\264\215\327\357\331\0014r\360\214>\354\333\312"
 405      EFD90134 
 405      72F08C3E 
 405      ECDBCA
 406 0dfa B2B80047 		.ascii	"\262\270\000G\200\013q\357\363z\244\273\2216\"mB:\025"
 406      800B71EF 
 406      F37AA4BB 
 406      9136226D 
 406      423A15
 407 0e0d 2713F662 		.ascii	"'\023\366b\357\333\200\364%\224\314\002;\222\231\223"
 407      EFDB80F4 
 407      2594CC02 
 407      3B929993 
 408 0e1d D807CDB5 		.ascii	"\330\007\315\265\225\016B\015\366\023\357\265\243\257"
 408      950E420D 
 408      F613EFB5 
 408      A3AF
 409 0e2b 08AAE99B 		.ascii	"\010\252\351\233:j\000\357K*\302\"w\007\214q\313`\370"
 409      3A6A00EF 
 409      4B2AC222 
 409      77078C71 
 409      CB60F8
 410 0e3e 88599E1F 		.ascii	"\210Y\236\037\270\023k\377\231\376Dd\202\230\202\331"
 410      B8136BFF 
 410      99FE4464 
 410      829882D9 
 411 0e4e F713D568 		.ascii	"\367\023\325h\324\217eh\317\017\025\022Kn-\033\357\241"
 411      D48F6568 
 411      CF0F1512 
 411      4B6E2D1B 
 411      EFA1
 412 0e60 8B771F62 		.ascii	"\213w\037b\177\270I\247w)qH\276K\364\375\341gu\330\037"
 412      7FB849A7 
 412      77297148 
 412      BE4BF4FD 
 412      E16775D8 
 413 0e75 2EB1D19F 		.ascii	".\261\321\237+\261\243u\343\315f\357\225\370\253i\201"
 413      2BB1A375 
 413      E3CD66EF 
 413      95F8AB69 
ARM GAS  /tmp/cctxkxwm.s 			page 33


 413      81
 414 0e86 04CB2B6E 		.ascii	"\004\313+n\036\377\025\256\022.C\216\217\247\346\230"
 414      1EFF15AE 
 414      122E438E 
 414      8FA7E698 
 415 0e96 87211CAD 		.ascii	"\207!\034\255\324s\274\2778@\357\246\366?\016}\264J"
 415      D473BCBF 
 415      3840EFA6 
 415      F63F0E7D 
 415      B44A
 416 0ea8 54AA33ED 		.ascii	"T\2523\355\277)\264\307'\311\342\0327yQ\350[\035\263"
 416      BF29B4C7 
 416      27C9E21A 
 416      377951E8 
 416      5B1DB3
 417 0ebb 365F145A 		.ascii	"6_\024Z\357\326\275(\264\312-\321\273\251_\023\272q"
 417      EFD6BD28 
 417      B4CA2DD1 
 417      BBA95F13 
 417      BA71
 418 0ecd 6BF26B42 		.ascii	"k\362kB\325\355\015_t\177\275=\377\242\273\252j\226"
 418      D5ED0D5F 
 418      747FBD3D 
 418      FFA2BBAA 
 418      6A96
 419 0edf FB1A12AC 		.ascii	"\373\032\022\254\311\342\006\264p1\267\361\333C\262"
 419      C9E206B4 
 419      7031B7F1 
 419      DB43B2
 420 0eee B80E4F1B 		.ascii	"\270\016O\033XimK9\025\347%\337\370\303J\"y\3154\327"
 420      58696D4B 
 420      3915E725 
 420      DFF8C34A 
 420      2279CD34 
 421 0f03 B4171DC2 		.ascii	"\264\027\035\302\361v\376\350,\234\377N\351G\306\317"
 421      F176FEE8 
 421      2C9CFF4E 
 421      E947C6CF 
 422 0f13 4CE89E50 		.ascii	"L\350\236P\302\013o\037\376'}1a;j\341\321\366\251\333"
 422      C20B6F1F 
 422      FE277D31 
 422      613B6AE1 
 422      D1F6A9DB 
 423 0f27 0D87238B 		.ascii	"\015\207#\213\237\272\2114v\3525\361\002={a\247-]\274"
 423      9FBA8934 
 423      76EA35F1 
 423      023D7B61 
 423      A72D5DBC 
 424 0f3b 76D8E9D9 		.ascii	"v\330\351\331\0133\3475\337M\035\340z\324\310\251\035"
 424      0B33E735 
 424      DF4D1DE0 
 424      7AD4C8A9 
 424      1D
 425 0f4c D2D2C806 		.ascii	"\322\322\310\006\275F\356\241\207/4\330\322\311\271"
 425      BD46EEA1 
 425      872F34D8 
 425      D2C9B9
ARM GAS  /tmp/cctxkxwm.s 			page 34


 426 0f5b 1D927572 		.ascii	"\035\222urq\007C\235\\\325\301\360\360\205\315\035\014"
 426      7107439D 
 426      5CD5C1F0 
 426      F085CD1D 
 426      0C
 427 0f6c 0F5FD8D3 		.ascii	"\017_\330\323\301\360\360\205c\035\234\037\276\320\300"
 427      C1F0F085 
 427      631D9C1F 
 427      BED0C0
 428 0f7b 28F63E54 		.ascii	"(\366>T\354\375)\024{g\272\212\015\332\264\251t}\262"
 428      ECFD2914 
 428      7B67BA8A 
 428      0DDAB4A9 
 428      747DB2
 429 0f8e 43667B8C 		.ascii	"Cf{\214\026[g\374\006\260n|\366\245\315\361\331)"
 429      165B67FC 
 429      06B06E7C 
 429      F6A5CDF1 
 429      D929
 430 0fa0 BD4EBE45 		.ascii	"\275N\276E\317^8eK'k\017Op\246\223\261\013\237\221\005"
 430      CF5E3865 
 430      4B276B0F 
 430      4F70A693 
 430      B10B9F91 
 431 0fb5 A0D3A88F 		.ascii	"\240\323\250\217g\322\323\307\263z}<4\011\365\361\254"
 431      67D2D3C7 
 431      B37A7D3C 
 431      3409F5F1 
 431      AC
 432 0fc6 2D7DBCCC 		.ascii	"-}\274\314\352\236zoXGC\305\233\320\221W<;\252t\226"
 432      EA9E7A6F 
 432      584743C5 
 432      9BD09157 
 432      3C3BAA74 
 433 0fdb 51A56F51 		.ascii	"Q\245oQ\225\316\231\250\222$\314\353(\2525\220\236\215"
 433      95CE99A8 
 433      9224CCEB 
 433      28AA3590 
 433      9E8D
 434 0fed 5C7A7802 		.ascii	"\\zx\002\367\016\343\207z<\207\236\372\312\303\340\014"
 434      F70EE387 
 434      7A3C879E 
 434      FACAC3E0 
 434      0C
 435 0ffe DBAF     		.ascii	"\333\257"
 436 1000 CA718749 		.ascii	"\312q\207IU^\305\252\\\3231\255\252l\321We\013\255\312"
 436      555EC5AA 
 436      5CD331AD 
 436      AA6CD157 
 436      650BADCA 
 437 1014 165B55B9 		.ascii	"\026[U\271\275crU\0362\256\312o\322\250\312\026\246"
 437      BD637255 
 437      1E32AECA 
 437      6FD2A8CA 
 437      16A6
 438 1026 2AAF6355 		.ascii	"*\257cU\3360\255J\3456\033Ui4\250a\362\2439}\2059}\215"
 438      DE30AD4A 
ARM GAS  /tmp/cctxkxwm.s 			page 35


 438      E5361B55 
 438      6934A861 
 438      F2A3397D 
 439 103e 6EEB25A4 		.ascii	"n\353%\244W\370\341\302\353\267\351\207\013\247\364"
 439      57F8E1C2 
 439      EBB7E987 
 439      0BA7F4
 440 104d C38553DC 		.ascii	"\303\205S\334p\301\024\313\314\267<\221\360-eq\227\336"
 440      70C114CB 
 440      CCB73C91 
 440      F02D6571 
 440      97DE
 441 105f DE3954AA 		.ascii	"\3369T\252)\215\016\217g\211m\230\204o\365W{H\025NH"
 441      298D0E8F 
 441      67896D98 
 441      846FF557 
 441      7B48154E 
 442 1074 2A6D5ADB 		.ascii	"*mZ\333\206f!L\212R\230\277x\026[\3328CT\233\032\263"
 442      8666214C 
 442      8A5298BF 
 442      78165BDA 
 442      3843549B 
 443 108a 78C7E019 		.ascii	"x\307\340\031.\336Y\2743\264\257\021g%\246\3412\343"
 443      2EDE59BC 
 443      33B4AF11 
 443      6725A6E1 
 443      32E3
 444 109c 1E3D9A11 		.ascii	"\036=\232\021w\026/\323\034\231\346\350\330\204eT\300"
 444      77162FD3 
 444      1C99E6E8 
 444      D8846554 
 444      C0
 445 10ad 6FA080E7 		.ascii	"o\240\200\347%\0118\215c\023j\365\3425:6!`&\336\341"
 445      2509388D 
 445      63136AF5 
 445      E2353A36 
 445      216026DE 
 446 10c2 B14B8DFC 		.ascii	"\261K\215\374\333\330\313\355T\027\207\307\013\344z"
 446      DBD8CBED 
 446      541787C7 
 446      0BE47A
 447 10d1 23F33270 		.ascii	"#\3632p\314\016\230\305;<\023\324uV:v\006\263\343\030"
 447      CC0E98C5 
 447      3B3C13D4 
 447      75563A76 
 447      06B3E318 
 448 10e5 8F676EFA 		.ascii	"\217gn\372\347\310\034\005\253\267\003f\261\347\345"
 448      E7C81C05 
 448      ABB70366 
 448      B1E7E5
 449 10f4 A3CF6DBC 		.ascii	"\243\317m\274o\03338I\244\251\366\324\306g\250w8\315"
 449      6F1B3338 
 449      49A4A9F6 
 449      D4C667A8 
 449      7738CD
 450 1107 43DCDA03 		.ascii	"C\334\332\003\267\245vk\223\216\017\231\341\321\271"
 450      B7A5766B 
ARM GAS  /tmp/cctxkxwm.s 			page 36


 450      938E0F99 
 450      E1D1B9
 451 1116 0FD71AD0 		.ascii	"\017\327\032\320} \367SO\217\336h`\247Ge\361sl\007$"
 451      7D20F753 
 451      4F8FDE68 
 451      60A74765 
 451      F1736C07 
 452 112b AD5D5BC3 		.ascii	"\255][\303\343\335l\210O\365\311b\223c\260\000\007V"
 452      E3DD6C88 
 452      4FF5C962 
 452      9363B000 
 452      0756
 453 113d 73809937 		.ascii	"s\200\2317<\201\302I\001f1=:\226\005\373\3121\030\317"
 453      3C81C249 
 453      0166313D 
 453      3A9605FB 
 453      CA3118CF 
 454 1151 D9F8034C 		.ascii	"\331\370\003L1\207\273m\024\323bzt\"\313\331Y;\234Y"
 454      3187BB6D 
 454      14D3627A 
 454      7422CBD9 
 454      593B9C59 
 455 1165 2CDD4E66 		.ascii	",\335Nf\301\316\333\001\263X\272\235\312\202\375\340"
 455      C1CEDB01 
 455      B358BA9D 
 455      CA82FDE0 
 456 1175 188CE76C 		.ascii	"\030\214\347l:\013v\325\016X\300\234\263\031,\330M\307"
 456      3A0B76D5 
 456      0E58C09C 
 456      B3192CD8 
 456      4DC7
 457 1187 6001A326 		.ascii	"`\001\243&A?l\213\222\305\231\036\342\013\314\362\220"
 457      413F6C8B 
 457      92C5991E 
 457      E20BCCF2 
 457      90
 458 1198 9E7B36D2 		.ascii	"\236{6\322\267\221\316A\372.\322yH\347#]\210t\021\322"
 458      B791CE41 
 458      FA2ED279 
 458      48E7235D 
 458      887411D2 
 459 11ac 0F3D367A 		.ascii	"\017=6z\372\251\036f2p\304\355NM\221eA\022\243]p\"\320"
 459      FAA91E66 
 459      3270C4ED 
 459      4E4D9165 
 459      4112A35D 
 460 11c3 A9D98D2E 		.ascii	"\251\331\215.\310q\244/#\223\257!}\035\351(\244c\220"
 460      C871A42F 
 460      2393AF21 
 460      7D1DE928 
 460      A46390
 461 11d6 8E433A01 		.ascii	"\216C:\001\351$\244S\354\024\347\023\326q\251\365\350"
 461      E924A453 
 461      EC14E713 
 461      D671A9F5 
 461      E8
 462 11e7 66209C39 		.ascii	"f \2349.M+n^\373^\0343B\331\226e\177\323\363gg\232\336"
ARM GAS  /tmp/cctxkxwm.s 			page 37


 462      2E4D2B6E 
 462      5EFB5E1C 
 462      3342D996 
 462      657FD3F3 
 463 11ff 5537C82F 		.ascii	"U7\310/\305\336u\344\355?\211\3732\346v1uY,\336\233"
 463      C5DE75E4 
 463      ED3F89FB 
 463      32E67631 
 463      75592CDE 
 464 1214 5F7173E3 		.ascii	"_qs\343;\"\230\363\311Y\332dfg\372\206\221\372\364\323"
 464      3B2298F3 
 464      C959DA64 
 464      6667FA86 
 464      91FAF4D3 
 465 1228 1A465B95 		.ascii	"\032F[\225\251\225\036\2473\231\253<\3063\231m\342\372"
 465      A9951EA7 
 465      3399AB3C 
 465      C633996D 
 465      E2FA
 466 123a 35455F08 		.ascii	"5E_\010.\327\324.\323\245\253\333\222\346p\350\374\220"
 466      2ED7D42E 
 466      D3A5ABDB 
 466      92E670E8 
 466      FC90
 467 124c 194F6B59 		.ascii	"\031OkY\365\236aG\206\026\333\255.\027o\313\242\220"
 467      F59E6147 
 467      8616DBAD 
 467      2E176FCB 
 467      A290
 468 125e 9230C731 		.ascii	"\2220\3071V\300\244\235\010\374\024%\310\021\233\312"
 468      56C0A49D 
 468      08FC1425 
 468      C8119BCA 
 469 126e 6A6C2475 		.ascii	"jl$uH\267!]\202\315`\005\3225H\327\263MB\022\026 OK"
 469      48B7215D 
 469      82CD6005 
 469      D23548D7 
 469      B34D4212 
 470 1286 1897949B 		.ascii	"\030\227\224\233\012M\321{\202\222\354i\271v\367\374"
 470      0A4DD17B 
 470      8292EC69 
 470      B976F7FC 
 471 1296 E174D721 		.ascii	"\341t\327!\235o\375\310\026d\300\0242v\251zt\342\275"
 471      9D6FFDC8 
 471      1664C014 
 471      3276A97A 
 471      74E2BD
 472 12a9 32C5D6EB 		.ascii	"2\305\326\353=\273\337\377-\316\370~\214\355g\275\256"
 472      3DBBDFFF 
 472      2DCEF87E 
 472      8CED67BD 
 472      AE
 473 12ba FDD807DA 		.ascii	"\375\330\007\332\263\367\255.\010\264\025\201\266$5"
 473      B3F7AD2E 
 473      08B41581 
 473      B62435
 474 12c9 4441D70E 		.ascii	"DA\327\016\005\276\035\302W\245U\375\320\027>\340\316"
ARM GAS  /tmp/cctxkxwm.s 			page 38


 474      05BE1DC2 
 474      57A555FD 
 474      D0173EE0 
 474      CE
 475 12da 8B425A69 		.ascii	"\213BZi$a\227^\222F\343\303\036Vus\350g\323\361M)M2"
 475      2461975E 
 475      9246E3C3 
 475      1E567573 
 475      E867D3F1 
 476 12f2 8D8E11D9 		.ascii	"\215\216\021\331\031Qp\324\352F\213\244j4\2030\231o"
 476      195170D4 
 476      EA468BA4 
 476      6A348330 
 476      996F
 477 1304 4BFDF9F6 		.ascii	"K\375\371\366\013&\334\261E\330mb\021\264\262I\302\327"
 477      0B26DCB1 
 477      45D86D62 
 477      11B4B249 
 477      C2D7
 478 1316 FA3270B9 		.ascii	"\3722p\271\032\225\241=W\206\346\336d\361\216p&\011"
 478      1A95A13D 
 478      5786E6DE 
 478      64F18E70 
 478      2609
 479 1328 DFDBC132 		.ascii	"\337\333\3012}\351Y\211]\007,\023Y\360c;\034\"9\026"
 479      7DE95989 
 479      5D072C13 
 479      59F0633B 
 479      1C223916 
 480 133c C67E1361 		.ascii	"\306~\023ah\007~J\302\365\244\306f4\244\344^\216\346"
 480      68077E4A 
 480      C2F5A4C6 
 480      6634A4E4 
 480      5E8EE6
 481 134f DE428BDD 		.ascii	"\336B\213\335Di\354CiT\337a\007\354Y\0030\243\017\273"
 481      4469EC43 
 481      6954DF61 
 481      07EC5903 
 481      30A30FBB 
 482 1363 EC033D1B 		.ascii	"\354\003=\033Z\250\217\320*mDK\264\031\351\016\244;"
 482      5AA88FD0 
 482      2A6D444B 
 482      B419E90E 
 482      A43B
 483 1375 91EE41DA 		.ascii	"\221\356A\332\200\3643\326N\031\215*\334l\365h\315\367"
 483      80F433D6 
 483      4E198D2A 
 483      DC6CF568 
 483      CDF7
 484 1387 CC995F63 		.ascii	"\314\231_c\363=\204\203\223\267\357H=8q\363\265,\213"
 484      F33D8483 
 484      93B7EF48 
 484      3D3871F3 
 484      B52C8B
 485 139a 47F48393 		.ascii	"G\364\203\223\026\262\362s$\365\320\204\034\213<\207"
 485      16B2F273 
 485      24F5D084 
ARM GAS  /tmp/cctxkxwm.s 			page 39


 485      1C8B3C87 
 486 13aa 6EBFA786 		.ascii	"n\277\247\206p!f\177\304\223\256m\215\215\271\346S^"
 486      7021667F 
 486      C493AE6D 
 486      8D8DB9E6 
 486      535E
 487 13bc CB645712 		.ascii	"\313dW\022\367%V\022\237\325\000\264I\331\343\216\325"
 487      F7255612 
 487      9FD500B4 
 487      49D9E38E 
 487      D5
 488 13cd EB84897A 		.ascii	"\353\204\211ziS\340\222\260D_\004.\327\324\246|\334"
 488      6953E092 
 488      B0445F04 
 488      2ED7D4A6 
 488      7CDC
 489 13df B7935D28 		.ascii	"\267\223](\221\373\333\220\001\272\036\315\321\030X"
 489      91FBDB90 
 489      01BA1ECD 
 489      D11858
 490 13ee 898DDF29 		.ascii	"\211\215\337)\222\336\024\2616\330\3012\035\002+\261"
 490      92DE14B1 
 490      36D8C132 
 490      1D022BB1 
 491 13fe 49977C4A 		.ascii	"I\227|J\265&\333Y=&\247p\012N;\026\356\031\023\341j"
 491      B526DB59 
 491      3D26A770 
 491      0A4E3B16 
 491      EE1913E1 
 492 1413 338992F0 		.ascii	"3\211\222\360\211\343\"\360\342\230\354\231\234\245"
 492      89E322F0 
 492      E298EC99 
 492      9CA5
 493 1421 35DDBD49 		.ascii	"5\335\275I\272f\324t\215\266\"\032}\330V \213Gq@\361"
 493      BA66D474 
 493      8DB6221A 
 493      7DD85620 
 493      8B477140 
 494 1436 3936CB26 		.ascii	"96\313&\244_\"=\205\364k\244gS4W\305\305\026Hm\256W"
 494      A45F223D 
 494      85F46BA4 
 494      67533457 
 494      C5C51648 
 495 144d CE9DF90D 		.ascii	"\316\235\371\0156\327s\330\\\277M\335\\y\030|\243]\337"
 495      36D773D8 
 495      5CBF4DDD 
 495      5C79187C 
 495      A35DDF
 496 1460 5CDF0A05 		.ascii	"\\\337\012\005\350\335\324\315\265vn\242\271\312\342"
 496      E8DDD4CD 
 496      B5766EA2 
 496      B9CAE2
 497 146f 3174FD2F 		.ascii	"1t\375/\244\333\\\207\307\226\256s\270\356;\305/\311"
 497      A4DB5C87 
 497      C796AE73 
 497      B8EE3BC5 
 497      2FC9
ARM GAS  /tmp/cctxkxwm.s 			page 40


 498 1481 E2250F99 		.ascii	"\342%\017\231\012\277\254+\273\315\251\360\253\036\335"
 498      0ABFAC2B 
 498      BBCDA9F0 
 498      AB1EDD
 499 1490 54782B59 		.ascii	"Tx+Y\367%wSO\204\277\322)y\215mt'\3035\266\011\235\014"
 499      F7257753 
 499      4F84BFD2 
 499      29798D6D 
 499      7427C335 
 500 14a8 E7C7A777 		.ascii	"\347\307\247wr>?\236\340X\026\257\241b5{\314\346\307"
 500      723E3F9E 
 500      E05816AF 
 500      A162357B 
 500      CCE6C7
 501 14bb DFE924F2 		.ascii	"\337\351$\3625b\344\255\004\314+d\331iu9\230\2363;\317"
 501      3562E4AD 
 501      04CC2B64 
 501      D9697539 
 501      989E333B 
 502 14d0 311CEFFC 		.ascii	"1\034\357\374\254@\223Am\201,~\243W\227\224#x\336\015"
 502      AC409341 
 502      6D812C7E 
 502      A3579794 
 502      2378DE0D 
 503 14e4 5989AD77 		.ascii	"Y\211\255w\027b}\253\3072rC8,\313~\367\002\323x\277"
 503      17627DAB 
 503      C7327243 
 503      382CCB7E 
 503      F702D378 
 504 14f9 47195FC4 		.ascii	"G\031_\304F\372\003\322\021^\034J#\255\3662\3156\345"
 504      46FA03D2 
 504      115E1C4A 
 504      23ADF632 
 504      CD36E5
 505 150c 84602F8D 		.ascii	"\204`/\215\225\203\314\313\222\353.\356\275G}\265\336"
 505      9583CCCB 
 505      92EB2EEE 
 505      BD477DB5 
 505      DE
 506 151d 4B5AF197 		.ascii	"KZ\361\227\235Rw\272<\020\214\350\275\244\374\257{\365"
 506      9D5277BA 
 506      3C108CE8 
 506      BDA4FCAF 
 506      7BF5
 507 152f D3822371 		.ascii	"\323\202#qZ\220\334O\275\252xc\353\034\323]\237\272"
 507      5A90DC4F 
 507      BDAA7863 
 507      EB1CD35D 
 507      9FBA
 508 1541 0552BE61 		.ascii	"\005R\276aK\302\005`9\345\256\020Y\254A.\307\350\271"
 508      4BC20560 
 508      39E5AE10 
 508      59AC412E 
 508      C7E8B9
 509 1554 6CA05C8E 		.ascii	"l\240\\\216\261\305\345\376\255\311[\012t\007\323\036"
 509      B1C5E5FE 
 509      ADC95B0A 
ARM GAS  /tmp/cctxkxwm.s 			page 41


 509      7407D31E 
 510 1564 11CD3B95 		.ascii	"\021\315;\225\011^\335\311\264\217\304\017\246uz^\211"
 510      095EDDC9 
 510      B48FC40F 
 510      A6757A5E 
 510      89
 511 1575 2C5EC797 		.ascii	",^\307\227\256R\234s`\306\311d/\373\356\223\343\323"
 511      AE529C73 
 511      60C6C964 
 511      2FFBEE93 
 511      E3D3
 512 1587 85C923E3 		.ascii	"\205\311#\343\275\314@{\330\235\242*\\\213\346\304\341"
 512      BDCC407B 
 512      D89DA22A 
 512      5C8BE6C4 
 512      E1
 513 1598 71825596 		.ascii	"q\202U\226(\212\337\233\256Xg\230\2135>\037\220V\021"
 513      288ADF9B 
 513      AE586798 
 513      8B353E1F 
 513      905611
 514 15ab DF628B38 		.ascii	"\337b\2138\322q\021\003\316\212Xc\261;s\256U\021\325"
 514      D2711103 
 514      CE8A5863 
 514      B13B73AE 
 514      5511D5
 515 15be C32F6C15 		.ascii	"\303/l\025i\016[\244Qv\212d\276-\363\307\025i\241A\221"
 515      690E5BA4 
 515      51768A64 
 515      BE2DF3C7 
 515      1569A141 
 516 15d3 6C156181 		.ascii	"l\025a\201W\367\232^\215\343b\374\2045\263\330F\315"
 516      57F79A5E 
 516      8DE362FC 
 516      8435B3D8 
 516      46CD
 517 15e5 C4BF2FF5 		.ascii	"\304\277/\365\330\257\251\017\331\232\032o\247\210\346"
 517      D8AFA90F 
 517      D99A1A6F 
 517      A788E6
 518 15f4 072CFDB8 		.ascii	"\007,\375\270\"\256\260*\242\223\"-g\2134\305q\221\034"
 518      22AEB02A 
 518      A293222D 
 518      678B34C5 
 518      71911C
 519 1607 D69A95C9 		.ascii	"\326\232\225\311XgU$\3258\352MFZE^\313\026y\206\235"
 519      58675524 
 519      D538EA4D 
 519      465A455E 
 519      CB167986 
 520 161c 229B4F47 		.ascii	"\"\233OG\376\270\"oI\303J\246U\344\217\331\"\317u\\"
 520      FEB8226F 
 520      49C34AA6 
 520      55E48FD9 
 520      22CF755C 
 521 1630 E480C07F 		.ascii	"\344\200\300\177\022\233\032\306\241\3233\035\351;H"
 521      129B1AC6 
ARM GAS  /tmp/cctxkxwm.s 			page 42


 521      A1D3331D 
 521      E93B48
 522 163f E723FD00 		.ascii	"\347#\375\000\3512\244k\220nf\035#3>G\263|.D>_O\263"
 522      E932A46B 
 522      906E661D 
 522      23333E47 
 522      B37C2E44 
 523 1657 03536237 		.ascii	"\003Sb7\311\241cv\217\006Y\337\322|\027\216\234v\242"
 523      C9A16376 
 523      8F0659DF 
 523      D27C178E 
 523      9C76A2
 524 166a CF75EA4E 		.ascii	"\317u\352NC\237\313\352d\220K\230\244^\357\314\254\250"
 524      439FCBEA 
 524      64904B98 
 524      A45EEFCC 
 524      ACA8
 525 167c C663D9EB 		.ascii	"\306c\331\353m93\253\214\216<6:\3446>\026\275]H\274"
 525      6D3933AB 
 525      8C8E3C36 
 525      3AE4363E 
 525      16BD5D48 
 526 1691 D47F836C 		.ascii	"\324\177\203l\004\332\217\374\017\357\234\322g\3441"
 526      04DA8FFC 
 526      0FEF9CD2 
 526      67E431
 527 16a0 24611C26 		.ascii	"$a\034&9\250\347\377\222\034\240wSs\177E;\335`\237\227"
 527      39A8E7FF 
 527      921CA077 
 527      53737F45 
 527      3BDD609F 
 528 16b5 CCCEBF1D 		.ascii	"\314\316\277\035\007L\313\001\211]\017\221\271\011z"
 528      074CCB01 
 528      895D0F91 
 528      B9097A
 529 16c4 52C202C7 		.ascii	"R\302\002\307X\001\016kL\235v\306\005=\226b\271\035"
 529      58010E6B 
 529      4C9D76C6 
 529      053D9662 
 529      B91D
 530 16d6 3C8BB71F 		.ascii	"<\213\267\037\306\223c?\234\234\302\263M=\205\347\204"
 530      C693633F 
 530      9C9CC2B3 
 530      4D3D85E7 
 530      84
 531 16e7 17F742E8 		.ascii	"\027\367B\350\252'\315\365\250\235\216K\301I\245iC\313"
 531      AA27CDF5 
 531      A89D8E4B 
 531      C149A569 
 531      43CB
 532 16f9 89CEDA01 		.ascii	"\211\316\332\001\007\224\261\003v\020\215:5\243\017"
 532      0794B103 
 532      76108D3A 
 532      35A30F
 533 1708 AB4DB278 		.ascii	"\253M\262x\330K\234\343F4\006G\221\036Cz\034\351);\346"
 533      D84B9CE3 
 533      46340647 
ARM GAS  /tmp/cctxkxwm.s 			page 43


 533      911E437A 
 533      1CE9293B 
 534 171d 611F6B1E 		.ascii	"a\037k\036\232:k\355\315\241z\031\263Z\317\260\272\027"
 534      9A3A6BED 
 534      CDA17A19 
 534      B35ACFB0 
 534      BA17
 535 172f 596D6059 		.ascii	"Ym`Y\222\204\257;;5G\274\260\327]l\276\367\342per\226"
 535      9284AF3B 
 535      3B3547BC 
 535      B0D75D6C 
 535      BEF7E270 
 536 1746 FDE98C66 		.ascii	"\375\351\214f\257\004\303b/\231\3168\247\323\030\233"
 536      AF04C362 
 536      2F99CE38 
 536      A7D3189B 
 537 1756 D319E7BC 		.ascii	"\323\031\347\274\272\351\214\213t\3230\271\237zB\343"
 537      BAE98C8B 
 537      74D330B9 
 537      9F7A42E3 
 538 1766 6AE7E409 		.ascii	"j\347\344\011\215\341w\031Nh\274v\027?\241!\330\230"
 538      8DE17719 
 538      4E68BC76 
 538      173FA121 
 538      D898
 539 1778 B9483027 		.ascii	"\271H0'\213\337\241\310\317{\255\367\3732\322w\364\272"
 539      8BDFA1C8 
 539      CF7BADF7 
 539      FB32D277 
 539      F4BA
 540 178a 92126BDD 		.ascii	"\222\022k\335Jf\246\214\314`|L\372k!\261\200\274\340"
 540      4A66A68C 
 540      CC607C4C 
 540      FA6B21B1 
 540      80BCE0
 541 179d 1BF5A48A 		.ascii	"\033\365\244\212+hN\267\337\225\332\234\032\340\200"
 541      2B684EB7 
 541      DF95DA9C 
 541      1AE080
 542 17ac D9B98748 		.ascii	"\331\271\207H\273\031A\016:\005\221\204/0\311\015\275"
 542      BB19410E 
 542      3A059184 
 542      2F30C90D 
 542      BD
 543 17bd 4D5E578D 		.ascii	"M^W\215\003\344\0336\254\262\022\333P7]\3353G\317"
 543      03E41B36 
 543      ACB212DB 
 543      50375DDD 
 543      3347CF
 544 17d0 B0391BC7 		.ascii	"\2609\033\307T3\355\301\212/\265Y\256\247'\036\321\277"
 544      5433EDC1 
 544      8A2FB559 
 544      AEA7271E 
 544      D1BF
 545 17e2 73BAAC07 		.ascii	"s\272\254\007shG\033\342\3071\321\025]\345n\247x\\#"
 545      7368471B 
 545      E2C731D1 
ARM GAS  /tmp/cctxkxwm.s 			page 44


 545      155DE56E 
 545      A7785C23 
 546 17f6 8BEDA3CC 		.ascii	"\213\355\243\314Q\260W\355\200Y\034\201z\220\005{\323"
 546      51B057ED 
 546      80591C81 
 546      7A90057B 
 546      D3
 547 1807 3118CFD9 		.ascii	"1\030\317\331a\026l\222\0350\213E\360\243jw\226\346"
 547      61166C92 
 547      1D308B45 
 547      F0A36A77 
 547      96E6
 548 1819 DFF18CCE 		.ascii	"\337\361\214\316\340\374N\375\237\303\230\260\20536"
 548      E0FC4EFD 
 548      9FC398B0 
 548      853336
 549 1828 19CCD60E 		.ascii	"\031\314\326\016{\377K3\211:@od\340\261\354w\363m@\227"
 549      7BFF4B33 
 549      893A406F 
 549      64E0B1EC 
 549      77F36D40 
 550 183d 3561CC2C 		.ascii	"5a\314,\353q\031\346\377K\243\373M\022\346;\0260_[\307"
 550      EB7119E6 
 550      FF4BA3FB 
 550      4D12E63B 
 550      16305F5B 
 551 1852 AAB9837A 		.ascii	"\252\271\203z\226\330\201\013\030\324\227\321\207m\320"
 551      96D8810B 
 551      18D497D1 
 551      876DD0
 552 1861 B2D88A86 		.ascii	"\262\330\212\206O\311 \235\340p\244/!\255F\372\012\322"
 552      4FC9209D 
 552      E070A42F 
 552      21AD46FA 
 552      0AD2
 553 1873 D7908E42 		.ascii	"\327\220\216B:!\343\227\377\335\250\222\260\352n]_\307"
 553      3A21E397 
 553      FFDDA892 
 553      B0EA6E5D 
 553      5FC7
 554 1885 1BA654ED 		.ascii	"\033\246T\355P\301\316n\234\242l\313\262oq\033~A-\356"
 554      50C1CE6E 
 554      9CA26CCB 
 554      B26F711B 
 554      7E412DEE 
 555 1899 940C62A5 		.ascii	"\224\014b\245b:E\241j\371\337U\336\335\266\312k\276"
 555      623A45A1 
 555      6AF9DF55 
 555      DEDDB6CA 
 555      6BBE
 556 18ab F8A59537 		.ascii	"\370\245\2257\261\261G\277v\035W\030%>E\226\341t\001"
 556      B1B147BF 
 556      761D5718 
 556      253E4596 
 556      E17401
 557 18be 6C6686F1 		.ascii	"lf\206\361\002Xkb\005\354\200\276 \272\214\325\270\351"
 557      02586B62 
ARM GAS  /tmp/cctxkxwm.s 			page 45


 557      05EC80BE 
 557      20BA8CD5 
 557      B8E9
 558 18d0 D9DEB875 		.ascii	"\331\336\270u\331\345\245\334I\302!{p\365n3<\243\001"
 558      D9E5A5DC 
 558      49C2217B 
 558      70F56E33 
 558      3CA301
 559 18e3 B2814A34 		.ascii	"\262\201J4\305\307\"\367$Tb\361\251k\257\252g\265\315"
 559      C5C722F7 
 559      245462F1 
 559      A96BAFAA 
 559      67B5CD
 560 18f6 459D38A2 		.ascii	"E\2358\242\323\211\224@\3309f\350\227\263Nl\023q\244"
 560      D3899440 
 560      D83966E8 
 560      97B34E6C 
 560      1371A4
 561 1909 477E49BD 		.ascii	"G~I\2759\266\366\3046I}\267\226\356\364<\202\033ZI\342"
 561      39B6F6C4 
 561      36497DB7 
 561      96EEF43C 
 561      821B5A49 
 562 191e 34863500 		.ascii	"4\2065\000\270\344\3046:Jb7\216:\201\013pp\037\261p"
 562      B8E4C436 
 562      3A4A6237 
 562      8E3A810B 
 562      70701FB1 
 563 1933 927086CA 		.ascii	"\222p\206\312\310\032\316b\207\354r\236\273\317\355"
 563      C81ACE62 
 563      87EC729E 
 563      BBCFED
 564 1942 14D6628F 		.ascii	"\024\326b\217\354J\036\256\311\016\234\305.\331\325"
 564      EC4A1EAE 
 564      C90E9CC5 
 564      2ED9D5
 565 1951 7C61CFD9 		.ascii	"|a\317\331)\254\305>\331\265<\334\367v\340\214ze\243"
 565      29ACC53E 
 565      D9B53CDC 
 565      F776E08C 
 565      7A65A3
 566 1964 0FAB79B2 		.ascii	"\017\253y\2628?\203\330\247\005h{\026\"}\037\351\007"
 566      383F83D8 
 566      A705687B 
 566      16227D1F 
 566      E907
 567 1976 483F44BA 		.ascii	"H?D\272\030\351\022\3262\231Y\2029\031\314@\350\212"
 567      18E912D6 
 567      32995982 
 567      3919CC40 
 567      E88A
 568 1988 BE911AB1 		.ascii	"\276\221\032\261]oy\234\036\307\367\353\214]\035\205"
 568      5D6F799C 
 568      1EC7F7EB 
 568      8C5D1D85 
 569 1998 76F50D1C 		.ascii	"v\365\015\034\242}\212\364\014\322\313H'#\307o!\235"
 569      A27D8AF4 
ARM GAS  /tmp/cctxkxwm.s 			page 46


 569      0CD2CB48 
 569      2723C76F 
 569      219D
 570 19aa 8DF41D3B 		.ascii	"\215\364\035;\334\217\364Z\277\341Ml'\263+\362\275x"
 570      DC8FF45A 
 570      BFE14D6C 
 570      27B32BF2 
 570      BD78
 571 19bc 9BBE4305 		.ascii	"\233\276C\005X\356\330t\25601\235\267\247`uY\206\325"
 571      58EED874 
 571      AE30319D 
 571      B7A76075 
 571      5986D5
 572 19cf FBDD4DF1 		.ascii	"\373\335M\361^\342\367B\334l\265\254h\241/K\257D\243"
 572      5EE2F742 
 572      DC6CB5AC 
 572      68A12F4B 
 572      AF44A3
 573 19e2 F5E6CF52 		.ascii	"\365\346\317R\033-\016\206d\273Fo\264.\221-3kR\033,"
 573      1B2D0E86 
 573      64BB466F 
 573      B42E912D 
 573      336B521B 
 574 19f7 B2C63727 		.ascii	"\262\3067'y\015~MB\247\235n\231i\371!y\215v\215u\023"
 574      790D7E4D 
 574      42A79D6E 
 574      9969F921 
 574      798D768D 
 575 1a0d 0998A35D 		.ascii	"\011\230\243]w\233v\221YZr\257*\204\230Z\313\211m5\202"
 575      779B7691 
 575      595A72AF 
 575      2A84985A 
 575      CB896D35 
 576 1a22 B6B0CB30 		.ascii	"\266\260\3130\300%3b `$+\015n\015\323F\327b\033]\207"
 576      C0253362 
 576      2060242B 
 576      0D6E0DD3 
 576      46D7621B 
 577 1a38 7ABC1EE9 		.ascii	"z\274\036\351\006V\233\215*.\376_S\245\211\372\277\260"
 577      06569B8D 
 577      2A2EFE5F 
 577      53A589FA 
 577      BFB0
 578 1a4a FA22DD32 		.ascii	"\372\"\3352\265\021\353\177\201\215\372\347`p\276V_"
 578      B511EB7F 
 578      818DFAE7 
 578      6070BE56 
 578      5F
 579 1a5b FFB865EA 		.ascii	"\377\270e\352c[\365\337jP\377\037\247_\377c\230\015"
 579      635BF5DF 
 579      6A50FF1F 
 579      A75FFF63 
 579      980D
 580 1a6d 47B27852 		.ascii	"G\262xR\017\347\260\376\3072\033\216\226\242d\234`\005"
 580      0FE7B0FE 
 580      C7321B8E 
 580      96A2649C 
ARM GAS  /tmp/cctxkxwm.s 			page 47


 580      6005
 581 1a7f 38AC0997 		.ascii	"8\254\011\227|\300\230\246M\304\000\214s\231o\346\332"
 581      7CC098A6 
 581      4DC4008C 
 581      73996FE6 
 581      DA
 582 1a90 E1D8667C 		.ascii	"\341\330f|jb3\264\371\015pR\365%\340rU\243\026'\357"
 582      6A6233B4 
 582      F90D7052 
 582      F525E072 
 582      55A31627 
 583 1aa5 4EF46CCB 		.ascii	"N\364l\3132\341\237w@q\037\247\343\002\324\233\024\300"
 583      32E19F77 
 583      40711FA7 
 583      E302D49B 
 583      14C0
 584 1ab7 172FC026 		.ascii	"\027/\300&}\001R\373\275|\035\320\035S\254mHQ\237\246"
 584      7D0152FB 
 584      BD7C1DD0 
 584      1D53AC6D 
 584      48519FA6 
 585 1acb 7F04A3C4 		.ascii	"\177\004\243\304\246\306w_i\315\234U[\243\335WF\177"
 585      A6C6775F 
 585      69CD9C55 
 585      5BA3DD57 
 585      467F
 586 1add 0463F461 		.ascii	"\004c\364a\033\224,n\301v^\207-|+\322mH\267#\335\205"
 586      1B942C6E 
 586      C1765E87 
 586      2D7C2BD2 
 586      6D48B723 
 587 1af3 742FD206 		.ascii	"t/\322\006\266\375\337+\314Pb\347\233\246\254\377\246"
 587      B6FDDF2B 
 587      CC5062E7 
 587      9BA6ACFF 
 587      A6
 588 1b04 F3423267 		.ascii	"\363B2g\252\334l}q\330pQ7\352v[\354=\265\030u\333]\246"
 588      AADC6C7D 
 588      71D87051 
 588      37EA765B 
 588      EC3DB518 
 589 1b1c B8B0E1E2 		.ascii	"\270\260\341\342]\364m\261\203h]\026\337\343p\235\202"
 589      5DF46DB1 
 589      83685D16 
 589      DFE3709D 
 589      82
 590 1b2d 30D2A8B7 		.ascii	"0\322\250\267.\313\350\341!\2156\354\313\360\330\252"
 590      2ECBE8E1 
 590      218D36EC 
 590      CBF0D8AA 
 591 1b3d BAF76D6F 		.ascii	"\272\367mo\013\321\035\312\274\345\036\343m!\334c\340"
 591      0BD11DCA 
 591      BCE51EE3 
 591      6D21DC63 
 591      E0
 592 1b4e 256690CA 		.ascii	"%f\220\312?\256\347r\034\235\365:n\213\313\011u\352"
 592      3FAEE772 
ARM GAS  /tmp/cctxkxwm.s 			page 48


 592      1C9DF53A 
 592      6E8BCB09 
 592      75EA
 593 1b60 5AC4785C 		.ascii	"Z\304x\\\232\236\346\325 \323p\332\265Q\014\335} \213"
 593      9A9EE6D5 
 593      20D370DA 
 593      B5510CDD 
 593      7D208B
 594 1b73 6F3B060B 		.ascii	"o;\006\013\030\201\315\241\213\346v\300R-\370k+\360"
 594      1881CDA1 
 594      8BE676C0 
 594      522DF86B 
 594      2BF0
 595 1b85 8B1C83E9 		.ascii	"\213\034\203\351[Mbi\357\013l\002_\"=\211\364\224\035"
 595      5B4D6269 
 595      EF0B6C02 
 595      5F223D89 
 595      F4941D
 596 1b98 E7EE7376 		.ascii	"\347\356sv\206h\007\362\323\350\\\354F\037Vqa\030\206"
 596      866807F2 
 596      D3E85CEC 
 596      461F5671 
 596      611886
 597 1bab ADF8A81D 		.ascii	"\255\370\250\035\226>K\260\024_=\275\300\2374,\011G"
 597      963E4BB0 
 597      145F3DBD 
 597      C09F342C 
 597      0947
 598 1bbd 752DE9D7 		.ascii	"u-\351\327\302;\2122\026\233\373\031\"c\012#\011\247"
 598      C23B8A32 
 598      169BFB19 
 598      22630A23 
 598      09A7
 599 1bcf F0B97D19 		.ascii	"\360\271}\031\367\032f\247fF\023+\223\3522kD\232\027"
 599      F71A66A7 
 599      6646132B 
 599      93EA326B 
 599      449A17
 600 1be2 8CCC5224 		.ascii	"\214\314R$T9\372\037\302\\\322>>\373\262\377\343\352"
 600      5439FA1F 
 600      C25CD23E 
 600      3EFBB2FF 
 600      E3EA
 601 1bf4 C4BB7922 		.ascii	"\304\273y\"\265|_gHlY\210\241\232\325\324\264\356\253"
 601      B57C5F67 
 601      486C5988 
 601      A19AD5D4 
 601      B4EEAB
 602 1c07 CDCF9381 		.ascii	"\315\317\223\201\253\322\332\372\242@\367vHB\253a)\225"
 602      ABD2DAFA 
 602      A240F776 
 602      4842AB61 
 602      2995
 603 1c19 4BC58FAB 		.ascii	"K\305\217\2533]\243~N\0368g\312\345#,\223\037V\277\334"
 603      335DA37E 
 603      4E1E3867 
 603      CAE5232C 
ARM GAS  /tmp/cctxkxwm.s 			page 49


 603      931F56BF 
 604 1c2e DE4D372A 		.ascii	"\336M7*\010\026\251T6\2773`\363\353\330\214\355\231"
 604      0816A954 
 604      36BF3360 
 604      F3EBD88C 
 604      ED99
 605 1c40 35C39A5A 		.ascii	"5\303\232Z[\357u\260\373\341\207\324\226\224\233p\372"
 605      5BEF75B0 
 605      FBE187D4 
 605      96949B70 
 605      FA
 606 1c51 A506309E 		.ascii	"\245\0060\2361\245{\316l\376\237\350\247]AK:\373\347"
 606      31A57BCE 
 606      6CFE9FE8 
 606      A75D414B 
 606      3AFBE7
 607 1c64 A967E779 		.ascii	"\251g\347y\034\234\224J2\245d\263l\263=Cz-&*\257e\322"
 607      1C9C944A 
 607      32A564B3 
 607      6CB33D43 
 607      7A2D262A 
 608 1c7b 3DE860CA 		.ascii	"=\350`\312\221\201\346D[I\371\237\367<\334\032~o\346"
 608      9181E644 
 608      5B49F99F 
 608      F73CDC1A 
 608      7E6FE6
 609 1c8e 6A3D5CCA 		.ascii	"j=\\\312S-\370\335\224\353\346\233,\230\030\235c\035"
 609      532DF8DD 
 609      94EBE69B 
 609      2C98189D 
 609      631D
 610 1ca0 9B4936DE 		.ascii	"\233I6\336\016\363\341yV\251\005\231|\204\365K>\243"
 610      0EF3E179 
 610      56A90599 
 610      7C84F54B 
 610      3EA3
 611 1cb2 010FB96B 		.ascii	"\001\017\271kc\300\363\203\017-==\316~7fORZy\016\246"
 611      63C0F383 
 611      0F2D3D3D 
 611      CE7E3766 
 611      4F525A79 
 612 1cc8 720457FB 		.ascii	"r\004W\373,\273\303\276A\017\347d\306\202\014x>M8\274"
 612      2CBBC3BE 
 612      410FE764 
 612      C6820C78 
 612      3E4D38BC 
 613 1cdc 8D8EB102 		.ascii	"\215\216\261\002\034\326M\006\353\013;X\246+\010J\254"
 613      1CD64D06 
 613      EB0B3B58 
 613      A62B084A 
 613      AC
 614 1ced 8671C4BF 		.ascii	"\206q\304\277q\214\305\363\305:\365\227\355`\005\314"
 614      718CC5F3 
 614      C53AF597 
 614      ED6005CC 
 615 1cfd F962DF48 		.ascii	"\371b\337Hhu\214\305\3635\221\301z\365\0276\260,\\\365"
 615      68758CC5 
ARM GAS  /tmp/cctxkxwm.s 			page 50


 615      F33591C1 
 615      7AF51736 
 615      B02C5CF5 
 616 1d11 C90CD604 		.ascii	"\311\014\326\004\307X\034_\312!\246\036\337\262\203"
 616      C7581C5F 
 616      CA21A61E 
 616      DFB283
 617 1d20 653EF1AC 		.ascii	"e>\361\254\2640Xs\035c\361\362\232\306\275[\362\201"
 617      B4305873 
 617      1D63F1F2 
 617      9AC6BD5B 
 617      F281
 618 1d32 1D34D37F 		.ascii	"\0354\323\177OP\224\006\206\263\245\216\261x\211\035"
 618      4F509406 
 618      86B3A58E 
 618      B178891D 
 619 1d42 63B056DA 		.ascii	"c\260V\332\301\352a^\223oq\245\\\347\030-`Z\312Mv\260"
 619      C1EA615E 
 619      936F71A5 
 619      5CE7182D 
 619      605ACA4D 
 620 1d58 4CFF3D94 		.ascii	"L\377=\224/\345V\307X\001\301\364\303\332WY|\331G<\247"
 620      2FE556C7 
 620      5801C1F4 
 620      C3DA5759 
 620      7CD9473C 
 621 1d6d 6A1FAE8C 		.ascii	"j\037\256\214 }\015\351(\244\243\221\326 \035\213t<"
 621      207D0DE9 
 621      28A4A391 
 621      D6201D8B 
 621      743C
 622 1d7f D2894827 		.ascii	"\322\211H'#\235\212t:\322\031Hg!}\033\351\034\244\357"
 622      239D8A74 
 622      3AD21948 
 622      67217D1B 
 622      E91CA4EF 
 623 1d93 FAB81596 		.ascii	"\372\270\025\226O\177\241\353\216\370> \245\323\034"
 623      4F7FA1EB 
 623      8EF83E20 
 623      A5D31C
 624 1da2 DB305B75 		.ascii	"\3330[u\350\311\333\345\332k\345\315\326\236\245\305"
 624      E8C9DBE5 
 624      DA6BE5CD 
 624      D69EA5C5 
 625 1db2 5F98D6E3 		.ascii	"_\230\326\343\346\"r\326\244,\216p\333\300\262\030\270"
 625      E62272D6 
 625      A42C8E70 
 625      DBC0B218 
 625      B8
 626 1dc3 EEBF463B 		.ascii	"\356\277F; :\341\263G_R~z\307\010\216o\206\007<\204"
 626      203AE1B3 
 626      475F527E 
 626      7AC7088E 
 626      6F86073C 
 627 1dd8 357A38E4 		.ascii	"5z8\344A=\030\177\024\244\032\335&\2323w\020\321\350"
 627      413D187F 
 627      14A41ADD 
ARM GAS  /tmp/cctxkxwm.s 			page 51


 627      269A3377 
 627      10D1E8
 628 1deb EB7BC792 		.ascii	"\353{\307\222\320\270\227\365\324hL2G;\214h\364\355"
 628      D0B897F5 
 628      D4684C32 
 628      473B8C68 
 628      F4ED
 629 1dfd A2534955 		.ascii	"\242SIU\312\275K\244F_q\231\243\035a\320\316\333B[i"
 629      CABD4BA4 
 629      465F7199 
 629      A31D61D0 
 629      CEDB425B 
 630 1e12 81F639A2 		.ascii	"\201\3669\242\321Y\327\346\244J\340\346X\325\350\327"
 630      D159D7E6 
 630      A44AE0E6 
 630      58D5E8D7 
 631 1e22 4668C60D 		.ascii	"Fh\306\015\250\231\031z\264\340\320\343:\216\211n\""
 631      A899197A 
 631      B4E0D0E3 
 631      3A8E896E 
 631      22
 632 1e33 5550E5E7 		.ascii	"UP\345\347#]\200t!\322EH?DZ\213t)\322el\3430\363r/\233"
 632      235D8074 
 632      21D24548 
 632      3F445A8B 
 632      7429D265 
 633 1e4e ACB54BC2 		.ascii	"\254\265K\302\260{\015\307*\353\276j\271\357 \035\253"
 633      B07B0DC7 
 633      2AEBBE6A 
 633      B9EF201D 
 633      AB
 634 1e5f 5CCE481C 		.ascii	"\\\316H\034ht\321\324\231Ws0\366\346\315\222\251\014"
 634      6874D1D4 
 634      99577330 
 634      F6E6CD92 
 634      A90C
 635 1e71 ADF071DE 		.ascii	"\255\360q\336\374\177\210\256In\364\351\233j\232&\257"
 635      FC7F88AE 
 635      496EF4E9 
 635      9B6A9A26 
 635      AF
 636 1e82 DFEC99A2 		.ascii	"\337\354\231\242l\242C\017\373\023$k}\272\355\260d,"
 636      6CA2430F 
 636      FB13246B 
 636      7DBAEDB0 
 636      642C
 637 1e94 A51FB1A9 		.ascii	"\245\037\261\251\337\355N\230\354on\270g%\256+\307\320"
 637      DFED4E98 
 637      EC6F6EB8 
 637      6725AE2B 
 637      C7D0
 638 1ea6 3BDDA213 		.ascii	";\335\242\023\235M\234X\355\267ds\345f\304\330\251\303"
 638      9D4D9C58 
 638      EDB76473 
 638      E566C4D8 
 638      A9C3
 639 1eb8 90C5DEBA 		.ascii	"\220\305\336\272\245\351\336\272\277\235\272v\323\245"
ARM GAS  /tmp/cctxkxwm.s 			page 52


 639      A5E9DEBA 
 639      BF9DBA76 
 639      D3A5
 640 1ec6 D4F8F0BE 		.ascii	"\324\370\360\276$|}/\277\021\212I\367\230\331\332~\357"
 640      247C7D2F 
 640      BF118A49 
 640      F798D9DA 
 640      7EEF
 641 1ed8 84F6D5A1 		.ascii	"\204\366\325\241\371\326=\251S\220\357u\034j\017mK\252"
 641      F9D63DA9 
 641      5390EF75 
 641      1C6A0F6D 
 641      4BAA
 642 1eea B4C9F14A 		.ascii	"\264\311\361J;\272\341\302#\223\227(/\341\304\226~Z"
 642      3BBAE1C2 
 642      23939728 
 642      2FE1C496 
 642      7E5A
 643 1efc CB6233C9 		.ascii	"\313b3\311\016}\255\221\215\311:~\256\233\360\263\323"
 643      0E7DAD91 
 643      8DC93A7E 
 643      AE9BF0B3 
 643      D3
 644 1f0d 97342404 		.ascii	"\2274$\004NV\275=\352\240\270\350\375\352\030\031\030"
 644      4E56BD3D 
 644      EAA0B8E8 
 644      FDEA1819 
 644      18
 645 1f1e BEA81F18 		.ascii	"\276\250\037\030Z\260\262[\317\012\031\012\351X\231"
 645      5AB0B25B 
 645      CF0A190A 
 645      E95899
 646 1f2d 14306665 		.ascii	"\0240fe\217!+7\352>\035/\216\0311k\233r\236\354\271"
 646      8F212B37 
 646      EA3E1D2F 
 646      8E19316B 
 646      9B729EEC 
 647 1f42 7430466D 		.ascii	"t0Fm\320\363B\372\232\370\227\343\"\277\271\273^L\375"
 647      D0F342FA 
 647      9AF897E3 
 647      22BFB9BB 
 647      5E4CFD
 648 1f55 4A8C24BC 		.ascii	"J\214$\274c\302\373AC\336\367\264\034\277gR:\254\037"
 648      63C2FB41 
 648      43DEF7B4 
 648      1CBF6752 
 648      3AAC1F
 649 1f68 F6596D0F 		.ascii	"\366Ym\017\372\320\344\270\015d\333\227<\323b\364*\014"
 649      FAD0E4B8 
 649      0D64DB97 
 649      3CD362F4 
 649      2A0C
 650 1f7a 78972645 		.ascii	"x\227&E\371\334\260(\365g\366\232\032\024\253\2224Y"
 650      F9DCB028 
 650      F567F69A 
 650      1A14AB92 
 650      3459
ARM GAS  /tmp/cctxkxwm.s 			page 53


 651 1f8c 96E490C9 		.ascii	"\226\344\220\311\253\206\270\344dP\222\007\333\032|"
 651      AB86B8E4 
 651      64509207 
 651      DB1A7C
 652 1f9b D595ABCE 		.ascii	"\325\225\253\316\244"
 652      A4
 653 1fa0 5C270DCB 		.ascii	"\\'\015\313u\371\334\367\336t\312\365\225e\271\316Y"
 653      75F9DCF7 
 653      DE74CAF5 
 653      9565B9CE 
 653      59
 654 1fb1 94EBB469 		.ascii	"\224\353\264i\271t\0059iR\220o\214\012\022;|R\361QE"
 654      B9740539 
 654      6952906F 
 654      8C0A123B 
 654      7C52F151 
 655 1fc6 A3CC49C2 		.ascii	"\243\314I\3025\223\364\337\032\012\242y\305\027\356"
 655      3593F4DF 
 655      1A0AA279 
 655      C517EE
 656 1fd5 7404F19D 		.ascii	"t\004\361\235\245 V\232\270t\330\235\330\025D\315/\215"
 656      A520569A 
 656      B874D89D 
 656      D81544CD 
 656      2F8D
 657 1fe7 0B72D1A4 		.ascii	"\013r\321\244F\017\247U\243\227\364\346\202T\024g\307"
 657      460FA755 
 657      A397F4E6 
 657      82541467 
 657      C7
 658 1ff8 92399B67 		.ascii	"\2229\233g\302\331UC"
 658      C2D95543 
 659 2000 CE8E6E38 		.ascii	"\316\216n8\315\330wj\267%a\215\011F\263!\306\225s'\206"
 659      CDD8776A 
 659      B725618D 
 659      0946B321 
 659      C6957327 
 660 2015 A453BAEB 		.ascii	"\244S\272\353\226\2453\266\020u&\234\265\032rva\365"
 660      96A533B6 
 660      1075269C 
 660      B51A7276 
 660      61F5
 661 2027 E6901967 		.ascii	"\346\220\031g\026=\3060\277\225\376l\264\320\237\021"
 661      163DC630 
 661      BF95FE6C 
 661      B4D09F11 
 662 2037 FE64FD51 		.ascii	"\376d\375Q\017\276JQ\260\317M\012V\3557\266\342{\322"
 662      0FBE4A51 
 662      B0CF4D0A 
 662      56ED37B6 
 662      E27BD2
 663 204a B3E2AFF8 		.ascii	"\263\342\257\370u2?\302\312\334\204\325\024\254\237"
 663      75323FC2 
 663      CADC84D5 
 663      14AC9F
 664 2059 3161FD0D 		.ascii	"1a\375\015C\326\353\3174\247\325\250\337\324s~\302\006"
 664      43D6EBCF 
ARM GAS  /tmp/cctxkxwm.s 			page 54


 664      34A7D5A8 
 664      DFD4737E 
 664      C206
 665 206b E73A4E2F 		.ascii	"\347:N/\233p:\316\220\323+\347\232\323\321\236\011z"
 665      9B703ACE 
 665      90D32BE7 
 665      9AD3D19E 
 665      097A
 666 207d 464F3B67 		.ascii	"FO;gt\370\277\0313:\305\220\321\346\025;LEj\301\350"
 666      74F8BF19 
 666      333AC590 
 666      D1E6153B 
 666      4C456AC1 
 667 2092 343DA317 		.ascii	"4=\243\027\2343:\332\204\321\231\206\214\316\234\267"
 667      9C333ADA 
 667      84D19986 
 667      8CCE9CB7 
 668 20a2 FDB7E978 		.ascii	"\375\267\351x\223\263\365\234\022\346\022\212\3406\262"
 668      93B3F59C 
 668      12E6128A 
 668      E036B2
 669 20b1 D0534D38 		.ascii	"\320SM8\233c\310\331\364\325\033\177\236\206\010\337"
 669      9B63C8D9 
 669      F4D51B7F 
 669      9E8608DF 
 670 20c1 D53346FE 		.ascii	"\3253F\376\321T\357\237\2310\362\036\317\310\277\011"
 670      D154EF9F 
 670      9930F21E 
 670      CFC8BF09 
 671 20d1 B30923B5 		.ascii	"\263\011#\265\213\267\314\026\307*\320\264\225Xk\253"
 671      8BB7CC16 
 671      C72AD0B4 
 671      95586BAB 
 672 20e1 78AF2CCE 		.ascii	"x\257,\316\025\311\370`i\034E\345eV|$\334M\005\\\220"
 672      15C9F860 
 672      691C45E5 
 672      65567C24 
 672      DC4D055C 
 673 20f6 002460F5 		.ascii	"\000$`\365\3650\366k\034+\216W\224\004\330\011\004["
 673      F530F66B 
 673      1C2B8E57 
 673      9404D809 
 673      045B
 674 2108 A5078B25 		.ascii	"\245\007\213%\035\036\372\276\012\326MX\252\274\022"
 674      1D1EFABE 
 674      0AD64D58 
 674      AABC12
 675 2117 5BECA249 		.ascii	"[\354\242I\241\037\027\351z\007\355|@\271\325\357.r"
 675      A11F17E9 
 675      7A07ED7C 
 675      40B9D5EF 
 675      2E72
 676 2129 38057819 		.ascii	"8\005x\031\352\327\313\350\272B\257\243~\177E\242\337"
 676      EAD7CBE8 
 676      BA42AFA3 
 676      7E7F45A2 
 676      DF
ARM GAS  /tmp/cctxkxwm.s 			page 55


 677 213a 5F93E8F7 		.ascii	"_\223\350\367\014:\234\034\225\370J$\356\206[\243\023"
 677      0C3A9C1C 
 677      95F84A24 
 677      EE865BA3 
 677      13
 678 214b B77E065F 		.ascii	"\267~\006_k\022_\011\376X.\001)\305x\036qb\342k\354"
 678      6B125F09 
 678      FE582E01 
 678      29C5781E 
 678      7162E26B 
 679 2160 1FAA2462 		.ascii	"\037\252$b\365\261i\265~e\254\242\372\"\344\257@$a\263"
 679      F5B169B5 
 679      7E65ACA2 
 679      FA22E4AF 
 679      402461B3 
 680 2174 5E08067F 		.ascii	"^\010\006\177\032\362!/R\250\237\206\345\243\326\213"
 680      1AF2212F 
 680      52A89F86 
 680      E5A3D68B 
 681 2184 FBE62A30 		.ascii	"\373\346*0\014Q\224V\261\365\021\355@\206i\277\322\313"
 681      0C519456 
 681      B1F511ED 
 681      408669BF 
 681      D2CB
 682 2196 943F7E81 		.ascii	"\224?~\201\300\325&\301]x{\323\177-\030NZ\204r\025\320"
 682      C0D526C1 
 682      5D787BD3 
 682      7F2D184E 
 682      5A847215 
 683 21ab 5CDAFF18 		.ascii	"\\\332\377\030\314LB\343\376\265\000GTz\260\330\342"
 683      CC4C42E3 
 683      FEB50047 
 683      547AB0D8 
 683      E2
 684 21bc 632012E4 		.ascii	"c \022\344\253\365E\015hnj\240e\006z\263y\2308\216\325"
 684      ABF5450D 
 684      686E6AA0 
 684      65067AB3 
 684      7998388E 
 685 21d1 9B2FE851 		.ascii	"\233/\350QKz\260g5,mC\315\012Nm\262hBz\3145y\222\234"
 685      4B7AB067 
 685      352C6D43 
 685      CD0A4E6D 
 685      B268427A 
 686 21ea C04E202E 		.ascii	"\300N .\271\343\2654\353\015\257@\317\276&7Z\360\304"
 686      B9E3B534 
 686      EB0DAF40 
 686      CFBE2637 
 686      5AF0C4
 687 21fd 72CA88B2 		.ascii	"r\312\210\2627\366\355\216\314xyF\342\373\203\265z\026"
 687      37F6ED8E 
 687      CC787946 
 687      E2FB83B5 
 687      7A16
 688 220f 92DAE4EA 		.ascii	"\222\332\344\352Dq\322|\023b-\337\2523\205\327\331\376"
 688      4471D27C 
 688      13622DDF 
ARM GAS  /tmp/cctxkxwm.s 			page 56


 688      AA3385D7 
 688      D9FE
 689 2221 BFB779F7 		.ascii	"\277\267y\367\277\336\237)\350>f\217\256\361\033ow\244"
 689      BFDE9F29 
 689      E83E668F 
 689      AEF11B6F 
 689      77A4
 690 2233 531266A9 		.ascii	"S\022f\2516\230\246\"\323$f\251b&\251\354Kd\223\336"
 690      3698A622 
 690      D32466A9 
 690      6226A9EC 
 690      4B6493DE 
 691 2247 CE9192DA 		.ascii	"\316\221\222\332z\311x\243)\307\304v\232\245\372\330"
 691      7AC978A3 
 691      29C7C476 
 691      9AA5FAD8 
 692 2257 3415D102 		.ascii	"4\025\321\002\263T[LS\315\266\310\253\3164\3254\213"
 692      B3545B4C 
 692      53CDB6C8 
 692      ABCE34D5 
 692      348B
 693 2269 545B4D53 		.ascii	"T[MSM\260H\265\3154\325\233\026\251>1M\365\212E\252"
 693      4DB048B5 
 693      CD34D59B 
 693      16A93E31 
 693      4DF58A45 
 694 227e EDA6A986 		.ascii	"\355\246\251\206Y\244\332a\232\352\272\205\206}j\232"
 694      59A4DA61 
 694      9AEABA85 
 694      867D6A9A 
 695 228e EA9245AA 		.ascii	"\352\222E\252\235\246\251vX\244\332\225He\264\212\034"
 695      9DA6A976 
 695      58A4DA95 
 695      4865B48A 
 695      1C
 696 229f 9F577F56 		.ascii	"\237W\177V\210\317\367\035[3\352\033q9N\370\355\366"
 696      88CFF71D 
 696      5B33EA1B 
 696      71394EF8 
 696      EDF6
 697 22b1 134376F3 		.ascii	"\023Cv\363W\206\023~\346@$\343\275~\335r\364\015\372"
 697      5786137E 
 697      E64024E3 
 697      BD7EDD72 
 697      F40DFA
 698 22c4 771CE4BE 		.ascii	"w\034\344\276`\320\305\253\037u[y\353\341\351\006\347"
 698      60D0C5AB 
 698      1F755B79 
 698      EBE1E906 
 698      E7
 699 22d5 6993B446 		.ascii	"i\223\264F\005U\243\364\243>\300\343\3254&\235\247\355"
 699      0555A3F4 
 699      A33EC0E3 
 699      D534269D 
 699      A7ED
 700 22e7 042CC081 		.ascii	"\004,\300\201\215md\016M~\355\327bj0\213\267\005\306"
 700      8D6D640E 
ARM GAS  /tmp/cctxkxwm.s 			page 57


 700      4D7EEDD7 
 700      626A308B 
 700      B705C6
 701 22fa B3606F3A 		.ascii	"\263`o:\006\3439\233\310\026\363\210\235bZ\274)0\231"
 701      06E3399B 
 701      C816F388 
 701      9D625ABC 
 701      293099
 702 230d E56CBC1D 		.ascii	"\345l\274\035\316,\336\023\230\312\202M\266\003fq\236"
 702      CE2CDE13 
 702      98CA824D 
 702      B6036671 
 702      9E
 703 231e F674166C 		.ascii	"\366t\026l\206c0\236\263\031,\330\034;`\001s\316\026"
 703      8663309E 
 703      B3192CD8 
 703      1C3B6001 
 703      73CE16
 704 2331 B360F31D 		.ascii	"\263`\363\035\203\361\234-a\301\026\331\001\263\370"
 704      83F19C2D 
 704      61C116D9 
 704      01B3F8
 705 2340 2BE48F58 		.ascii	"+\344\217X\260Z\307`<g\313Y\260ev\300L\377\012yXl\345"
 705      B05AC760 
 705      3C67CB59 
 705      B06576C0 
 705      4CFF0A79 
 706 2357 FFAE91D9 		.ascii	"\377\256\221\331-\274\314\3779\352\317+e\037\253\023"
 706      2DBCCCFF 
 706      39EACF2B 
 706      651FAB13 
 707 2367 4D1F93C5 		.ascii	"M\037\223\305o\375\332\306w\355\310C\375Wp\332=\272"
 707      6FFDDAC6 
 707      77EDC843 
 707      FD5770DA 
 707      3DBA
 708 2379 F661B8CD 		.ascii	"\366a\270\315\305\342o\227W\263RXeG\012=\314\301\326"
 708      C5E26F97 
 708      57B35258 
 708      65470A3D 
 708      CCC1D6
 709 238c B260EBED 		.ascii	"\262`\353\355\200Y\374\037\361z\026l\223c0\236\263z"
 709      8059FC1F 
 709      F17A166C 
 709      9363309E 
 709      B37A
 710 239e 166CAB1D 		.ascii	"\026l\253\035\260\376\346\234\355e\301\266;\006c9\033"
 710      B0FEE69C 
 710      ED65C1B6 
 710      3B066339 
 710      1B
 711 23af 16DB97D0 		.ascii	"\026\333\227\320\234Y=t\252\323\2037\227\334c\214\352"
 711      9C593D74 
 711      AAD38337 
 711      97DC638C 
 711      EA
 712 23c0 E81E93C5 		.ascii	"\350\036\223\305f\277\323=\342-~\343=\342\354\022U\342"
ARM GAS  /tmp/cctxkxwm.s 			page 58


 712      66BFD33D 
 712      E22D7EE3 
 712      3DE2EC12 
 712      55E2
 713 23d2 292876BD 		.ascii	")(v\275\276\330\034\023j\324h\261\334\350\303\366\264"
 713      BED81C13 
 713      6AD468B1 
 713      DCE8C3F6 
 713      B4
 714 23e3 B2D8E027 		.ascii	"\262\330\340'+[\373\374d\205t?\322\003H\017\"=\214\264"
 714      2B5BFBFC 
 714      6485743F 
 714      D203480F 
 714      223D8CB4 
 715 23f7 11E951A4 		.ascii	"\021\351Q\244\307\220\036G\372\005\322\223H\277Bz\032"
 715      C7901E47 
 715      FA05D293 
 715      48BF427A 
 715      1A
 716 2408 E93748CF 		.ascii	"\3517H\317!=\217\364{\244? \275\214\364\252\237YL\323"
 716      213D8FF4 
 716      7BA43F20 
 716      BD8CF4AA 
 716      9F594CD3 
 717 241c B927BB4D 		.ascii	"\271'\273M\352\227\360~\303\324\251\331m\341\324\334"
 717      EA97F07E 
 717      C3D4A9D9 
 717      6DE1D4DC 
 718 242c 344DF59D 		.ascii	"4M\365\235E\252V\323T_Y\244R\332\230\245\332o\361\246"
 718      45AA56D3 
 718      545F59A4 
 718      52DA98A5 
 718      DA6FF1A6 
 719 2440 F530D354 		.ascii	"\3650\323TM\026y\0157Mu\330\"\325\010\323T\015\026\251"
 719      4D16790D 
 719      374D75D8 
 719      22D508D3 
 719      540D16A9 
 720 2454 5E4AA452 		.ascii	"^J\244R\267\345\037>5\352&\376M\000\016\374g\371t\003"
 720      B7E51F3E 
 720      35EA26FE 
 720      4D000EFC 
 720      67F97403 
 721 2468 1EB22669 		.ascii	"\036\262&i\006V\335\246\223\032\323\0069\2220\3457\372"
 721      0656DDA6 
 721      931AD306 
 721      399230E5 
 721      37FA
 722 247a 991C5C24 		.ascii	"\231\034\\$\037\256,y\217,\257\323\263\227d\361\345"
 722      1FAE2C79 
 722      8F2CAFD3 
 722      B39764F1 
 722      E5
 723 248b 36966BE4 		.ascii	"6\226k\344#\333p\363>\202'\370hEEi^\227\301\025e\241"
 723      23DB70F3 
 723      3E8227F8 
 723      68454569 
ARM GAS  /tmp/cctxkxwm.s 			page 59


 723      5E97C115 
 724 24a1 2E4515C5 		.ascii	".E\025\305/t)\016\015\351R4\270d@IE\244K4\\U\376\257"
 724      2F74290E 
 724      0DE95234 
 724      B8644049 
 724      45A44B34 
 725 24b9 2E10192C 		.ascii	".\020\031,\227v\251\254\010G#]\012\012\373v\315\241"
 725      9776A9AC 
 725      0847235D 
 725      0A0AFB76 
 725      CDA1
 726 24cb B477B7A1 		.ascii	"\264w\267\241C\273\310\305E\301\322\322\342\373\007"
 726      43BBC8C5 
 726      45C1D2D2 
 726      E2FB07
 727 24da 0BFE9E79 		.ascii	"\013\376\236y\271y\341\222!\241\260\367\261'\237\012"
 727      B979E192 
 727      21A1B0F7 
 727      B1279F0A 
 728 24ea E40A3976 		.ascii	"\344\0129vPK\312\213J\253\212C\004\0070\332\300%\022"
 728      504BCA8B 
 728      4AAB8A43 
 728      040730DA 
 728      C02512
 729 24fd 95A3A160 		.ascii	"\225\243\241`\264\015\300\005\237z\262\317\223}\012"
 729      B40DC005 
 729      9F7AB2CF 
 729      937D0A
 730 250c 7D245A50 		.ascii	"}$ZP\330\257?\311\"\230\337\253g\3363\370k\317\334\302"
 730      D8AF3FC9 
 730      2298DFAB 
 730      67DE33F8 
 730      6BCFDCC2 
 731 2520 3E7FEF95 		.ascii	">\177\357\225I\242\271\375\372\366\177\242Wa/|\242W"
 731      49A2B9FD 
 731      FAF67FA2 
 731      57612F7C 
 731      A257
 732 2532 7E7EBF7C 		.ascii	"~~\277|\017\342\374\272KU$\334E\016\227\375\241\274"
 732      0FE2FCBA 
 732      4B5524DC 
 732      450E97FD 
 732      A1BC
 733 2544 A23CF487 		.ascii	"\242<\364\207\220<\240$\236e$Z\\R\036\205\\}Up\355\232"
 733      903CA024 
 733      9E65245A 
 733      5C521E85 
 733      5C7D5570 
 734 255a 138C76B3 		.ascii	"\023\214v\263x\272L\006\376\313C]\202\305\241\201rU"
 734      78BA4C06 
 734      FECB435D 
 734      82C5A181 
 734      7255
 735 256c 6934187D 		.ascii	"i4\030}\2412\024!<\007\203ZzOqUY\331\013\204\207\334"
 735      A1321421 
 735      3C07835A 
 735      7A4F7155 
ARM GAS  /tmp/cctxkxwm.s 			page 60


 735      59D90B84 
 736 2582 8AF28125 		.ascii	"\212\362\201%\203\274ExiKJ%\227U\226B\2610\257\354\007"
 736      83BC4578 
 736      694B4A25 
 736      97559642 
 736      B130AFEC 
 737 2597 A17C3419 		.ascii	"\241|4\031\211f\320\037#9\230}i\311\200.\203\212\212"
 737      8966D01F 
 737      2339987D 
 737      69C9802E 
 737      838A8A
 738 25aa 746C74BB 		.ascii	"tlt\273\277\373\375\335X\326\201\015\310\334\033)\371"
 738      BFFBFDDD 
 738      58D6810D 
 738      C8DC1B29 
 738      F9
 739 25bb BF219271 		.ascii	"\277!\222q\2502:\330WT\022.\252*\225\303\035I\255\024"
 739      A8323AD8 
 739      5754122E 
 739      AA2A95C3 
 739      1D49AD14 
 740 25cf 0D96CBCB 		.ascii	"\015\226\313\313C\245\221`yUY0\232I\250v\353\026\370"
 740      43A59160 
 740      79555930 
 740      9A49A876 
 740      EB16F8
 741 25e2 BD482E2D 		.ascii	"\275H.-\035 \027\375+\030\365\206\312\213\203E\003\210"
 741      1D2017FD 
 741      2B18F586 
 741      CA8B8345 
 741      0388
 742 25f4 EC43E170 		.ascii	"\354C\341pE8\030\355\250J1\230\327\267g\357\236}\236"
 742      453818ED 
 742      A84A3198 
 742      D7B767EF 
 742      9E7D9E
 743 2607 782ABF57 		.ascii	"x*\277W{\355V\277\277\367\312\357\375D\277\377\350\250"
 743      7BED56BF 
 743      BFF7CAEF 
 743      FD44BFFF 
 743      E8A8
 744 2619 3D9E00F2 		.ascii	"=\236\000\362\321\344E\003\\E\341l\0109\236HYe8\033"
 744      D1E44503 
 744      5C45E16C 
 744      08399E48 
 744      5965381B 
 745 262d 698E3BF2 		.ascii	"i\216;\362\\8\233\020\214u\355H\205\004\332\022)\251"
 745      5C389B10 
 745      8C75ED48 
 745      8504DA12 
 745      29A9
 746 263f 287F2C5C 		.ascii	"(\177,\\QU\351\036\024\256\254\354\236Ji\302\321\270"
 746      5155E91E 
 746      14AEACEC 
 746      9E4A69C2 
 746      D1B8
 747 2651 148A0647 		.ascii	"\024\212\006G^\210h\325\340\213\016\016\207\344\342"
ARM GAS  /tmp/cctxkxwm.s 			page 61


 747      5E8868D5 
 747      E08B0E0E 
 747      87E4E2
 748 2660 60D45F34 		.ascii	"`\324_48H\343\335\234a\025\015&j\354\255\014\226\207"
 748      3848E3DD 
 748      9C61150D 
 748      266AECAD 
 748      0C9687
 749 2673 8646E152 		.ascii	"\206F\341R\031\016\015y\334\006\004m\030=\363\373\346"
 749      190E0D79 
 749      DC06046D 
 749      183DF3FB 
 749      E6
 750 2684 F61D0A4F 		.ascii	"\366\035\012O\226U\226\224B\251\272<\226\233\013\217"
 750      96559694 
 750      42A9BA3C 
 750      969B0B8F 
 751 2694 6BEC6544 		.ascii	"k\354eD+\303%\025A\212[R\221\001\232\021\205l\376\350"
 751      2BC32515 
 751      418A5B52 
 751      91019A11 
 751      856CFEE8 
 752 26a8 187F7051 		.ascii	"\030\177pQE8\004\200m\311\355 hPQt\350_\323C\011\016"
 752      45380480 
 752      6DC9ED20 
 752      68505174 
 752      E85FD343 
 753 26be 79A88C48 		.ascii	"y\250\214H.\034\032\004\312\026\214\272\"\331\017Bx"
 753      2E1C1A04 
 753      CA168CBA 
 753      22D90F42 
 753      78
 754 26cf 08427708 		.ascii	"\010Bw\010\177tEr\262 dC\310\201\320\025B7\010\017@"
 754      7F744572 
 754      B2206443 
 754      C881D015 
 754      4237080F 
 755 26e4 80E772E0 		.ascii	"\200\347r\340\271\034x.\007\236\353\012\317u\315\226"
 755      B91C782E 
 755      079EEB0A 
 755      CF75CD96 
 756 26f4 C2DDA4F0 		.ascii	"\302\335\244\360\003R\370A)\374\220\024\356.\205\377"
 756      0352F841 
 756      29FC9014 
 756      EE2E85FF 
 757 2704 E80A6767 		.ascii	"\350\012ggA\310\226J\303p\351\352\251\014\002\267\031"
 757      41C8964A 
 757      C370E9EA 
 757      A90C02B7 
 757      19
 758 2715 44C2CF87 		.ascii	"D\302\317\207\302p\255(-\016\205\335\240\226a\"v\271"
 758      C270AD28 
 758      2D0E85DD 
 758      A0966122 
 758      76B9
 759 2727 2CE48BAA 		.ascii	",\344\213\252\315?\2034\216\356P\233\264\231@\014\036"
 759      CD3F8334 
ARM GAS  /tmp/cctxkxwm.s 			page 62


 759      8EEE509B 
 759      B499400C 
 759      1E
 760 2738 C7DF32A2 		.ascii	"\307\3372\242e\025\305!\374>\260T\036\024\311\210\206"
 760      6515C521 
 760      FC3EB054 
 760      1E14C988 
 760      86
 761 2749 43032328 		.ascii	"C\003#(Y\022\361\224E\006\301\217j\213\204\344j\314"
 761      5912F194 
 761      4506C18F 
 761      6A8B84E4 
 761      6ACC
 762 275b 1B2E7E01 		.ascii	"\033.~\001~\362\205\206\226DAP!\357\363\321\212\001"
 762      7EF28586 
 762      96444150 
 762      21EFF3D1 
 762      8A01
 763 276d FFAC6C1B 		.ascii	"\377\254l\033\032\022*\217\226\311\021l\010\317\223"
 763      1A122A8F 
 763      96C9116C 
 763      08CF93
 764 277c 88AB3258 		.ascii	"\210\2532X\325\216jP$XZ\022\201\246~k\\\247\350\035"
 764      D58E6A50 
 764      24585A12 
 764      81A67E6B 
 764      5CA7E81D 
 765 2790 7F65F079 		.ascii	"\177e\360y\271$ZR>\350V\355\366sU\241*\340\252=\363"
 765      B9245A52 
 765      3EE856ED 
 765      F67355A1 
 765      2AE0AA3D 
 766 27a5 24DE6A53 		.ascii	"$\336jS\031\204l1\352\301(\334\010UB\223\203\304\236"
 766      19846C31 
 766      EAC128DC 
 766      08554293 
 766      83C49E
 767 27b8 B22A5082 		.ascii	"\262*P\202\256\216\324\264,:\224\250S\031E\207k\305"
 767      AE8ED4B4 
 767      2C3A94A8 
 767      53194587 
 767      6BC5
 768 27ca F3E5204B 		.ascii	"\363\345 KD\202"
 768      4482
 769 27d0 2294A1F6 		.ascii	"\"\224\241\366\002\177\360\034\341\264\015\221\212\\"
 769      027FF01C 
 769      E1B40D91 
 769      8A5C
 770 27de 8A3A0737 		.ascii	"\212:\0077+\301\332?\344(?\2650\220gG\265\205\201\224"
 770      2BC1DA3F 
 770      E4283FB5 
 770      30906747 
 770      B5858194 
 771 27f2 43E15079 		.ascii	"C\341Py\021\224\326Ko\3759\025\"\260\324%\267oA\237"
 771      1194D64B 
 771      6FFD3915 
 771      22B0D425 
ARM GAS  /tmp/cctxkxwm.s 			page 63


 771      B76F419F 
 772 2806 02E839C0 		.ascii	"\002\3509\300x\225u\315\031\330-+{(1\371m\211a)\204"
 772      789575CD 
 772      19D82D2B 
 772      7B2831F9 
 772      6D896129 
 773 281b 5692171A 		.ascii	"V\222\027\032(\025\344\273r\363\263!\344x\012\372\366"
 773      2815E4BB 
 773      72F3B321 
 773      E4780AFA 
 773      F6
 774 282c CFCF469A 		.ascii	"\317\317F\232\343\371[\277\336\020'\224\306\273\"\355"
 774      E3F95BBF 
 774      DE102794 
 774      C6BB22ED 
 775 283c E67ABC30 		.ascii	"\346z\2740\337\365Da\276\273\340\177\345g\023\222CH"
 775      DFF54461 
 775      BEBBE07F 
 775      E5671392 
 775      4348
 776 284e 57F7DF80 		.ascii	"W\367\337\200\272\377\226\007\367\200\344\020\322\225"
 776      BAFF9607 
 776      F780E410 
 776      D295
 777 285c 906E525E 		.ascii	"\220nR^\276\013\254V\357\364{;d=X\\&\023q\200q\014\026"
 777      BE0BAC56 
 777      EFF47B3B 
 777      643D585C 
 777      26137180 
 778 2873 80F2C965 		.ascii	"\200\362\311eq\376s\363\335O\346\001S\375{\346\273\373"
 778      71FE73F3 
 778      DD4FE601 
 778      53FD7BE6 
 778      BBFB
 779 2885 661192DD 		.ascii	"f\021\222\3353\337\325;7\337\033\301\007\335%\003\213"
 779      33DFD53B 
 779      37DF1BC1 
 779      07DD2503 
 779      8B
 780 2896 C2DE92C8 		.ascii	"\302\336\222\310\340\222\201Q\177$T:\260\244\27484\324"
 780      E0928151 
 780      7F24543A 
 780      B0A4BC38 
 780      34D4
 781 28a8 3B245414 		.ascii	";$T\024\255\010w\214\243\007\351\323 _\370\022\211V"
 781      AD08778C 
 781      A307E9D3 
 781      205FF812 
 781      8956
 782 28ba 66C08528 		.ascii	"f\300\205(}\007\332\277F\272\224F\312\272fu%m\227\306"
 782      7D07DABF 
 782      46BA9446 
 782      CABA6675 
 782      256D97C6 
 783 28ce 82D13BB4 		.ascii	"\202\321;\264\237Jr\212\202\221Py\244\"L\204\333''\267"
 783      9F4A728A 
 783      82915079 
ARM GAS  /tmp/cctxkxwm.s 			page 64


 783      A4224C84 
 783      DB2727B7 
 784 28e2 00BF800E 		.ascii	"\000\277\200\016'\342\330\216|}\236\244\035\250\273"
 784      27E2D88E 
 784      7C7D9EA4 
 784      1DA8BB
 785 28f1 4FDE13BD 		.ascii	"O\336\023\275\334\217>U\360L\206\\\\\034\016E\"\216"
 785      DC8F3E55 
 785      F04C865C 
 785      5C1C0E45 
 785      228E
 786 2903 FD81279E 		.ascii	"\375\201'\236\310\353\002\360C\2621{\325\037\200\033"
 786      C8EB02F0 
 786      43B2317B 
 786      D51F801B 
 787 2913 9429478E 		.ascii	"\224)G\216\000\000\220N\025.\232#\0008\232#@\242\350"
 787      0000904E 
 787      152E9A23 
 787      00389A23 
 787      40A2E8
 788 2926 0890083A 		.ascii	"\010\220\010:\002\267\220\030-G\260\360i\366[\376\323"
 788      02B79018 
 788      2D47B0F0 
 788      69F65BFE 
 788      D3
 789 2937 98F2897E 		.ascii	"\230\362\211~\271\377\336+\257-\340UTR\303\321\246_"
 789      B9FFDE2B 
 789      AF2DE055 
 789      5452C3D1 
 789      A65F
 790 2949 FFBEFDF2 		.ascii	"\377\276\375\362z\005\341\327\333\324hA_(~0\257\327"
 790      7A05E1D7 
 790      DBD46841 
 790      5F287E30 
 790      AFD7
 791 295b DFFBE4F6 		.ascii	"\337\373\344\366\352\300\335{\274_AaF\005\264\034H\332"
 791      EAC0DD7B 
 791      BC5F4161 
 791      4605B41C 
 791      48DA
 792 296d B6A8B402 		.ascii	"\266\250\264\002\372\271He(T\334\016\000\213\253\242"
 792      FAB94865 
 792      2854DC0E 
 792      008BABA2 
 793 297d 2F14BD50 		.ascii	"/\024\275PD\272\365v\005\205y\301\274\247\012\237\011"
 793      44BAF576 
 793      058579C1 
 793      BCA70A9F 
 793      09
 794 298e E63E93FB 		.ascii	"\346>\223\373D\257\016\275{\026\0242\337\2039\267\353"
 794      44AF0EBD 
 794      7B161432 
 794      DF8339B7 
 794      EB
 795 299f EF40C7FF 		.ascii	"\357@\307\377\3076\004!\210\020\244D\324i EG\303F\014"
 795      C7360421 
 795      8810A444 
ARM GAS  /tmp/cctxkxwm.s 			page 65


 795      D4692045 
 795      47C3460C 
 796 29b3 12E95023 		.ascii	"\022\351P#~\270Cj&\030u\223\213?<T\325\007\177T\213"
 796      7EB8436A 
 796      26187593 
 796      8B3F3C54 
 796      D5077F54 
 797 29c8 79E01A1E 		.ascii	"y\340\032\036Jht(\251tM#\335\375zB3\000\222\343*\200"
 797      4A687428 
 797      A9744D23 
 797      DDFD7A42 
 797      330092E3 
 798 29de 865500D7 		.ascii	"\206U\000\327\334\334|Oa~\237\202^\356\336\320v\\\200"
 798      DCDC7C4F 
 798      617E9F82 
 798      5EEEDED0 
 798      765C80
 799 29f1 ED27DD68 		.ascii	"\355'\335hI\031\261\251\344RQ\025u\023[\354\211\016"
 799      4919B1A9 
 799      E4525115 
 799      75135BEC 
 799      890E
 800 2a03 7DB46AA0 		.ascii	"}\264j\240'L\250_.*\242\312\343/\223\007\321\230\227"
 800      274CA85F 
 800      2E2AA2CA 
 800      E32F9307 
 800      D19897
 801 2a16 DA651F9A 		.ascii	"\332e\037\232X\210d\312\003\252\006\006\213*\252\240"
 801      588864CA 
 801      03AA0606 
 801      8B2AAAA0 
 802 2a26 670B6796 		.ascii	"g\013g\2261_\200O\031@\006b\254L\215\205\343\367\302"
 802      315F804F 
 802      19400662 
 802      AC4C8D85 
 802      E3F7C2
 803 2a39 DABDB87E 		.ascii	"\332\275\270~\227E\036x0\353!\242\3374\006\242\240:"
 803      97451E78 
 803      30EB21A2 
 803      DF3406A2 
 803      A03A
 804 2a4b ED026FC3 		.ascii	"\355\002o\303W\012m\2420TV\351'\221\376Da}\310* \370"
 804      570A6DA2 
 804      305456E9 
 804      2791FE44 
 804      617DC82A 
 805 2a61 C2437550 		.ascii	"\302CuP\221\222\207\262\206f\021(\032\013F;\250\021"
 805      919287B2 
 805      86661128 
 805      1A0B463B 
 805      A811
 806 2a73 4858515A 		.ascii	"HXQZ\025\005\367\303\363x\367\302\354\034\357\343\331"
 806      1505F7C3 
 806      F378F7C2 
 806      EC1CEFE3 
 806      D9
 807 2a84 5985D95D 		.ascii	"Y\205\331]\341\222]\230\235\015\227\234\302\354n.x\312"
ARM GAS  /tmp/cctxkxwm.s 			page 66


 807      E1925D98 
 807      9D0D979C 
 807      C2EC6E2E 
 807      78CA
 808 2a96 3B38049A 		.ascii	";8\004\232\030~\300\211\032GB\341\022\271\024\262\315"
 808      187EC089 
 808      1A4742E1 
 808      12B914B2 
 808      CD
 809 2aa7 2CC01865 		.ascii	",\300\030e\347V\366\313\337\373\026z\236\017\227DCn"
 809      E756F6CB 
 809      DFFB167A 
 809      9E0F9744 
 809      436E
 810 2ab9 62435D95 		.ascii	"bC]\225UQ\327\240P\324\015\327\250\033\"Q/\376\030\365"
 810      5551D7A0 
 810      50D40DD7 
 810      A81B2251 
 810      2FFE18F5 
 811 2acd 905FA3AE 		.ascii	"\220_\243\256!e\321\007\035\031n\354\330\210\335n\207"
 811      2165D107 
 811      1D196EEC 
 811      D888DD6E 
 811      87
 812 2ade B160A4A2 		.ascii	"\261`\244\242*Llv&\373\265=\375Bz\212\020t#\240\310"
 812      2A4C6C76 
 812      26FBB53D 
 812      FD427A8A 
 812      107423A0 
 813 2af3 FC8D8C50 		.ascii	"\374\215\214P)v(m\341\252\335\363C\234\202S(UY}p\033"
 813      2976286D 
 813      E1AADDF3 
 813      439C8253 
 813      2855597D 
 814 2b09 A3E4F7E7 		.ascii	"\243\344\367\347i\327\034\212`j\017>\347\217\024\253"
 814      69D71C8A 
 814      606A0F3E 
 814      E78F14AB 
 815 2b19 4DDA5F90 		.ascii	"M\332_\220\247\266\350\014\210\221\006\355\203+\266"
 815      A7B6E80C 
 815      889106ED 
 815      832BB6
 816 2b28 676765C4 		.ascii	"gge\304>\220\224\361\226\222r\220\233\326\011\267\001"
 816      3E9094F1 
 816      96927290 
 816      9BD609B7 
 816      01
 817 2b39 4F4B8DFA 		.ascii	"OK\215\372\264\250\3779\255\313\206\230\252\227\276"
 817      B4A8FF39 
 817      ADCB8698 
 817      AA97BE
 818 2b48 E7820350 		.ascii	"\347\202\003P[<\317\005\243\025\225\031\360H\2702\032"
 818      5B3CCF05 
 818      A3159519 
 818      F048B832 
 818      1A
 819 2b59 866BB818 		.ascii	"\206k\270\030\256\376\347\312+\242%\003_\000\224\347"
ARM GAS  /tmp/cctxkxwm.s 			page 67


 819      AEFEE7CA 
 819      2BA22503 
 819      5F0094E7 
 820 2b69 8234EA7D 		.ascii	"\2024\352}\016\304P\376/o\011b\266\203\246\302d\353"
 820      0EC450FE 
 820      2F6F0962 
 820      B683A6C2 
 820      64EB
 821 2b7b ADC08854 		.ascii	"\255\300\210T2@\252\030p\313S\005=\363\013\265v\350"
 821      3240AA18 
 821      70CB5305 
 821      3DF30BB5 
 821      76E8
 822 2b8d 7A349F74 		.ascii	"z4\237tm]\335\217\025\366\317\367TE\344p4\256\241\321"
 822      6D5DDD8F 
 822      15F6CFF7 
 822      5445E470 
 822      34AEA1D1 
 823 2ba1 B2CA9C87 		.ascii	"\262\312\234\207\036@\027\026c\301\304O\003\340FwT^"
 823      1E401716 
 823      63C1C44F 
 823      03E04677 
 823      545E
 824 2bb3 1A83DA8B 		.ascii	"\032\203\332\213\353|U8$\026\212\375Sz\017Cd\350\373"
 824      EB7C5538 
 824      24168AFD 
 824      537A0F43 
 824      64E8FB
 825 2bc6 AB22F003 		.ascii	"\253\"\360\0038\001P[\200\346\314\003\240\235\021\221"
 825      3801505B 
 825      80E6CC03 
 825      A09D1191 
 826 2bd6 F2ED8FCA 		.ascii	"\362\355\217\312\221PA\010JY\036\0055\246\235\337\235"
 826      91504108 
 826      4A591E05 
 826      35A69DDF 
 826      9D
 827 2be7 463741B7 		.ascii	"F7A\267}Z\206.\210\270\006\226E\333G\324\236\010}\206"
 827      7D5A862E 
 827      88B80696 
 827      45DB47D4 
 827      9E087D86 
 828 2bfb FB8B844C 		.ascii	"\373\213\204Lz\243\020\277\273\344\360 \335\023\240"
 828      7AA310BF 
 828      BBE4F020 
 828      DD13A0
 829 2c0a BAEC13A0 		.ascii	"\272\354\023\2407\221\322P\250\262\020lT\006pZ\016u"
 829      3791D250 
 829      A8B2106C 
 829      5406705A 
 829      0E75
 830 2c1c A942E4C9 		.ascii	"\251B\344\311Q\031\374W\360y2\242`\030\036-\253\304"
 830      5119FC57 
 830      F07932A2 
 830      60181E2D 
 830      ABC4
 831 2c2e 2B0813AF 		.ascii	"+\010\023\257\371\321\3426\344\332\027\215\211\257\222"
ARM GAS  /tmp/cctxkxwm.s 			page 68


 831      F9D1E236 
 831      E4DA178D 
 831      89AF92
 832 2c3d 880F9EF1 		.ascii	"\210\017\236\361c\244o\345\320\262\2664\206?g\014\256"
 832      63A46FE5 
 832      D0B2B634 
 832      863F670C 
 832      AE
 833 2c4e 2A2BEE53 		.ascii	"*+\356S\036\305k\257\241Q\037\271>\230\3255\313\015"
 833      1EC56BAF 
 833      A1511FB9 
 833      3E98D535 
 833      CB0D
 834 2c60 36F06942 		.ascii	"6\360iB\236!\344\037n0\204O\023\362\014!\377p\027\003"
 834      9E21E41F 
 834      6E30844F 
 834      13F20C21 
 834      FF701703 
 835 2c74 0F5E5A4D 		.ascii	"\017^ZM^\332+{\251\361\362\203\020\012\300\344\344d"
 835      5EDA2B7B 
 835      A9F1F283 
 835      100AC0E4 
 835      E464
 836 2c86 F9A12DD0 		.ascii	"\371\241-\320\230\227Vu{\266|\005\240\202\216\206\200"
 836      98975675 
 836      7BB67C05 
 836      A0828E86 
 836      80
 837 2c97 2031E20A 		.ascii	" 1\342\012\016\221\261i\266\013\006\007\225W\025\005"
 837      0E91B169 
 837      B60B0607 
 837      95571505 
 838 2ca7 D5AF6DFF 		.ascii	"\325\257m\3772\240\252\2444\372\207\222\362\207\005"
 838      32A0AAA4 
 838      34FA8792 
 838      F28705
 839 2cb6 F082D5BB 		.ascii	"\360\202\325\27308\032Bk\005\\\332\302\301\305\005D"
 839      30381A42 
 839      6B055CDA 
 839      C2C1C505 
 839      44
 840 2cc7 A04F41C5 		.ascii	"\240OA\305\225\266\271\277\313\200\0129L\244\336\026"
 840      95B6B9BF 
 840      CB800A39 
 840      4CA4DE16 
 841 2cd7 2305A1E8 		.ascii	"#\005\241\350\023\275\362\310\250\220\216\323\242w\252"
 841      13BDF2C8 
 841      A8908ED3 
 841      A277AA
 842 2ce6 BE06E1B5 		.ascii	"\276\006\341\265gQQ\010F92\261\236\277Pm4\271\257i&"
 842      67515108 
 842      463932B1 
 842      9EBF506D 
 842      34B9AF69 
 843 2cfb 31CFE467 		.ascii	"1\317\344g\210\336\0267\267r\361\343Ue%\305%\321\027"
 843      88DE1637 
 843      B772F1E3 
ARM GAS  /tmp/cctxkxwm.s 			page 69


 843      556525C5 
 843      25D117
 844 2d0e 3A31F798 		.ascii	":1\367\230G;\251\015@w[C\240f\270W\271<\2404\324&\301"
 844      473BA90D 
 844      40775B43 
 844      A066B857 
 844      B93CA034 
 845 2d25 FE9DEACF 		.ascii	"\376\235\352\317\221P\364q|\"\267*\014\376i\264\255"
 845      9150F471 
 845      7C22B72A 
 845      0CFE69B4 
 845      AD
 846 2d36 DA664ACA 		.ascii	"\332fJ\312K\242mU\3361\256\362\213q5-\306\325\334I\334"
 846      4BA26D55 
 846      DE31AEF2 
 846      8B71352D 
 846      C6D5DC49 
 847 2d4b 07DD6241 		.ascii	"\007\335bA\024Z)\210\251oth\277\001\377\004\027\255"
 847      145A2988 
 847      A96F7468 
 847      BF01FF04 
 847      17AD
 848 2d5d 0FFCE021 		.ascii	"\017\374\340!\263\034\331~\271\\.\255\030\364X\270\362"
 848      B31CD97E 
 848      B95C2EAD 
 848      18F458B8 
 848      F2
 849 2d6e 161A2BA0 		.ascii	"\026\032+\240#\370>\3518Nh(\300u\242]\206\352=\271\012"
 849      23F83EE9 
 849      384E6828 
 849      C075A25D 
 849      86EA3DB9 
 850 2d83 F21EF410 		.ascii	"\362\036\364\020\017*\033iW\017\361\012\006y\362z=\372"
 850      0F2A1B69 
 850      570FF10A 
 850      0679F27A 
 850      3DFA
 851 2d95 D4638E1D 		.ascii	"\324c\216\035X\222Ka\237\276$\017t1\241\227'\325\034"
 851      58924B61 
 851      9FBE240F 
 851      7431A197 
 851      27D51C
 852 2da8 FF028E45 		.ascii	"\377\002\216EA_\360]\363\372\364\312w\365z,\337\223"
 852      415FF05D 
 852      F3FAF4CA 
 852      77F57A2C 
 852      DF93
 853 2dba 9BDB171C 		.ascii	"\233\333\027\034nBs\334\271\271p3\367\311BW\377\202"
 853      6E4273DC 
 853      B9B97033 
 853      F7C94257 
 853      FF82
 854 2dcc 5C574F30 		.ascii	"\\WO0c\371\360\344\243\304\313\315#I\372\366\314\227"
 854      63F9F0E4 
 854      A3C4CBCD 
 854      2349FAF6 
 854      CC97
ARM GAS  /tmp/cctxkxwm.s 			page 70


 855 2dde FAD1145D 		.ascii	"\372\321\024]\341\331\247\363s\177\014wj\351;\322X\020"
 855      E1D9A7F3 
 855      737F0C77 
 855      6AE93BD2 
 855      5810
 856 2df0 BA41CD56 		.ascii	"\272A\315V\377?&6\230e"
 856      FF3F2636 
 856      9865
 857              		.text
 858              		.section	.gnu.lto_.symtab.7aa76a50f65f33d0,"",%progbits
 859 0000 73656E73 		.ascii	"sensorThread\000\000\000\000\000\000\000\000\000\000"
 859      6F725468 
 859      72656164 
 859      00000000 
 859      00000000 
 860 0016 0000EE03 		.ascii	"\000\000\356\003\000\000sensorThreadStop\000\000\000"
 860      00007365 
 860      6E736F72 
 860      54687265 
 860      61645374 
 861 002f 00000000 		.ascii	"\000\000\000\000\000\000\000\000\000\363\003\000\000"
 861      00000000 
 861      00F30300 
 861      00
 862 003c 53443600 		.ascii	"SD6\000\000\002\000\000\000\000\000\000\000\000\000"
 862      00020000 
 862      00000000 
 862      000000
 863 004b B0040000 		.ascii	"\260\004\000\000I2CD1\000\000\002\000\000\000\000\000"
 863      49324344 
 863      31000002 
 863      00000000 
 863      00
 864 005c 00000000 		.ascii	"\000\000\000\000\262\004\000\000I2CD3\000\000\002\000"
 864      B2040000 
 864      49324344 
 864      33000002 
 864      00
 865 006d 00000000 		.ascii	"\000\000\000\000\000\000\000\000\264\004\000\000ADC"
 865      00000000 
 865      B4040000 
 865      414443
 866 007c 44310000 		.ascii	"D1\000\000\002\000\000\000\000\000\000\000\000\000\251"
 866      02000000 
 866      00000000 
 866      0000A9
 867 008b 04000063 		.ascii	"\004\000\000chvprintf\000\000\002\000\000\000\000\000"
 867      68767072 
 867      696E7466 
 867      00000200 
 867      00000000 
 868 009f 00000000 		.ascii	"\000\000\000\000;\004\000\000chThdSleepUntil\000\000"
 868      3B040000 
 868      63685468 
 868      64536C65 
 868      6570556E 
 869 00b8 02000000 		.ascii	"\002\000\000\000\000\000\000\000\000\000J\004\000\000"
ARM GAS  /tmp/cctxkxwm.s 			page 71


 869      00000000 
 869      00004A04 
 869      0000
 870 00c6 626F6172 		.ascii	"boardSetLED\000\000\002\000\000\000\000\000\000\000"
 870      64536574 
 870      4C454400 
 870      00020000 
 870      00000000 
 871 00db 00004E04 		.ascii	"\000\000N\004\000\000adcConvert\000\000\002\000\000"
 871      00006164 
 871      63436F6E 
 871      76657274 
 871      00000200 
 872 00f0 00000000 		.ascii	"\000\000\000\000\000\000\000R\004\000\000lsm303_rea"
 872      00000052 
 872      0400006C 
 872      736D3330 
 872      335F7265 
 873 0105 64416363 		.ascii	"dAcceleration\000\000\002\000\000\000\000\000\000\000"
 873      656C6572 
 873      6174696F 
 873      6E000002 
 873      00000000 
 874 011c 00005904 		.ascii	"\000\000Y\004\000\000ms5607_readPressureTemperature"
 874      00006D73 
 874      35363037 
 874      5F726561 
 874      64507265 
 875 0140 00000200 		.ascii	"\000\000\002\000\000\000\000\000\000\000\000\000_\004"
 875      00000000 
 875      00000000 
 875      5F04
 876 014e 00007369 		.ascii	"\000\000si70x0_readHumidity\000\000\002\000\000\000"
 876      37307830 
 876      5F726561 
 876      6448756D 
 876      69646974 
 877 0169 00000000 		.ascii	"\000\000\000\000\000\000f\004\000\000si70x0_readTem"
 877      00006604 
 877      00007369 
 877      37307830 
 877      5F726561 
 878 0181 70657261 		.ascii	"perature\000\000\002\000\000\000\000\000\000\000\000"
 878      74757265 
 878      00000200 
 878      00000000 
 878      000000
 879 0194 006C0400 		.ascii	"\000l\004\000\000tmp275_readTemperature\000\000\002"
 879      00746D70 
 879      3237355F 
 879      72656164 
 879      54656D70 
 880 01b2 00000000 		.ascii	"\000\000\000\000\000\000\000\000\000n\004\000\000si"
 880      00000000 
 880      006E0400 
 880      007369
 881 01c1 37307830 		.ascii	"70x0_heaterEnable\000\000\002\000\000\000\000\000\000"
ARM GAS  /tmp/cctxkxwm.s 			page 72


 881      5F686561 
 881      74657245 
 881      6E61626C 
 881      65000002 
 882 01db 00000074 		.ascii	"\000\000\000t\004\000\000chThdSleep\000\000\002\000"
 882      04000063 
 882      68546864 
 882      536C6565 
 882      70000002 
 883 01f0 00000000 		.ascii	"\000\000\000\000\000\000\000\000y\004\000\000si70x0"
 883      00000000 
 883      79040000 
 883      73693730 
 883      7830
 884 0202 5F736574 		.ascii	"_setHeaterCurrent\000\000\002\000\000\000\000\000\000"
 884      48656174 
 884      65724375 
 884      7272656E 
 884      74000002 
 885 021c 0000007B 		.ascii	"\000\000\000{\004\000\000bmp280_init\000\000\002\000"
 885      04000062 
 885      6D703238 
 885      305F696E 
 885      69740000 
 886 0232 00000000 		.ascii	"\000\000\000\000\000\000\000\000\200\004\000\000lsm"
 886      00000000 
 886      80040000 
 886      6C736D
 887 0241 3330335F 		.ascii	"303_init\000\000\002\000\000\000\000\000\000\000\000"
 887      696E6974 
 887      00000200 
 887      00000000 
 887      000000
 888 0254 00870400 		.ascii	"\000\207\004\000\000ms5607_init\000\000\002\000\000"
 888      006D7335 
 888      3630375F 
 888      696E6974 
 888      00000200 
 889 0269 00000000 		.ascii	"\000\000\000\000\000\000\000\216\004\000\000si70x0_"
 889      0000008E 
 889      04000073 
 889      69373078 
 889      305F
 890 027b 696E6974 		.ascii	"init\000\000\002\000\000\000\000\000\000\000\000\000"
 890      00000200 
 890      00000000 
 890      00000000 
 891 028b 94040000 		.ascii	"\224\004\000\000tmp275_init\000\000\002\000\000\000"
 891      746D7032 
 891      37355F69 
 891      6E697400 
 891      00020000 
 892 02a0 00000000 		.ascii	"\000\000\000\000\000\000\232\004\000\000i2cStart\000"
 892      00009A04 
 892      00006932 
 892      63537461 
 892      727400
ARM GAS  /tmp/cctxkxwm.s 			page 73


 893 02b3 00020000 		.ascii	"\000\002\000\000\000\000\000\000\000\000\000\240\004"
 893      00000000 
 893      000000A0 
 893      04
 894 02c0 00006368 		.ascii	"\000\000chMtxObjectInit\000\000\002\000\000\000\000"
 894      4D74784F 
 894      626A6563 
 894      74496E69 
 894      74000002 
 895 02d8 00000000 		.ascii	"\000\000\000\000\000\245\004\000\000"
 895      00A50400 
 895      00
 896              		.text
 897              		.section	.gnu.lto_.opts,"",%progbits
 898 0000 272D6D63 		.ascii	"'-mcpu=cortex-m4' '-mfloat-abi=hard' '-mfpu=fpv4-sp"
 898      70753D63 
 898      6F727465 
 898      782D6D34 
 898      2720272D 
 899 0033 2D643136 		.ascii	"-d16' '-mno-thumb-interwork' '-mthumb' '-O2' '-fomi"
 899      2720272D 
 899      6D6E6F2D 
 899      7468756D 
 899      622D696E 
 900 0066 742D6672 		.ascii	"t-frame-pointer' '-falign-functions=16' '-ffunction"
 900      616D652D 
 900      706F696E 
 900      74657227 
 900      20272D66 
 901 0099 2D736563 		.ascii	"-sections' '-fdata-sections' '-fno-common' '-flto' "
 901      74696F6E 
 901      73272027 
 901      2D666461 
 901      74612D73 
 902 00cc 272D6673 		.ascii	"'-fsingle-precision-constant'\000"
 902      696E676C 
 902      652D7072 
 902      65636973 
 902      696F6E2D 
 903              		.text
 904              		.section	.text.chprintf.constprop.0,"ax",%progbits
 905              		.align	2
 906              		.p2align 4,,15
 907              		.thumb
 908              		.thumb_func
 909              		.type	chprintf.constprop.0, %function
 910              	chprintf.constprop.0:
 911              		@ args = 4, pretend = 12, frame = 8
 912              		@ frame_needed = 0, uses_anonymous_args = 1
 913 0000 0EB4     		push	{r1, r2, r3}
 914 0002 00B5     		push	{lr}
 915 0004 82B0     		sub	sp, sp, #8
 916 0006 04AB     		add	r3, sp, #16
 917 0008 1A46     		mov	r2, r3
 918 000a 0549     		ldr	r1, .L2
 919 000c 0548     		ldr	r0, .L2+4
 920 000e 0193     		str	r3, [sp, #4]
ARM GAS  /tmp/cctxkxwm.s 			page 74


 921 0010 FFF7FEFF 		bl	chvprintf
 922 0014 02B0     		add	sp, sp, #8
 923              		@ sp needed
 924 0016 5DF804EB 		ldr	lr, [sp], #4
 925 001a 03B0     		add	sp, sp, #12
 926 001c 7047     		bx	lr
 927              	.L3:
 928 001e 00BF     		.align	2
 929              	.L2:
 930 0020 00000000 		.word	.LC0
 931 0024 00000000 		.word	SD6
 932              		.size	chprintf.constprop.0, .-chprintf.constprop.0
 933              		.global	__aeabi_f2d
 934 0028 AFF30080 		.section	.text.sensorThread,"ax",%progbits
 934      AFF30080 
 935              		.align	2
 936              		.p2align 4,,15
 937              		.global	sensorThread
 938              		.thumb
 939              		.thumb_func
 940              		.type	sensorThread, %function
 941              	sensorThread:
 942              		@ args = 0, pretend = 0, frame = 32
 943              		@ frame_needed = 0, uses_anonymous_args = 0
 944 0000 2DE9F04F 		push	{r4, r5, r6, r7, r8, r9, r10, fp, lr}
 945 0004 0124     		movs	r4, #1
 946 0006 8BB0     		sub	sp, sp, #44
 947 0008 0546     		mov	r5, r0
 948 000a 8470     		strb	r4, [r0, #2]
 949 000c 0430     		adds	r0, r0, #4
 950 000e FFF7FEFF 		bl	chMtxObjectInit
 951 0012 554B     		ldr	r3, .L17
 952 0014 554A     		ldr	r2, .L17+4
 953 0016 5648     		ldr	r0, .L17+8
 954 0018 5649     		ldr	r1, .L17+12
 955 001a 1A60     		str	r2, [r3]
 956 001c 05F5F477 		add	r7, r5, #488
 957 0020 FFF7FEFF 		bl	i2cStart
 958 0024 5448     		ldr	r0, .L17+16
 959 0026 5349     		ldr	r1, .L17+12
 960 0028 FFF7FEFF 		bl	i2cStart
 961 002c 05F5DC78 		add	r8, r5, #440
 962 0030 3846     		mov	r0, r7
 963 0032 5149     		ldr	r1, .L17+16
 964 0034 4822     		movs	r2, #72
 965 0036 FFF7FEFF 		bl	tmp275_init
 966 003a 05F5C476 		add	r6, r5, #392
 967 003e 4046     		mov	r0, r8
 968 0040 4D49     		ldr	r1, .L17+16
 969 0042 4022     		movs	r2, #64
 970 0044 FFF7FEFF 		bl	si70x0_init
 971 0048 05F5A079 		add	r9, r5, #320
 972 004c 3046     		mov	r0, r6
 973 004e 4849     		ldr	r1, .L17+8
 974 0050 4022     		movs	r2, #64
 975 0052 FFF7FEFF 		bl	si70x0_init
 976 0056 05F1C80A 		add	r10, r5, #200
ARM GAS  /tmp/cctxkxwm.s 			page 75


 977 005a 4749     		ldr	r1, .L17+16
 978 005c 7622     		movs	r2, #118
 979 005e 4846     		mov	r0, r9
 980 0060 FFF7FEFF 		bl	ms5607_init
 981 0064 1E23     		movs	r3, #30
 982 0066 4249     		ldr	r1, .L17+8
 983 0068 1D22     		movs	r2, #29
 984 006a 5046     		mov	r0, r10
 985 006c FFF7FEFF 		bl	lsm303_init
 986 0070 7622     		movs	r2, #118
 987 0072 05F15C00 		add	r0, r5, #92
 988 0076 3E49     		ldr	r1, .L17+8
 989 0078 FFF7FEFF 		bl	bmp280_init
 990 007c 0B21     		movs	r1, #11
 991 007e 3046     		mov	r0, r6
 992 0080 FFF7FEFF 		bl	si70x0_setHeaterCurrent
 993 0084 2146     		mov	r1, r4
 994 0086 3046     		mov	r0, r6
 995 0088 FFF7FEFF 		bl	si70x0_heaterEnable
 996 008c 4FF47A70 		mov	r0, #1000
 997 0090 FFF7FEFF 		bl	chThdSleep
 998 0094 3046     		mov	r0, r6
 999 0096 0021     		movs	r1, #0
 1000 0098 FFF7FEFF 		bl	si70x0_heaterEnable
 1001 009c 0022     		movs	r2, #0
 1002 009e 2A63     		str	r2, [r5, #48]	@ float
 1003 00a0 AB78     		ldrb	r3, [r5, #2]	@ zero_extendqisi2
 1004 00a2 4FF08042 		mov	r2, #1073741824
 1005 00a6 546A     		ldr	r4, [r2, #36]
 1006 00a8 002B     		cmp	r3, #0
 1007 00aa 58D0     		beq	.L12
 1008 00ac 05F13003 		add	r3, r5, #48
 1009 00b0 0493     		str	r3, [sp, #16]
 1010 00b2 05F13403 		add	r3, r5, #52
 1011 00b6 0593     		str	r3, [sp, #20]
 1012 00b8 05F12C03 		add	r3, r5, #44
 1013 00bc 0693     		str	r3, [sp, #24]
 1014 00be 05F12003 		add	r3, r5, #32
 1015 00c2 05F1180B 		add	fp, r5, #24
 1016 00c6 0793     		str	r3, [sp, #28]
 1017 00c8 1EE0     		b	.L10
 1018              	.L6:
 1019 00ca 0599     		ldr	r1, [sp, #20]
 1020 00cc 4046     		mov	r0, r8
 1021 00ce FFF7FEFF 		bl	si70x0_readHumidity
 1022 00d2 079A     		ldr	r2, [sp, #28]
 1023 00d4 0699     		ldr	r1, [sp, #24]
 1024 00d6 4846     		mov	r0, r9
 1025 00d8 FFF7FEFF 		bl	ms5607_readPressureTemperature
 1026 00dc 0121     		movs	r1, #1
 1027 00de 5046     		mov	r0, r10
 1028 00e0 FFF7FEFF 		bl	lsm303_readAcceleration
 1029 00e4 254A     		ldr	r2, .L17+20
 1030 00e6 2649     		ldr	r1, .L17+24
 1031 00e8 2648     		ldr	r0, .L17+28
 1032 00ea 3223     		movs	r3, #50
 1033 00ec FFF7FEFF 		bl	adcConvert
ARM GAS  /tmp/cctxkxwm.s 			page 76


 1034 00f0 0020     		movs	r0, #0
 1035 00f2 FFF7FEFF 		bl	boardSetLED
 1036 00f6 4FF08043 		mov	r3, #1073741824
 1037 00fa 5A6A     		ldr	r2, [r3, #36]
 1038 00fc 9442     		cmp	r4, r2
 1039 00fe 28D8     		bhi	.L16
 1040 0100 5C6A     		ldr	r4, [r3, #36]
 1041 0102 AB78     		ldrb	r3, [r5, #2]	@ zero_extendqisi2
 1042 0104 002B     		cmp	r3, #0
 1043 0106 2AD0     		beq	.L12
 1044              	.L10:
 1045 0108 0120     		movs	r0, #1
 1046 010a FFF7FEFF 		bl	boardSetLED
 1047 010e 5946     		mov	r1, fp
 1048 0110 3846     		mov	r0, r7
 1049 0112 FFF7FEFF 		bl	tmp275_readTemperature
 1050 0116 0499     		ldr	r1, [sp, #16]
 1051 0118 3046     		mov	r0, r6
 1052 011a FFF7FEFF 		bl	si70x0_readHumidity
 1053 011e 3046     		mov	r0, r6
 1054 0120 09A9     		add	r1, sp, #36
 1055 0122 04F57A74 		add	r4, r4, #1000
 1056 0126 FFF7FEFF 		bl	si70x0_readTemperature
 1057 012a 0028     		cmp	r0, #0
 1058 012c CDD1     		bne	.L6
 1059 012e 286B     		ldr	r0, [r5, #48]	@ float
 1060 0130 FFF7FEFF 		bl	__aeabi_f2d
 1061 0134 0246     		mov	r2, r0
 1062 0136 0998     		ldr	r0, [sp, #36]	@ float
 1063 0138 0392     		str	r2, [sp, #12]
 1064 013a 0291     		str	r1, [sp, #8]
 1065 013c FFF7FEFF 		bl	__aeabi_f2d
 1066 0140 039A     		ldr	r2, [sp, #12]
 1067 0142 029B     		ldr	r3, [sp, #8]
 1068 0144 CDE90001 		strd	r0, [sp]
 1069 0148 0F49     		ldr	r1, .L17+32
 1070 014a 0848     		ldr	r0, .L17+4
 1071 014c FFF7FEFF 		bl	chprintf.constprop.0
 1072 0150 BBE7     		b	.L6
 1073              	.L16:
 1074 0152 2046     		mov	r0, r4
 1075 0154 FFF7FEFF 		bl	chThdSleepUntil
 1076 0158 AB78     		ldrb	r3, [r5, #2]	@ zero_extendqisi2
 1077 015a 002B     		cmp	r3, #0
 1078 015c D4D1     		bne	.L10
 1079              	.L12:
 1080 015e 0020     		movs	r0, #0
 1081 0160 0BB0     		add	sp, sp, #44
 1082              		@ sp needed
 1083 0162 BDE8F08F 		pop	{r4, r5, r6, r7, r8, r9, r10, fp, pc}
 1084              	.L18:
 1085 0166 00BF     		.align	2
 1086              	.L17:
 1087 0168 00000000 		.word	.LANCHOR0
 1088 016c 00000000 		.word	SD6
 1089 0170 00000000 		.word	I2CD1
 1090 0174 00000000 		.word	.LANCHOR1
ARM GAS  /tmp/cctxkxwm.s 			page 77


 1091 0178 00000000 		.word	I2CD3
 1092 017c 00000000 		.word	.LANCHOR3
 1093 0180 00000000 		.word	.LANCHOR2
 1094 0184 00000000 		.word	ADCD1
 1095 0188 00000000 		.word	.LC0
 1096              		.size	sensorThread, .-sensorThread
 1097 018c AFF30080 		.section	.text.sensorThreadStop,"ax",%progbits
 1098              		.align	2
 1099              		.p2align 4,,15
 1100              		.global	sensorThreadStop
 1101              		.thumb
 1102              		.thumb_func
 1103              		.type	sensorThreadStop, %function
 1104              	sensorThreadStop:
 1105              		@ args = 0, pretend = 0, frame = 0
 1106              		@ frame_needed = 0, uses_anonymous_args = 0
 1107              		@ link register save eliminated.
 1108 0000 0346     		mov	r3, r0
 1109 0002 0022     		movs	r2, #0
 1110 0004 9A70     		strb	r2, [r3, #2]
 1111 0006 7047     		bx	lr
 1112              		.size	sensorThreadStop, .-sensorThreadStop
 1113 0008 AFF30080 		.section	.bss.analogSamples,"aw",%nobits
 1113      AFF30080 
 1114              		.align	2
 1115              		.set	.LANCHOR3,. + 0
 1116              		.type	analogSamples, %object
 1117              		.size	analogSamples, 300
 1118              	analogSamples:
 1119 0000 00000000 		.space	300
 1119      00000000 
 1119      00000000 
 1119      00000000 
 1119      00000000 
 1120              		.section	.bss.DEBUG,"aw",%nobits
 1121              		.align	2
 1122              		.set	.LANCHOR0,. + 0
 1123              		.type	DEBUG, %object
 1124              		.size	DEBUG, 4
 1125              	DEBUG:
 1126 0000 00000000 		.space	4
 1127              		.section	.rodata.analogGrp,"a",%progbits
 1128              		.align	2
 1129              		.set	.LANCHOR2,. + 0
 1130              		.type	analogGrp, %object
 1131              		.size	analogGrp, 40
 1132              	analogGrp:
 1133 0000 00       		.byte	0
 1134 0001 00       		.space	1
 1135 0002 0300     		.short	3
 1136 0004 00000000 		.word	0
 1137 0008 00000000 		.word	0
 1138 000c 00000000 		.word	0
 1139 0010 00000040 		.word	1073741824
 1140 0014 1B000000 		.word	27
 1141 0018 03000000 		.word	3
 1142 001c 00002000 		.word	2097152
ARM GAS  /tmp/cctxkxwm.s 			page 78


 1143 0020 00000000 		.word	0
 1144 0024 402D0000 		.word	11584
 1145              		.section	.rodata.str1.4,"aMS",%progbits,1
 1146              		.align	2
 1147              	.LC0:
 1148 0000 48554D49 		.ascii	"HUMIDITY:%f TEMP:%f\012\000"
 1148      44495459 
 1148      3A256620 
 1148      54454D50 
 1148      3A25660A 
 1149 0015 000000   		.section	.rodata.i2cfg,"a",%progbits
 1150              		.align	2
 1151              		.set	.LANCHOR1,. + 0
 1152              		.type	i2cfg, %object
 1153              		.size	i2cfg, 12
 1154              	i2cfg:
 1155 0000 01       		.byte	1
 1156 0001 000000   		.space	3
 1157 0004 A0860100 		.word	100000
 1158 0008 02       		.byte	2
 1159 0009 000000   		.space	3
 1160              		.comm	__gnu_lto_v1,1,1
 1161              		.ident	"GCC: (GNU Tools for ARM Embedded Processors) 4.8.4 20140526 (release) [ARM/embedded-4_8-br
ARM GAS  /tmp/cctxkxwm.s 			page 79


DEFINED SYMBOLS
                            *ABS*:0000000000000000 sensor_thread.c
     /tmp/cctxkxwm.s:905    .text.chprintf.constprop.0:0000000000000000 $t
     /tmp/cctxkxwm.s:910    .text.chprintf.constprop.0:0000000000000000 chprintf.constprop.0
     /tmp/cctxkxwm.s:930    .text.chprintf.constprop.0:0000000000000020 $d
     /tmp/cctxkxwm.s:935    .text.sensorThread:0000000000000000 $t
     /tmp/cctxkxwm.s:941    .text.sensorThread:0000000000000000 sensorThread
     /tmp/cctxkxwm.s:1087   .text.sensorThread:0000000000000168 $d
     /tmp/cctxkxwm.s:1098   .text.sensorThreadStop:0000000000000000 $t
     /tmp/cctxkxwm.s:1104   .text.sensorThreadStop:0000000000000000 sensorThreadStop
     /tmp/cctxkxwm.s:1114   .bss.analogSamples:0000000000000000 $d
     /tmp/cctxkxwm.s:1118   .bss.analogSamples:0000000000000000 analogSamples
     /tmp/cctxkxwm.s:1121   .bss.DEBUG:0000000000000000 $d
     /tmp/cctxkxwm.s:1125   .bss.DEBUG:0000000000000000 DEBUG
     /tmp/cctxkxwm.s:1128   .rodata.analogGrp:0000000000000000 $d
     /tmp/cctxkxwm.s:1132   .rodata.analogGrp:0000000000000000 analogGrp
     /tmp/cctxkxwm.s:1146   .rodata.str1.4:0000000000000000 $d
     /tmp/cctxkxwm.s:1150   .rodata.i2cfg:0000000000000000 $d
     /tmp/cctxkxwm.s:1154   .rodata.i2cfg:0000000000000000 i2cfg
                            *COM*:0000000000000001 __gnu_lto_v1
     /tmp/cctxkxwm.s:934    .text.chprintf.constprop.0:0000000000000028 $t
     /tmp/cctxkxwm.s:1097   .text.sensorThread:000000000000018c $t

UNDEFINED SYMBOLS
chvprintf
SD6
__aeabi_f2d
chMtxObjectInit
i2cStart
tmp275_init
si70x0_init
ms5607_init
lsm303_init
bmp280_init
si70x0_setHeaterCurrent
si70x0_heaterEnable
chThdSleep
si70x0_readHumidity
ms5607_readPressureTemperature
lsm303_readAcceleration
adcConvert
boardSetLED
tmp275_readTemperature
si70x0_readTemperature
chThdSleepUntil
I2CD1
I2CD3
ADCD1
