ARM GAS  /tmp/ccqCnKQK.s 			page 1


   1              		.syntax unified
   2              		.cpu cortex-m4
   3              		.eabi_attribute 27, 3
   4              		.eabi_attribute 28, 1
   5              		.fpu fpv4-sp-d16
   6              		.eabi_attribute 20, 1
   7              		.eabi_attribute 21, 1
   8              		.eabi_attribute 23, 3
   9              		.eabi_attribute 24, 1
  10              		.eabi_attribute 25, 1
  11              		.eabi_attribute 26, 1
  12              		.eabi_attribute 30, 2
  13              		.eabi_attribute 34, 1
  14              		.eabi_attribute 18, 4
  15              		.thumb
  16              		.file	"serial_lld.c"
  17              		.section	.gnu.lto_.jmpfuncs.ac2310b7bf8180d4,"",%progbits
  18 0000 789C6D8E 		.ascii	"x\234m\216\261\016\2030\020C\355\273\200P\241\022k7"
  18      B10E8330 
  18      1043EDBB 
  18      8050A112 
  18      6B37
  19 0012 A6FC0ABF 		.ascii	"\246\374\012\277\300\336)C\277\240KF\276\231\251pW\""
  19      C0DE2943 
  19      BFA04B46 
  19      BE99A970 
  19      5722
  20 0024 0464489C 		.ascii	"\004dH\234g\3079\201\340n\275\350g\013\020\242\022\206"
  20      67C73981 
  20      E06EBDE8 
  20      670B10A2 
  20      1286
  21 0036 C44D02CA 		.ascii	"\304M\002\312\365\205LLd\017\024\335\230ke\373\346F"
  21      F5854C4C 
  21      640F14DD 
  21      986B65FB 
  21      E646
  22 0048 0E40D00A 		.ascii	"\016@\320\012\264\253D\240^\243\362\305\222\347\334"
  22      B4AB44A0 
  22      5EA3F2C5 
  22      92E7DC
  23 0057 27EAC7BF 		.ascii	"'\352\307\277j\316\324\360\003z\205\326\0246Q\254\352"
  23      6ACED4F0 
  23      037A85D6 
  23      143651AC 
  23      EA
  24 0068 ED2D7A2D 		.ascii	"\355-z-\276O\233\327\252\317\352\243\215\377\254t\005"
  24      BE4F9BD7 
  24      AACFEAA3 
  24      8DFFAC74 
  24      05
  25 0079 C5037A92 		.ascii	"\305\003z\222%\007\374\000\250s\"\253"
  25      2507FC00 
  25      A87322AB 
  26              		.text
  27              		.section	.gnu.lto_.inline.ac2310b7bf8180d4,"",%progbits
  28 0000 789C7D52 		.ascii	"x\234}R\277\213\023A\024~ov\262\331d7\260\312iPB\262"
ARM GAS  /tmp/ccqCnKQK.s 			page 2


  28      BF8B1341 
  28      147E6F76 
  28      B2D96437 
  28      B0CA6950 
  29 0016 DD6173E3 		.ascii	"\335as\343\217\177`\005-\2243\205w\202\335\221K\302"
  29      8F7F6005 
  29      2D943385 
  29      7782DD91 
  29      4BC2
  30 0028 6D306724 		.ascii	"m0g$9\017\344\232)NH\031,\256\224\350\035h\255\215\330"
  30      390FE49A 
  30      294E4819 
  30      2CAE94E8 
  30      1D68AD8D 
  31 003d 984EC446 		.ascii	"\230N\304F\344\012\013\005\013\213+\255\017\004\337"
  31      E40A0B05 
  31      0B8B2BAD 
  31      0F04DF
  32 004c 9BD90DB7 		.ascii	"\233\331\015\267*n\361~|\337\233\3317\337{\002\004\374"
  32      2A6EF17E 
  32      7CDF9BD9 
  32      37DF7B02 
  32      04FC
  33 005e EB7BEC00 		.ascii	"\353{\354\000\334$\357\003\270\005\004\341\376\\\002"
  33      DC24EF03 
  33      B80504E1 
  33      FE5C02
  34 006d 77DA30C5 		.ascii	"w\3320\305\3707$\340L\015\005\242\245\001\350\264\345"
  34      F83724E0 
  34      4C0D05A2 
  34      A501E8B4 
  34      E5
  35 007e EA878728 		.ascii	"\352\207\207(\031u\002\252\2324'M\007\336\303\023\201"
  35      197502AA 
  35      9A34274D 
  35      07DEC313 
  35      81
  36 008f 82EB9CE9 		.ascii	"\202\353\234\351uS.\327>\374\012\240\364\356\002\241"
  36      75532ED7 
  36      3EFC0AA0 
  36      F4EE02A1 
  37 009f 474569ED 		.ascii	"GEi\355\211S9\217tG@\377\377VL\203\317\3479\260\005"
  37      8953398F 
  37      744740FF 
  37      FF564C83 
  37      CFE739B0 
  38 00b4 12CED5B1 		.ascii	"\022\316\325\261\004\033w\261\207\256\236\356j\276&"
  38      041B77B1 
  38      87AE9EEE 
  38      6ABE26
  39 00c3 C96529F7 		.ascii	"\311e)\3672\307\245\0317\303\257p\254\275hlllt\232\037"
  39      32C7A519 
  39      37C3AF70 
  39      ACBD686C 
  39      6C6C749A 
  40 00d8 1C4C9A02 		.ascii	"\034L\232\002\344\264\021\203\034\327b\017\360\205\253"
  40      E4B41183 
ARM GAS  /tmp/ccqCnKQK.s 			page 3


  40      1CD7620F 
  40      F085AB
  41 00e7 31F20438 		.ascii	"1\362\0048\257w\221#F87\016pF\340\002\261\263\006yN"
  41      AF779123 
  41      4638370E 
  41      7046E002 
  41      B1B30679 
  42 00fc 2961CB2F 		.ascii	")a\313/\324\202\2107Um\236\253\245M\244I<\233x\254A"
  42      D4828837 
  42      556D9EAB 
  42      A54DA449 
  42      3C9B78AC 
  43 0111 01BCF04F 		.ascii	"\001\274\360O\271}3\005p\253h\3467\237LyNz\377#\313"
  43      B97D3305 
  43      70AB68E6 
  43      379F4C79 
  43      4E7AFF23 
  44 0126 50A91349 		.ascii	"P\251\023I\357\230\263\262b\247\226y\037jg\321G#V\221"
  44      EF98B3B2 
  44      62A79679 
  44      1F6A67D1 
  44      47235691 
  45 013a 4F275964 		.ascii	"O'Yd\005\364\220\204\261\352\331pc\007\216\365X\177"
  45      05F49084 
  45      B1EAD970 
  45      63078EF5 
  45      587F
  46 014c DF7FFB91 		.ascii	"\337\177\373\2210g\023\355\"%-|\206;|\312\362\263Wu"
  46      306713ED 
  46      22252D7C 
  46      863B7CCA 
  46      F2B35775 
  47 0160 C362C63E 		.ascii	"\303b\306>gv\2769t\021\207\036\211\000\305\361\242\321"
  47      6776BE39 
  47      7411871E 
  47      8900C5F1 
  47      A2D1
  48 0172 9A64604D 		.ascii	"\232d`MB\001\205\361\242\016\301\373T\325Q\010\356\036"
  48      420185F1 
  48      A20EC1FB 
  48      54D55108 
  48      EE1E
  49 0184 C6647FA0 		.ascii	"\306d\177\240\026a~\303\002`H\030(6A\005\026J\331Z\260"
  49      16617EC3 
  49      02604818 
  49      28364105 
  49      164AD95A 
  50 0199 B659E7E2 		.ascii	"\266Y\347\342D\347\263\247\215|\337\373\271\276\367"
  50      44E7B3A7 
  50      8D7CDFFB 
  50      B9BEF7
  51 01a8 D6F37D1F 		.ascii	"\326\363}\037\030v\336r\266\312\345L\361t\300\3342%"
  51      1876DE72 
  51      B6CAE54C 
  51      F174C0DC 
  51      3225
  52 01ba C7424B99 		.ascii	"\307BK\231yp\277\236\222 \217|\355\221; \027\021\366"
ARM GAS  /tmp/ccqCnKQK.s 			page 4


  52      7970BF9E 
  52      92208F7C 
  52      ED913B20 
  52      1711F6
  53 01cd 05E348A6 		.ascii	"\005\343H\246\323\345\010yb!#7T2\330\354\252\366\240"
  53      D3E50879 
  53      62212337 
  53      5432D8EC 
  53      AAF6A0
  54 01e0 F34875BA 		.ascii	"\363Hu\272\333\252\235\364\326{\203\221\332\032>\274"
  54      DBAA9DF4 
  54      D67B8391 
  54      DA1A3EBC 
  55 01f0 7F4F5190 		.ascii	"\177OQ\220\264\372\352\301`\2705R+\253\267\256\\V\313"
  55      B4FAEAC1 
  55      60B83552 
  55      2BABB7AE 
  55      5C56CB
  56 0203 CBD7D49D 		.ascii	"\313\327\324\235\225\253\267W\267/\251Qw\330k\365\327"
  56      95ABB757 
  56      B72FA951 
  56      77D86BF5 
  56      D7
  57 0214 FAFDCE52 		.ascii	"\372\375\316R\033~\003e\361\237\212"
  57      1B7E0365 
  57      F19F8A
  58              		.text
  59              		.section	.gnu.lto_.pureconst.ac2310b7bf8180d4,"",%progbits
  60 0000 789C6362 		.ascii	"x\234cb`b\020g\200\000n\006)F)&\011f+\026)V)6\011\016"
  60      60621067 
  60      80006E06 
  60      29462926 
  60      09662B16 
  61 001a 092E096E 		.ascii	"\011.\011n)^)\000\024)\001\234"
  61      295E2900 
  61      1429019C 
  62              		.text
  63              		.section	.gnu.lto_notify2.ac2310b7bf8180d4,"",%progbits
  64 0000 789C6362 		.ascii	"x\234cb`b@\007\222@\374\023\210\275\201\230\221\231"
  64      60624007 
  64      9240FC13 
  64      88BD8198 
  64      9199
  65 0012 819169C2 		.ascii	"\201\221i\3029\006\206F\016&FF\020\203\201\221\241\236"
  65      39068646 
  65      0E264646 
  65      10838191 
  65      A19E
  66 0024 89B13E92 		.ascii	"\211\261>\222\021\254v=\323\201\007\377\377\257\273"
  66      11AC763D 
  66      D38107FF 
  66      FFAFBB
  67 0033 766ED91F 		.ascii	"vn\331\037\306]L\254L\014\231\214\014\314 \002\010X"
  67      C65D4CAC 
  67      4C0C998C 
  67      0CCC2002 
  67      0858
ARM GAS  /tmp/ccqCnKQK.s 			page 5


  68 0045 195A1A1A 		.ascii	"\031Z\032\032&(00$\203\271!@\022d@(#\023\210f>\313p"
  68      26283030 
  68      2483B921 
  68      40126440 
  68      28231388 
  69 005d E8D68DD7 		.ascii	"\350\326\215\327?\031\023\031\0272\2622\24432i3\254"
  69      3F191319 
  69      1732B232 
  69      A4333269 
  69      33AC
  70 006f 6A686914 		.ascii	"jhi\024\310dd\234\3150\2131\223\221)\002H07t46\2600"
  70      C864649C 
  70      CD308B31 
  70      93912902 
  70      48303774 
  71 0087 8099601B 		.ascii	"\200\231`\033\223\030a\356<\313\320\274\223\031\246"
  71      931861EE 
  71      3CCBD0BC 
  71      9319A6
  72 0096 9B391DA2 		.ascii	"\2339\035\242\236\241\201\021,u\310\023\"C\232\241\351"
  72      9EA18111 
  72      2C75C813 
  72      22439AA1 
  72      E9
  73 00a7 20FE4586 		.ascii	" \376E\206\306\007\353\325!\332a \204\221\021\344hP"
  73      C607EBD5 
  73      21DA6120 
  73      849111E4 
  73      6850
  74 00b9 6079EA67 		.ascii	"`y\352g\344\347\246\352'\347\247T\352\247\244\226\351"
  74      E4E7A6EA 
  74      27E7A754 
  74      EAA7A496 
  74      E9
  75 00ca 27676426 		.ascii	"'gd&e\346\027\353\227\024\225\346e\353\003\031\031\211"
  75      65E617EB 
  75      971495E6 
  75      65EB0319 
  75      1989
  76 00dc 39FA05F9 		.ascii	"9\372\005\371E%\305\372\301!\276\306F\372>>.\372\241"
  76      4525C5FA 
  76      C121BEC6 
  76      46FA3E3E 
  76      2EFAA1
  77 00ef C18E4121 		.ascii	"\301\216A!e\206\372\305\251E\231\2119\36199)z\311\014"
  77      6586FAC5 
  77      A9459989 
  77      39F13939 
  77      297AC90C 
  78 0103 00D3E555 		.ascii	"\000\323\345UD"
  78      44
  79              		.text
  80              		.section	.gnu.lto_notify6.ac2310b7bf8180d4,"",%progbits
  81 0000 789C6362 		.ascii	"x\234cb`b@\007\222@\374\023\210\275\201\230\221\231"
  81      60624007 
  81      9240FC13 
  81      88BD8198 
ARM GAS  /tmp/ccqCnKQK.s 			page 6


  81      9199
  82 0012 819169C2 		.ascii	"\201\221i\3029\006\206F\016&FF\020\203\201\221\241\236"
  82      39068646 
  82      0E264646 
  82      10838191 
  82      A19E
  83 0024 89B13E92 		.ascii	"\211\261>\222\021\254v=\323\201\007\377\377\257\273"
  83      11AC763D 
  83      D38107FF 
  83      FFAFBB
  84 0033 767ED91F 		.ascii	"v~\331\037\306}L\254L\014\231\214\014\314 \002\010X"
  84      C67D4CAC 
  84      4C0C998C 
  84      0CCC2002 
  84      0858
  85 0045 195A1A1A 		.ascii	"\031Z\032\032&(00$\203\271!@\022d@(#\023\210f>\313p"
  85      26283030 
  85      2483B921 
  85      40126440 
  85      28231388 
  86 005d E8D68DDF 		.ascii	"\350\326\215\337?\031\023\031\0272\2622\24432i3\254"
  86      3F191319 
  86      1732B232 
  86      A4333269 
  86      33AC
  87 006f 6A686914 		.ascii	"jhi\024\310dd\234\3150\2131\223\221)\002H07\254hi`a"
  87      C864649C 
  87      CD308B31 
  87      93912902 
  87      483037AC 
  88 0087 0033C136 		.ascii	"\0003\3016&1\302\334y\226\241y'3L7s:D=C\003#X\352\220"
  88      2631C2DC 
  88      7996A179 
  88      27334C37 
  88      733A443D 
  89 00a1 27448634 		.ascii	"'D\2064C\323A\374\213\014\215\017\336\253C\264\303@"
  89      43D341FC 
  89      8B0C8D0F 
  89      DEAB43B4 
  89      C340
  90 00b3 082323C8 		.ascii	"\010##\310\321\240\300\362\324\317\310\317M\325O\316"
  90      D1A0C0F2 
  90      D4CFC8CF 
  90      4DD54FCE 
  91 00c3 4FA9D44F 		.ascii	"O\251\324OI-\323O\316\310L\312\314/\326/)*\315\313\326"
  91      492DD34F 
  91      CEC84CCA 
  91      CC2FD62F 
  91      292ACDCB 
  92 00d8 07323212 		.ascii	"\00722\022s\364\013\362\213J\212\365\203C|\215\215\364"
  92      73F40BF2 
  92      8B4A8AF5 
  92      83437C8D 
  92      8DF4
  93 00ea 7D7C5CF4 		.ascii	"}|\\\364C\203\035\203B\312\014\365\213S\2132\023s\342"
  93      43831D83 
  93      42CA0CF5 
ARM GAS  /tmp/ccqCnKQK.s 			page 7


  93      8B538B32 
  93      1373E2
  94 00fd 737252F4 		.ascii	"srR\364\222\031\0002\364U\337"
  94      92190032 
  94      F455DF
  95              		.text
  96              		.section	.gnu.lto_set_error.ac2310b7bf8180d4,"",%progbits
  97 0000 789C8D52 		.ascii	"x\234\215RMkSA\024\275w\346}'\005[t\343B\202 \005\205"
  97      4D6B5341 
  97      14BD77E6 
  97      7D27055B 
  97      74E34282 
  98 0017 0EB67F40 		.ascii	"\016\266\177@\301\215\02076A]I\372\022\222\207\251\221"
  98      C18D1037 
  98      36415D49 
  98      FA129287 
  98      A991
  99 0029 BC58D022 		.ascii	"\274X\320\"}1\021\262\020)\242\013u\323\020\320R\004"
  99      7D3111B2 
  99      1029A20B 
  99      75D310D0 
  99      5204
 100 003b D7621771 		.ascii	"\327b\027q'\370E0.\334\005D\334\004\324\225X\012\361"
 100      27F84530 
 100      2EDC0544 
 100      DC04D495 
 100      580AF1
 101 004e CEFBC8AB 		.ascii	"\316\373\310\253\315\306\201\314\2359w\3569\347\346"
 101      CDC681CC 
 101      9D3977EE 
 101      39E7E6
 102 005d 5D060CF6 		.ascii	"]\006\014\366\257[\364\273\300\001\032\0241\001\310"
 102      AF5BF4BB 
 102      C0011A14 
 102      3101C8
 103 006c D63F00D4 		.ascii	"\326?\000\324\015\306xk\026<K\221{\222\243\022\300\012"
 103      0DC6786B 
 103      163C4B91 
 103      7B92A312 
 103      C00A
 104 007e 537D58F3 		.ascii	"S}X\363a\025\265\000\326\230\356\303\206\017\353h\004"
 104      6115B500 
 104      D698EEC3 
 104      860FEB68 
 104      04
 105 008f B0C1CCBE 		.ascii	"\260\301\314\276 \330\332>B\260\211V\000[\210\362\000"
 105      20D8DA3E 
 105      42B08956 
 105      005B88F2 
 105      00
 106 00a0 086B8C2B 		.ascii	"\010k\214+\252\246\033\246\205k\227P\332\301\243\320"
 106      AAA61BA6 
 106      856B9750 
 106      DAC1A3D0 
 107 00b0 F6BCFB83 		.ascii	"\366\274\373\203o\235\327\354\221\327mnx\273\243\021"
 107      6F9DD7EC 
 107      91D76D6E 
ARM GAS  /tmp/ccqCnKQK.s 			page 8


 107      78BBA311 
 108 00c0 A283643D 		.ascii	"\242\203d=\215`#\\\244\013\246\374\300\224\177{y\301"
 108      8D60235C 
 108      A40BA6FC 
 108      C0947F7B 
 108      79C1
 109 00d2 BA83D168 		.ascii	"\272\203\321h\330\333\376\272\20533\0109l\023\037\013"
 109      D8DBFEBA 
 109      85333308 
 109      396C131F 
 109      0B
 110 00e3 230FA312 		.ascii	"#\017\243\022F\025\227\0214p\220\353r3B\330\224\027"
 110      46159711 
 110      347090EB 
 110      723342D8 
 110      9417
 111 00f5 2BBC24C2 		.ascii	"+\274$\302\230\244\2678E\031eZ\246IK\205\246\347\255"
 111      98A4B738 
 111      4519655A 
 111      A6494B85 
 111      A6E7AD
 112 0108 A7823448 		.ascii	"\247\2024Hc\2642\264\313\326\262\310d\344\357\241\361"
 112      63B432B4 
 112      CBD6B2C8 
 112      64E4EFA1 
 112      F1
 113 0119 AAF1FDC1 		.ascii	"\252\361\375\301\341\034vP\205\"N\027Q\225\306I\014"
 113      E11C7650 
 113      85224E17 
 113      5195C649 
 113      0C
 114 012a E00D3487 		.ascii	"\340\0154\207\365\251q\312\307\367v\223\241kk\226gQ"
 114      F5A971CA 
 114      C7F77693 
 114      A16B6B96 
 114      6751
 115 013c 89B97EC4 		.ascii	"\211\271~\304\\Z\304\205\023\\\332>\256/\200\022\241"
 115      5C5AC485 
 115      135CDA3E 
 115      AE2F8012 
 115      A1
 116 014d 13DBED6D 		.ascii	"\023\333\355m\004g\017\201?\377\224\227^U)C\364/\033"
 116      04670F81 
 116      3FFF9497 
 116      5E552943 
 116      F42F1B
 117 0160 BF0E4614 		.ascii	"\277\016F\024F\021\375wj*\344\310\242\026\333\370\035"
 117      4611FD77 
 117      6A2AE4C8 
 117      A216DBF8 
 117      1D
 118 0171 DBD0231B 		.ascii	"\333\320#\033l\302\206>a\203\021\253\202\304\256\276"
 118      6CC2863E 
 118      618311AB 
 118      82C4AEBE 
 119 0181 0BA4F5B1 		.ascii	"\013\244\365\261\364\237\261\264UD\346K\237\032K\033"
 119      F49FB1B4 
ARM GAS  /tmp/ccqCnKQK.s 			page 9


 119      5544E64B 
 119      9F1A4B1B 
 120 0191 B1F42896 		.ascii	"\261\364(\2266#ieB\332\234\220\346\304\252\221\264\245"
 120      36236965 
 120      42DA9C90 
 120      E6C4AA91 
 120      B4A5
 121 01a3 0F036913 		.ascii	"\017\003i\023\372\"\220n\037\212\312\022E\344\276\264"
 121      FA22906E 
 121      1F8ACA12 
 121      45E4BEB4 
 122 01b3 C7C6DA56 		.ascii	"\307\306\332V\250}{\247\361\354!\217^N\255\302M\232"
 122      A87D7BA7 
 122      F1EC218F 
 122      5E4EADC2 
 122      4D9A
 123 01c5 861370DC 		.ascii	"\206\023p\334A\355\011<\246\"\372'\222\262\330\360\013"
 123      41ED093C 
 123      A622FA27 
 123      92B2D8F0 
 123      0B
 124 01d6 9770CFA7 		.ascii	"\227p\317\247\374\010w~nv\236\336\023\341\324D\343\323"
 124      FC08777E 
 124      6E769EDE 
 124      13E1D444 
 124      E3D3
 125 01e8 7DDB9F07 		.ascii	"}\333\237\007\0108m\014+Va\307ky\007\0344md9\334\244"
 125      08386D0C 
 125      2B5661C7 
 125      6B79071C 
 125      346D6439 
 126 01fe 1C2D922C 		.ascii	"\034-\222,\242\342\220\035\350A}\260u,\250\212\332S"
 126      A2E2901D 
 126      E8417DB0 
 126      752CA88A 
 126      DA53
 127 0210 C8B941ED 		.ascii	"\310\271A\355%\314\273\237\363rvP\332\226]\234\025\245"
 127      25CCBB9F 
 127      F3727650 
 127      DA965D9C 
 127      15A5
 128 0222 CA7241D8 		.ascii	"\312rA\330\225\374\015\221/\254\010\273\344,9\025W\324"
 128      95FC0D91 
 128      2FAC08BB 
 128      E42C3915 
 128      57D4
 129 0234 AAD7AF5E 		.ascii	"\252\327\257^\021t(\345\312\342Z\245Zs\305b\346\334"
 129      117428E5 
 129      CAE25AA5 
 129      5A73C562 
 129      E6DC
 130 0246 C2BC48A7 		.ascii	"\302\274H\247\317\210\354\342\351\363\231\225\223\302"
 130      CF88ECE2 
 130      E9F39995 
 130      93C2
 131 0254 2D549D5C 		.ascii	"-T\235\\\371r\271\234\237\263\201\2735w\341\177\330"
 131      F972B99C 
ARM GAS  /tmp/ccqCnKQK.s 			page 10


 131      9FB381BB 
 131      3577E17F 
 131      D8
 132 0265 2A2E6DD5 		.ascii	"*.m\325\232\037\347J\360\027$\306\365\203"
 132      9A1FE74A 
 132      F01724C6 
 132      F583
 133              		.text
 134              		.section	.gnu.lto_serve_interrupt.ac2310b7bf8180d4,"",%progbits
 135 0000 789CB556 		.ascii	"x\234\265VklTE\024>\347\336\335\356v\337}mii\351\246"
 135      6B6C5445 
 135      143EE7DE 
 135      DDEE76DF 
 135      7D6D6969 
 136 0016 A1428AE9 		.ascii	"\241B\212\351\266\002-\376\253\021MH 1}$\342\037l\267"
 136      B6022DFE 
 136      AB114D48 
 136      20317D24 
 136      E21F6CB7 
 137 002a 6BBBB1A5 		.ascii	"k\273\261\245u\267%\"?\270}@\010 iP\036\276b\011\001"
 137      75B72522 
 137      3FB87D40 
 137      08206950 
 137      1EBE6209 
 138 003f A2462088 		.ascii	"\242F \210\001\225Hi)b\020\012\206\010-\030\253H\300"
 138      01954869 
 138      2962100A 
 138      86082D18 
 138      AB48C0
 139 0052 D44791E0 		.ascii	"\324G\221\340\203 \353\231\231\235\273\333\262\260\255"
 139      8320EB99 
 139      999DBBDB 
 139      B2B0AD
 140 0061 C1FD313B 		.ascii	"\301\3751;\217\363}s\346\233s\316\035\005\024\230\370"
 140      8FF37D73 
 140      E69B73CE 
 140      1D051498 
 140      F8
 141 0072 7323C087 		.ascii	"s#\300\207v\200G\350\0373\001\225\3563\000\355fEQ\317"
 141      768047E8 
 141      1F330195 
 141      EE3300ED 
 141      664551CF 
 142 0086 BB41B318 		.ascii	"\273A\263\030\216\224\201fS\321 \246\015h\026\035\243"
 142      8E948166 
 142      53D120A6 
 142      0D68161D 
 142      A3
 143 0097 92C4D74D 		.ascii	"\222\304\327M|=\011Mb\332$\326\217\231\315\212q\343"
 143      7C3D094D 
 143      62DA24D6 
 143      8F99CD8A 
 143      71E3
 144 00a9 174006C9 		.ascii	"\027@\006\311]&2HV,\353f\321\310\311Z\233E\261r\260"
 144      5D263248 
 144      562CEB66 
 144      D1C8C95A 
ARM GAS  /tmp/ccqCnKQK.s 			page 11


 144      9B45B172 
 145 00be 9383AD8A 		.ascii	"\223\203\255\212\255\307B#\373X?\001l6t\010.\273\354"
 145      ADC74223 
 145      FB583F01 
 145      6C367408 
 145      2EBBEC
 146 00d1 38D0293A 		.ascii	"8\320):N\305u\336K\226\356#3\310\320\245\244\\\266\322"
 146      4EC575DE 
 146      4B96EE23 
 146      33C8D0A5 
 146      A45CB6D2 
 147 00e5 28F5601F 		.ascii	"(\365`\037\303\245(i|\213T\276E*\246\011L\232\222\316"
 147      C3A52869 
 147      7C8B54BE 
 147      452AA609 
 147      4C9A92CE 
 148 00f9 F7CAE07B 		.ascii	"\367\312\340{\245c\206\230\316@\267\350\270\021Y\007"
 148      A5638698 
 148      CE40B7E8 
 148      B8115907 
 149 0109 10562BAA 		.ascii	"\020V+\252\301\230d2'[\2546\273\303\351JIMK\317p\343"
 149      C1986432 
 149      275BAC36 
 149      BBC3E94A 
 149      494D4BCF 
 150 011f EAA5C874 		.ascii	"\352\245\310t2\346\303\016M\333<r\365\363\237\360\215"
 150      32E6C30E 
 150      4DDB3C72 
 150      F5F39FF0 
 150      8D
 151 0130 D77BBB7A 		.ascii	"\327{\273z\264;\3410b\000I\323\305\010>\204gi\200\036"
 151      B43BE130 
 151      620049D3 
 151      C5083E84 
 151      6769801E 
 152 0144 FEA718C6 		.ascii	"\376\247\030\306\213,\260\275\267\326o\311\322z:\272"
 152      8B2CB0BD 
 152      B7D66FC9 
 152      D27A3ABA 
 153 0154 B5BB040D 		.ascii	"\265\273\004\015\240\252\3003\223D\376\275~\3234\255"
 153      A0AAC033 
 153      9344FEBD 
 153      7ED334AD 
 154 0164 A75D220D 		.ascii	"\247]\"\015\012TD\221.\201T\342 \273{/\234z5vO\243\002"
 154      0A544491 
 154      2E8154E2 
 154      20BB7B2F 
 154      9C7A3576 
 155 017b D593DAB3 		.ascii	"\325\223\332\263{\344\273\265'\326\342\326\376\216\223"
 155      7BE4BBB5 
 155      27D6E2D6 
 155      FE8E93
 156 018a 5A572F61 		.ascii	"ZW/a\363\002\230\244\300&L\204\336\247\364\216\204\303"
 156      F30298A4 
 156      C0264C84 
 156      DEA7F48E 
 156      84C3
ARM GAS  /tmp/ccqCnKQK.s 			page 12


 157 019c BB7F5F7F 		.ascii	"\273\177_\177\342q|\012\241\006wa>X\260\011\301J\203"
 157      E2717C0A 
 157      A1067761 
 157      3E58B009 
 157      C14A83
 158 01af 9D34B001 		.ascii	"\2354\260\001\251fg\215#\262\354d\203\024jLnj\014\231"
 158      A966678D 
 158      23B2EC64 
 158      83146A4C 
 158      6E6A0C99 
 159 01c3 ACC96273 		.ascii	"\254\311bs\331\324\230sX/7b\232\307\006\036f\220OM\362"
 159      D9D49873 
 159      582F3762 
 159      9AC7061E 
 159      66904F4D 
 160 01d8 4C9ADE43 		.ascii	"L\232\336C\323\005\014<\213\255\315fM!M\357\240\351"
 160      D3050C3C 
 160      8BADCD66 
 160      4D214DEF 
 160      A0E9
 161 01ea 22365DCC 		.ascii	"\"6]\314f\346Qc\231\317\232Rj\254ed\360\036\031,\240"
 161      66E65163 
 161      99CF9A52 
 161      6AAC6564 
 161      F01E192C 
 162 01ff 816D21A3 		.ascii	"\201m!\243cw\014]tp\217\360Rl\007\354\264\364\253\242"
 162      63770C5D 
 162      74708FF0 
 162      526C07EC 
 162      B4F4ABA2 
 163 0213 9622B91A 		.ascii	"\226\"\271\032\025\372SOC\307\360\305\275\347\224\032"
 163      15FA534F 
 163      43C7F0C5 
 163      BDE7941A 
 164 0223 FC008D50 		.ascii	"\374\000\215P\217\3269\360\276F\277\020]\352[\360&\251"
 164      8FD639F0 
 164      BE46BF10 
 164      5DEA5BF0 
 164      26A9
 165 0235 62AF470B 		.ascii	"b\257G\013S\307\3015\251E\251\316i\350\033\376k\357"
 165      53C7C135 
 165      A945A9CE 
 165      69E81BFE 
 165      6BEF
 166 0247 908EB431 		.ascii	"\220\216\2641d\027\031:\005\316Ed\014\247Fp\030\203"
 166      6417193A 
 166      05CE4564 
 166      0CA74670 
 166      1883
 167 0259 DBBE2FBA 		.ascii	"\333\276/\272\243=\001N\321q\035\243\235A\211r\020\220"
 167      A33D014E 
 167      D1711DA3 
 167      9D418972 
 167      1090
 168 026b CD757ED6 		.ascii	"\315u~\326\031\336\222-g\2354\313\260\2401\324I\350"
 168      19DE922D 
 168      679D34CB 
ARM GAS  /tmp/ccqCnKQK.s 			page 13


 168      B0A031D4 
 168      49E8
 169 027d FAB9DDAE 		.ascii	"\372\271\335\256\257\361\205\330_5\355\261FQ\317@\307"
 169      AFF185D8 
 169      5F35EDB1 
 169      4651CF40 
 169      C7
 170 028e 8DBD0307 		.ascii	"\215\275\003\0076\252\021\321\000\004\204\247\022\302"
 170      36AA11D1 
 170      000484A7 
 170      12C2
 171 029c 05B22236 		.ascii	"\005\262\"6UT\234\031p\035\337\321\266\227\0070\205"
 171      55549C19 
 171      701DDFD1 
 171      B6970730 
 171      85
 172 02ad 0D1967AA 		.ascii	"\015\031g\252\207\365\364\365\321\310z\232\356\366\355"
 172      87F5F4F5 
 172      D1C87A9A 
 172      EEF6ED
 173 02bc FE533F56 		.ascii	"\376S?VH7RV\301+t\223s\2400\200\351\361\025V\243.\016"
 173      48375256 
 173      C12B7493 
 173      73A03080 
 173      E9F11556 
 174 02d3 C29AB1D1 		.ascii	"\302\232\261\321=\2737yu\337D\247\227\030\245\237>)"
 174      3DBB3779 
 174      75DF44A7 
 174      9718A59F 
 174      3E29
 175 02e5 ED2AB8AD 		.ascii	"\355*\270\255\255\323\\\001\314\360!\311{D\234\201\266"
 175      ADD35C01 
 175      CCF021C9 
 175      7B449C81 
 175      B6
 176 02f6 64E46ECD 		.ascii	"d\344n\315@\261\221\311\365?|\361\300\020\0120\027\277"
 176      40B191C9 
 176      F53F7CF1 
 176      C0100A30 
 176      17BF
 177 0308 5DB32790 		.ascii	"]\263'\220\237k\027\376'\034v\322`r\202\325\340A\352"
 177      9F6B17FE 
 177      271C76D2 
 177      607282D5 
 177      E041EA
 178 031b 70812046 		.ascii	"p\201 F\240\032<\2043b\357\300\300\302\220(q\262l\236"
 178      A01A3C84 
 178      3362EFC0 
 178      C0C29028 
 178      71B26C9E 
 179 032f 07B11981 		.ascii	"\007\261\031\201\212\265\312\342\242\177\303/}\252T"
 179      8AB5CAE2 
 179      A27FC32F 
 179      7DAA54
 180 033e 7D613D22 		.ascii	"}a=\"\003\033\2342.J\364%>?>.\222`0]%\355G.\255\261"
 180      031B9C32 
 180      2E4AF425 
ARM GAS  /tmp/ccqCnKQK.s 			page 14


 180      3E3F3E2E 
 180      9260305D 
 181 0358 486F7475 		.ascii	"Hotu\247\371\"\342\320\265\325\263\272\231%a\246\310"
 181      A7F922E2 
 181      D0B5D5B3 
 181      BA992561 
 181      A6C8
 182 036a E614E087 		.ascii	"\346\024\340\207\206\364\275\263\022\004\270\334\233"
 182      86F4BDB3 
 182      1204B8DC 
 182      9B
 183 0377 07F80194 		.ascii	"\007\370\001\224\260\354zF<\010\306{\034\310\366E0\334"
 183      B0EC7A46 
 183      3C08C67B 
 183      1CC8F645 
 183      30DC
 184 0389 81EC004E 		.ascii	"\201\354\000N\027Yu\370\320\220\216\316\231JV\325JT"
 184      175975F8 
 184      D0908ECE 
 184      994A56D5 
 184      4A54
 185 039b 2E01E561 		.ascii	".\001\345a\314@_\023\256d\347\225\255\271\322\"S\012"
 185      CC405F13 
 185      AE64E795 
 185      ADB9D222 
 185      530A
 186 03ad E99142CE 		.ascii	"\351\221B\316\325\227&\0109\004Hyj\370\352B\013\021"
 186      D5972608 
 186      39044879 
 186      6AF8EA42 
 186      0B11
 187 03bf 9B2E5F7A 		.ascii	"\233._z\236\261&Gn\373\241\004\220\270\346[\321k\316"
 187      9EB12647 
 187      6EFBA104 
 187      90B8E65B 
 187      D16BCE
 188 03d2 A33224F2 		.ascii	"\2432$\362\037ab\376\347\305\311\177\013\364\251\342"
 188      1F6162FE 
 188      E7C5C97F 
 188      0BF4A9E2 
 189 03e2 889FEAF5 		.ascii	"\210\237\352\365\310-O\030\345X\255\257\305\211\025"
 189      C82D4F18 
 189      E558ADAF 
 189      C58915
 190 03f1 2B856E9C 		.ascii	"+\205n\234\023\351\025x\017\257\275\372\001\247\032"
 190      13E91578 
 190      0FAFBDFA 
 190      01A71A
 191 0400 D6A27EFC 		.ascii	"\326\242~\374\261\231\316x\226\373\220\317\013H2/ 9"
 191      B199CE78 
 191      96FB90CF 
 191      0B48322F 
 191      2039
 192 0412 F10B8831 		.ascii	"\361\013\2101\352\337 t\365\232$t\246\036B\271\276\210"
 192      EADF2074 
 192      F59A2474 
 192      A61E42B9 
ARM GAS  /tmp/ccqCnKQK.s 			page 15


 192      BE88
 193 0424 11F105D8 		.ascii	"\021\361\005\330V'\341\370\325c\337n\260\351\246\214"
 193      5627E1F8 
 193      D563DF6E 
 193      B0E9A68C 
 194 0434 2F6FFC49 		.ascii	"/o\374Im\220\302\276\027\267;\217n\323)\013\036R9\373"
 194      6D90C2BE 
 194      17B73B8F 
 194      6ED3290B 
 194      1E5239FB 
 195 0448 33C84E7D 		.ascii	"3\310N}\366\001\345\354\222,g\005\274\234\231e5c\361"
 195      F601E5EC 
 195      922C6705 
 195      BC9C9965 
 195      3563F1
 196 045b B96DA9F4 		.ascii	"\271m\251\364g\226\214\200\243wU\021!\237\350\312\315"
 196      67968C80 
 196      A3775511 
 196      219FE8CA 
 196      CD
 197 046c A665BE56 		.ascii	"\246e\276V\316W\372\276<\0339F\244\010\226$\370v\021"
 197      CE57FABE 
 197      3C1B3946 
 197      A4089624 
 197      F87611
 198 047f 8394C20E 		.ascii	"\203\224\302\0167Xnt\374\332\371\333\266\\\311_H\262"
 198      37586E74 
 198      FCDAF9DB 
 198      B65CC95F 
 198      48B2
 199 0491 71E24593 		.ascii	"q\342E\223\244\225Y\\(i\035\361cI\320M5;\004\245S|\345"
 199      A495595C 
 199      28691DF1 
 199      6349D04D 
 199      353B04A5 
 200 04a8 59A21CDF 		.ascii	"Y\242\034\337\251'\212G\006y\371=y\342\211\023\343."
 200      A9278A47 
 200      0679F93D 
 200      79E28913 
 200      E32E
 201 04ba D865987A 		.ascii	"\330e\230z\326\336?\242\207\357\214\216\\\177nb\020"
 201      D6DE3FA2 
 201      87EF8C8E 
 201      5C7F6E62 
 201      10
 202 04cb 6C18784D 		.ascii	"l\030xM\215~\324\222\2046\363\304\203\204\275\341\276"
 202      8D7ED492 
 202      8436F3C4 
 202      8384BDE1 
 202      BE
 203 04dc 41851E3D 		.ascii	"A\205\036=$e\273\306\302\"'\022g\311\305B\315$\206\275"
 203      2465BBC6 
 203      C2222712 
 203      67C9C542 
 203      CD2486BD 
 204 04f0 2E1C627B 		.ascii	".\034b{\354O\253\301k\374H\363yx\336\037i\212AR\"\\"
 204      EC4FABC1 
ARM GAS  /tmp/ccqCnKQK.s 			page 16


 204      6BFC48F3 
 204      7978DE1F 
 204      698A4152 
 205 0506 6B3F8712 		.ascii	"k?\207\022:\217\320\261J\244\300\327\374\342\207\307"
 205      3A8FD0B1 
 205      4AA4C0D7 
 205      FCE287C7 
 206 0516 A64B9352 		.ascii	"\246K\223R\316\356\271/\273y\034;I\035e/ev\236X\255"
 206      CEEEB92F 
 206      BB791C3B 
 206      491D652F 
 206      65769E58 
 207 052b ABE83AEF 		.ascii	"\253\350:\357\250j5=\037Hr\036a\016i\275\240\036\313"
 207      A86A353D 
 207      1F48721E 
 207      610E69BD 
 207      A01ECB
 208 053e 04C5F703 		.ascii	"\004\305\367\003?\034\323K\375\002Fb\213R\014A\031\233"
 208      3F1CD34B 
 208      FD024662 
 208      8B520C41 
 208      199B
 209 0550 49A277E8 		.ascii	"I\242w\350\335\217\367\037l\340\003\200T\356\177:\274"
 209      DD8FF71F 
 209      6CE00380 
 209      54EE7F3A 
 209      BC
 210 0561 8BAAA829 		.ascii	"\213\252\250)\003!\311P\364\220\222x \224\350MrS&q\021"
 210      0321C950 
 210      F4909278 
 210      2094E84D 
 210      72532671 
 211 0576 4F629748 		.ascii	"Ob\227Hb!m\20681\345\363Go\027J\327\212\365|\016\253"
 211      62216D86 
 211      3831E5F3 
 211      476F174A 
 211      D78AF57C 
 212 058c 91ACED36 		.ascii	"\221\254\3556M\362\351\"\263\266X<z\016_\371/\217\236"
 212      4DF2E922 
 212      B3B6583C 
 212      7A0E5FF9 
 212      2F8F9E
 213 059f A3E1FFE3 		.ascii	"\243\341\377\343\321\343fYy\016\332\307:n\032b?\015"
 213      D1E36659 
 213      790EDAC7 
 213      3A6E1A62 
 213      3F0D
 214 05b1 2C0090D6 		.ascii	",\000\220\326\030j\221\267\241\271\311\357\3655\327"
 214      186A91B7 
 214      A1B9C9EF 
 214      F535D7
 215 05c0 ADF4D6F9 		.ascii	"\255\364\326\371Wx}\015\201\332@s\310\333\032l[\376"
 215      57787D0D 
 215      81DA4073 
 215      C8DB1A6C 
 215      5BFE
 216 05d2 A2973A0D 		.ascii	"\242\227:\0155\215\336\226\346`k\310[Y\265d\356c\336"
ARM GAS  /tmp/ccqCnKQK.s 			page 17


 216      358DDE96 
 216      E6606BC8 
 216      5B59B564 
 216      EE63DE
 217 05e5 C58B177A 		.ascii	"\305\213\027z\253+\237\250\250ZQ\342\015\371\203\201"
 217      AB2B9FA8 
 217      A85A51E2 
 217      0DF98381 
 218 05f5 9AC6658D 		.ascii	"\232\306e\215\215uE>Pk\213\212\261M\011\005\261\266"
 218      8D75453E 
 218      506B8B8A 
 218      B14D0905 
 218      B1B6
 219 0607 341169B0 		.ascii	"4\021i\260\325\033X\356kl\253#\243\206\227\332\374m"
 219      D51B58EE 
 219      6B6CAB23 
 219      A38697DA 
 219      FC6D
 220 0619 FE505103 		.ascii	"\376PQ\003\230\002/\2646\265\024\225\224'\202\373_n"
 220      98022FB4 
 220      36B51495 
 220      942782FB 
 220      5F6E
 221 062b F53EB9A4 		.ascii	"\365>\271\244rQe\224\2459\350_\346kz\272m\271\217\210"
 221      72516594 
 221      A539E85F 
 221      E66B7ABA 
 221      6DB98F88 
 222 063f 5C4B2A2B 		.ascii	"\\K*+<\2655!\177K0\360\250\247\240\030\224 \230\232"
 222      3CB53521 
 222      7F4B30F0 
 222      A8A7A018 
 222      9420989A 
 223 0653 FC4DCDC1 		.ascii	"\374M\315\301\2250w2\007n\016QCN\262\177\342\373\027"
 223      95307732 
 223      076E0E51 
 223      434EB27F 
 223      E2FB17
 224 0666 C7C676F3 		.ascii	"\307\306v\363"
 225              		.text
 226              		.section	.gnu.lto_usart_init.isra.0.ac2310b7bf8180d4,"",%progbits
 227 0000 789C9D92 		.ascii	"x\234\235\222MH\024a\030\307\237g\276wu\335U:\004v\020"
 227      4D481461 
 227      18C79F67 
 227      BE7775DD 
 227      553A0476 
 228 0015 BB048143 		.ascii	"\273\004\201CJ\347>\350\022X\207\\#O\261\256\242Ck\033"
 228      4AE73EE8 
 228      1258875C 
 228      234FB1AE 
 228      A2436B1B 
 229 0029 7E4141F8 		.ascii	"~AA\370\256\273V\320\007\233'\263\213\022QD\320U\017"
 229      AEBB56D0 
 229      079B27B3 
 229      8B125144 
 229      D0550F
 230 003c 8549A442 		.ascii	"\205I\244B\206\336\304\223t\211:T \250H0=\317\2743\353"
ARM GAS  /tmp/ccqCnKQK.s 			page 18


 230      86DEC493 
 230      74893A54 
 230      20A84830 
 230      3DCFBC33 
 231 0051 BA54AB0E 		.ascii	"\272T\253\016\314\3631\357\363\377\277\277\231w\024"
 231      CCF331EF 
 231      F3FFBFBF 
 231      997714
 232 0060 50A0F4BA 		.ascii	"P\240\364\272L\367'\035\240\2152Z\200f\3763@\3062Q\341"
 232      4CF7271D 
 232      A08D325A 
 232      8066FE33 
 232      40C63251 
 233 0075 021545DB 		.ascii	"\002\025E\3330A\204\325\361\217\000\242R\365[]\266\032"
 233      304184D5 
 233      F18F00A2 
 233      52F55B5D 
 233      B61A
 234 0087 1A725C0F 		.ascii	"\032r\\\017\012\003\221\013@\0302\025U\323\015\034j"
 234      0A03910B 
 234      40183215 
 234      55D30D1C 
 234      6A
 235 0098 43DE47AD 		.ascii	"C\336G\255\207I!F\327F~.)O\304LnB\374v]D\007\211\251"
 235      87492146 
 235      D7467E2E 
 235      294FC44C 
 235      6E42FC76 
 236 00b1 19218970 		.ascii	"\031!\211p\205\032\254\363\222\242\355\206\224\332\231"
 236      851AACF3 
 236      92A2ED86 
 236      94DA99
 237 00c0 E5B98549 		.ascii	"\345\271\205I\024\243\"\363\313u\243\016\252\012\\\334"
 237      14A322F3 
 237      CB75A30E 
 237      AA0A5CDC 
 238 00d0 A3F2DDDC 		.ascii	"\243\362\335\334\203p>sO\270\356\220\247\213\227\323"
 238      83703E73 
 238      4FB8EE90 
 238      A78B97D3 
 239 00e0 BD51C49A 		.ascii	"\275Q\304\232\353No[G\020{\2301\201\223X\017*5\250\001"
 239      EB4E6F5B 
 239      47107B98 
 239      31819358 
 239      0F2A35A8 
 240 00f5 79E81C0C 		.ascii	"y\350\034\014\016&\007\213\202\026\342\020\346\266\202"
 240      0E26078B 
 240      8216E210 
 240      E6B682
 241 0104 AB4A0E11 		.ascii	"\253J\016\021n\253\270\212r\210q[Mn\317\311\255\206"
 241      6EABB88A 
 241      7288715B 
 241      4D6ECFC9 
 241      AD86
 242 0116 F233CAB5 		.ascii	"\3623\312\265\344\312'\243CN\210|\235\334\012\230\220"
 242      E4CA27A3 
 242      434E887C 
ARM GAS  /tmp/ccqCnKQK.s 			page 19


 242      9DDC0A98 
 242      90
 243 0127 2E4205FE 		.ascii	".B\005\376\244q49\253\2554\312y\021\206W\307\350c&\360"
 243      A4713439 
 243      ABAD34CA 
 243      79118657 
 243      C7E86326 
 244 013c 05EAD085 		.ascii	"\005\352\320\205J\027\326\002\314\303\207\257\357\037"
 244      4A17D602 
 244      CCC387AF 
 244      EF1F
 245 014a DF550B4F 		.ascii	"\337U\013O\371\345@L\344D\361\013\266\242\012t\202*"
 245      F9E5404C 
 245      E444F10B 
 245      B6A20A74 
 245      822A
 246 015c 4F676E97 		.ascii	"Ogn\227\314\276,\235\325`$*\267[_\322\202a\3558\274"
 246      CCBE2C9D 
 246      D560242A 
 246      B75B5FD2 
 246      8261ED38 
 247 0171 123107F5 		.ascii	"\0221\007\365\2470\236\021\\\031]\250\262\203\351\311"
 247      A7309E11 
 247      5C195DA8 
 247      B283E9C9 
 248 0181 DA313058 		.ascii	"\33210X\204\354\303\354w\014\204:\317\250b\373\3161"
 248      84ECC3EC 
 248      770C843A 
 248      CFA862FB 
 248      CE31
 249 0193 76E1E5D9 		.ascii	"v\341\345\331\205\274)W\3313\227\021\021\007\255\202"
 249      85BC2957 
 249      D9339711 
 249      1107AD82 
 250 01a3 6D2800F3 		.ascii	"m(\000\363meA>\001\236\016\367Oyx+Ex\306A\361L\211\367"
 250      6D65413E 
 250      019E0EF7 
 250      4F79782B 
 250      4578C641 
 251 01bb 367B885D 		.ascii	"6{\210]\016\216g\006xF\341\264\2466vN\313\362\371\302"
 251      0E8E6706 
 251      7846E1B4 
 251      A636764E 
 251      CBF2F9C2 
 252 01cf FFE45376 		.ascii	"\377\344Sv\370\246\263_\012|\264\237\305c\332iom\370"
 252      F8A6B35F 
 252      0A7CB49F 
 252      C563DA69 
 252      6F6DF8
 253 01e2 47E1A8C3 		.ascii	"G\341\250\303\264(y\227\214]\274\241\377\361\252>o\330"
 253      B4287997 
 253      8C5DBCA1 
 253      FFF1AA3E 
 253      6FD8
 254 01f4 735B5D29 		.ascii	"s[])b\254(\313\250\375\235\261\222\264\036#\2262Fhq"
 254      62AC28CB 
 254      A8FD9DB1 
ARM GAS  /tmp/ccqCnKQK.s 			page 20


 254      92B41E23 
 254      96324668 
 255 0209 FF8CBACF 		.ascii	"\377\214\272\317\030\221\214[E\214Ue\031\215b\306\365"
 255      18918C5B 
 255      458C5565 
 255      198D62C6 
 255      F5
 256 021a 47B70265 		.ascii	"G\267\002e\224\304\036\344\353\263\245\2241Z\225\224"
 256      94C41EE4 
 256      EBB3A594 
 256      315A9594 
 257 022a B415EE9D 		.ascii	"\264\025\356\235\323\3649c\236xjes~\037b\313\313\374"
 257      D3F43963 
 257      9E786A65 
 257      737E1F62 
 257      CBCBFC
 258 023d C492B8B3 		.ascii	"\304\222\270\263\253[\233\207\003\244j\337\342dy\013"
 258      AB5B9B87 
 258      03A46ADF 
 258      E264790B 
 259 024d A91DDB2E 		.ascii	"\251\035\333.hk\366\242\015\371\332e\310\254};*\245"
 259      686BF6A2 
 259      0DF9DA65 
 259      C8AC7D3B 
 259      2AA5
 260 025f C115A7BF 		.ascii	"\301\025\247\277\232~b\376#\317\333\335\351\236N;\231"
 260      9A7E62FE 
 260      23CFDBDD 
 260      E99E4E3B 
 260      99
 261 0270 EEB86977 		.ascii	"\356\270iwt\016\332\311n\247\335I\367\331\375\275\003"
 261      740EDAC9 
 261      6EA7DD49 
 261      F7D9FDBD 
 261      03
 262 0281 D7AFD954 		.ascii	"\327\257\331Tt'R\366\215to\177\237\335\022\277\320\324"
 262      742752F6 
 262      8D746F7F 
 262      9FDD12BF 
 262      D0D4
 263 0293 6837379F 		.ascii	"h77\237\263[[\316\\\212\017\236\260\373:{\235D\352j"
 263      B35B5BCE 
 263      5C8A0F9E 
 263      B0FB3A7B 
 263      9D44EA6A 
 264 02a7 2AD5D190 		.ascii	"*\325\321\220\004\034\320\007\323\251\206&/6\376\001"
 264      041CD007 
 264      D3A98626 
 264      2F36FE01 
 265 02b7 7A3D747C 		.ascii	"z=t|"
 266              		.text
 267              		.section	.gnu.lto_sd_lld_stop.part.1.ac2310b7bf8180d4,"",%progbits
 268 0000 789C9551 		.ascii	"x\234\225Q1H\003A\020\334\275\273\304\330\250\255]\260"
 268      31480341 
 268      10DCBDBB 
 268      C4D8A8AD 
 268      5DB0
ARM GAS  /tmp/ccqCnKQK.s 			page 21


 269 0012 B00978A8 		.ascii	"\260\011x\250\245\225`\023\210\010\346\003Z\311\347"
 269      A5956013 
 269      8808E603 
 269      5AC9E7
 270 0021 3F98C7D7 		.ascii	"?\230\307\327\017\371\030\024\213\\4E\012\301\307J\264"
 270      0FF91814 
 270      8B5C3445 
 270      0AC1C74A 
 270      B4
 271 0032 31081636 		.ascii	"1\010\0266\026\226v\351\243X\306*\215\255X)X\370\356"
 271      169676E9 
 271      A358C62A 
 271      8DAD5829 
 271      58F8EE
 272 0045 FD13443B 		.ascii	"\375\023D;\017ng\357vwfo\217\001\203\277+C{\017\001"
 272      0F6E67EF 
 272      7677666F 
 272      8F0183BF 
 272      2B437B0F 
 273 005a 56083101 		.ascii	"V\0101\001(\202\007r\004\262\010\031r\215\315\024G\324"
 273      28820772 
 273      04B20819 
 273      728DCD14 
 273      47D4
 274 006c 0E203404 		.ascii	"\016 4\004\343\330XG]\214S\320Q\352t\360\362z7\251."
 274      E3D85847 
 274      5D8C53D0 
 274      51EA74F0 
 274      F27A37A9 
 275 0081 0F03F515 		.ascii	"\017\003\365\025\206\350 \311\344\020,\2045:`:\002&"
 275      86E820C9 
 275      E4102C84 
 275      353A603A 
 275      0226
 276 0093 7EEBDE32 		.ascii	"~\353\33625\010\303\376\3651&\021\034\344L\033\272O"
 276      3508C3FE 
 276      F5312611 
 276      1CE44C1B 
 276      BA4F
 277 00a5 404BA920 		.ascii	"@K\251 mb\207\310A\223\3202\310jy\003\205F^@\026a\017"
 277      6D6287C8 
 277      4193D032 
 277      C86A7903 
 277      85465E40 
 278 00bc BACF67EF 		.ascii	"\272\317g\357\013&^Q\353\233\210\031\270Q\255\346\204"
 278      0B265E51 
 278      EB9B8819 
 278      B851ADE6 
 278      84
 279 00cd 83E202CE 		.ascii	"\203\342\002\316\233\201\"/\241\305\223\352\255\255"
 279      9B81222F 
 279      A1C593EA 
 279      ADAD
 280 00db 44D44732 		.ascii	"D\324G2R/\342\260\217\036\034\335\363!\001#\016\235"
 280      522FE2B0 
 280      8F1E1CDD 
 280      F3210123 
ARM GAS  /tmp/ccqCnKQK.s 			page 22


 280      0E9D
 281 00ed C4C3F023 		.ascii	"\304\303\360#\034\217\242\335l\034\37475\261\001<Bk"
 281      1C8FA2DD 
 281      6C1CFC37 
 281      35B1013C 
 281      426B
 282 00ff D03F198B 		.ascii	"\320?\031\213)\000\016\340S\265u\351\210\205q\232\256"
 282      29000EE0 
 282      53B575E9 
 282      8885719A 
 282      AE
 283 0110 4B4DD3DB 		.ascii	"KM\323\333G\343\252\002\015A\277\354\211f\3763,\203"
 283      47E3AA02 
 283      0D41BFEC 
 283      8966FE33 
 283      2C83
 284 0122 B2E956FF 		.ascii	"\262\351V\377^V\226\275\355\222\264<{_\332\245\272\264"
 284      5E5696BD 
 284      ED92B43C 
 284      7B5FDAA5 
 284      BAB4
 285 0134 CA4ED1F1 		.ascii	"\312N\321\361|Y\253\356\356lIr\312\246++^\265\346\313"
 285      7C59ABEE 
 285      EE6C4972 
 285      CAA62B2B 
 285      5EB5E6CB 
 286 0148 BCB13C3F 		.ascii	"\274\261<?'s\271%Y\310/\256\032\365Y\351\227\252\216"
 286      2773B925 
 286      59C82FAE 
 286      1AF559E9 
 286      97AA8E
 287 015b E96EB8AE 		.ascii	"\351n\270\256=c\001\367\355\3127C\214w\022"
 287      3D6301F7 
 287      EDCA3743 
 287      8C7712
 288              		.text
 289              		.section	.gnu.lto_VectorD8.ac2310b7bf8180d4,"",%progbits
 290 0000 789C6362 		.ascii	"x\234cb`b@\007\222@\274\031\210\275\201\230\221\231"
 290      60624007 
 290      9240BC19 
 290      88BD8198 
 290      9199
 291 0012 819169C2 		.ascii	"\201\221i\3029\006\206F\016&FF\020\203\201\221\241\236"
 291      39068646 
 291      0E264646 
 291      10838191 
 291      A19E
 292 0024 89B13E92 		.ascii	"\211\261>\222\021\254v=\323\201\007\377\377\257\373"
 292      11AC763D 
 292      D38107FF 
 292      FFAFFB
 293 0033 3269CD1C 		.ascii	"2i\315\034\3063L,@\021V\206\226\206\206\011\012\014"
 293      C6334C2C 
 293      40115686 
 293      96868609 
 293      0A0C
 294 0045 0CC96015 		.ascii	"\014\311`\025!@\022\244-\224\221\011D3\237ghy\260\357"
ARM GAS  /tmp/ccqCnKQK.s 			page 23


 294      214012A4 
 294      2D949109 
 294      44339F67 
 294      6879B0EF 
 295 0059 245722E3 		.ascii	"$W\"\343BFV\240t5\303\257\206\216\006\201LF\240r\210"
 295      424656A0 
 295      7435C3AF 
 295      868E0681 
 295      4C46A072 
 296 006e 8920118E 		.ascii	"\211 \021\216LF\306\\F\006\250\242L\240V\206\363\014"
 296      4C46C65C 
 296      4606A8A2 
 296      4CA05686 
 296      F30C
 297 0080 CD0F4E64 		.ascii	"\315\017NdbhcNf\204x \223\021h\371E\206\306\007'5a\212"
 297      6268634E 
 297      66847820 
 297      931168F9 
 297      4586C607 
 298 0098 20200468 		.ascii	"  \004h.\320b\220*O\375\214\374\334T\375\344\374\224"
 298      2ED06290 
 298      2A4FFD8C 
 298      FCDC54FD 
 298      E4FC94
 299 00ab 4AFD94D4 		.ascii	"J\375\224\3242\375\344\214\314\244\314\374b\375\222"
 299      32FDE48C 
 299      CCA4CCFC 
 299      62FD92
 300 00ba A2D2BC6C 		.ascii	"\242\322\274l} ##1G\277 \277\250\244X?8\304\327\330"
 300      7D202323 
 300      3147BF20 
 300      BFA8A458 
 300      3F38C4D7 
 301 00cf 48DFC7C7 		.ascii	"H\337\307\307E?4\3301(\244\314P\2778\265(31'>''E/\231"
 301      453F34D8 
 301      3128A4CC 
 301      50BF38B5 
 301      28333127 
 302 00e9 0100BFC1 		.ascii	"\001\000\277\301I\217"
 302      498F
 303              		.text
 304              		.section	.gnu.lto_Vector15C.ac2310b7bf8180d4,"",%progbits
 305 0000 789C6362 		.ascii	"x\234cb`b@\007\222@\274\031\210\275\201\230\221\231"
 305      60624007 
 305      9240BC19 
 305      88BD8198 
 305      9199
 306 0012 819169C2 		.ascii	"\201\221i\3029\006\206F\016&FF\020\203\201\221\241\236"
 306      39068646 
 306      0E264646 
 306      10838191 
 306      A19E
 307 0024 89B13E92 		.ascii	"\211\261>\222\021\254v=\323\201\007\377\377\257\233"
 307      11AC763D 
 307      D38107FF 
 307      FFAF9B
 308 0033 337DCD1D 		.ascii	"3}\315\035\306\273L,@\021V\206\226\206\206\011\012\014"
ARM GAS  /tmp/ccqCnKQK.s 			page 24


 308      C6BB4C2C 
 308      40115686 
 308      96868609 
 308      0A0C
 309 0045 0CC96015 		.ascii	"\014\311`\025!@\022\244-\224\221\011D3\237ghyp\3534"
 309      214012A4 
 309      2D949109 
 309      44339F67 
 309      687970EB 
 310 005a 5722E342 		.ascii	"W\"\343BFV\240t5\303\257\206\216\006\201LF\240r\210"
 310      4656A074 
 310      35C3AF86 
 310      8E06814C 
 310      46A07288 
 311 006e 8920118E 		.ascii	"\211 \021\216LF\306\\F\006\250\242L\240V\206\363\014"
 311      4C46C65C 
 311      4606A8A2 
 311      4CA05686 
 311      F30C
 312 0080 CD0FEE64 		.ascii	"\315\017\356dchcNf\204x \223\021h\371E\206\306\007w"
 312      6368634E 
 312      66847820 
 312      931168F9 
 312      4586C607 
 313 0095 B5618A20 		.ascii	"\265a\212  \004h.\320b\220*O\375\214\374\334T\375\344"
 313      2004682E 
 313      D062902A 
 313      4FFD8CFC 
 313      DC54FDE4 
 314 00a9 FC944AFD 		.ascii	"\374\224J\375\224\3242\375\344\214\314\244\314\374b"
 314      94D432FD 
 314      E48CCCA4 
 314      CCFC62
 315 00b8 FD92A2D2 		.ascii	"\375\222\242\322\274l} ##1G\277 \277\250\244X?8\304"
 315      BC6C7D20 
 315      23233147 
 315      BF20BFA8 
 315      A4583F38 
 316 00cd D7D848DF 		.ascii	"\327\330H\337\307\307E?4\3301(\244\314P\2778\265(31"
 316      C7C7453F 
 316      34D83128 
 316      A4CC50BF 
 316      38B52833 
 317 00e2 273E2727 		.ascii	"'>''E/\231\001\000\350\007I\327"
 317      452F9901 
 317      00E80749 
 317      D7
 318              		.text
 319              		.section	.gnu.lto_sd_lld_init.ac2310b7bf8180d4,"",%progbits
 320 0000 789C6362 		.ascii	"x\234cb`b@\007\222@<\207\221\201\301\033H32302M8\307"
 320      60624007 
 320      92403C87 
 320      9181C11B 
 320      48333233 
 321 0019 C0D0C8C1 		.ascii	"\300\320\310\301\304\310\010b002\32431\326G2\202\325"
 321      C4C80862 
 321      303032D4 
ARM GAS  /tmp/ccqCnKQK.s 			page 25


 321      3331D647 
 321      3282D5
 322 002c AE673AF0 		.ascii	"\256g:\360\340\377\377u\237\246\317\351a|\315\304\006"
 322      E0FFFF75 
 322      9FA6CFE9 
 322      617CCDC4 
 322      06
 323 003d 14616568 		.ascii	"\024aehih\230\240\300\300\220\014V\021\002$A\332B\031"
 323      696898A0 
 323      C0C0900C 
 323      56110224 
 323      41DA4219 
 324 0051 994034F3 		.ascii	"\231@4\363y\206\266\007\235o\331\023\031\0272\262\002"
 324      7986B607 
 324      9D6FD913 
 324      191732B2 
 324      02
 325 0062 A5AB197E 		.ascii	"\245\253\031~5t4\010d2\002\225CL\004\211pd22\34622@"
 325      35743408 
 325      64320295 
 325      434C0489 
 325      70643232 
 326 007a 15453066 		.ascii	"\025E0f\0025\303$\230\223\031\231\240\022\231\214,\014"
 326      0235C324 
 326      98931999 
 326      A012998C 
 326      2C0C
 327 008c 0C67199A 		.ascii	"\014g\031\232v\334X\364\232\021\"\246\315\260\252\001"
 327      76DC58F4 
 327      9A1122A6 
 327      CDB0AA01 
 328 009c 08783319 		.ascii	"\010x3\031Yg3\314jl\000\031\315\006\267\004d(\003\304"
 328      596733CC 
 328      6A6C0019 
 328      CD06B704 
 328      642803C4 
 329 00b0 40886549 		.ascii	"@\210eI\020\012,\302\332\320\321\330\0004\220\001\344"
 329      100A2CC2 
 329      DAD0D1D8 
 329      00349001 
 329      E4
 330 00c1 C4B5C439 		.ascii	"\304\265\3049\221\021\227\023\2311\234\270\232h'2\342"
 330      91119713 
 330      99319CB8 
 330      9A682732 
 330      E2
 331 00d2 71E28A16 		.ascii	"q\342\212\026\260\023/24>\330\241\013s!\004\204\000"
 331      B0132F32 
 331      343ED8A1 
 331      0B732104 
 331      8400
 332 00e4 35004318 		.ascii	"5\000C\030\024\237\236\372\031\371\271\251\372\311\371"
 332      149F9EFA 
 332      19F9B9A9 
 332      FAC9F9
 333 00f3 2995FA29 		.ascii	")\225\372)\251e\372\311\031\231I\231\371\305\372%E\245"
 333      A965FAC9 
ARM GAS  /tmp/ccqCnKQK.s 			page 26


 333      19994999 
 333      F9C5FA25 
 333      45A5
 334 0105 79D9FA40 		.ascii	"y\331\372@FFb\216~A~QI\261~p\210\257\261\221\276\217"
 334      4646628E 
 334      7E417E51 
 334      49B17E70 
 334      88AFB191 
 335 011b 8F8B7E68 		.ascii	"\217\213~h\260cPH\231\241~qjQfbN|NN\212^2\003\000i\232"
 335      B0635048 
 335      99A17E71 
 335      6A516662 
 335      4E7C4E4E 
 336 0136 7ED7     		.ascii	"~\327"
 337              		.text
 338              		.section	.gnu.lto_sd_lld_start.ac2310b7bf8180d4,"",%progbits
 339 0000 789C9D53 		.ascii	"x\234\235SMh\023A\024~ov\366/?\032\274\027z\362`\301"
 339      4D681341 
 339      147E6F76 
 339      F62F3F1A 
 339      BC177AF2 
 340 0016 517BF424 		.ascii	"Q{\364$\010\022\254\027\233\200\236$\335\204d11\222"
 340      0812AC17 
 340      9B809E24 
 340      DD846431 
 340      3192
 341 0028 D48278E8 		.ascii	"\324\202x\350D[\350\261\340\245\270h\365V<\330C\245"
 341      445BE8B1 
 341      E0A5B868 
 341      F5563CD8 
 341      43A5
 342 003a 684F6DD0 		.ascii	"hOm\320\020\204*R\017Zz\310I\017\"\366\342\305\203\361"
 342      10842A52 
 342      0F5A7AC8 
 342      490F22F6 
 342      E2C583F1 
 343 004e CD4E76B1 		.ascii	"\315Nv\261U\361ga\337\314\274\371\276\367\276\371v\226"
 343      55F16761 
 343      DFCCBCF9 
 343      BEF7BEF9 
 343      7696
 344 0060 0183FDCF 		.ascii	"\001\203\375\317\024\275\267\015\200\2634b\002\220\315"
 344      14BDB70D 
 344      80B33462 
 344      0290CD
 345 006f BF046839 		.ascii	"\277\004h9\214\031;I\220\011\376\270\015 S\006r\235"
 345      8C193B49 
 345      9009FEB8 
 345      0D205306 
 345      729D
 346 0081 E7CCEC0C 		.ascii	"\347\314\354\014Q\336}q\214\322&\263\356\233\264\262"
 346      51DE7D71 
 346      8CD226B3 
 346      EE9BB4B2 
 347 0091 77BB0A65 		.ascii	"w\273\012e\241\255Q6s\276\330\012\025tT\336AW\347]D"
 347      A1AD5136 
 347      73BED80A 
ARM GAS  /tmp/ccqCnKQK.s 			page 27


 347      157454DE 
 347      4157E75D 
 348 00a6 35018469 		.ascii	"5\001\204ifp\323\262)3}\021C!\313l\275\327\357?Z\010"
 348      6670D3B2 
 348      29337D11 
 348      4321CB6C 
 348      BDD7EF3F 
 349 00bc 9E6FE092 		.ascii	"\236o\340\2228\204PC\340H\301\242\2006\370\010\016\005"
 349      38845043 
 349      E048C1A2 
 349      8036F808 
 349      0E05
 350 00ce 745548A9 		.ascii	"tUH\251\220V!CA\235\312\204\031)\347\207\001\274\260"
 350      90562143 
 350      419DCA84 
 350      1929E787 
 350      01BCB0
 351 00e1 5C8EA26A 		.ascii	"\\\216\242j\225\247M\032\215.<\373\260q70\012\370\000"
 351      95A74D1A 
 351      8D2E3CFB 
 351      B0713730 
 351      0AF800
 352 00f4 4D2823BF 		.ascii	"M(#\277\200>\032?\032\221\243\345N\322\310#\017\011"
 352      803E1A3F 
 352      1A91A3E5 
 352      4ED2C823 
 352      0F09
 353 0106 9B7073FB 		.ascii	"\233ps\373\311\352\026F\004{\004\216\370\310\003\270"
 353      C9EA1646 
 353      047B048E 
 353      F8C803B8 
 354 0116 4344B38C 		.ascii	"CD\263\214\226*`\205\314\011\214j\250.\255tLQ\020\036"
 354      962A6085 
 354      CC098C6A 
 354      A82EAD74 
 354      4C51101E 
 355 012a 6FC23B40 		.ascii	"o\302;@j\314\360\006|\225\013r}18H\022j\241z\243k(\255"
 355      6ACCF006 
 355      7C950B72 
 355      7D313848 
 355      126AA17A 
 356 0142 267486B4 		.ascii	"&t\206\264\324\255 \025\225\261\024~N\312Q\352W\333"
 356      D4AD2015 
 356      95B1147E 
 356      4ECA51EA 
 356      57DB
 357 0154 AB992816 		.ascii	"\253\231(\026|C\022\333\336~\273v2b8#\360P\316\2642"
 357      7C4312DB 
 357      DE7EBB76 
 357      32623823 
 357      F050CEB4 
 358 0169 3EDA5AAF 		.ascii	">\332Z\257\243\224\270rwNr\010\247\003\335\221\266M"
 358      A394B872 
 358      774E7208 
 358      A703DD91 
 358      B64D
 359 017b B8F534B6 		.ascii	"\270\3654\266\306-k<J\351\204{\355\254\336\372\267\252"
ARM GAS  /tmp/ccqCnKQK.s 			page 28


 359      C62D6B3C 
 359      4AE9847B 
 359      EDACDEFA 
 359      B7AA
 360 018d 65B57E05 		.ascii	"e\265~\005\263\275\217\237\222\232\017\240OB\025\022"
 360      B3BD8F9F 
 360      929A0FA0 
 360      4F421512 
 361 019d DE00A578 		.ascii	"\336\000\245x\311\303zP\0375\025\235\313\216\255X\271"
 361      C9C37A50 
 361      1F35159D 
 361      CB8EAD58 
 361      B9
 362 01ae F71B2BF8 		.ascii	"\367\033+\370>+\034\3503m\305\373\330\212\324\337\212"
 362      3E2B1CE8 
 362      336DC5FB 
 362      D88AD4DF 
 362      8A
 363 01bf 8EFE8C3D 		.ascii	"\216\376\214=V\244\251@h\305\360\177\031\301\006F\244"
 363      56A4A940 
 363      68C5F07F 
 363      19C10646 
 363      A4
 364 01d0 B511C1E7 		.ascii	"\265\021\301\347?\031q\346\027F\270\321u\\\233]Y\315"
 364      3F1971E6 
 364      1746B8D1 
 364      755C9B5D 
 364      59CD
 365 01e2 AA7219DD 		.ascii	"\252r\031\335\225E\227\360\215\243\261\252\307\342\262"
 365      954597F0 
 365      8DA3B1AA 
 365      C7E2B2
 366 01f1 FD538FB4 		.ascii	"\375S\217\264\027+\311\224\221\030\007\000^C\253\267"
 366      172BC994 
 366      91180700 
 366      5E43ABB7 
 367 0201 242268F4 		.ascii	"$\"h\364\007\240\352\245\260YQ\251\327J\302\253\027"
 367      07A0EAA5 
 367      B05951A9 
 367      D74AC2AB 
 367      17
 368 0212 AF8B6269 		.ascii	"\257\213biJx\025\177\302\2577\305d\343\332\225\313\202"
 368      4A78157F 
 368      C2AF37C5 
 368      64E3DA95 
 368      CB82
 369 0224 26954255 		.ascii	"&\225BU\\\2557&\233b<wn\364\204\030\033;-\362\343\247"
 369      5CAD3726 
 369      9B623C77 
 369      6EF48418 
 369      1B3B2DF2 
 370 023a CEE7A68E 		.ascii	"\316\347\246\216\213f\251\341\027\252\227\252\325\342"
 370      8B66A9E1 
 370      17AA97AA 
 370      D5E2
 371 0248 510FBE03 		.ascii	"Q\017\276\003\"\302\362m"
 371      22C2F26D 
ARM GAS  /tmp/ccqCnKQK.s 			page 29


 372              		.text
 373              		.section	.gnu.lto_sd_lld_stop.ac2310b7bf8180d4,"",%progbits
 374 0000 789C9553 		.ascii	"x\234\225S\317k\023A\030\375\276\231\375\2256\265\375"
 374      CF6B1341 
 374      18FDBE99 
 374      FD9536B5 
 374      FD
 375 0011 032C089E 		.ascii	"\003,\010\236\264\340\250\375\013\004A\212\365b\023"
 375      B4E0A8FD 
 375      0B04418A 
 375      F56213
 376 0020 517A9074 		.ascii	"Qz\220t\023\222\301\304H\322\026\304C'm\300\012\012"
 376      1392C1C4 
 376      48D216C4 
 376      43276DC0 
 376      0A0A
 377 0032 BD59EC21 		.ascii	"\275Y\354!\210\320\202\210\342-\"B,\022\244R[\361\240"
 377      88D08288 
 377      E22D2242 
 377      2C12A452 
 377      5BF1A0
 378 0045 F4A0C18B 		.ascii	"\364\240\301\2137\353\305\037(\270~\263\323\215\245"
 378      37EBC51F 
 378      28B87EB3 
 378      D38DA5
 379 0054 29421776 		.ascii	")B\027vf\366\333\367\2757\357\315.\003\006;\257Q\272"
 379      66F6DBF7 
 379      BD37EFCD 
 379      2E03063B 
 379      AF51BA
 380 0067 CF7180D3 		.ascii	"\317q\200\3234\243\007\310\346^\003T<\306x\263\037T"
 380      34A307C8 
 380      E65E0354 
 380      3CC678B3 
 380      1F54
 381 0079 97BB7214 		.ascii	"\227\273r\024T\2343\353\011\247'\373\335\012\320\243"
 381      549C33EB 
 381      09A727FB 
 381      DD0AD0A3 
 382 0089 85AE46A1 		.ascii	"\205\256F\241\315\234o\256\006-4u\3311\345\212\347\""
 382      CD9C6FAE 
 382      062D3475 
 382      D931E58A 
 382      E722
 383 009b EA05204C 		.ascii	"\352\005 L1n\331\216\213S\0270T{\304\032\255 x\370\375"
 383      316ED98E 
 383      8B531730 
 383      547BC41A 
 383      AD2078F8 
 384 00b0 C3E203BC 		.ascii	"\303\342\003\274q\260\227a\001\201\203D\260h y\211,"
 384      71B09761 
 384      01818344 
 384      B0682079 
 384      892C
 385 00c2 A60782DA 		.ascii	"\246\007\202\332PUj\356\000\200\037\266&h\324\244Iz"
 385      50556AEE 
 385      00801FB6 
ARM GAS  /tmp/ccqCnKQK.s 			page 30


 385      2668D4A4 
 385      497A
 386 00d4 49335F85 		.ascii	"I3_\205\351\215\372\346[L\341]\264!\213|\000\016K\344"
 386      E98DFAE6 
 386      5B4CE15D 
 386      B4218B7C 
 386      000E4BE4 
 387 00e8 0B700725 		.ascii	"\013p\007%ZYd\347i\266C\3211\214\314\276\204\027\237"
 387      5A5964E7 
 387      69B643D1 
 387      318CCCBE 
 387      84179F
 388 00fb 2B3DED16 		.ascii	"+=\355\026\015\341\333#I\"\207f\177\310\375~\363\025"
 388      0DE1DB23 
 388      49228766 
 388      7FC8FD7E 
 388      F315
 389 010d 8B8056C8 		.ascii	"\213\200V\310\215\304]QJ\215v\362G\002\253\260\\\377"
 389      8DC45D51 
 389      4A8D76F2 
 389      4702ABB0 
 389      5CFF
 390 011f F9671DDB 		.ascii	"\371g\035\333{7\013\365\373\331!\000\303\346\033\360"
 390      7B370BF5 
 390      FBD92100 
 390      C3E61BF0 
 391 012f 00DC57D5 		.ascii	"\000\334W\325J\343\307u&\3211\304}\022]\322\322\274"
 391      4AE3C775 
 391      26D131C4 
 391      7D125DD2 
 391      D2BC
 392 0141 B8C5CB74 		.ascii	"\270\305\313t\327\222\226\321U'\222\230\017\326\311"
 392      D79296D1 
 392      55279298 
 392      0FD6C9
 393 0150 F722D50D 		.ascii	"\367\"\325\015\215\212\375\217\204\357NR\337\023\211"
 393      8D8AFD8F 
 393      84EF4E52 
 393      DF1389
 394 015f D549A2C3 		.ascii	"\325I\242\303|^\253\305\243\224\3305\370\245f\225\032"
 394      7C5EABC5 
 394      A394D835 
 394      F8A56695 
 394      1A
 395 0170 A45C0AED 		.ascii	"\244\\\012\355H\242`-XB\276\0063\236\201\003\0304Iy"
 395      48A2602D 
 395      5842BE06 
 395      339E8103 
 395      18344979 
 396 0184 3E9A3390 		.ascii	">\2323\220\030\213\3206\324\366\363P\340\366\247\006"
 396      188BD036 
 396      D4F6F350 
 396      E0F6A706 
 397 0194 EEAEC076 		.ascii	"\356\256\300v(8\360\205\321\321-o\314\337\273\351F-"
 397      2838F085 
 397      D1D12D6F 
 397      CCDFBBE9 
ARM GAS  /tmp/ccqCnKQK.s 			page 31


 397      462D
 398 01a6 9E31D767 		.ascii	"\2361\327g\274\321\326\273\364\376\273\325\327Ye\205"
 398      BCD1D6BB 
 398      F4FEBBD5 
 398      D7596585 
 399 01b6 56BAB70C 		.ascii	"V\272\267\014\332\355#\234y\312\243\356\030\021h\020"
 399      DAED239C 
 399      79CAA3EE 
 399      18116810 
 400 01c6 FB180441 		.ascii	"\373\030\004A\257\011n\310\274\334\033oV[[\203j\353"
 400      AF096EC8 
 400      BCDC1B6F 
 400      565B5B83 
 400      6AEB
 401 01d8 D6E31676 		.ascii	"\326\343\026v$\020\367\365!\201\311\266\347\024\005"
 401      2410F7F5 
 401      2181C9B6 
 401      E71405
 402 01e7 B12F32E5 		.ascii	"\261/2\345\206\037\373\033\372\251\376YMP\270T\325\376"
 402      861FFB1B 
 402      FAA9FE59 
 402      4D50B854 
 402      D5FE
 403 01f9 8744AE58 		.ascii	"\207D\256X\310\010\277\230\276*\322\231I\341\347\344"
 403      C808BF98 
 403      BE2AD299 
 403      49E1E7E4 
 404 0209 982C96C5 		.ascii	"\230,\226\305xi\342\362%A\213\\*/\256\024K\343e1\222"
 404      7869E2F2 
 404      25418B5C 
 404      2A2FAE14 
 404      4BE36531 
 405 021e 3833785C 		.ascii	"83x\\\014\017\237\024\311\221\023g\023\223\307D9S\222"
 405      0C0F9F14 
 405      C9911367 
 405      1393C744 
 405      395392
 406 0231 A9FCC57C 		.ascii	"\251\374\305|>}\304\207\277\340\362\346\322"
 406      3E7DC487 
 406      BFE0F2E6 
 406      D2
 407              		.text
 408              		.section	.gnu.lto_.symbol_nodes.ac2310b7bf8180d4,"",%progbits
 409 0000 789C4DCD 		.ascii	"x\234M\315;N\303@\024\205\341;\347z\202\211q\022\363"
 409      3B4EC340 
 409      1485E13B 
 409      E77A8289 
 409      7112F3
 410 0013 A8E96055 		.ascii	"\250\351`U\024Y\3111\030b\207WB\020\015\342!\344\035"
 410      1459C931 
 410      18628757 
 410      42100DE2 
 410      21E41D
 411 0026 D0D3908E 		.ascii	"\320\323\220\216\202\212\005 \242t\224\210\222`;V\306"
 411      828A0520 
 411      A2749488 
 411      92603B56 
ARM GAS  /tmp/ccqCnKQK.s 			page 32


 411      C6
 412 0037 D3FCFA8E 		.ascii	"\323\374\372\216\2564\020\310\263\221\345\303\00042"
 412      AE3410C8 
 412      B391E5C3 
 412      003432
 413 0046 7E1721EF 		.ascii	"~\027!\357\206}\244\2404x\014\242\346}\326\307\011\250"
 413      867DA4A0 
 413      34780CA2 
 413      E67DD6C7 
 413      09A8
 414 0058 0DDE80DE 		.ascii	"\015\336\200\336\212\006\217\240m0\003[5\0372c\027F"
 414      8A068FA0 
 414      6D30035B 
 414      351F3263 
 414      1746
 415 006a 2C054370 		.ascii	",\005Cp\255\261\3060\345z\012\372n\305\031\270\3368"
 415      ADB1C630 
 415      E57A0AFA 
 415      6EC519B8 
 415      DE38
 416 007c 3A043C2A 		.ascii	":\004<*\316\301\266[\315\030\014\226\214ccF\340\206"
 416      CEC1B65B 
 416      CD180C96 
 416      8C636346 
 416      E086
 417 008e D325183A 		.ascii	"\323%\030:]\203\035\247\013\260\353t\005\366\234&`\264"
 417      5D831DA7 
 417      0BB0EB74 
 417      05F69C26 
 417      60B4
 418 00a0 92A22349 		.ascii	"\222\242#I\372\275\253Zt0\367T!\257\351\357\201jO\362"
 418      FABDAB5A 
 418      7430F754 
 418      21AFE9EF 
 418      816A4FF2 
 419 00b4 B7C58B55 		.ascii	"\267\305\213U\355J>\372@u0\331)3\275\375\201\332Hf\237"
 419      ED4A3EFA 
 419      407530D9 
 419      2933BDFD 
 419      81DA4866 
 420 00c9 7F465B2A 		.ascii	"\177F[*GU7%/\353\327\366k\267\267$\251;-\033l\313l^"
 420      47553725 
 420      2FEBD7F6 
 420      6BB7B724 
 420      A93B2D1B 
 421 00e1 2549F735 		.ascii	"%I\3675\360\212\337\212\337C+_OF\303\250X\367\344\037"
 421      F08ADF8A 
 421      DF432B5F 
 421      4F46C3A8 
 421      58F7E41F 
 422 00f5 11C77EDB 		.ascii	"\021\307~\333"
 423              		.text
 424              		.section	.gnu.lto_.refs.ac2310b7bf8180d4,"",%progbits
 425 0000 789C25C6 		.ascii	"x\234%\306\311\015\000 \014\304\300]#%\204\243\014\372"
 425      C90D0020 
 425      0CC4C05D 
 425      232584A3 
ARM GAS  /tmp/ccqCnKQK.s 			page 33


 425      0CFA
 426 0012 6F1121FC 		.ascii	"o\021!\374\030\031\241\243\237\203t\247b\220\310IaW"
 426      1819A1A3 
 426      9F8374A7 
 426      6290C849 
 426      6157
 427 0024 9B2CDEEF 		.ascii	"\233,\336\357\247.\024\035\000\334"
 427      A72E141D 
 427      00DC
 428              		.text
 429              		.section	.gnu.lto_.decls.ac2310b7bf8180d4,"",%progbits
 430 0000 789CBD5C 		.ascii	"x\234\275\\\013p\024\307\231\236\231\335\225\264 \363"
 430      0B7014C7 
 430      999E99DD 
 430      95B420F3 
 431 0010 8A2F2175 		.ascii	"\212/!u\256\240\\%)W|A/ \370r\301\330\022\261Ug0'a'"
 431      AEA05C25 
 431      29577C41 
 431      2F20F872 
 431      C1D812B1 
 432 002a B9CAD57A 		.ascii	"\271\312\325z\220\026\264\261\244]vG<\256\256\316\303"
 432      9016B4B1 
 432      A45D7647 
 432      3CAEAECE 
 432      C3
 433 003b 4B7E6063 		.ascii	"K~`c!\260\021O\011\002\016\020\260y\305\030\014\366"
 433      21B0114F 
 433      09020E10 
 433      B079C518 
 433      0CF6
 434 004d F216E008 		.ascii	"\362\026\340\010\3616\030c\031\033\316\370\005\010\004"
 434      F1361863 
 434      191BCEF8 
 434      050804
 435 005c 066C747F 		.ascii	"\006lt\177\377=3\333=\232\331\235\221\311mU\367\364"
 435      FF3D33DB 
 435      3D9AD99D 
 435      91C96D55 
 435      F7F4
 436 006e CC747FFD 		.ascii	"\314t\177\375\375\177\377\375\367k$I\220\204{}\202\320"
 436      FD7FFFFD 
 436      F76B2449 
 436      90847B7D 
 436      82D0
 437 0080 01BFDEFF 		.ascii	"\001\277\336\377)\010\341n\202\220)\010\302\020\010"
 437      2908E16E 
 437      82902908 
 437      C21008
 438 008f 7E084B20 		.ascii	"~\010K DDA\330\001\327\011p\275\000\341\"\004(&|\037"
 438      444441D8 
 438      01D70970 
 438      BD00E122 
 438      0428267C 
 439 00a4 C21E9286 		.ascii	"\302\036\222\206_\037\010\367\301}\016\204\001\020\206"
 439      5F1F08F7 
 439      C17D0E84 
 439      011086
ARM GAS  /tmp/ccqCnKQK.s 			page 34


 440 00b3 40288430 		.ascii	"@(\2040\002B1\204' \374\036\302\037 \224A(\207P\005"
 440      02423184 
 440      2720FC1E 
 440      C21F2094 
 440      41288750 
 441 00c8 21066122 		.ascii	"!\006a\"\204\377\206\360?\020\246A\360\000\326sp\235"
 441      84FF86F0 
 441      3F10A641 
 441      F000D673 
 441      709D
 442 00da 01E14549 		.ascii	"\001\341EI\340~\004\337\013\327t\022 -J\224\013\241"
 442      E07E04DF 
 442      0BD77412 
 442      202D4A94 
 442      0BA1
 443 00ec 719776CD 		.ascii	"q\227v\3151\225\0214n\251\312\335gQ\216\310\322]\323"
 443      31951134 
 443      6EA9CADD 
 443      67518EC8 
 443      D25DD3
 444 00ff 410F81EA 		.ascii	"A\017\201\352\246\037<{J\242XD?\023E\252\233Zx\026\322"
 444      A61F3C7B 
 444      4AA25844 
 444      3F1345AA 
 444      9B5A7816 
 445 0114 B0768A54 		.ascii	"\260v\212T\016R~\226&/\201\377\025D\367\233\352!\272"
 445      0E527E96 
 445      262F81FF 
 445      1544F79B 
 445      EA21BA
 446 0127 FAB1C64D 		.ascii	"\372\261\306M\257\203d&\365\374B\244\274\237\322p\307"
 446      AF836426 
 446      F5FC42A4 
 446      BC9FD270 
 446      C7
 447 0138 C1750E24 		.ascii	"\301u\016$\240\311\204z)Q\267.\323\002\211\266\325\""
 447      A0C9847A 
 447      2951B72E 
 447      D30289B6 
 447      D522
 448 014a 8972239C 		.ascii	"\211r#\234\010w\302\253\001\302@\010\215\020\024\010"
 448      0877C2AB 
 448      01C24008 
 448      8D101408 
 449 015a EDF07C09 		.ascii	"\355\360|\011\\\303\020\322 o\215H\333\274C\244:I\223"
 449      5CC310D2 
 449      206F8D48 
 449      DBBC43A4 
 449      3A4993
 450 016d A81C7EB8 		.ascii	"\250\034~\270^\205\353'\020\316C8#R\256C\030\331\006"
 450      5E85EB27 
 450      10CE4338 
 450      2352AE43 
 450      18D906
 451 0180 686D49DA 		.ascii	"hmI\332t\251\306\365!\223\234\205\232.\211l\272\234"
 451      74A9C6F5 
 451      21939C85 
ARM GAS  /tmp/ccqCnKQK.s 			page 35


 451      9A2E896C 
 451      BA9C
 452 0192 0487E869 		.ascii	"\004\207\350i%<\373\201fS\272,\253 \2009\012\367\220"
 452      253CFB81 
 452      6653BA2C 
 452      AB208039 
 452      0AF790
 453 01a5 72107E06 		.ascii	"r\020~\006\241'\204{!\364\206\360#)\301\323\257\325"
 453      A127847B 
 453      21F486F0 
 453      2329C1D3 
 453      AFD5
 454 01b7 59A8D9CF 		.ascii	"Y\250\331\317_\340\372o\020\212L\034Fh\230\023D\236"
 454      5FE0FA6F 
 454      108A4C1C 
 454      46689813 
 454      449E
 455 01c9 03A97335 		.ascii	"\003\251s5\204\257 \\\324t8I\303l\321\332n\204f\253"
 455      84AF205C 
 455      D4743849 
 455      C36CD1DA 
 455      6E8466AB 
 456 01dd E61FB16F 		.ascii	"\346\037\261o\322\036\227$\212\373\000\\/C(\321\362"
 456      D21E9724 
 456      8AFB005C 
 456      2F4328D1 
 456      F2
 457 01ee 7AB43C43 		.ascii	"z\264<C4;'\230\317\231p\236p\200\361\204\011c\206\011"
 457      343B2798 
 457      CF99709E 
 457      7080F184 
 457      09638609 
 458 0202 E3F79A4D 		.ascii	"\343\367\232M\266I|_}Z\263ub+\242\326\276^-?\351s\244"
 458      B6497C5F 
 458      7D5AB375 
 458      622BA2D6 
 458      BE5E2D3F 
 459 0219 BFDCA7C9 		.ascii	"\277\334\247\311\250\367;\366G\372lO\270\356\323\332"
 459      A8F73BF6 
 459      47FA6C4F 
 459      B8EED3DA 
 460 0229 9DEDFBAC 		.ascii	"\235\355\373\254\375\351\372\273\242\351o:\261\033\010"
 460      FDE9FABB 
 460      A2E96F3A 
 460      B11B08
 461 0238 C3B436D9 		.ascii	"\303\2646\331-R]\036\326\356\011.\351\357\205\232\354"
 461      2D525D1E 
 461      D6EE092E 
 461      E9EF859A 
 461      EC
 462 0249 A3E12A4B 		.ascii	"\243\341*K\264\317[\361(cx\010\232\254f\016\304n\332"
 462      B4CF5BF1 
 462      28637808 
 462      9AAC660E 
 462      C46EDA
 463 025c 213C66D3 		.ascii	"!<f\323\236i\032\017\335\306{j\266D8y\265:\256I\211"
 463      9E691A0F 
ARM GAS  /tmp/ccqCnKQK.s 			page 36


 463      DDC67B6A 
 463      B6443879 
 463      B53AAE49 
 464 0271 B6263CC7 		.ascii	"\266&<\307\330\360\351#\314R\341\327\230\326\004\226"
 464      D8F0E923 
 464      CC52E1D7 
 464      98D60496 
 465 0281 F43B5116 		.ascii	"\364;Q\026{\370\205,Ld\372\021\354\247\3022U\255m=\367"
 465      7BF8852C 
 465      4C64FA11 
 465      ECA7C232 
 465      55AD6D3D 
 466 0296 BF7D55AF 		.ascii	"\277}U\257,.\021\373\000\353\373E\341\347\302J(V\253"
 466      2C2E11FB 
 466      00EBFB45 
 466      E1E7C24A 
 466      2856AB
 467 02a9 AA537E26 		.ascii	"\252S~&v\266\246\324\260\222\360\230(\310\342r\300\223"
 467      76B6A6D4 
 467      B092F098 
 467      28C8E272 
 467      C093
 468 02bb C565E2CF 		.ascii	"\305e\342\317i=j|S\315\335\244\036\362\\\320\336X\374"
 468      693D6A7C 
 468      53CDDDA4 
 468      1EF25CD0 
 468      DE58FC
 469 02ce 7E2C3442 		.ascii	"~,4B\315\361\3155\213~\2506\356\020\273\013\317\303"
 469      CDF1CD35 
 469      8B7EA836 
 469      EE10BB0B 
 469      CFC3
 470 02e0 ADDA58A3 		.ascii	"\255\332X\243>\322\324C\253:\213\251\271Q\324\253\276"
 470      3ED2D443 
 470      AB3A8BA9 
 470      B951D4AB 
 470      BE
 471 02f1 DB9028FE 		.ascii	"\333\220(\376\376\267b\226,\256B\201\376 ru\245\204"
 471      FEB76296 
 471      2CAE4281 
 471      FE207275 
 471      A584
 472 0303 90844A52 		.ascii	"\220\204JRb\215\231}\273\234E\237\246\346~\375\302>"
 472      628D997D 
 472      BB9C459F 
 472      A6E67EFD 
 472      C23E
 473 0315 51ADCB94 		.ascii	"Q\255\313\224\305\225@_\022\376[\307\263R\226\226\244"
 473      C595405F 
 473      12FE5BC7 
 473      B3529696 
 473      A4
 474 0326 3F2D038F 		.ascii	"?-\003\217\366M\260)'\245\026\274:Pa\242]\353\237\337"
 474      F64DB029 
 474      27A516BC 
 474      3A5061A2 
 474      5DEB9FDF 
ARM GAS  /tmp/ccqCnKQK.s 			page 37


 475 033a 25AA6A86 		.ascii	"%\252j\206,nDEl\023Sk\202\203\221\300zI\221M&U\264\036"
 475      2C6E4445 
 475      6C13536B 
 475      828391C0 
 475      7A49914D 
 476 0352 9A7966B2 		.ascii	"\232yf\2628YUE\372.\265Bni\215)\213\033P#\323%\035\267"
 476      38595545 
 476      FA2EB542 
 476      6E698D29 
 476      8B1B5023 
 477 036a 6B2AB9BD 		.ascii	"k*\271\275'\263V\326\301^p\015\226\305\201\315\336\273"
 477      27B356D6 
 477      C15E700D 
 477      96C581CD 
 477      DEBB
 478 037c 10C9F985 		.ascii	"\020\311\371\205g\023:N\332aN\034n>$NE\371\337\201b"
 478      67133A4E 
 478      DA614E1C 
 478      6E3E244E 
 478      45F9DF81 
 479 0391 92705AE2 		.ascii	"\222pZ\342U\353\034j\336\334\335\333\305)\010\265\003"
 479      55EB1C6A 
 479      DEDCDDDB 
 479      C52908B5 
 479      03
 480 03a2 A19EF374 		.ascii	"\241\236\363t\025\352\330\374\255\367cs\357F\240\275"
 480      15EAD8FC 
 480      ADF76373 
 480      EF46A0BD 
 481 03b2 2620594C 		.ascii	"& YL7\324h\334\353\031\010\032\276\326\022d\272\325"
 481      37D468DC 
 481      EB19081A 
 481      BED61264 
 481      BAD5
 482 03c4 53F83B67 		.ascii	"S\370;g\227\204\303\036\007M\227ag\007jk\313\314s\342"
 482      9784C31E 
 482      074D9761 
 482      67076A6B 
 482      CBCC73E2 
 483 03d8 3C353ECD 		.ascii	"<5>\315\343\300'\235\304\272\366\233myv\303\227S4[\336"
 483      E3C0279D 
 483      C4BAF69B 
 483      6D7976C3 
 483      9753345B 
 484 03ed EFC89637 		.ascii	"\357\310\2267\035\230\353\3141\245\351\365\227a\375"
 484      1D98EBCC 
 484      31A5E9F5 
 484      9761FD
 485 03fc 0BBCA4FE 		.ascii	"\013\274\244\376\203\346\372\033>\376tH\275\252\366"
 485      83E6FA1B 
 485      3EFE7448 
 485      BDAAF6
 486 040b A2AF5257 		.ascii	"\242\257RW\377\341\3019\235\253\227\305!\377\220\314"
 486      FFE1C139 
 486      9DAB97C5 
 486      21FF90CC 
 487 041b 346637EC 		.ascii	"4f7\354m\323\204<\202}\346\234\327l\034\017t\347\233"
ARM GAS  /tmp/ccqCnKQK.s 			page 38


 487      6DD3843C 
 487      827DE69C 
 487      D76C1C0F 
 487      74E79B
 488 042e 0FEE990C 		.ascii	"\017\356\231\014\222\360\225A\277K]\026\344\214?\260"
 488      92F09541 
 488      BF4B5D16 
 488      E48C3FB0 
 489 043e 72BDAA3E 		.ascii	"r\275\252>\227\246shs\215\230\305i\242\355 :\001\012"
 489      97A67368 
 489      738D98C5 
 489      69A2ED20 
 489      3A010A
 490 0451 76CD0998 		.ascii	"v\315\011\230\255%M\211_e\301n\272\006\343\231]c\301"
 490      AD254D89 
 490      5F65C16E 
 490      BA06E399 
 490      5D63C1
 491 0464 6E3B01EB 		.ascii	"n;\001\353e\317\354k\026l\212\317-\030\317\354&\013"
 491      65CFEC6B 
 491      166C8ACF 
 491      2D18CFEC 
 491      260B
 492 0476 56E304AC 		.ascii	"V\343\004\254\257=\263oX\260\347]\203\361\314n\263`"
 492      AF3DB36F 
 492      58B0E75D 
 492      83F1CC6E 
 492      B360
 493 0488 339D8065 		.ascii	"3\235\200e\3313\253=\314\200\325\271\006\343\231\325"
 493      D933AB3D 
 493      CC80D5B9 
 493      06E399D5 
 494 0498 B160AF38 		.ascii	"\261`\2578\001\273\327\236\331\034\026l\276k0\236\331"
 494      01BBD79E 
 494      D91C166C 
 494      BE6B309E 
 494      D9
 495 04a9 2B2CD862 		.ascii	"+,\330b'`9\366\314\352Y\260\245\256\301xf\363Y\260W"
 495      276039F6 
 495      CCEA59B0 
 495      A5AEC178 
 495      66F359B0 
 496 04be 9D800DB6 		.ascii	"\235\200\015\266g\266\220\005[\345\032\214g\266\226"
 496      67B69005 
 496      5BE51A8C 
 496      67B696
 497 04cd 057BCD09 		.ascii	"\005{\315\011\330P{f\353Y\260u\256\301xf\033Y\260\215"
 497      D8507B66 
 497      EB59B075 
 497      AEC17866 
 497      1B59B08D 
 498 04e1 4EC01EB1 		.ascii	"N\300\036\261g\366\006\013\266\3115\030\317\354M\026"
 498      67F6060B 
 498      B6C93518 
 498      CFEC4D16 
 499 04f1 6C8B13B0 		.ascii	"l\213\023\260\221\366\314\266\260`\333\\\203\361\314"
 499      91F6CCB6 
ARM GAS  /tmp/ccqCnKQK.s 			page 39


 499      B060DB5C 
 499      83F1CC
 500 0500 B6B26071 		.ascii	"\266\262`q'`\277\263g\3666\013\266\3135\030\317\254"
 500      2760BFB3 
 500      67F6360B 
 500      B6CB3518 
 500      CFAC
 501 0512 85056B72 		.ascii	"\205\005kr\002\366\244\0053\343gU\216\014\323\315\242"
 501      02F6A405 
 501      33E36755 
 501      8E0CD3CD 
 501      A2
 502 0523 316E4BC2 		.ascii	"1nK\302\001\237>\305q9F\013\011\214\203>\267S2NnX\033"
 502      019F3EC5 
 502      7139460B 
 502      098C833E 
 502      B753324E 
 503 053a 9C5F22CE 		.ascii	"\234_\"\316\236\2526\345\350\363\363cN\020\223\014\200"
 503      9EAA36E5 
 503      E8F3F363 
 503      4E10930C 
 503      80
 504 054b F3F73293 		.ascii	"\363\3672\223\375\017\\\203\231L\231\200qs'm\202\335"
 504      FD0F5C83 
 504      994C9980 
 504      7173276D 
 504      82DD
 505 055d BA3CDEB7 		.ascii	"\272<\336\267>1{\313\320\261\310\012\230N\325`A,\031"
 505      3E317BCB 
 505      D0B1C80A 
 505      984ED560 
 505      412C19
 506 0570 99D5BE7D 		.ascii	"\231\325\276}\255\363\312b\255\364S\210gI~\203\005M"
 506      ADF3CA62 
 506      ADF45388 
 506      67497E83 
 506      054D
 507 0582 EB29B2B4 		.ascii	"\353)\262\264\207\031\230\317jm\215\000\311\213\332"
 507      871998CF 
 507      6A6D8D00 
 507      C98BDA
 508 0591 59C24C89 		.ascii	"Y\302L\211\261\204\317\234\250)\311\320\376\341\336"
 508      B184CF9C 
 508      A829C9D0 
 508      FEE1DE
 509 05a0 853F505B 		.ascii	"\205?P[\343\"#oR\345\300\232\250\356o\372\232\350e\211"
 509      E322236F 
 509      52E5C09A 
 509      A8EE6FFA 
 509      9AE86589 
 510 05b4 AC3F2EFB 		.ascii	"\254?.\373,\0272\016\240\346\315]s\037.d\352\021\350"
 510      2C17320E 
 510      A0E6CD5D 
 510      731F2E64 
 510      EA11E8
 511 05c7 6697818E 		.ascii	"f\227\201\216\315_<\030\201\026 \320\2244\363\244W4"
 511      CD5F3C18 
ARM GAS  /tmp/ccqCnKQK.s 			page 40


 511      811620D0 
 511      9434F3A4 
 511      5734
 512 05d9 AD88447E 		.ascii	"\255\210D~\315\"\372\023\211\016\276\271\356h^X\303"
 512      CD22FA13 
 512      890EBEB9 
 512      EE685E58 
 512      C3
 513 05ea A699DA8B 		.ascii	"\246\231\332\213\023'\345\354\251\365P\363\267\263\304"
 513      1327E5EC 
 513      A9F550F3 
 513      B7B3C4
 514 05f9 2B53D4FA 		.ascii	"+S\324\372\034\027-v\370]\275\305\032Q?s:\351\247^r"
 514      1C172D76 
 514      F85DBDC5 
 514      1A513F73 
 514      3AE9A75E 
 515 060e A7204958 		.ascii	"\247 IX\350Z\220{yAf\356\252s/\210az\313Q\220ew@\220"
 515      E85A907B 
 515      794166EE 
 515      AA732F88 
 515      617ACB51 
 516 0627 D5AE05C9 		.ascii	"\325\256\005\311a\004!{$\355u\324\017~O\250K\2766%|"
 516      6104217B 
 516      24ED75D4 
 516      0F7E4FA8 
 516      4BBE3625 
 517 063c 5649DFE3 		.ascii	"VI\337\343\267\233N\356\307-,x\234jM\250\306\257\357"
 517      B79B4EEE 
 517      C72D2C78 
 517      9C6A4DA8 
 517      C6AFEF
 518 064f 67763054 		.ascii	"gv0TG;\030u\007u\225\255A\225mH\263\350d\216\240\346"
 518      473B1875 
 518      077595AD 
 518      41956D48 
 518      B3E8648E 
 519 0665 9DD8B54E 		.ascii	"\235\330\265N\333\301X\213P\233\273\014u\354\324&\332"
 519      DBC1588B 
 519      509BBB0C 
 519      75ECD426 
 519      DA
 520 0676 5F3720D0 		.ascii	"_7 \320\366N\315\230fj\3054\276\025\341\226\324\364"
 520      F64ECD98 
 520      666AC534 
 520      BE15E196 
 520      D4F4
 521 0688 35D95F10 		.ascii	"5\331_\020\237\326\236\220\233t\341\377\275\034\214"
 521      9FD69E90 
 521      9B74E1FF 
 521      BD1C8C
 522 0697 C6489FB4 		.ascii	"\306H\237\264\240\313\321\330\260\240su\372HJ\033\351"
 522      A0CBD1D8 
 522      B0A07375 
 522      FA484A1B 
 522      E9
 523 06a8 F077429C 		.ascii	"\360wB\234\022\3370C\337\206{\200\214\245\357\177G\270"
ARM GAS  /tmp/ccqCnKQK.s 			page 41


 523      12DF3043 
 523      DF867B80 
 523      8CA5EF7F 
 523      47B8
 524 06ba 43075C6F 		.ascii	"C\007\\o\234\325\035\325\315n+Jt\266S\023\3570\373d"
 524      9CD51DD5 
 524      CD6E2B4A 
 524      74B65313 
 524      EF30FB64 
 525 06ce 27FB485F 		.ascii	"'\373H_uU\022\343'\011\355\346\016\357j\315\011\315"
 525      755512E3 
 525      2709EDE6 
 525      0EEF6ACD 
 525      09CD
 526 06e0 D57C5D6B 		.ascii	"\325|]k.\247\373\356\363\366\357\231,N\243{\177\022"
 526      2EA7FBEE 
 526      F3F6EF99 
 526      2C4EA37B 
 526      7F12
 527 06f2 D9A1BD61 		.ascii	"\331\241\275a\322\206\203]\255g\323I\221\335R\247\035"
 527      D286835D 
 527      AD67D349 
 527      91DD52A7 
 527      1D
 528 0703 DABFE93B 		.ascii	"\332\277\351;\264\344\235\203]-n\207V\026\337\022%\015"
 528      B4E49D83 
 528      5D2D6E87 
 528      5616DF12 
 528      250D
 529 0715 B7AB1AE5 		.ascii	"\267\253\032\345\0321AP\026\367\342\374\250I\3721\253"
 529      1A314150 
 529      16F7E2FC 
 529      A849FA31 
 529      AB
 530 0726 FDFA74B7 		.ascii	"\375\372t\267\332\317b\265\037\277u`\241H\370[l\304"
 530      DACF62B5 
 530      1FBF7560 
 530      A148F85B 
 530      6CC4
 531 0738 0D6567AD 		.ascii	"\015eg\255\272\352\237o\236\245\251\376\000\252~i\272"
 531      BAEA9F6F 
 531      9EA5A9FE 
 531      00AA7E69 
 531      BA
 532 0749 B5EA87DA 		.ascii	"\265\352\207\332\001I\302z,\322\334I\365\315Gu\3257"
 532      0149C27A 
 532      2CD2DC49 
 532      F5CD4775 
 532      D537
 533 075b 3B52FD31 		.ascii	";R\3751K\3257\273W\275\206w<\2619.\213\333\\\203e%k"
 533      4BD537BB 
 533      57BD8677 
 533      3CB1392E 
 533      8BDB5C83 
 534 0772 C766A61D 		.ascii	"\307f\246\035[\260\035\017A;\312\342a\2765w\232[\223"
 534      5BB01D0F 
 534      413BCAE2 
ARM GAS  /tmp/ccqCnKQK.s 			page 42


 534      61BE3577 
 534      9A5B93
 535 0785 539D96B4 		.ascii	"S\235\226\264\335%Q\343\263\233\027j*\241\216\257\331"
 535      DD2551E3 
 535      B39B176A 
 535      2AA18EAF 
 535      D9
 536 0796 897524D9 		.ascii	"\211u$\331\333X\334\214*\241>\347\250k\260,\016l\333"
 536      DB58DC8C 
 536      2AA13EE7 
 536      A86BB02C 
 536      0E6CDB
 537 07a9 4C672753 		.ascii	"Lg'S\252q\254\324\013\225\362!\326{\312l/\013:Z\236"
 537      AA71ACD4 
 537      0B95F221 
 537      D67BCA6C 
 537      2F0B3A5A 
 538 07be D1ECE594 		.ascii	"\321\354\345\224\003{\201\321\376\234\037\017\227\250"
 538      037B81D1 
 538      FE9C1F0F 
 538      97A8
 539 07cc E1CECBD0 		.ascii	"\341\316\313\320"
 540 07d0 5193A83A 		.ascii	"Q\223\250:\211\265\334\322\317\252\350\372j\211\031"
 540      89B5DCD2 
 540      CFAAE8FA 
 540      6A8919
 541 07df 2EE5F28F 		.ascii	".\345\362\217\207\273\355\340\260\212W\214~d\267\231"
 541      87BBEDE0 
 541      B08A578C 
 541      7E64B799 
 542 07ef CC773E46 		.ascii	"\314w>F\231Vf\230G\005\252\031\306\020O1\206x\032\015"
 542      99566698 
 542      4705AA19 
 542      C6104F31 
 542      86781A0D 
 543 0803 F10334C4 		.ascii	"\361\0034\304\0171\376\2105G\273)\327Yv\301\264\316"
 543      0F31FE88 
 543      3547BB29 
 543      D75976C1 
 543      B4CE
 544 0815 B5DC59A6 		.ascii	"\265\334Y\246\326\261\253\346$[\315\233\031\016l\317"
 544      D6B1ABE6 
 544      245BCD9B 
 544      190E6CCF 
 545 0825 7E2B0CFC 		.ascii	"~+\014\374\372\261\331\372\234\200\036=\355p\215\310"
 545      FAB1D9FA 
 545      9C801E3D 
 545      ED708DC8 
 546 0835 5BF3E599 		.ascii	"[\363\345\231\334\234\340oN\340\206Z\020\264\372\261"
 546      DC9CE06F 
 546      4EE0865A 
 546      10B4FAB1 
 547 0845 4787B2B8 		.ascii	"G\207\262\270Y$\315\264E$\015\264\025\343\2671\336\207"
 547      5924CDB4 
 547      45240DB4 
 547      15E3B731 
 547      DE87
ARM GAS  /tmp/ccqCnKQK.s 			page 43


 548 0857 F173D870 		.ascii	"\361s\330p30~\021\3439\0307`\274\014\343\225\030o\307"
 548      33307E11 
 548      E3391837 
 548      60BC0CE3 
 548      95186FC7 
 549 086b 783FC647 		.ascii	"x?\306G1>\216\361{\030\177\212\361gN\014\200zH\346\214"
 549      313E8EF1 
 549      7B187F8A 
 549      F1674E0C 
 549      807A48E6 
 550 0880 E35886DB 		.ascii	"\343X\206\333\223ZN\227\255\323\3176y\3608Jw5\0379\001"
 550      935A4E97 
 550      ADD3CF36 
 550      79F0384A 
 550      77351F39 
 551 0895 4CD29BE6 		.ascii	"L\322\233\346\020W\356\346\\\322\230^]\302\372?\357"
 551      1057EEE6 
 551      5CD2985E 
 551      5DC2FA3F 
 551      EF
 552 08a6 D491BA34 		.ascii	"\324\221\2724\275\372\332\265\030&\275|l\350\205\362"
 552      BDFADAB5 
 552      1826BD7C 
 552      6CE885F2 
 553 08b6 9AEC7700 		.ascii	"\232\354w\000h\265%dmek\030+{\035\255l-\332\324z\214"
 553      68B52564 
 553      6D656B18 
 553      2B7B1DAD 
 553      6C2DDAD4 
 554 08cc BF448BB8 		.ascii	"\277D\213\270\210\361U'v\261\222\335S\233\341\327\277"
 554      88F15527 
 554      76B192DD 
 554      539BE1D7 
 554      BF
 555 08dd 65B82313 		.ascii	"e\270#\023\241\345\014\325?#\325\025\"C)\225\353\214"
 555      A1E50CD5 
 555      3F23D515 
 555      22432995 
 555      EB8C
 556 08ef 0FD3AB7C 		.ascii	"\017\323\253|\217\231\315\234Xu\350\236mx\206\3705\372"
 556      8F99CD9C 
 556      5875E89E 
 556      6D7886F8 
 556      35FA
 557 0901 CF7DFE94 		.ascii	"\317}\376\224'\375& Y\274)\221\211\302-\323\350\024"
 557      27FD2620 
 557      59BC2991 
 557      89C22DD3 
 557      E814
 558 0913 BFF14C26 		.ascii	"\277\361L&\371f\343\226\243\231\314\267{\227\331\216"
 558      F966E396 
 558      A399CCB7 
 558      7B97D98E 
 559 0923 8C904164 		.ascii	"\214\220Ad\307\000\211\235\324I\302q\240l5Tp\331dQ\365"
 559      C700899D 
 559      D449C271 
 559      A06C3554 
ARM GAS  /tmp/ccqCnKQK.s 			page 44


 559      70D96451 
 560 0938 1096933D 		.ascii	"\020\226\223=&\226G(K\362\334\301|k/\216x\034\311\357"
 560      26964728 
 560      4BF2DCC1 
 560      7C6B2F8E 
 560      781CC9EF 
 561 094c 0B2F6B6B 		.ascii	"\013/kkTUT\234w\270E\257\177\364/\257\243\342k<\304"
 561      5455549C 
 561      77B845AF 
 561      7FF42FAF 
 561      A3E26B3C 
 562 0961 AEE77533 		.ascii	"\256\347u3\3677\237\251\273\371\370\356\346\363'\022"
 562      F7379FA9 
 562      BBF9F8EE 
 562      E6F32712 
 563 0971 5A77B3B3 		.ascii	"Zw\263\263\312\351\236\357c\312\203\337A\011\350\257"
 563      CAE99EEF 
 563      63CA83DF 
 563      4109E8AF 
 564 0981 B5B4DBFD 		.ascii	"\265\264\333\375LY\234\207Cf\212M\020;&3<\354Y\261\301"
 564      4C599C87 
 564      43668A4D 
 564      103B2633 
 564      3CEC59B1 
 565 0996 87A80013 		.ascii	"\207\250\000\023\217{\214\227v\020\323<L\027kD\255\221"
 565      8F7B8C97 
 565      7610D33C 
 565      4C176B44 
 565      AD91
 566 09a8 C6EBD284 		.ascii	"\306\353\322\204\227\230\377\217pL\264oR\312\316\216"
 566      9798FF8F 
 566      704CB46F 
 566      52CACE8E 
 567 09b8 CD2C87AA 		.ascii	"\315,\207\252\245\373Hv(s\276\273ZjY\265\274\352Z-Y"
 567      A5FB4876 
 567      2873BEBB 
 567      5A6A59B5 
 567      BCEA5A2D 
 568 09cd AC5AD4F5 		.ascii	"\254Z\324\365\252\352OK\246\2225I\204\231g\257\022c"
 568      AAEA4F4B 
 568      A6923549 
 568      849967AF 
 568      1263
 569 09df 37CD9148 		.ascii	"7\315\221H\365\254H\177q\"\222\375x\370\335Dj\260\020"
 569      F5AC487F 
 569      712292FD 
 569      78F8DD44 
 569      6AB010
 570 09f2 C991088B 		.ascii	"\311\221\010\213=\246y\302\353\256\305\270\203-\263"
 570      3DA679C2 
 570      EBAEC5B8 
 570      832DB3
 571 0a01 CC41CB68 		.ascii	"\314A\313h\367.>Cz\376\215\237\343\316\333\012\364c"
 571      F72E3E43 
 571      7AFE8D9F 
 571      E3CEDB0A 
 571      F463
ARM GAS  /tmp/ccqCnKQK.s 			page 45


 572 0a13 1B3AF9B1 		.ascii	"\033:\371\261.\314\033\234Z\310\237X\013\331\346D\265"
 572      2ECC1B9C 
 572      5AC89F58 
 572      0BD9E644 
 572      B5
 573 0a24 F68745CE 		.ascii	"\366\207E\316|A2\365\276\226L\275+\\\364\3455\254X;"
 573      7C4132F5 
 573      BE964CBD 
 573      2B5CF4E5 
 573      35AC583B 
 574 0a38 5C8BE5D2 		.ascii	"\\\213\345\322b\222\271\267\215\311D\322\234\271\331"
 574      6292B9B7 
 574      8DC944D2 
 574      9CB9D9
 575 0a47 5D7549E4 		.ascii	"]uI\344\015\254\310{\235\210l\177\004\365\335D\336\232"
 575      0DACC87B 
 575      9D886C7F 
 575      04F5DD44 
 575      DE9A
 576 0a59 4CE43977 		.ascii	"L\3449wP\344\267X\221\233]\213\234%\360?\275K\311\342"
 576      50E4B758 
 576      919B5D8B 
 576      9C25F03F 
 576      BD4BC9E2 
 577 0a6d 540F99AF 		.ascii	"T\017\231\257\276\204\361\\\214\027a\274\024\343\325"
 577      BE84F15C 
 577      8C1761BC 
 577      14E3D5
 578 0a7c 18AFC778 		.ascii	"\030\257\307x\213\307\301\234\3666\273\012=\212<ouq"
 578      8BC7C19C 
 578      F636BB0A 
 578      3D8A3C6F 
 578      7571
 579 0a8e 87498DDF 		.ascii	"\207I\215\337\246'\262\364\203\341\367\\\203eq\355\374"
 579      A627B2F4 
 579      83E1F75C 
 579      836571ED 
 579      FC
 580 0a9f 9AAA7AD2 		.ascii	"\232\252z\322\322\205\032\234\264L\237\222\342\260'"
 580      D2851A9C 
 580      B44C9F92 
 580      E2B027
 581 0aae 7E334D92 		.ascii	"~3M\222\305=\236t\250\371\214\311K9\000!\252\330\007"
 581      C53D9E74 
 581      A8F98CC9 
 581      4B390021 
 581      AAD807
 582 0ac1 85B9D9E3 		.ascii	"\205\271\331\343\225\232\236d\366H\236'\231=\242yH\302"
 582      959A9E64 
 582      F6489E27 
 582      993DA279 
 582      48C2
 583 0ad3 A7DDE8EE 		.ascii	"\247\335\350\356\205\327\237x\326\226x&2Yo&\036\353"
 583      85D79F78 
 583      D6967826 
 583      32596F26 
 583      1EEB
ARM GAS  /tmp/ccqCnKQK.s 			page 46


 584 0ae5 5F665B4D 		.ascii	"_f[M\263\270\346O\220\203%\256\207L\322\016x<\226\305"
 584      B3B8E64F 
 584      908325AE 
 584      874CD20E 
 584      783C96C5 
 585 0af9 24616A77 		.ascii	"$ajw\223\346\255\216\250\354\277\236\214w\354%\033I"
 585      93E6AD8E 
 585      A8ECBF9E 
 585      8C77EC25 
 585      1B49
 586 0b0b 569F2E1A 		.ascii	"V\237.\032\263\356\237\030\212o\335\260\345\302=\253"
 586      B3EE9F18 
 586      8A6FDDB0 
 586      E5C23DAB 
 587 0b1b 71AE7BC4 		.ascii	"q\256{\304C\332=\336=\365\347\304\0268\361Y{\356!\332"
 587      43DA3DDE 
 587      3DF5E7C4 
 587      1638F159 
 587      7BEE21DA 
 588 0b2f 3E8E20CD 		.ascii	">\216 \315nA$\341$\0269i^\002l\253\301%\300I\007K\000"
 588      6E4124E1 
 588      24163969 
 588      5E026CAB 
 588      C125C049 
 589 0b46 35FECE1E 		.ascii	"5\376\316\036\272[\254o\242\23550\265J\207\262\352K"
 589      BA5BAC6F 
 589      A29D3530 
 589      B54A87B2 
 589      EA4B
 590 0b58 39038DB7 		.ascii	"9\003\215\267\320-W\272\010\370\302\014\346r\321\177"
 590      D02D57BA 
 590      08F8C20C 
 590      E672D17F 
 591 0b68 C4D80F26 		.ascii	"\304\330\017&\216J\022\256\271\306\343:X\374(%G\301"
 591      8E4A12AE 
 591      B9C6E33A 
 591      58FC2825 
 591      47C1
 592 0b7a 3A9C8025 		.ascii	":\234\200%\371\030\343=\026lz\246[0\236\331)\026\354"
 592      F918E33D 
 592      166C7AA6 
 592      5B309ED9 
 592      2916EC
 593 0b8d 45276049 		.ascii	"E'`I>Y\370`\317\302\316\213O\323\220a\363\225,1\230"
 593      3E59F860 
 593      CFC2CE8B 
 593      4FD39061 
 593      F3952C31 
 594 0ba2 CFF811C3 		.ascii	"\317\370\021\3034\357?nC\213\224\374\"1\004\244\034"
 594      34EF3F6E 
 594      438B94FC 
 594      223104A4 
 594      1C
 595 0bb3 32B43E30 		.ascii	"2\264>0\227\376%\304\005\024\374\345L\276\017\230\252"
 595      97FE25C4 
 595      0514FCE5 
 595      4CBE0F98 
ARM GAS  /tmp/ccqCnKQK.s 			page 47


 595      AA
 596 0bc4 26C4ECAA 		.ascii	"&\304\354\252\276\310\317L\231_\247w\222\320\340Z\301"
 596      BEC8CF4C 
 596      995FA777 
 596      92D0E05A 
 596      C1
 597 0bd5 7C6B7D58 		.ascii	"|k}X\303\355\024\256p\002\227e\321^V?\266C\313\342\373"
 597      C3ED14AE 
 597      70029765 
 597      D15E563F 
 597      B643CBE2 
 598 0bea E8F84EE3 		.ascii	"\350\370N\343\350v\006\343V\214\317b\374\011\306\347"
 598      E87606E3 
 598      568CCF62 
 598      FC09C6E7 
 599 0bfa 31FE14E3 		.ascii	"1\376\024\343\313\354\010\370\367A\205I\177\246\311"
 599      CBEC08F8 
 599      F7418549 
 599      7FA6C9
 600 0c09 DBF28E29 		.ascii	"\333\362\216)U?Tajz\243\337l5q>\350\300\343\036\372"
 600      553F5461 
 600      6A7AA3DF 
 600      6C35713E 
 600      E8C0E31E 
 601 0c1e 11F5B8ED 		.ascii	"\021\365\270\355\350,\3370\031\0125\313\277\227\274"
 601      E82CDF30 
 601      190A35CB 
 601      BF97BC
 602 0c2d BB1DC96B 		.ascii	"\273\035\311k{\350b\310[\237\323[\250Ey\353\371\005"
 602      7BE862C8 
 602      5B9FD35B 
 602      A84579EB 
 602      F905
 603 0c3f B46A188C 		.ascii	"\264j\030\214\252\333\363MOoLq\237\014`\026\273\036"
 603      AADBF34D 
 603      4F6F4C71 
 603      9F0C6016 
 603      BB1E
 604 0c51 70CB93F8 		.ascii	"p\313\223\370V*\323\237Htx\014A\3365\013b\252XK\333"
 604      562AD39F 
 604      4874780C 
 604      41DE350B 
 604      62AA584B 
 605 0c66 7E65483A 		.ascii	"~eH:#LQ(;I8\350\014\256\305k\207g5\265\2650\211V\343"
 605      234C5128 
 605      3B4938E8 
 605      0CAEC56B 
 605      876735B5 
 606 0c7f 94E49E84 		.ascii	"\224\344\236\204I\034=\177\3439\355\260h\262\227\330"
 606      491C3D7F 
 606      E339EDB0 
 606      68B297D8 
 607 0c8f C4CCBB52 		.ascii	"\304\314\273R\016\240<\020\356\276xM\203\347\242\263"
 607      0EA03C10 
 607      EEBE784D 
 607      83E7A2B3 
 608 0c9f 4DF42F85 		.ascii	"M\364/\205\310\233\024\303\347\264\251\361ug\233$\334"
ARM GAS  /tmp/ccqCnKQK.s 			page 48


 608      C89B14C3 
 608      E7B4A9F1 
 608      75679B24 
 608      DC
 609 0cb0 CFC5769A 		.ascii	"\317\305v\232\232t\201)\213;q\233\323\311>\363B\024"
 609      9A748129 
 609      8B3B719B 
 609      D3C93EF3 
 609      4214
 610 0cc2 8670E8C2 		.ascii	"\206p\350\302\274\024x\255'b\220\263\254gp\312\325\340"
 610      BC1478AD 
 610      276290B3 
 610      AC6770CA 
 610      D5E0
 611 0cd4 1A2E8B83 		.ascii	"\032.\213\203\333\310\303-u\002g7\256\003\334\033<\334"
 611      DBC8C32D 
 611      75026737 
 611      AE03DC1B 
 611      3CDC
 612 0ce6 ABAEE178 		.ascii	"\253\256\341xvo\362p\253\234\300\331\015\354\000\267"
 612      766FF270 
 612      AB9CC0D9 
 612      0DEC00B7 
 613 0cf6 85877BCD 		.ascii	"\205\207{\3155\034\317n+\017\267\336\011\234\325\340"
 613      351CCF6E 
 613      2B0FB7DE 
 613      099CD5E0 
 614 0d06 6EF5630D 		.ascii	"n\365c\015X\026\247{\211y\325x\361\020\011\343\031\030"
 614      5816A77B 
 614      8979D578 
 614      F11009E3 
 614      1918
 615 0d18 BF88F14B 		.ascii	"\277\210\361K\030\317\302x\266\327\301BI\3652\013\245"
 615      18CFC278 
 615      B6D7C142 
 615      49F5320B 
 615      A5
 616 0d29 4D773958 		.ascii	"Mw9X\333\264$=\026\344x\337bN-\277\301-\330o\361Xb'"
 616      DBB4243D 
 616      16E478DF 
 616      624E2DBF 
 616      C12DD86F 
 617 0d41 3AE0DD18 		.ascii	":\340\335\030\037\306\370*\30670\376\026\343\016'\313"
 617      1FC6F82A 
 617      C63730FE 
 617      16E30E27 
 617      CB
 618 0d52 BCEB8965 		.ascii	"\274\353\211e\236\203M\370'\365\342\344\257\2145\017"
 618      9E834DF8 
 618      27F5E2E4 
 618      AF8C350F 
 619 0d62 73EBF37D 		.ascii	"s\353\363}\277&GH\026\216\204\313\016\256\034\024\237"
 619      BF264748 
 619      168E84CB 
 619      0EAE1C14 
 619      9F
 620 0d73 2A17C937 		.ascii	"*\027\3117\337\354m>l\306\251\372\374\324\276\006f\035"
ARM GAS  /tmp/ccqCnKQK.s 			page 49


 620      DFEC6D3E 
 620      6CC6A9FA 
 620      FCD4BE06 
 620      661D
 621 0d85 D79B176B 		.ascii	"\327\233\027k\263\016\372\367q\317\364\0205\314.\370"
 621      B30EFAF7 
 621      71CFF410 
 621      35CC2EF8 
 622 0d95 08C0AB7D 		.ascii	"\010\300\253})\263\345ImcL\255Q\357]\221`\336K/.\011"
 622      29B3E549 
 622      6D634CAD 
 622      51EF5D91 
 622      60DE4B2F 
 623 0dab CCB7A89B 		.ascii	"\314\267\250\233\376\031=c\003\332\361\213=xw\353\034"
 623      FE193D63 
 623      03DAF18B 
 623      3D7877EB 
 623      1C
 624 0dbc E8D8FC3F 		.ascii	"\350\330\374?\323\277\316[\212@\257\230\200d\321c\332"
 624      D3BFCE5B 
 624      8A40AF98 
 624      8064D163 
 624      DA
 625 0dcd 60F3F00E 		.ascii	"`\363\360\016\323\343O$::<\202\273\314\222\260\304\254"
 625      D3E34F24 
 625      3A3A3C82 
 625      BBCC92B0 
 625      C4AC
 626 0ddf 378E640A 		.ascii	"7\216d\012g\250N\001\273\370\350_\267\255U\325\351i"
 626      67A84E01 
 626      BBF8E85F 
 626      B7AD55D5 
 626      E969
 627 0df1 BA2E96BB 		.ascii	"\272.\226\273Fd\277\220\234\022_KZB\007[\351\004\314"
 627      4664BF90 
 627      9C125F4B 
 627      5A42075B 
 627      E904CC
 628 0e04 CAB9324A 		.ascii	"\312\2712J\240\375j\001\372\203\205\330\343\027c\374"
 628      A0FD6A01 
 628      FA8385D8 
 628      E31763FC 
 629 0e14 2AC62BBC 		.ascii	"*\306+\274\334\364fM\247\006\240\366\310\340%\014WH"
 629      DCF4664D 
 629      A706A0F6 
 629      C8E0250C 
 629      5748
 630 0e26 8D68D723 		.ascii	"\215h\327#_I\370\223~\302b5~\251\265\375\312\311!\213"
 630      5F49F893 
 630      7EC26235 
 630      7EA9B5FD 
 630      CAC9218B 
 631 0e3a C85FC2A9 		.ascii	"\310_\302\251\267;\236\026\351\004_\022\246\365\344"
 631      B73B9E16 
 631      E9045F12 
 631      A6F5E4
 632 0e49 F9FC44F8 		.ascii	"\371\374D\370\223\252\326\251\263\203\217\320\025\206"
ARM GAS  /tmp/ccqCnKQK.s 			page 50


 632      93AAD6A9 
 632      B3838FD0 
 632      1586
 633 0e57 24BC8039 		.ascii	"$\274\2009\376\342\355g3\316j\353\220\237\011\313I\227"
 633      FEE2ED67 
 633      33CE6AEB 
 633      909F09CB 
 633      4997
 634 0e69 7C4B1DD9 		.ascii	"|K\035\331\027\027<\202V\210\023m\265\227\373[q\312"
 634      17173C82 
 634      5688136D 
 634      B597FB5B 
 634      71CA
 635 0e7b 2C7EBC39 		.ascii	",~\2749\263vrkGG?\235\324K)H\311\342k^r \267\266+\244"
 635      B376726B 
 635      47473F9D 
 635      D44B2948 
 635      C9E26B5E 
 636 0e95 D69A49AD 		.ascii	"\326\232I\255\263$\265p\277F\312\371Z\356\257^\323\356"
 636      B324B570 
 636      BF46CAF9 
 636      5AEEAF5E 
 636      D3EE
 637 0ea7 1F718BC6 		.ascii	"\037q\213\306M\203\267\363\366\236$\314\265\026u\001"
 637      4D83B7F3 
 637      F69E24CC 
 637      B5167501 
 638 0eb7 11951487 		.ascii	"\021\225\024\207\036\20496\332\212\212\276W+vB\276\327"
 638      1E843936 
 638      DA8A8ABE 
 638      572B7642 
 638      BED7
 639 0ec9 E826E662 		.ascii	"\350&\346b\234e\033t\2544\264\321\254\2417-5\324\346"
 639      9C651B74 
 639      AC34B4D1 
 639      ACA1372D 
 639      35D4E6
 640 0edc 5E43EF58 		.ascii	"^C\357Xi\310\244\221\025\326\032\331\244kD\026\267`"
 640      69C8A491 
 640      15D61AD9 
 640      A46B4416 
 640      B760
 641 0eee E3BF9D5C 		.ascii	"\343\277\235\\#\326\242\275m\026m\273\245h\327\366\274"
 641      23D6A2BD 
 641      6D166DBB 
 641      A568D7F6 
 641      BC
 642 0eff 90E156B6 		.ascii	"\220\341V\266\335f\331\310\220n\334h\375\321$\353\233"
 642      DD66D9C8 
 642      906EDC68 
 642      FDD124EB 
 642      9B
 643 0f10 96B2AEAD 		.ascii	"\226\262\256\255\231^+\322\362\222\260\037\263\354\262"
 643      995E2BD2 
 643      F292B01F 
 643      B3ECB2
 644 0f1f 1516270E 		.ascii	"\025\026'\016\232\216:\210\216^\301b\207S\024\323\370"
ARM GAS  /tmp/ccqCnKQK.s 			page 51


 644      9A8E3A88 
 644      8E5EC162 
 644      875314D3 
 644      F8
 645 0f30 A08E6A79 		.ascii	"\240\216jy\035\3552\353\250\311BG\255\361\353\213\017"
 645      1DED32EB 
 645      A8C94247 
 645      ADF1EB8B 
 645      0F
 646 0f41 4C86B996 		.ascii	"L\206\271\226\372\015\361\364\316\325tPSSB\023\222p"
 646      FA0DF1F4 
 646      CED57450 
 646      53534213 
 646      9270
 647 0f53 D2A40683 		.ascii	"\322\244\006\203\227\272B\365\030\274\232\315\274Z:"
 647      97BA42F5 
 647      18BC9ACD 
 647      BC5A3A
 648 0f62 F36A6C8D 		.ascii	"\363jl\215\267\037n\352\002\255#\026\264\276\260\246"
 648      B71F6EEA 
 648      02AD2316 
 648      B4BEB0A6 
 649 0f72 A5F2B40E 		.ascii	"\245\362\264\016\233i\035\265\244\265\360\204\341\344"
 649      9B691DB5 
 649      A4B5F084 
 649      E1E4
 650 0f80 485D92D0 		.ascii	"H]\222\320\356\010\375\270\031\375\204%\372\225\271"
 650      EE08FDB8 
 650      19FD8425 
 650      FA95B9
 651 0f8f 070CA1F5 		.ascii	"\007\014\241\365\012:\034Up\322\\\301)\313\012\352\337"
 651      0A3A1C55 
 651      70D25CC1 
 651      29CB0AEA 
 651      DF
 652 0fa0 77DDD93F 		.ascii	"w\335\331?H\352\016\255;\304\214^\366\236\237\355\374"
 652      48EA0EAD 
 652      3BC48C5E 
 652      F69E9FED 
 652      FC
 653 0fb1 A71DB9C3 		.ascii	"\247\035\271\303v\275?\310\342\273)\212\261\375AU_T"
 653      76BD3FC8 
 653      E2BB298A 
 653      B1FD4155 
 653      5F54
 654 0fc3 A7F7120D 		.ascii	"\247\367\022\015\025\2356\253\250\325RE\327\316P\025"
 654      159D36AB 
 654      A8D55245 
 654      D7CE5015 
 655 0fd3 350CA58E 		.ascii	"5\014\245\216N\022\352\255\245\231e\226\346\023\207"
 655      4E12EAAD 
 655      A5996596 
 655      E61387
 656 0fe2 AE8CA7F5 		.ascii	"\256\214\247\365\211\231\326\271\316\264Zk[\247\277"
 656      8999D6B9 
 656      CEB45A6B 
 656      5BA7BF
ARM GAS  /tmp/ccqCnKQK.s 			page 52


 657 0ff1 BA5D9CA7 		.ascii	"\272]\234\247\356\230\246vt<\355\242C\\\360"
 657      EE98A676 
 657      743CEDA2 
 657      435CF0
 658 1000 26DB985C 		.ascii	"&\333\230\\b\363a\022)\371yb\352a\264\366%\213\243{"
 658      62F36112 
 658      29F97962 
 658      EA61B4F6 
 658      258BA37B 
 659 1014 4958D6CB 		.ascii	"IX\326\313l\2414\323\227\226\202l\330\262\375\201y\353"
 659      6CA134D3 
 659      9796826C 
 659      D8B2FD81 
 659      79EB
 660 1026 D5697402 		.ascii	"\325it\002\343\342l\365bRQ\332\223\354\261^\366Z\357"
 660      E3E26CF5 
 660      625251DA 
 660      93ECB15E 
 660      F65AEF
 661 1039 B14AC266 		.ascii	"\261J\302f\033\352m\226\324O\254\272<\274\336\216z\222"
 661      1BEA6D96 
 661      D44FACBA 
 661      3CBCDE8E 
 661      7A92
 662 104b 46B89AB4 		.ascii	"F\270\232\264\013Y}\017!\011;l\230]\267dv\364\325\233"
 662      0B597D0F 
 662      21093B6C 
 662      985DB764 
 662      76F4D59B 
 663 105f 3FEC8275 		.ascii	"?\354\202u\3340\023\333\201\037\365pD\352z[\023\271"
 663      DC3013DB 
 663      811FF570 
 663      44EA7A5B 
 663      13B9
 664 1071 654964F1 		.ascii	"eId\361\307\227\376`\020\321]\3302\033\210o-!\216\257"
 664      C797FE60 
 664      10D15DD8 
 664      321B886F 
 664      2D218EAF 
 665 1085 3A39BC0B 		.ascii	":9\274\013\262t$U\362\005\323\251\255vo\222u\223\015"
 665      B2742455 
 665      F205D3A9 
 665      AD766F92 
 665      75930D
 666 1098 D1A93E6B 		.ascii	"\321\251>k\245\267uE\351\323}\026J\347n:\023\333eC\354"
 666      A5B77545 
 666      E9D37D16 
 666      4AE76E3A 
 666      13DB6543 
 667 10ad 599ED83F 		.ascii	"Y\236\330?\011K\324\326\026X#|tN\204\245u\0239\246\353"
 667      094BD4D6 
 667      1658237C 
 667      744E84A5 
 667      751339A6 
 668 10c2 10FBE95F 		.ascii	"\020\373\351_\366\0353P4n\246\357\370\010\342\363\011"
 668      F61D3350 
 668      346EA6EF 
ARM GAS  /tmp/ccqCnKQK.s 			page 53


 668      F808E2F3 
 668      09
 669 10d3 448A16AF 		.ascii	"D\212\026\257\375M\355d\225\310\250\303\234t\000\363"
 669      FD4DED64 
 669      95C8A8C3 
 669      9C7400F3 
 670 10e3 020FD3D2 		.ascii	"\002\017\323\322\022_\267g\221\2506\302j\3676P\222\305"
 670      125FB767 
 670      91A836C2 
 670      6AF73650 
 670      92C5
 671 10f5 B9B801F9 		.ascii	"\271\270\001\371\201\031\252\323\372\177\246\0064@\330"
 671      8119AAD3 
 671      FA7FA606 
 671      3440D8
 672 1104 A03E1B1F 		.ascii	"\240>\033\037J\013\322\365\224\266\001\250N#\207\236"
 672      4A0BD2F5 
 672      94B601A8 
 672      4E23879E 
 673 1114 8BB507B8 		.ascii	"\213\265\007\270x\245k,\355\026\032D\240\313-\343}'"
 673      78A56B2C 
 673      ED161A44 
 673      A0CB2DE3 
 673      7D27
 674 1126 EF41DCA4 		.ascii	"\357A\334\244]{\325\372\314k\260\315\257\2675\211\333"
 674      5D7BD5FA 
 674      CC6BB0CD 
 674      AFB73589 
 674      DB
 675 1137 97D7A864 		.ascii	"\227\327\250d\240x\272!\336\213\002HBc\037\313\221\342"
 675      A078BA21 
 675      DE8B0248 
 675      42631FCB 
 675      91E2
 676 1149 1619293E 		.ascii	"\026\031)>\307\011\335f\3141\313g7R|\236\230\007\306"
 676      C709DD66 
 676      CC31CB67 
 676      37527C9E 
 676      9807C6
 677 115c 1BDA5AD2 		.ascii	"\033\332Z\322\347\251q\257\376\335\353\266\024e5\357"
 677      E7A971AF 
 677      FEDDEBB6 
 677      146535EF 
 678 116c 4C4799F8 		.ascii	"LG\231\370\242\266VI\235\023O\0144\244 g<u\274\361d"
 678      A2B65649 
 678      9D134F0C 
 678      34A42067 
 678      3C75BCF1 
 679 1181 08CFD003 		.ascii	"\010\317\320\003pu\2628\316X\222\332\374)3\270-_\006"
 679      7075B238 
 679      CE5892DA 
 679      FC2933B8 
 679      2D5F06
 680 1194 70DAD987 		.ascii	"p\332\331\207?\203f\340I\006\362#\345iZOA\021mW\277"
 680      3F8366E0 
 680      4906F223 
 680      E5695A4F 
ARM GAS  /tmp/ccqCnKQK.s 			page 54


 680      41116D57 
 681 11a9 7128D9D6 		.ascii	"q(\331\326\237\225\360\372\334\362\206\240,\360\271"
 681      9F95F0FA 
 681      DCF286A0 
 681      2CF0B9
 682 11b8 DDD45FE8 		.ascii	"\335\324_\350\263\336\324\327\211\262\007\012L\315\203"
 682      B3DED4D7 
 682      89B2070A 
 682      4CCD83
 683 11c7 F57CE91A 		.ascii	"\365|\351\032\316\"\3275/\266\2519M\253\331dt\177Mb"
 683      CE22D735 
 683      2FB6A939 
 683      4DABD964 
 683      747F4D62 
 684 11db 740D3EEB 		.ascii	"t\015>\353\2558:\230\330\225j\264-u1I\251%\235\014|"
 684      AD383A98 
 684      D8956AB4 
 684      2D753149 
 684      A9259D0C 
 685 11f0 FD96EDE5 		.ascii	"\375\226\355\345d\213\236\364\372%\275L\256\215\264"
 685      648B9EF4 
 685      FA25BD4C 
 685      AE8DB4
 686 11ff A01DD49F 		.ascii	"\240\035\324\237\314\276\355\262\267\323\312p\237u'"
 686      CCBEEDB2 
 686      B7D3CA70 
 686      9F7527
 687 120e 39423AC9 		.ascii	"9B:\311e\354$\3071\307R[C\277\314\314\362\246\250'O"
 687      65EC24C7 
 687      31C7525B 
 687      43BFCCCC 
 687      F2A6A827 
 688 1223 93550FB5 		.ascii	"\223U\017\2650\256T\206\271\345\341\365r\336\346\215"
 688      30AE5486 
 688      B9E5E1F5 
 688      72DEE68D 
 689 1233 6FDCE277 		.ascii	"o\334\342w\340\010\302\330\316\213\333n\347A\023\341"
 689      E008C2D8 
 689      CE8BDB6E 
 689      E74113E1 
 690 1243 0653AA1D 		.ascii	"\006S\252\0357\252\023\262\331\363\217\315\344\274\207"
 690      37AA13B2 
 690      D9F38FCD 
 690      E4BC87
 691 1252 9F68DAAF 		.ascii	"\237h\332\257\007q\242i\365\301\266\241\213g\023_\303"
 691      0771A269 
 691      F5C1B6A1 
 691      8B67135F 
 691      C3
 692 1263 B41E3B7F 		.ascii	"\264\036;\177\241\234~\360\277\332G\274\361)S\313\244"
 692      A19C7EF0 
 692      BFDA47BC 
 692      F12953CB 
 692      A4
 693 1274 062275BE 		.ascii	"\006\"u\276\3563\355\320\316;\201;\264\344y\352\323"
 693      EE33EDD0 
 693      CE3B813B 
ARM GAS  /tmp/ccqCnKQK.s 			page 55


 693      B4E479EA 
 693      D3
 694 1285 A04527E6 		.ascii	"\240E'\346h;\264t\257\377<r e\255$\264\332\027\344\361"
 694      683BB474 
 694      AFFF3C72 
 694      2065AD24 
 694      B4DA17E4 
 695 129a 169FC0AF 		.ascii	"\026\237\300\257\002(\330\005\327`Y\034\330Z\026\354"
 695      0228D805 
 695      D760591C 
 695      D85A16EC 
 696 12aa B213B024 		.ascii	"\262\023\260$'8\353Y\260k\256\301xf\033Y\260\233N\300"
 696      2738EB59 
 696      B06BAEC1 
 696      78661B59 
 696      B09B4EC0 
 697 12be 929CDEBC 		.ascii	"\222\234\336\274\301\202M\375\236[0\236\331\233,\330"
 697      C1824DFD 
 697      9E5B309E 
 697      D99B2CD8 
 698 12ce 0B4EC092 		.ascii	"\013N\300\222|\226\261\205\202\321\315\373\227]\203"
 698      7C96B185 
 698      82D1CDFB 
 698      975D83
 699 12dd F1CCB6B2 		.ascii	"\361\314\266\262\314\032\234\200e\331\353\354m\026l"
 699      CC1A9C80 
 699      65D9EBEC 
 699      6D166C
 700 12ec 856B3086 		.ascii	"\205k0\206\031\364\230\226\337\326\312\306\210H\334"
 700      19F49896 
 700      DFD6CAC6 
 700      8848DC
 701 12fb 351158CB 		.ascii	"5\021X\3139\224\267\006Y\334\243\215K\211\221\016\030"
 701      3994B706 
 701      59DCA38D 
 701      4B89910E 
 701      18
 702 130c AC3333E0 		.ascii	"\25433\340\212iI\273\277\231\004q\016\263\342\274\345"
 702      8A6949BB 
 702      BF990471 
 702      0EB3E2BC 
 702      E5
 703 131d 441CBBB3 		.ascii	"D\034\273\263{\000;\312\202\355t\015\306\267\332q\026"
 703      7B003BCA 
 703      82ED740D 
 703      C6B7DA71 
 703      16
 704 132e EC8013B0 		.ascii	"\354\200\023\260$\377\014\352=\326\236\216\270\006\343"
 704      24FF0CEA 
 704      3DD69E8E 
 704      B806E3
 705 133d 999D6299 		.ascii	"\231\235b\231}\340\004l\250\275\316N\263`\347\\\203"
 705      7DE0046C 
 705      A8BDCE4E 
 705      B360E75C 
 705      83
 706 134e F1F674E6 		.ascii	"\361\366t\346\267\004\213\030\212$|\351\3042\354\376"
ARM GAS  /tmp/ccqCnKQK.s 			page 56


 706      B7048B18 
 706      8A247CE9 
 706      C432ECFE 
 707 135e 171410BB 		.ascii	"\027\024\020\273\304\022\273\356\204\230\335\277o\002"
 707      C412BBEE 
 707      8498DDBF 
 707      6F02
 708 136c B036166C 		.ascii	"\2606\026l\362\335n\301x\375_e\301f8\001K\362\357\233"
 708      F2DD6EC1 
 708      78FD5F65 
 708      C1663801 
 708      4BF2EF9B 
 709 1380 AE719EC6 		.ascii	"\256q\236\3065\030\317\354k\316\3238\001{\322^g7Y\260"
 709      3518CFEC 
 709      6BCED338 
 709      017BD25E 
 709      673759B0 
 710 1394 95AEC178 		.ascii	"\225\256\301x\313\370\206\261\214\015f,+\313(\267'v"
 710      CBF886B1 
 710      8C0D662C 
 710      2BCB28B7 
 710      2776
 711 13a6 9B25B6CD 		.ascii	"\233%\266\315\011\261\210=X\355)\006l\207k0^\312\272"
 711      09B1883D 
 711      58ED2906 
 711      6C876B30 
 711      5ECABA
 712 13b9 FF4848B9 		.ascii	"\377HH\271\307\211\224\023\355\211\315a\211\2658!\246"
 712      C7899413 
 712      ED89CD61 
 712      89B53821 
 712      A6
 713 13ca 8AF668AF 		.ascii	"\212\366h\257\260h\307\335\243e\011\266?v&&\213k}d\236"
 713      B068C7DD 
 713      A36509B6 
 713      3F762626 
 713      8B6B7D64 
 714 13df B9CE478E 		.ascii	"\271\316G\216\0327`\374W\2147a\274\031\343\2670\336"
 714      1A3760FC 
 714      578C3761 
 714      BC19E3B7 
 714      30DE
 715 13f1 86F13B18 		.ascii	"\206\361;\030o\307x'\306\2731n\302x?\306\357b\334\214"
 715      6FC77827 
 715      C6BB316E 
 715      C2783FC6 
 715      EF62DC8C 
 716 1405 710BC687 		.ascii	"q\013\306\2071>\212\361q\214\337\303\370\024\306\247"
 716      313E8AF1 
 716      718CDFC3 
 716      F814C6A7 
 717 1415 313E8371 		.ascii	"1>\203q+\306g1\376\004\343\363\030\177\212\361g\030"
 717      2BC66731 
 717      FE04E3F3 
 717      187F8AF1 
 717      6718
 718 1427 7FE1638E 		.ascii	"\177\341c\216DM\013\230\3256Z\"r\177e\273\354\271\221"
ARM GAS  /tmp/ccqCnKQK.s 			page 57


 718      444D0B98 
 718      D5365A22 
 718      727F65BB 
 718      ECB991
 719 143a 64D973D1 		.ascii	"d\331s\321\266\324;IJ]\262-u$I\251\313\266\245:\222"
 719      B6D43B49 
 719      4A5DB22D 
 719      752449A9 
 719      CBB6A53A 
 720 144f 946AB32D 		.ascii	"\224j\263-E\366\220\354J]\261-\265;I]WmK\035LR\252\275"
 720      45F690EC 
 720      4A5DB12D 
 720      B53B495D 
 720      576D4B1D 
 721 1467 D3D2B1FD 		.ascii	"\323\322\261\375\312\276~\306\371\364d\257\363m\261"
 721      CABE7EC6 
 721      F9F464AF 
 721      F36DB1
 722 1476 EBE6A5A3 		.ascii	"\353\346\245\243\332y\351\370\321\335\226K\307\015d"
 722      DA79E9F8 
 722      D1DD964B 
 722      C70D64
 723 1485 E948CFD9 		.ascii	"\351H\317\331\276\302\034\327l\227\216\252\327\366P"
 723      BEC21CD7 
 723      6C978EAA 
 723      D7F650
 724 1494 F19A797F 		.ascii	"\361\232y\177\344\006\277V\024\006e\227\207+\203\331"
 724      E406BF56 
 724      14066597 
 724      872B83D9 
 725 14a4 A5E1B249 		.ascii	"\245\341\262I\331e\301\361\331\245\345\241\321\241p"
 725      D965C1F1 
 725      D9A5E5A1 
 725      D1A170
 726 14b3 2C5B8956 		.ascii	",[\211VW=\225\015\211\250\222\035\252*\255\250.\203"
 726      573D950D 
 726      89A8921D 
 726      AA2AADA8 
 726      2E83
 727 14c5 4CE5C1F1 		.ascii	"L\345\301\361\301*%\326\277\\\350\201\251@,\\\035-\015"
 727      C12A25D6 
 727      BF5CE881 
 727      A9402C5C 
 727      1D2D0D
 728 14d8 0694B487 		.ascii	"\006\224\264\207G<\236U d\262O{\321\233\212PL\011V\005"
 728      473C9E55 
 728      2064B24F 
 728      7BD19B8A 
 728      504C0956 
 729 14ed A301A507 		.ascii	"\243\001\245\007\377 =X\021\250\012NT\006\273b\020\233"
 729      FF203D58 
 729      11A80A4E 
 729      5406BB62 
 729      109B
 730 14ff 14532645 		.ascii	"\024S&E\202\204C\206R\036\015\312e\001\305_Z\036\240"
 730      82844386 
 730      521E0DCA 
ARM GAS  /tmp/ccqCnKQK.s 			page 58


 730      6501C55F 
 730      5A1EA0
 731 1512 E901EEB0 		.ascii	"\351\001\356\260J\313\313\000'-\202<\340\022\211\006"
 731      4ACBCB00 
 731      272D823C 
 731      E0128906 
 732 1522 C73FE200 		.ascii	"\307?\342\000\"\022\216*\261\354\007\213\207\027\014"
 732      22128E2A 
 732      B1EC078B 
 732      87170C
 733 1531 9F08392B 		.ascii	"\237\0109+#\241\212`4\226\375pA\001d\327\351\245+\221"
 733      23A18A60 
 733      3496FD70 
 733      410164D7 
 733      E9A52B91 
 734 1545 68281C50 		.ascii	"h(\034P~\222]\035\213f\313\321\312_T\205\253\202\277"
 734      7E925D1D 
 734      8B66CBD1 
 734      CA5F5485 
 734      AB82BF
 735 1558 08CAA343 		.ascii	"\010\312\243C\006\207\230R\026\252R\210,\325p\315\317"
 735      06879852 
 735      16AA5288 
 735      2CD570CD 
 735      CF
 736 1569 0B280392 		.ascii	"\013(\003\222\344\256\224\201LU0;P\026\034#WW(\001\275"
 736      E4AE9481 
 736      4C55303B 
 736      50161C23 
 736      57572801 
 737 157e AA6E8180 		.ascii	"\252n\201\200^\036\245\010\205\323K\303U\012\010u\277"
 737      5E1EA508 
 737      85D34BC3 
 737      550A0875 
 737      BF
 738 158f 6B69CA4B 		.ascii	"ki\312K\303\321 `v'\217\003\200Z\252L\374u\327P\002"
 738      C3D12060 
 738      76278F03 
 738      805AAA4C 
 738      FC75D750 
 739 15a4 E37F5949 		.ascii	"\343\177YId\213\006\307\202@\001\305\023\313\035\004"
 739      648B06C7 
 739      824001C5 
 739      13CB1D04 
 740 15b4 E1971006 		.ascii	"\341\227\020\006C\270\337\023\313\313\201\220\013!\017"
 740      43B8DF13 
 740      CBCB8190 
 740      0B210F
 741 15c3 423E8401 		.ascii	"B>\204\001\020\006B\200|y\220/\017\362\345A\276|\310"
 741      10064280 
 741      7C79902F 
 741      0FF2E541 
 741      BE7CC8
 742 15d6 979F2B45 		.ascii	"\227\237+E\007H\321\201Rt\220\024\375\245\024\035,E"
 742      0748D181 
 742      52749014 
 742      FDA5141D 
ARM GAS  /tmp/ccqCnKQK.s 			page 59


 742      2C45
 743 15e8 EFF74473 		.ascii	"\357\367Dss \344J\025Q\270\344\373\"\001`\233N\332s"
 743      7320E44A 
 743      1551B8E4 
 743      FB220160 
 743      9B4EDA73 
 744 15fc 02185824 		.ascii	"\002\030X$\020\256(\013F\275\245\345r\2244\262\\\031"
 744      10AE280B 
 744      46BDA5E5 
 744      729434B2 
 744      5C19
 745 160e CC50628A 		.ascii	"\314Pb\212\254\200\305\246\023\205\015\006\333\241\252"
 745      AC80C5A6 
 745      13850D06 
 745      DBA1AA
 746 161d 831464C7 		.ascii	"\203\024d\307w\351Je\270,\210\367c*\344\261\261t%\032"
 746      77E94A65 
 746      B82C88F7 
 746      632AE4B1 
 746      B174251A 
 747 1631 1C1343CD 		.ascii	"\034\023C\315\222\204\25726\026^j\352\206\342\272\342"
 747      9284AF32 
 747      36165E6A 
 747      EA86E2BA 
 747      E2
 748 1642 A36593E0 		.ascii	"\243e\223\340UFpbH\001E\005\323&(\341\321\177\214tG"
 748      55467062 
 748      48014505 
 748      D32628E1 
 748      D17F8C74 
 749 1657 A3AF9463 		.ascii	"\243\257\224cOA\226\340\004\222\360D\002\325=\250\275"
 749      4F4196E0 
 749      0492F044 
 749      02D53DA8 
 749      BD
 750 1668 C6B03704 		.ascii	"\306\2607\004\224\236\206\005\323'\376H`\202\034RBU"
 750      949E8605 
 750      D327FE48 
 750      60821C52 
 750      4255
 751 167a 637BEA8F 		.ascii	"c{\352\217\307U\007\253\201U/&'>\352\026\011@\265\230"
 751      C75507AB 
 751      81552F26 
 751      273EEA16 
 751      0940B598 
 752 168e F461121E 		.ascii	"\364a\022\036\004#\301*0\254\261\276\312j0\202|W\235"
 752      0423C12A 
 752      30ACB1BE 
 752      CA6A3082 
 752      7C579D
 753 16a1 A2529948 		.ascii	"\242R\231H\214\267\222\242\3035<\201tVD\002\021*\261"
 753      8CB792A2 
 753      C3353C81 
 753      74564402 
 753      112AB1
 754 16b4 AF003FC8 		.ascii	"\257\000?\310G\230v#Z\221+\320\346\340a$\034\256\350"
 754      47987623 
ARM GAS  /tmp/ccqCnKQK.s 			page 60


 754      5A912BD0 
 754      E6E06124 
 754      1CAEE8
 755 16c7 0E1D5BEF 		.ascii	"\016\035[\357\344~HS\247A}\003j4\240d\300cL\222\367"
 755      E47E4853 
 755      A7417D03 
 755      6A34A064 
 755      C0634C92 
 756 16dc 13A89A83 		.ascii	"\023\250\232\2031\204\036\230\212m\271\\\221\350?\301"
 756      31841E98 
 756      8A6DB95C 
 756      91E83FC1 
 757 16ec 6848AE00 		.ascii	"hH\256\000\276\231%\230*\214\206\306\007\243=\331\233"
 757      BE992598 
 757      2A8C86C6 
 757      07A33DD9 
 757      9B
 758 16fd 27868FCA 		.ascii	"'\206\217\312\303>U\021\032\235=\266\264\324\324\267"
 758      C33E5511 
 758      1A9D3DB6 
 758      B4D4D4B7 
 759 170d 06F41FDC 		.ascii	"\006\364\037\334\177\000\333\037\241o\021\237\020\013"
 759      7F00DB1F 
 759      A16F119F 
 759      100B
 760 171b FD1768DB 		.ascii	"\375\027h\3337!\032R\202^\242nO\244Z\361\214\015*~\342"
 760      37211A52 
 760      825EA26E 
 760      4FA45AF1 
 760      8C0D2A7E 
 761 1730 814295F0 		.ascii	"\201B\225\360\322\013O\024/<R\3220\233\342#\371\024"
 761      D20B4F14 
 761      2F3C52D2 
 761      309BE223 
 761      F914
 762 1742 CFF84AC5 		.ascii	"\317\370J\305\207\302\372ce\232\265\371K\012\003\217"
 762      87C2FA63 
 762      659AB5F9 
 762      4B0A038F 
 763 1752 8F281A51 		.ascii	"\217(\032Q4*\035R%\243\036\033\231\001\327\342a\017"
 763      342A1D52 
 763      25A31E1B 
 763      9901D7E2 
 763      610F
 764 1764 16FEDE87 		.ascii	"\026\376\336\207Y\334\271al\032\322\361\357\012U\001"
 764      59DCB961 
 764      6C1AD2F1 
 764      EF0A5501 
 765 1774 09DD36BA 		.ascii	"\011\3356\272\201\273\321\222\031z\322?N\267$H\225\206"
 765      81BBD192 
 765      197AD23F 
 765      4EB72448 
 765      9586
 766 1786 ABC12B44 		.ascii	"\253\301+D3\306\005FW\217\031\023\214\372\306\005\224"
 766      33C60546 
 766      578F1913 
 766      8CFAC605 
ARM GAS  /tmp/ccqCnKQK.s 			page 61


 766      94
 767 1797 70241DB2 		.ascii	"p$\035\262D#J\024\256\3212\270\372\307U\205\225\320"
 767      44234A14 
 767      AED132B8 
 767      FAC75585 
 767      95D0
 768 17a9 98498032 		.ascii	"\230I\2002.@\223i\343\240E\253\236J\013!f\217p\265\302"
 768      2E409369 
 768      E3A045AB 
 768      9E4A0B21 
 768      668F70B5 
 769 17be 549B16C6 		.ascii	"T\233\026\306\204\024\032-\205G\377*\225 \320\304\331"
 769      84141A2D 
 769      8547FF2A 
 769      9520D0C4 
 769      D9
 770 17cf 05       		.ascii	"\005"
 771 17d0 C34B8A4A 		.ascii	"\303K\212J\262KF\201\276+\363\363\306\014\310\311\235"
 771      B24B4681 
 771      BE2BF3F3 
 771      C60CC8C9 
 771      9D
 772 17e1 584AA479 		.ascii	"XJ\244y\274\344\301\342Q\201Q\340\325\012\203c\244\222"
 772      BCE4C1E2 
 772      518151E0 
 772      D50A8363 
 772      A492
 773 17f3 62A9B0D8 		.ascii	"b\251\260\330\363Pq\261\247\2408\027B\036\204|\357\303"
 773      F35071B1 
 773      A7A03817 
 773      421E847C 
 773      EFC3
 774 1805 A34616FB 		.ascii	"\243F\026\373\252crT)rb)\324-\225\214\032\236\237\227"
 774      AA637254 
 774      29726229 
 774      D42D958C 
 774      1A9E9F97 
 775 1819 FDE8A385 		.ascii	"\375\350\243\205\331X\305\370\\\315r\002\025\025d\004"
 775      D958C5F8 
 775      5CCD7202 
 775      15156404 
 776 1829 F0C522C1 		.ascii	"\360\305\"\301`\031\372\340\334A\240G\352\023H\322S"
 776      6019FAE0 
 776      DC41A047 
 776      EA1348D2 
 776      53
 777 183a 1ACD8590 		.ascii	"\032\315\205\220\007!_\263\261\202p\325\230\320\330"
 777      07215FB3 
 777      B18270D5 
 777      98D0D8
 778 1849 3B5579A9 		.ascii	";Uy\251\220NU<H\032\027\321\222y\376XP\011\004\243\321"
 778      904E553C 
 778      481A17D1 
 778      9279FE58 
 778      500904A3 
 779 185e 70D4132B 		.ascii	"p\324\023+\213H\261hO(1>H\\\015<\255\216(\275Q\001p"
 779      8B48B168 
ARM GAS  /tmp/ccqCnKQK.s 			page 62


 779      4F28313E 
 779      485C0D3C 
 779      AD8E28BD 
 780 1875 1F52FA87 		.ascii	"\037R\372\207bQ\271\177NzQI\361\203\375s\007\246\225"
 780      6251B97F 
 780      4E7A5149 
 780      F183FD73 
 780      07A695
 781 1888 22BD3EB1 		.ascii	"\"\275>\2612\002\017\036-\034\351\037\201\274\375s3"
 781      32020F1E 
 781      2D1CE91F 
 781      81BCFD73 
 781      33
 782 1899 9E08962A 		.ascii	"\236\010\226*\341h\341`?M\344\016,\350\256\345\"8\231"
 782      E168E160 
 782      3F4DE40E 
 782      2CE8AEE5 
 782      223899
 783 18ac 4609C8DD 		.ascii	"F\011\310\335\235)~wi\371\260\361\312C\321\260\\V*\307"
 783      9D297E77 
 783      69F9B0F1 
 783      CA43D1B0 
 783      5C562AC7 
 784 18c0 94DF90CE 		.ascii	"\224\337\220\316Z\224QZ\376\330\277?\034T\212z\306\312"
 784      5A94515A 
 784      FED8BF3F 
 784      1C548A7A 
 784      C6CA
 785 18d2 8AAA6008 		.ascii	"\212\252`\010\004\003+\224\025\271\350\001\347z\201"
 785      04032B94 
 785      15B9E801 
 785      E77A81
 786 18e1 5295E12A 		.ascii	"R\225\341*}\310\250\032\037\"6\320\233\\\013C1ytE\220"
 786      7DC8A81A 
 786      1F2236D0 
 786      9B5C0B43 
 786      31797445 
 787 18f6 F2EC13A0 		.ascii	"\362\354\023\240#Qt\034\370\265PExlu\020\270>6\372\217"
 787      2351741C 
 787      F8B55045 
 787      786C7510 
 787      B83E36FA 
 788 190b F0B60888 		.ascii	"\360\266\010\210\367\"%\206U%\012xJ\012\363 \014\352"
 788      F7222586 
 788      55250A78 
 788      4A0AF320 
 788      0CEA
 789 191d A10F9354 		.ascii	"\241\017\223T%)\335 a\026\216A\004}\215\\\201M_r\035"
 789      2529DD20 
 789      61168E41 
 789      047D8D5C 
 789      814D5F72 
 790 1932 46FAB249 		.ascii	"F\372\262I~O0\026\361\241\337\362\005\036\002\237\227"
 790      7E4F3016 
 790      F1A1DFF2 
 790      051E029F 
 790      97
ARM GAS  /tmp/ccqCnKQK.s 			page 63


 791 1943 49F45114 		.ascii	"I\364Q\024\033V\031Q&\025y\302\343\"\335\213\013\012"
 791      1B561951 
 791      261579C2 
 791      E322DD8B 
 791      0B0A
 792 1955 0C4B2E28 		.ascii	"\014K.(N\037\371\350\243\005\277y\270\330K\"OAQq\306"
 792      4E1FF9E8 
 792      A305BF79 
 792      B8D84B22 
 792      4F415171 
 793 196a 838F3C94 		.ascii	"\203\217<\224[\\2\012\023yz\"\237$\374\305\303J\206"
 793      5B5C320A 
 793      13797A22 
 793      9F24FCC5 
 793      C34A86
 794 197d 153F31AC 		.ascii	"\025?1\2540'\343\301\221z\246\2214\223\361.7\235\000"
 794      3027E3C1 
 794      917AA691 
 794      3493F12E 
 794      379D00
 795 1990 0C1B514C 		.ascii	"\014\033QL\256y\3325\037\256F\216\274tR\032\337\214"
 795      AE79DA35 
 795      1FAE468E 
 795      BC74521A 
 795      DF8C
 796 19a2 C41CC69B 		.ascii	"\304\034\306\233|?)\373\350H\362\214\2246R\3714\245"
 796      7C3F29FB 
 796      E848F28C 
 796      943652F9 
 796      34A5
 797 19b4 E71BE027 		.ascii	"\347\033\340'\010\332\333\221z>\375\355@\357C\205\005"
 797      08DADB91 
 797      7A3EFDED 
 797      40EF4385 
 797      05
 798 19c5 204B49E2 		.ascii	" KI\342\321 _II\301\303\305\335@\330\242\274\022\"j"
 798      D1205F49 
 798      49C1C3C5 
 798      DD40D8A2 
 798      BC12226A 
 799 19d9 2635D4B2 		.ascii	"&5\324\262 11\261\372\377\000\236\346X\370"
 799      203131B1 
 799      FAFF009E 
 799      E658F8
 800              		.text
 801              		.section	.gnu.lto_.symtab.ac2310b7bf8180d4,"",%progbits
 802 0000 56656374 		.ascii	"VectorD8\000\000\000\000\000\000\000\000\000\000\000"
 802      6F724438 
 802      00000000 
 802      00000000 
 802      000000
 803 0013 00520200 		.ascii	"\000R\002\000\000SD2\000\000\000\000\000\000\000\000"
 803      00534432 
 803      00000000 
 803      00000000 
 804 0023 00000000 		.ascii	"\000\000\000\000\211\002\000\000Vector15C\000\000\000"
 804      89020000 
ARM GAS  /tmp/ccqCnKQK.s 			page 64


 804      56656374 
 804      6F723135 
 804      43000000 
 805 0037 00000000 		.ascii	"\000\000\000\000\000\000\000\000\000V\002\000\000SD"
 805      00000000 
 805      00560200 
 805      005344
 806 0046 36000000 		.ascii	"6\000\000\000\000\000\000\000\000\000\000\000\000\213"
 806      00000000 
 806      00000000 
 806      008B
 807 0054 02000073 		.ascii	"\002\000\000sd_lld_init\000\000\000\000\000\000\000"
 807      645F6C6C 
 807      645F696E 
 807      69740000 
 807      00000000 
 808 0069 00000000 		.ascii	"\000\000\000\000\000Y\002\000\000sd_lld_start\000\000"
 808      00590200 
 808      0073645F 
 808      6C6C645F 
 808      73746172 
 809 0080 00000000 		.ascii	"\000\000\000\000\000\000\000\000\000\000\\\002\000\000"
 809      00000000 
 809      00005C02 
 809      0000
 810 008e 73645F6C 		.ascii	"sd_lld_stop\000\000\000\000\000\000\000\000\000\000"
 810      6C645F73 
 810      746F7000 
 810      00000000 
 810      00000000 
 811 00a3 00006402 		.ascii	"\000\000d\002\000\000chEvtBroadcastFlagsI\000\000\002"
 811      00006368 
 811      45767442 
 811      726F6164 
 811      63617374 
 812 00c0 00000000 		.ascii	"\000\000\000\000\000\000\000\000\000h\002\000\000ch"
 812      00000000 
 812      00680200 
 812      006368
 813 00cf 4F514765 		.ascii	"OQGetI\000\000\002\000\000\000\000\000\000\000\000\000"
 813      74490000 
 813      02000000 
 813      00000000 
 813      0000
 814 00e1 6E020000 		.ascii	"n\002\000\000sdIncomingDataI\000\000\002\000\000\000"
 814      7364496E 
 814      636F6D69 
 814      6E674461 
 814      74614900 
 815 00fa 00000000 		.ascii	"\000\000\000\000\000\000s\002\000\000nvicDisableVec"
 815      00007302 
 815      00006E76 
 815      69634469 
 815      7361626C 
 816 0112 746F7200 		.ascii	"tor\000\000\002\000\000\000\000\000\000\000\000\000"
 816      00020000 
 816      00000000 
ARM GAS  /tmp/ccqCnKQK.s 			page 65


 816      000000
 817 0121 78020000 		.ascii	"x\002\000\000_port_irq_epilogue\000\000\002\000\000"
 817      5F706F72 
 817      745F6972 
 817      715F6570 
 817      696C6F67 
 818 013c 00000000 		.ascii	"\000\000\000\000\000\000\000|\002\000\000sdObjectIn"
 818      0000007C 
 818      02000073 
 818      644F626A 
 818      65637449 
 819 0151 69740000 		.ascii	"it\000\000\002\000\000\000\000\000\000\000\000\000~"
 819      02000000 
 819      00000000 
 819      00007E
 820 0160 0200006E 		.ascii	"\002\000\000nvicEnableVector\000\000\002\000\000\000"
 820      76696345 
 820      6E61626C 
 820      65566563 
 820      746F7200 
 821 0179 00000000 		.ascii	"\000\000\000\000\000\000\204\002\000\000"
 821      00008402 
 821      0000
 822              		.text
 823              		.section	.gnu.lto_.opts,"",%progbits
 824 0000 272D6D63 		.ascii	"'-mcpu=cortex-m4' '-mfloat-abi=hard' '-mfpu=fpv4-sp"
 824      70753D63 
 824      6F727465 
 824      782D6D34 
 824      2720272D 
 825 0033 2D643136 		.ascii	"-d16' '-mno-thumb-interwork' '-mthumb' '-O2' '-fomi"
 825      2720272D 
 825      6D6E6F2D 
 825      7468756D 
 825      622D696E 
 826 0066 742D6672 		.ascii	"t-frame-pointer' '-falign-functions=16' '-ffunction"
 826      616D652D 
 826      706F696E 
 826      74657227 
 826      20272D66 
 827 0099 2D736563 		.ascii	"-sections' '-fdata-sections' '-fno-common' '-flto' "
 827      74696F6E 
 827      73272027 
 827      2D666461 
 827      74612D73 
 828 00cc 272D6673 		.ascii	"'-fsingle-precision-constant'\000"
 828      696E676C 
 828      652D7072 
 828      65636973 
 828      696F6E2D 
 829              		.text
 830              		.section	.text.notify2,"ax",%progbits
 831              		.align	2
 832              		.p2align 4,,15
 833              		.thumb
 834              		.thumb_func
 835              		.type	notify2, %function
ARM GAS  /tmp/ccqCnKQK.s 			page 66


 836              	notify2:
 837              		@ args = 0, pretend = 0, frame = 0
 838              		@ frame_needed = 0, uses_anonymous_args = 0
 839              		@ link register save eliminated.
 840 0000 024B     		ldr	r3, .L2
 841 0002 DA68     		ldr	r2, [r3, #12]
 842 0004 42F08002 		orr	r2, r2, #128
 843 0008 DA60     		str	r2, [r3, #12]
 844 000a 7047     		bx	lr
 845              	.L3:
 846              		.align	2
 847              	.L2:
 848 000c 00440040 		.word	1073759232
 849              		.size	notify2, .-notify2
 850              		.section	.text.notify6,"ax",%progbits
 851              		.align	2
 852              		.p2align 4,,15
 853              		.thumb
 854              		.thumb_func
 855              		.type	notify6, %function
 856              	notify6:
 857              		@ args = 0, pretend = 0, frame = 0
 858              		@ frame_needed = 0, uses_anonymous_args = 0
 859              		@ link register save eliminated.
 860 0000 024B     		ldr	r3, .L5
 861 0002 DA68     		ldr	r2, [r3, #12]
 862 0004 42F08002 		orr	r2, r2, #128
 863 0008 DA60     		str	r2, [r3, #12]
 864 000a 7047     		bx	lr
 865              	.L6:
 866              		.align	2
 867              	.L5:
 868 000c 00140140 		.word	1073812480
 869              		.size	notify6, .-notify6
 870              		.section	.text.serve_interrupt,"ax",%progbits
 871              		.align	2
 872              		.p2align 4,,15
 873              		.thumb
 874              		.thumb_func
 875              		.type	serve_interrupt, %function
 876              	serve_interrupt:
 877              		@ args = 0, pretend = 0, frame = 0
 878              		@ frame_needed = 0, uses_anonymous_args = 0
 879 0000 2DE9F041 		push	{r4, r5, r6, r7, r8, lr}
 880 0004 D0F85454 		ldr	r5, [r0, #1108]
 881 0008 D5F80C80 		ldr	r8, [r5, #12]
 882 000c 2B68     		ldr	r3, [r5]
 883 000e 0646     		mov	r6, r0
 884 0010 D805     		lsls	r0, r3, #23
 885 0012 9CB2     		uxth	r4, r3
 886 0014 47D4     		bmi	.L54
 887              	.L8:
 888 0016 2023     		movs	r3, #32
 889              	@ 546 "/home/cody/dev/chibios/trunk/os/ext/CMSIS/include/core_cmFunc.h" 1
 890 0018 83F31188 		MSR basepri, r3
 891              	@ 0 "" 2
 892              		.thumb
ARM GAS  /tmp/ccqCnKQK.s 			page 67


 893 001c A106     		lsls	r1, r4, #26
 894 001e 22D5     		bpl	.L9
 895 0020 371D     		adds	r7, r6, #4
 896 0022 08E0     		b	.L15
 897              	.L10:
 898 0024 6968     		ldr	r1, [r5, #4]
 899 0026 3046     		mov	r0, r6
 900 0028 C9B2     		uxtb	r1, r1
 901 002a FFF7FEFF 		bl	sdIncomingDataI
 902 002e 2C68     		ldr	r4, [r5]
 903 0030 A4B2     		uxth	r4, r4
 904 0032 A106     		lsls	r1, r4, #26
 905 0034 17D5     		bpl	.L9
 906              	.L15:
 907 0036 2207     		lsls	r2, r4, #28
 908 0038 F4D0     		beq	.L10
 909 003a 14F0080F 		tst	r4, #8
 910 003e 14BF     		ite	ne
 911 0040 8021     		movne	r1, #128
 912 0042 0021     		moveq	r1, #0
 913 0044 14F0010F 		tst	r4, #1
 914 0048 18BF     		it	ne
 915 004a 41F02001 		orrne	r1, r1, #32
 916 004e A307     		lsls	r3, r4, #30
 917 0050 48BF     		it	mi
 918 0052 41F04001 		orrmi	r1, r1, #64
 919 0056 6407     		lsls	r4, r4, #29
 920 0058 3846     		mov	r0, r7
 921 005a 48BF     		it	mi
 922 005c 41F48071 		orrmi	r1, r1, #256
 923 0060 FFF7FEFF 		bl	chEvtBroadcastFlagsI
 924 0064 DEE7     		b	.L10
 925              	.L9:
 926 0066 0023     		movs	r3, #0
 927              	@ 546 "/home/cody/dev/chibios/trunk/os/ext/CMSIS/include/core_cmFunc.h" 1
 928 0068 83F31188 		MSR basepri, r3
 929              	@ 0 "" 2
 930              		.thumb
 931 006c 18F0800F 		tst	r8, #128
 932 0070 01D0     		beq	.L16
 933 0072 2206     		lsls	r2, r4, #24
 934 0074 26D4     		bmi	.L55
 935              	.L16:
 936 0076 6306     		lsls	r3, r4, #25
 937 0078 13D5     		bpl	.L7
 938 007a 2023     		movs	r3, #32
 939              	@ 546 "/home/cody/dev/chibios/trunk/os/ext/CMSIS/include/core_cmFunc.h" 1
 940 007c 83F31188 		MSR basepri, r3
 941              	@ 0 "" 2
 942              		.thumb
 943 0080 726C     		ldr	r2, [r6, #68]
 944 0082 B36C     		ldr	r3, [r6, #72]
 945 0084 9A42     		cmp	r2, r3
 946 0086 2BD0     		beq	.L56
 947              	.L20:
 948 0088 4FF6BF73 		movw	r3, #65471
 949 008c 08EA0303 		and	r3, r8, r3
ARM GAS  /tmp/ccqCnKQK.s 			page 68


 950 0090 6FF04002 		mvn	r2, #64
 951 0094 EB60     		str	r3, [r5, #12]
 952 0096 0023     		movs	r3, #0
 953 0098 2A60     		str	r2, [r5]
 954              	@ 546 "/home/cody/dev/chibios/trunk/os/ext/CMSIS/include/core_cmFunc.h" 1
 955 009a 83F31188 		MSR basepri, r3
 956              	@ 0 "" 2
 957              		.thumb
 958 009e BDE8F081 		pop	{r4, r5, r6, r7, r8, pc}
 959              	.L7:
 960 00a2 BDE8F081 		pop	{r4, r5, r6, r7, r8, pc}
 961              	.L54:
 962 00a6 2023     		movs	r3, #32
 963              	@ 546 "/home/cody/dev/chibios/trunk/os/ext/CMSIS/include/core_cmFunc.h" 1
 964 00a8 83F31188 		MSR basepri, r3
 965              	@ 0 "" 2
 966              		.thumb
 967 00ac 4FF40071 		mov	r1, #512
 968 00b0 301D     		adds	r0, r6, #4
 969 00b2 FFF7FEFF 		bl	chEvtBroadcastFlagsI
 970 00b6 6FF48073 		mvn	r3, #256
 971 00ba 2B60     		str	r3, [r5]
 972 00bc 0023     		movs	r3, #0
 973              	@ 546 "/home/cody/dev/chibios/trunk/os/ext/CMSIS/include/core_cmFunc.h" 1
 974 00be 83F31188 		MSR basepri, r3
 975              	@ 0 "" 2
 976              		.thumb
 977 00c2 A8E7     		b	.L8
 978              	.L55:
 979 00c4 2023     		movs	r3, #32
 980              	@ 546 "/home/cody/dev/chibios/trunk/os/ext/CMSIS/include/core_cmFunc.h" 1
 981 00c6 83F31188 		MSR basepri, r3
 982              	@ 0 "" 2
 983              		.thumb
 984 00ca 06F13000 		add	r0, r6, #48
 985 00ce FFF7FEFF 		bl	chOQGetI
 986 00d2 0028     		cmp	r0, #0
 987 00d4 0CDB     		blt	.L57
 988 00d6 6860     		str	r0, [r5, #4]
 989              	.L18:
 990 00d8 0023     		movs	r3, #0
 991              	@ 546 "/home/cody/dev/chibios/trunk/os/ext/CMSIS/include/core_cmFunc.h" 1
 992 00da 83F31188 		MSR basepri, r3
 993              	@ 0 "" 2
 994              		.thumb
 995 00de CAE7     		b	.L16
 996              	.L56:
 997 00e0 B36B     		ldr	r3, [r6, #56]
 998 00e2 002B     		cmp	r3, #0
 999 00e4 D0D0     		beq	.L20
 1000 00e6 301D     		adds	r0, r6, #4
 1001 00e8 1021     		movs	r1, #16
 1002 00ea FFF7FEFF 		bl	chEvtBroadcastFlagsI
 1003 00ee CBE7     		b	.L20
 1004              	.L57:
 1005 00f0 301D     		adds	r0, r6, #4
 1006 00f2 0821     		movs	r1, #8
ARM GAS  /tmp/ccqCnKQK.s 			page 69


 1007 00f4 FFF7FEFF 		bl	chEvtBroadcastFlagsI
 1008 00f8 4FF63F73 		movw	r3, #65343
 1009 00fc 08EA0303 		and	r3, r8, r3
 1010 0100 43F04003 		orr	r3, r3, #64
 1011 0104 EB60     		str	r3, [r5, #12]
 1012 0106 E7E7     		b	.L18
 1013              		.size	serve_interrupt, .-serve_interrupt
 1014 0108 AFF30080 		.section	.text.VectorD8,"ax",%progbits
 1014      AFF30080 
 1015              		.align	2
 1016              		.p2align 4,,15
 1017              		.global	VectorD8
 1018              		.thumb
 1019              		.thumb_func
 1020              		.type	VectorD8, %function
 1021              	VectorD8:
 1022              		@ args = 0, pretend = 0, frame = 0
 1023              		@ frame_needed = 0, uses_anonymous_args = 0
 1024 0000 08B5     		push	{r3, lr}
 1025 0002 0348     		ldr	r0, .L59
 1026 0004 FFF7FEFF 		bl	serve_interrupt
 1027 0008 BDE80840 		pop	{r3, lr}
 1028 000c FFF7FEBF 		b	_port_irq_epilogue
 1029              	.L60:
 1030              		.align	2
 1031              	.L59:
 1032 0010 00000000 		.word	.LANCHOR0
 1033              		.size	VectorD8, .-VectorD8
 1034 0014 AFF30080 		.section	.text.Vector15C,"ax",%progbits
 1034      AFF30080 
 1034      AFF30080 
 1035              		.align	2
 1036              		.p2align 4,,15
 1037              		.global	Vector15C
 1038              		.thumb
 1039              		.thumb_func
 1040              		.type	Vector15C, %function
 1041              	Vector15C:
 1042              		@ args = 0, pretend = 0, frame = 0
 1043              		@ frame_needed = 0, uses_anonymous_args = 0
 1044 0000 08B5     		push	{r3, lr}
 1045 0002 0348     		ldr	r0, .L62
 1046 0004 FFF7FEFF 		bl	serve_interrupt
 1047 0008 BDE80840 		pop	{r3, lr}
 1048 000c FFF7FEBF 		b	_port_irq_epilogue
 1049              	.L63:
 1050              		.align	2
 1051              	.L62:
 1052 0010 00000000 		.word	.LANCHOR1
 1053              		.size	Vector15C, .-Vector15C
 1054 0014 AFF30080 		.section	.text.sd_lld_init,"ax",%progbits
 1054      AFF30080 
 1054      AFF30080 
 1055              		.align	2
 1056              		.p2align 4,,15
 1057              		.global	sd_lld_init
 1058              		.thumb
ARM GAS  /tmp/ccqCnKQK.s 			page 70


 1059              		.thumb_func
 1060              		.type	sd_lld_init, %function
 1061              	sd_lld_init:
 1062              		@ args = 0, pretend = 0, frame = 0
 1063              		@ frame_needed = 0, uses_anonymous_args = 0
 1064 0000 38B5     		push	{r3, r4, r5, lr}
 1065 0002 094D     		ldr	r5, .L65
 1066 0004 094C     		ldr	r4, .L65+4
 1067 0006 0A4A     		ldr	r2, .L65+8
 1068 0008 2846     		mov	r0, r5
 1069 000a 0021     		movs	r1, #0
 1070 000c FFF7FEFF 		bl	sdObjectInit
 1071 0010 084B     		ldr	r3, .L65+12
 1072 0012 094A     		ldr	r2, .L65+16
 1073 0014 C5F85434 		str	r3, [r5, #1108]
 1074 0018 2046     		mov	r0, r4
 1075 001a 0021     		movs	r1, #0
 1076 001c FFF7FEFF 		bl	sdObjectInit
 1077 0020 064B     		ldr	r3, .L65+20
 1078 0022 C4F85434 		str	r3, [r4, #1108]
 1079 0026 38BD     		pop	{r3, r4, r5, pc}
 1080              	.L66:
 1081              		.align	2
 1082              	.L65:
 1083 0028 00000000 		.word	.LANCHOR0
 1084 002c 00000000 		.word	.LANCHOR1
 1085 0030 00000000 		.word	notify2
 1086 0034 00440040 		.word	1073759232
 1087 0038 00000000 		.word	notify6
 1088 003c 00140140 		.word	1073812480
 1089              		.size	sd_lld_init, .-sd_lld_init
 1090              		.section	.text.sd_lld_start,"ax",%progbits
 1091              		.align	2
 1092              		.p2align 4,,15
 1093              		.global	sd_lld_start
 1094              		.thumb
 1095              		.thumb_func
 1096              		.type	sd_lld_start, %function
 1097              	sd_lld_start:
 1098              		@ args = 0, pretend = 0, frame = 0
 1099              		@ frame_needed = 0, uses_anonymous_args = 0
 1100 0000 38B5     		push	{r3, r4, r5, lr}
 1101 0002 264C     		ldr	r4, .L77
 1102 0004 037A     		ldrb	r3, [r0, #8]	@ zero_extendqisi2
 1103 0006 0029     		cmp	r1, #0
 1104 0008 18BF     		it	ne
 1105 000a 0C46     		movne	r4, r1
 1106 000c 012B     		cmp	r3, #1
 1107 000e 0546     		mov	r5, r0
 1108 0010 23D0     		beq	.L75
 1109              	.L69:
 1110 0012 D5F85434 		ldr	r3, [r5, #1108]
 1111 0016 224A     		ldr	r2, .L77+4
 1112 0018 9342     		cmp	r3, r2
 1113 001a 2ED0     		beq	.L71
 1114 001c 02F58062 		add	r2, r2, #1024
 1115 0020 9342     		cmp	r3, r2
ARM GAS  /tmp/ccqCnKQK.s 			page 71


 1116 0022 2AD0     		beq	.L71
 1117 0024 2268     		ldr	r2, [r4]
 1118 0026 1F49     		ldr	r1, .L77+8
 1119 0028 B1FBF2F2 		udiv	r2, r1, r2
 1120 002c 9A60     		str	r2, [r3, #8]
 1121              	.L73:
 1122 002e A288     		ldrh	r2, [r4, #4]
 1123 0030 E188     		ldrh	r1, [r4, #6]
 1124 0032 2089     		ldrh	r0, [r4, #8]
 1125 0034 42F40452 		orr	r2, r2, #8448
 1126 0038 41F04004 		orr	r4, r1, #64
 1127 003c 42F02C02 		orr	r2, r2, #44
 1128 0040 40F00100 		orr	r0, r0, #1
 1129 0044 92B2     		uxth	r2, r2
 1130 0046 A4B2     		uxth	r4, r4
 1131 0048 80B2     		uxth	r0, r0
 1132 004a 0021     		movs	r1, #0
 1133 004c 1C61     		str	r4, [r3, #16]
 1134 004e 5861     		str	r0, [r3, #20]
 1135 0050 DA60     		str	r2, [r3, #12]
 1136 0052 1960     		str	r1, [r3]
 1137 0054 1A68     		ldr	r2, [r3]
 1138 0056 5B68     		ldr	r3, [r3, #4]
 1139 0058 38BD     		pop	{r3, r4, r5, pc}
 1140              	.L75:
 1141 005a 134B     		ldr	r3, .L77+12
 1142 005c 9842     		cmp	r0, r3
 1143 005e 12D0     		beq	.L76
 1144 0060 124B     		ldr	r3, .L77+16
 1145 0062 9842     		cmp	r0, r3
 1146 0064 D5D1     		bne	.L69
 1147 0066 124B     		ldr	r3, .L77+20
 1148 0068 5A6C     		ldr	r2, [r3, #68]
 1149 006a 42F02002 		orr	r2, r2, #32
 1150 006e 5A64     		str	r2, [r3, #68]
 1151 0070 4720     		movs	r0, #71
 1152 0072 0C21     		movs	r1, #12
 1153 0074 FFF7FEFF 		bl	nvicEnableVector
 1154 0078 CBE7     		b	.L69
 1155              	.L71:
 1156 007a 2268     		ldr	r2, [r4]
 1157 007c 0D49     		ldr	r1, .L77+24
 1158 007e B1FBF2F2 		udiv	r2, r1, r2
 1159 0082 9A60     		str	r2, [r3, #8]
 1160 0084 D3E7     		b	.L73
 1161              	.L76:
 1162 0086 0A4B     		ldr	r3, .L77+20
 1163 0088 1A6C     		ldr	r2, [r3, #64]
 1164 008a 42F40032 		orr	r2, r2, #131072
 1165 008e 1A64     		str	r2, [r3, #64]
 1166 0090 2620     		movs	r0, #38
 1167 0092 0C21     		movs	r1, #12
 1168 0094 FFF7FEFF 		bl	nvicEnableVector
 1169 0098 BBE7     		b	.L69
 1170              	.L78:
 1171 009a 00BF     		.align	2
 1172              	.L77:
ARM GAS  /tmp/ccqCnKQK.s 			page 72


 1173 009c 00000000 		.word	.LANCHOR2
 1174 00a0 00100140 		.word	1073811456
 1175 00a4 80DE8002 		.word	42000000
 1176 00a8 00000000 		.word	.LANCHOR0
 1177 00ac 00000000 		.word	.LANCHOR1
 1178 00b0 00380240 		.word	1073887232
 1179 00b4 00BD0105 		.word	84000000
 1180              		.size	sd_lld_start, .-sd_lld_start
 1181 00b8 AFF30080 		.section	.text.sd_lld_stop,"ax",%progbits
 1181      AFF30080 
 1182              		.align	2
 1183              		.p2align 4,,15
 1184              		.global	sd_lld_stop
 1185              		.thumb
 1186              		.thumb_func
 1187              		.type	sd_lld_stop, %function
 1188              	sd_lld_stop:
 1189              		@ args = 0, pretend = 0, frame = 0
 1190              		@ frame_needed = 0, uses_anonymous_args = 0
 1191              		@ link register save eliminated.
 1192 0000 037A     		ldrb	r3, [r0, #8]	@ zero_extendqisi2
 1193 0002 022B     		cmp	r3, #2
 1194 0004 00D0     		beq	.L84
 1195              	.L79:
 1196 0006 7047     		bx	lr
 1197              	.L84:
 1198 0008 0D49     		ldr	r1, .L86
 1199 000a D0F85434 		ldr	r3, [r0, #1108]
 1200 000e 0022     		movs	r2, #0
 1201 0010 8842     		cmp	r0, r1
 1202 0012 DA60     		str	r2, [r3, #12]
 1203 0014 1A61     		str	r2, [r3, #16]
 1204 0016 5A61     		str	r2, [r3, #20]
 1205 0018 0AD0     		beq	.L85
 1206 001a 0A4B     		ldr	r3, .L86+4
 1207 001c 9842     		cmp	r0, r3
 1208 001e F2D1     		bne	.L79
 1209 0020 094B     		ldr	r3, .L86+8
 1210 0022 5A6C     		ldr	r2, [r3, #68]
 1211 0024 22F02002 		bic	r2, r2, #32
 1212 0028 5A64     		str	r2, [r3, #68]
 1213 002a 4720     		movs	r0, #71
 1214 002c FFF7FEBF 		b	nvicDisableVector
 1215              	.L85:
 1216 0030 054B     		ldr	r3, .L86+8
 1217 0032 1A6C     		ldr	r2, [r3, #64]
 1218 0034 22F40032 		bic	r2, r2, #131072
 1219 0038 1A64     		str	r2, [r3, #64]
 1220 003a 2620     		movs	r0, #38
 1221 003c FFF7FEBF 		b	nvicDisableVector
 1222              	.L87:
 1223              		.align	2
 1224              	.L86:
 1225 0040 00000000 		.word	.LANCHOR0
 1226 0044 00000000 		.word	.LANCHOR1
 1227 0048 00380240 		.word	1073887232
 1228              		.size	sd_lld_stop, .-sd_lld_stop
ARM GAS  /tmp/ccqCnKQK.s 			page 73


 1229              		.global	SD6
 1230              		.global	SD2
 1231 004c AFF30080 		.section	.rodata.default_config,"a",%progbits
 1232              		.align	2
 1233              		.set	.LANCHOR2,. + 0
 1234              		.type	default_config, %object
 1235              		.size	default_config, 12
 1236              	default_config:
 1237 0000 00C20100 		.word	115200
 1238 0004 0000     		.short	0
 1239 0006 0040     		.short	16384
 1240 0008 0000     		.short	0
 1241 000a 0000     		.space	2
 1242              		.section	.bss.SD2,"aw",%nobits
 1243              		.align	2
 1244              		.set	.LANCHOR0,. + 0
 1245              		.type	SD2, %object
 1246              		.size	SD2, 1112
 1247              	SD2:
 1248 0000 00000000 		.space	1112
 1248      00000000 
 1248      00000000 
 1248      00000000 
 1248      00000000 
 1249              		.section	.bss.SD6,"aw",%nobits
 1250              		.align	2
 1251              		.set	.LANCHOR1,. + 0
 1252              		.type	SD6, %object
 1253              		.size	SD6, 1112
 1254              	SD6:
 1255 0000 00000000 		.space	1112
 1255      00000000 
 1255      00000000 
 1255      00000000 
 1255      00000000 
 1256              		.comm	__gnu_lto_v1,1,1
 1257              		.ident	"GCC: (GNU Tools for ARM Embedded Processors) 4.8.4 20140526 (release) [ARM/embedded-4_8-br
ARM GAS  /tmp/ccqCnKQK.s 			page 74


DEFINED SYMBOLS
                            *ABS*:0000000000000000 serial_lld.c
     /tmp/ccqCnKQK.s:831    .text.notify2:0000000000000000 $t
     /tmp/ccqCnKQK.s:836    .text.notify2:0000000000000000 notify2
     /tmp/ccqCnKQK.s:848    .text.notify2:000000000000000c $d
     /tmp/ccqCnKQK.s:851    .text.notify6:0000000000000000 $t
     /tmp/ccqCnKQK.s:856    .text.notify6:0000000000000000 notify6
     /tmp/ccqCnKQK.s:868    .text.notify6:000000000000000c $d
     /tmp/ccqCnKQK.s:871    .text.serve_interrupt:0000000000000000 $t
     /tmp/ccqCnKQK.s:876    .text.serve_interrupt:0000000000000000 serve_interrupt
     /tmp/ccqCnKQK.s:1015   .text.VectorD8:0000000000000000 $t
     /tmp/ccqCnKQK.s:1021   .text.VectorD8:0000000000000000 VectorD8
     /tmp/ccqCnKQK.s:1032   .text.VectorD8:0000000000000010 $d
     /tmp/ccqCnKQK.s:1035   .text.Vector15C:0000000000000000 $t
     /tmp/ccqCnKQK.s:1041   .text.Vector15C:0000000000000000 Vector15C
     /tmp/ccqCnKQK.s:1052   .text.Vector15C:0000000000000010 $d
     /tmp/ccqCnKQK.s:1055   .text.sd_lld_init:0000000000000000 $t
     /tmp/ccqCnKQK.s:1061   .text.sd_lld_init:0000000000000000 sd_lld_init
     /tmp/ccqCnKQK.s:1083   .text.sd_lld_init:0000000000000028 $d
     /tmp/ccqCnKQK.s:1091   .text.sd_lld_start:0000000000000000 $t
     /tmp/ccqCnKQK.s:1097   .text.sd_lld_start:0000000000000000 sd_lld_start
     /tmp/ccqCnKQK.s:1173   .text.sd_lld_start:000000000000009c $d
     /tmp/ccqCnKQK.s:1182   .text.sd_lld_stop:0000000000000000 $t
     /tmp/ccqCnKQK.s:1188   .text.sd_lld_stop:0000000000000000 sd_lld_stop
     /tmp/ccqCnKQK.s:1225   .text.sd_lld_stop:0000000000000040 $d
     /tmp/ccqCnKQK.s:1254   .bss.SD6:0000000000000000 SD6
     /tmp/ccqCnKQK.s:1247   .bss.SD2:0000000000000000 SD2
     /tmp/ccqCnKQK.s:1232   .rodata.default_config:0000000000000000 $d
     /tmp/ccqCnKQK.s:1236   .rodata.default_config:0000000000000000 default_config
     /tmp/ccqCnKQK.s:1243   .bss.SD2:0000000000000000 $d
     /tmp/ccqCnKQK.s:1250   .bss.SD6:0000000000000000 $d
                            *COM*:0000000000000001 __gnu_lto_v1
     /tmp/ccqCnKQK.s:1034   .text.VectorD8:0000000000000014 $t
     /tmp/ccqCnKQK.s:1054   .text.Vector15C:0000000000000014 $t
     /tmp/ccqCnKQK.s:1181   .text.sd_lld_start:00000000000000b8 $t
     /tmp/ccqCnKQK.s:1231   .text.sd_lld_stop:000000000000004c $t

UNDEFINED SYMBOLS
sdIncomingDataI
chEvtBroadcastFlagsI
chOQGetI
_port_irq_epilogue
sdObjectInit
nvicEnableVector
nvicDisableVector
