ARM GAS  /tmp/cckr3qri.s 			page 1


   1              		.syntax unified
   2              		.cpu cortex-m4
   3              		.eabi_attribute 27, 3
   4              		.eabi_attribute 28, 1
   5              		.fpu fpv4-sp-d16
   6              		.eabi_attribute 20, 1
   7              		.eabi_attribute 21, 1
   8              		.eabi_attribute 23, 3
   9              		.eabi_attribute 24, 1
  10              		.eabi_attribute 25, 1
  11              		.eabi_attribute 26, 1
  12              		.eabi_attribute 30, 2
  13              		.eabi_attribute 34, 1
  14              		.eabi_attribute 18, 4
  15              		.thumb
  16              		.file	"si70x0.c"
  17              		.section	.gnu.lto_.jmpfuncs.c5189ec495287f61,"",%progbits
  18 0000 789C9D4F 		.ascii	"x\234\235O\333\015\200 \014\274k\211\017\\\312)\214"
  18      DB0D8020 
  18      0CBC6B89 
  18      0F5CCA29 
  18      8C
  19 0011 2BB00053 		.ascii	"+\260\000S9\244\225\2071FL\224\017(\367\350\265\002"
  19      39A49587 
  19      31464C94 
  19      0F28F7E8 
  19      B502
  20 0023 C1D35998 		.ascii	"\301\323Y\230_\017\245\212\212C0\204P\273\"\0160#\200"
  20      5F0FA58A 
  20      8A433084 
  20      50BB220E 
  20      302380
  21 0036 AC0C246B 		.ascii	"\254\014$ka\210\323\033)\027\262\345\263\242\263 #b"
  21      6188D31B 
  21      2917B2E5 
  21      B3A2B320 
  21      2362
  22 0048 81C46C7D 		.ascii	"\201\304l}U\247\\\026\355\234gK\037\335\322\002\303"
  22      55A75C16 
  22      ED9C674B 
  22      1FDDD202 
  22      C3
  23 0059 CFCCF1CD 		.ascii	"\317\314\361\315\347\317\201\352\332\215Ff\232>h\261"
  23      E7CF81EA 
  23      DA8D4666 
  23      9A3E68B1 
  24 0069 03296318 		.ascii	"\003)c\0306"
  24      36
  25              		.text
  26              		.section	.gnu.lto_.inline.c5189ec495287f61,"",%progbits
  27 0000 789C8D90 		.ascii	"x\234\215\2201N\3030\030\205\337\377\333\251\3358m\323"
  27      314EC330 
  27      1885DFFF 
  27      DBA9DD38 
  27      6DD3
  28 0012 16A9A812 		.ascii	"\026\251\250\022*LeB\214\014\334\000\3113\007\000\001"
  28      2A4C6542 
ARM GAS  /tmp/cckr3qri.s 			page 2


  28      8C0CDC00 
  28      C9330700 
  28      01
  29 0023 37C9C060 		.ascii	"7\311\300`\211\201\265b\204\205\221c\364\014L\0319\002"
  29      8981B562 
  29      84859163 
  29      F40C4C19 
  29      3902
  30 0035 BFDDC655 		.ascii	"\277\335\306U\005Bxp\236\377\274\347\367%\014\306o\253"
  30      05427870 
  30      9EFFBCE7 
  30      F7250CC6 
  30      6FAB
  31 0047 DA8E4B91 		.ascii	"\332\216K\221\216\030\004\250\367\315\343\203\015\265"
  31      8E1804A8 
  31      F7CDE383 
  31      0DB5
  32 0055 06A659CA 		.ascii	"\006\246Y\312\2715\232e4\323Q\3324\260(\203\257b\230"
  32      B9359A65 
  32      34D351DA 
  32      34B02883 
  32      AF6298
  33 0068 30A97F64 		.ascii	"0\251\177d\305\374W\366\240}\242\024f\230\021QL%\304"
  33      C5FC57F6 
  33      A07DA214 
  33      66981151 
  33      4C25C4
  34 007b DE6A9190 		.ascii	"\336j\221\220\364@\316\301\007\257\320\037w\3573\217"
  34      F440CEC1 
  34      07AFD01F 
  34      77EF338F 
  35 008b AC62283D 		.ascii	"\254b(=\301\213\023\207G\244\351\366\232\036H+\241\271"
  35      C18B1387 
  35      47A4E9F6 
  35      9A1E482B 
  35      A1B9
  36 009d C98A3674 		.ascii	"\311\2126t\342\251\336.Q>\2373\364jQ\203#\001P\357."
  36      E2A9DE2E 
  36      513E9F33 
  36      F46A5183 
  36      230150EF 
  37 00b2 C9A2E766 		.ascii	"\311\242\347f\247]\335d\375H\031HU\011\010v\014\230"
  37      A75DDD64 
  37      FD481948 
  37      55090876 
  37      0C98
  38 00c4 0886B4C1 		.ascii	"\010\206\264\301b~\"\365\367\261\264\210uw\235J\227"
  38      627E22F5 
  38      F7B1B488 
  38      75779D4A 
  38      97
  39 00d5 248662F0 		.ascii	"$\206b\360z\005\367r!\365\315\364\030\374\251m\334\364"
  39      7A05F772 
  39      21F5CDF4 
  39      18FCA96D 
  39      DCF4
  40 00e7 DE7764D1 		.ascii	"\336wd\321\207\233\022\357\340\025\257G\260_g\014\021"
ARM GAS  /tmp/cckr3qri.s 			page 3


  40      879B12EF 
  40      E015AF47 
  40      B05F670C 
  40      11
  41 00f8 FB9912C3 		.ascii	"\373\231\022\303yG[4\313\374s\266\260\301g\247\373\267"
  41      79475B34 
  41      CBFC73B6 
  41      B0C167A7 
  41      FBB7
  42 010a 13DF27B9 		.ascii	"\023\337'\271;:"
  42      3B3A
  43              		.text
  44              		.section	.gnu.lto_.pureconst.c5189ec495287f61,"",%progbits
  45 0000 789C6362 		.ascii	"x\234cb`b\020e\200\000.\006)F)&\011f)\026)6\011\016"
  45      60621065 
  45      80002E06 
  45      29462926 
  45      09662916 
  46 0018 294E292E 		.ascii	")N).)n)\000\017H\001Z"
  46      296E2900 
  46      0F48015A 
  47              		.text
  48              		.section	.gnu.lto_si70x0_readTemperature.part.0.c5189ec495287f61,"",%progbits
  49 0000 789C8D53 		.ascii	"x\234\215S\275k\024Q\020\237yowo\357#p\202\205\246\012"
  49      BD6B1451 
  49      109F796F 
  49      776FEF23 
  49      708285A6 
  50 0015 5709F1E3 		.ascii	"W\011\361\343:+A\320\316\366\002Zn\216pl\021\220\273"
  50      3A2B41D0 
  50      CEF6025A 
  50      6E8E706C 
  50      1190BB
  51 0028 F3039BBC 		.ascii	"\363\003\233\274\273\215p\006B\266\320\"\246\271 bH"
  51      BB8D7006 
  51      42B6D022 
  51      A6B92062 
  51      48
  52 0039 3029AE12 		.ascii	"0)\256\022A\257TA\301B\260\270\"\372\007\330Y\010\342"
  52      41AF5441 
  52      C142B0B8 
  52      22FA07D8 
  52      5908E2
  53 004c FA9BFD3A 		.ascii	"\372\233\375:#\212\016\334\314{\277\235\337\374f\336"
  53      238A0EDC 
  53      CC7BBF9D 
  53      DFFC66DE 
  54 005c 7BA748D1 		.ascii	"{\247H\321\3576\217\337\025Mt\012\221mb+|\207\205\305"
  54      EF368FDF 
  54      154D740A 
  54      916D622B 
  54      7C8785C5 
  55 0070 2A8E8AB5 		.ascii	"*\216\212\265\304\236\253\231eAL+\226\322\274r\215\205"
  55      C49EAB99 
  55      65414C2B 
  55      96D2BC72 
  55      8D85
ARM GAS  /tmp/cckr3qri.s 			page 4


  56 0082 AC6BB46D 		.ascii	"\254k\264mLxxw\357\023\217\314xuh\276G\021\263\317\020"
  56      4C787877 
  56      EF138FCC 
  56      787568BE 
  56      4711B3CF 
  57 0097 3ACED464 		.ascii	":\316\324d\272\212\015\317\305AYG\225\023\356\370\303"
  57      BA8A0DCF 
  57      C5415947 
  57      9513EEF8 
  57      C3
  58 00a8 DAC60933 		.ascii	"\332\306\0113\354\205\346\007\250>kE\263Sf5a\252?2_"
  58      EC85E607 
  58      A83E6B45 
  58      B3536635 
  58      61AA3F32 
  59 00bd BE593F69 		.ascii	"\276Y?i\206\375\214i)\252\375K\363@\231\303(z\266_\254"
  59      86FD8C69 
  59      29AAFD4B 
  59      F34099C3 
  59      287AB65F 
  60 00d2 322F4B97 		.ascii	"2/K\227>\333\032\316\261\304\331\262udU\020\347\222"
  60      3EDB1ACE 
  60      B1C4D9B2 
  60      75645510 
  60      E792
  61 00e4 C78FB846 		.ascii	"\307\217\270FEl\250$\256,\256\002x\033\360\014*\310"
  61      456CA824 
  61      AE2CAE02 
  61      781BF00C 
  61      2AC8
  62 00f6 29D8B48A 		.ascii	")\330\264\212n\346<~\014\220\244\001X\003^\016\254\301"
  62      6EE63C7E 
  62      0C90A401 
  62      58035E0E 
  62      ACC1
  63 0108 9644BDC0 		.ascii	"\226D\275\300*\216o\251?\371\270\373\315\316I\"\220"
  63      2A8E6FA9 
  63      3FF9B8FB 
  63      CDCE4922 
  63      90
  64 0119 D423C427 		.ascii	"\324#\304'\270\002X\213\325\031:\355sa\236v\015l\013"
  64      B802588B 
  64      D5193AED 
  64      73619E76 
  64      0D6C0B
  65 012c A3B85BF4 		.ascii	"\243\270[\364\260gL\325\347b\213Y\206+\305#-r2\232 "
  65      B0674CD5 
  65      E7628B59 
  65      862BC523 
  65      2D72329A 
  66 0141 E55F4685 		.ascii	"\345_F\205\322\227\3403{\274\203\232-\326\250)`\360"
  66      D297E033 
  66      7BBC839A 
  66      2DD6A829 
  66      60F0
  67 0153 54679005 		.ascii	"Tg\220\005TX\0304N\237\204\315\354\223}D\376\353\377"
  67      54581834 
ARM GAS  /tmp/cckr3qri.s 			page 5


  67      4E9F84CD 
  67      EC937D44 
  67      FEEBFF
  68 0166 CAF35FE5 		.ascii	"\312\363_\345\235\226L\006\371A._\210;p\322\324;\031"
  68      9D964C06 
  68      F9412E5F 
  68      883B70D2 
  68      D43B19
  69 0179 ECE24B8C 		.ascii	"\354\342K\214\355\004\243\007\0272\024\242n\314_\313"
  69      ED04A307 
  69      173214A2 
  69      6ECC5FCB 
  70 0189 F925A0B3 		.ascii	"\371%\240\263\264i\006&\274H$}\232\361\375\311\201\274"
  70      B4690626 
  70      BC48247D 
  70      9AF1FDC9 
  70      81BC
  71 019b 3E4A5283 		.ascii	">JR\203\027*K.#?M\036Dx.)AlJ\270\027\264\263\374\012"
  71      172A4B2E 
  71      233F4D1E 
  71      44782E29 
  71      416C4AB8 
  72 01b4 28697E3D 		.ascii	"(i~=+\2769z\236\347\366_\277\332K\207\313\017\006\264"
  72      2BBE397A 
  72      9EE7F65F 
  72      BFDA4B87 
  72      CB0F06B4 
  73 01c8 1939860A 		.ascii	"\0319\206\012%w\230DZ`\035_\375{\374\215\246\347\323"
  73      25779844 
  73      5A601D5F 
  73      FD7BFC8D 
  73      A6E7D3
  74 01db C0DB012A 		.ascii	"\300\333\001*/\373\330\345\266\177s\251\3359\327\361"
  74      2FFBD8E5 
  74      B67F73A9 
  74      DD39D7F1 
  75 01eb CFD76FD7 		.ascii	"\317\327o\327\3176\311\356.-_\277Th{\267\032X8\235\256"
  75      CF36C9EE 
  75      2E2D5FBF 
  75      54687BB7 
  75      1A58389D 
  76 0200 D7BDD1F9 		.ascii	"\327\275\321\371\011}\224\320\216"
  76      097D94D0 
  76      8E
  77              		.text
  78              		.section	.gnu.lto_si70x0_readHumidity.part.1.c5189ec495287f61,"",%progbits
  79 0000 789C8D53 		.ascii	"x\234\215SKkSA\024>g\346\316\275y5\211\250P\213H\350"
  79      4B6B5341 
  79      143E67E6 
  79      CEBD7935 
  79      89A8508B 
  80 0016 42055FDD 		.ascii	"B\005_\335i]\273\250\333\232\202\342*F\211W\020$\211"
  80      695DBBA8 
  80      DB9A82E2 
  80      2A468957 
  80      102489
  81 0029 8F959D3C 		.ascii	"\217\225\235<\026\361\205\301E1\2720E\324 \212\270\251"
ARM GAS  /tmp/cckr3qri.s 			page 6


  81      16F185C1 
  81      4531BA30 
  81      45D4208A 
  81      B8A9
  82 003b 8B22A452 		.ascii	"\213\"\244RA\010\012]\206vQ\004\335(\376\000\025\343"
  82      41080A5D 
  82      86765104 
  82      DD28FE00 
  82      15E3
  83 004d 39F795A4 		.ascii	"9\367\225\244(:p\317\2319\363}\363}\363\270\002\004"
  83      283A70CF 
  83      9939F37D 
  83      F37DF3B8 
  83      0204
  84 005f 6C6CC7E8 		.ascii	"ll\307\350\373!\001vR\306\020\240U\377@\035\013\205"
  84      FB210176 
  84      52C610A0 
  84      55FF401D 
  84      0B85
  85 0071 93855037 		.ascii	"\223\205P7\267\202\216\310\352$\350\230\024Fm\027\215"
  85      B7828EC8 
  85      EA24E898 
  85      14466D17 
  85      8D
  86 0082 14C79881 		.ascii	"\024\307\230\201\2121\245\220B\323\355\230\210\334\001"
  86      8A31A590 
  86      42D3ED98 
  86      88DC01
  87 0091 84594B48 		.ascii	"\204YKHC\2318{\002YD\216\303\274\326\365\365\267\013"
  87      4399387B 
  87      0259448E 
  87      C3BCD6F5 
  87      F5B70B
  88 00a4 2BD8D0ED 		.ascii	"+\330\320\355jS\377\354\365\020m$C[\020\262\010\307"
  88      6A53FFEC 
  88      F5106D24 
  88      435B10B2 
  88      08C7
  89 00b6 69802927 		.ascii	"i\200)'\011c\330\241\303\275\323~\331\271=\252\233\245"
  89      0963D8A1 
  89      C3BDD37E 
  89      D9B93DAA 
  89      9BA5
  90 00c8 BAFE4554 		.ascii	"\272\376ET\033\245\200\261>3\3512\305\037\230\365v\243"
  90      1BA580B1 
  90      3E33E932 
  90      C51F98F5 
  90      76A3
  91 00da 736B9B6E 		.ascii	"sk\233n\226}\246! \365/\315\027B\257\367z\335\305\360"
  91      967DA621 
  91      20F52FCD 
  91      1742AFF7 
  91      7ADDC5F0 
  92 00ee 66C4F3EC 		.ascii	"f\304\363\354\322F%)\230\006\007\305C\223{\026d\360"
  92      D2462529 
  92      980607C5 
  92      43937B16 
ARM GAS  /tmp/cckr3qri.s 			page 7


  92      64F0
  93 0100 218E4388 		.ascii	"!\216C\210\006\020\246`E8D9\3048\214\020`\236\000q/"
  93      0610A660 
  93      45384439 
  93      C4388C10 
  93      609E0071 
  94 0115 27B898A4 		.ascii	"'\270\230\2445\371\\\024T\311_*\203\217h\006\330\022"
  94      35F95C14 
  94      54C95F2A 
  94      838F6806 
  94      D812
  95 0127 B534453E 		.ascii	"\2654E>\3054Z\234\345\014\012'\277\207\362\332\335\205"
  95      C5345A9C 
  95      E50C0A27 
  95      BF87F2DA 
  95      DD85
  96 0139 AE119058 		.ascii	"\256\021\220X\327]\024(?A\305\354\034\212}\260\327\306"
  96      D75D1428 
  96      3F41C5EC 
  96      1C8A7DB0 
  96      D7C6
  97 014b D01E78AA 		.ascii	"\320\036x\252\251\025l\014\337\207{%\255\2236Fr\210"
  97      A9156C0C 
  97      DF877B25 
  97      AD933646 
  97      7288
  98 015d BCDBA8B3 		.ascii	"\274\333\250\263\307S\350\356\225+\203{'\241o\225\253"
  98      C753E8EE 
  98      952B837B 
  98      27A16F95 
  98      AB
  99 016e 196CD18A 		.ascii	"\031l\321\2129\224\264\"\327*\317\245_2\250\312$\031"
  99      3994B422 
  99      D72ACFA5 
  99      5F32A8CA 
  99      2419
 100 0180 72D16BF5 		.ascii	"r\321k\365\035\376\224\032\022\177\215\377\251\216\177"
 100      1DFE941A 
 100      127F8DFF 
 100      A98E7F
 101 018f 533773BC 		.ascii	"S7s\274-R\257\005\352\226c\300\364\220_\346\016\373"
 101      2D52AF05 
 101      EA9663C0 
 101      F4905FE6 
 101      0EFB
 102 01a1 13219A73 		.ascii	"\023!\232s\252\255\000\033\246\252C\277\036\224\310"
 102      AAAD001B 
 102      A6AA43BF 
 102      1E94C8
 103 01b0 45780C1A 		.ascii	"Ex\014\032\272\246\353\207\000\264\327\276\223\013\013"
 103      BAA6EB87 
 103      00B4D7BE 
 103      930B0B
 104 01bf 5C68E5B1 		.ascii	"\\h\345\261\360\301Q\302{\340Z\217\036O\237\240\373"
 104      F0C151C2 
 104      7BE05A8F 
 104      1E4F9FA0 
ARM GAS  /tmp/cckr3qri.s 			page 8


 104      FB
 105 01d0 846B958F 		.ascii	"\204k\225\217\001!F\034\2170\332\007\267\003p\371A\345"
 105      0121461C 
 105      8F30DA07 
 105      B70370F9 
 105      41E5
 106 01e2 9C8F1D21 		.ascii	"\234\217\035!8\300;X\376\264\364\352F,\250n\274\016"
 106      38C03B58 
 106      FEB4F4EA 
 106      462CA86E 
 106      BC0E
 107 01f4 984109D5 		.ascii	"\230A\011\325II\300\317K\213\235\3700\360\364\0000\215"
 107      4949C0CF 
 107      4B8B9DF8 
 107      30F0F400 
 107      308D
 108 0206 06BCD94E 		.ascii	"\006\274\331N\017F\371\017\246U\351\315\355\366\011"
 108      0F46F90F 
 108      A655E9CD 
 108      EDF609
 109 0215 891CC61D 		.ascii	"\211\034\306\035\017G\335Jp1t\242I^,\006\356\013Jp\352"
 109      0F47DD4A 
 109      703174A2 
 109      495E2C06 
 109      EE0B4A70 
 110 022a 42DC7322 		.ascii	"B\334s\"\226O\222\232|\266z\326S4\276\2566\221}\231"
 110      964F929A 
 110      7CB67AD6 
 110      5334BEAE 
 110      36917D99 
 111 023e 8ECE0AFD 		.ascii	"\216\316\012\375\371\203&\220\253\374'n:\222\267/\235"
 111      F9832690 
 111      ABFC276E 
 111      3A92B72F 
 111      9D
 112 024f C9170E14 		.ascii	"\311\027\016\024\354\203\023W&\366gA]\310\026\247\247"
 112      EC831357 
 112      26F66741 
 112      5DC816A7 
 112      A7
 113 0260 543E7379 		.ascii	"T>syz\312,\0243\305\213\205\337^\236\372\361"
 113      7ACA2C14 
 113      33C58B85 
 113      DF5E9EFA 
 113      F1
 114              		.text
 115              		.section	.gnu.lto_si70x0_stop.c5189ec495287f61,"",%progbits
 116 0000 789C5D50 		.ascii	"x\234]P;\212\002A\024\254z=\343\032*F\233\231/\250\231"
 116      3B8A0241 
 116      14AC7A3D 
 116      E31A2A46 
 116      9B992FA8 
 117 0015 17F0080A 		.ascii	"\027\360\010\012n\250\203\014\035\230(\210\354\004\266"
 117      6EA8830C 
 117      1D982888 
 117      EC04B6
 118 0024 3F3034D6 		.ascii	"?04\326hS\003\275\202\027\330]\304\013x\216\331@_\217"
ARM GAS  /tmp/cckr3qri.s 			page 9


 118      685303BD 
 118      8217D85D 
 118      C40B788E 
 118      D9405F8F 
 119 0038 ACC83EA8 		.ascii	"\254\310>\250~\025T\325+Z \370?\257\212\263\242\244"
 119      7E1554D5 
 119      2B5A20F8 
 119      3FAF8AB3 
 119      A2A4
 120 004a A00165FD 		.ascii	"\240\001e\375\015L\363Bz\002b\"\234\2743\323\036\344"
 120      0D4CF342 
 120      7A026222 
 120      9CBC33D3 
 120      1EE4
 121 005c 78B95EF7 		.ascii	"x\271^\367\351\"5/d\237\032g\211@\031s\312\274(\304"
 121      E922352F 
 121      649F1A67 
 121      89401973 
 121      CABC28C4 
 122 0070 C2B97519 		.ascii	"\302\271u\031\2102KS_\237\323\242\370m\2760K\347\277"
 122      88324B53 
 122      5F9FD3A2 
 122      F86DBE30 
 122      4BE7BF
 123 0083 27D3E127 		.ascii	"'\323\341'C\304\224\004\037\032\361\206\235\323I,e\213"
 123      43C49404 
 123      1F1AF186 
 123      9DD3492C 
 123      658B
 124 0095 0D2D4D4C 		.ascii	"\015-ML\266u\007\331\335.\237\012\377`y\014\377\374"
 124      B67507D9 
 124      DD2E9F0A 
 124      FF60790C 
 124      FFFC
 125 00a7 B904A95B 		.ascii	"\271\004\251[\271\202e\030\361\256\322\320\230\201\325"
 125      B9826518 
 125      F1AED2D0 
 125      9881D5
 126 00b6 4638810F 		.ascii	"F8\201\017\341\335\334T\221\366\360\337Pl\014\354\250"
 126      E1DDDC54 
 126      91F6F0DF 
 126      506C0CEC 
 126      A8
 127 00c7 37185687 		.ascii	"7\030V\207\266^\033\327*\021nP\3535\251"
 127      B65E1BD7 
 127      2A116E50 
 127      EB35A9
 128              		.text
 129              		.section	.gnu.lto_si70x0_reset.c5189ec495287f61,"",%progbits
 130 0000 789C6362 		.ascii	"x\234cb`b@\007\222@l\310\310\300 \014\244\031\231\031"
 130      60624007 
 130      92406CC8 
 130      C8C0200C 
 130      A4199919 
 131 0014 1899269C 		.ascii	"\030\231&\234c`h\344`bd\0041\030\030\031\352\231\030"
 131      636068E4 
 131      60626404 
ARM GAS  /tmp/cckr3qri.s 			page 10


 131      31181819 
 131      EA9918
 132 0027 EB2319C1 		.ascii	"\353#\031\301j\3273\035x\360\377\377\272y\255\257X\331"
 132      6AD7331D 
 132      78F0FFFF 
 132      BA79ADAF 
 132      58D9
 133 0039 99187319 		.ascii	"\231\030s\031\031X\0302\031\031\330\200\004H\236\225"
 133      19581832 
 133      1919D880 
 133      04489E95 
 134 0049 A1A5A161 		.ascii	"\241\245\241a\202\002\003C2Xu\010\220\004\031\021\312"
 134      82020343 
 134      32587508 
 134      90041911 
 134      CA
 135 005a C804A299 		.ascii	"\310\004\242\231\31724\355\2301M,\221q!#+\203.\303\232"
 135      CF3234ED 
 135      98314D2C 
 135      91712123 
 135      2B832EC3 
 136 006f 062008CC 		.ascii	"\006 \010\314dd\322fX\005b\362f22\317f\230\305\230\311"
 136      6464D266 
 136      580562F2 
 136      663232CF 
 136      6698C598 
 137 0084 C892CEC8 		.ascii	"\310\222\316\310\024\001\244Y\301v&A\254f\000\211\260"
 137      1401A459 
 137      C1762641 
 137      AC660089 
 137      B0
 138 0095 C15D0DE2 		.ascii	"\301]\015\3421\375\003I\001\215\375\325\374\376\022"
 138      31FD0349 
 138      018DFDD5 
 138      FCFE12
 139 00a4 0BC4DC74 		.ascii	"\013\304\334tF\226j\206*\240\243\240\246\316\006\252"
 139      46966A86 
 139      2AA0A3A0 
 139      A6CE06AA 
 140 00b4 63C76E2C 		.ascii	"c\307n,#\"\014\3163\264\035`\205\031\300V\315\360\253"
 140      23220CCE 
 140      33B41D60 
 140      8519C056 
 140      CDF0AB
 141 00c7 A1A34120 		.ascii	"\241\243A \223\221#\031\252\010h*\330BF\210\275\014"
 141      93912319 
 141      AA08682A 
 141      D8424688 
 141      BD0C
 142 00d9 400F7332 		.ascii	"@\017s20\\d`\204\353\201\230\023\002T\017\364*(\220"
 142      305C6460 
 142      84EB8198 
 142      1302540F 
 142      F42A2890 
 143 00ed 055D8A32 		.ascii	"\005]\2122\313R\213\212\365\2133\315\015*\014\364\222"
 143      CB528B8A 
 143      F58B33CD 
ARM GAS  /tmp/cckr3qri.s 			page 11


 143      0D2A0CF4 
 143      92
 144 00fe 1900A98E 		.ascii	"\031\000\251\216Fw"
 144      4677
 145              		.text
 146              		.section	.gnu.lto_si70x0_setResolution.c5189ec495287f61,"",%progbits
 147 0000 789CA553 		.ascii	"x\234\245S\315KTQ\024?\347\316\214\357k\306\0324\"\""
 147      CD4B5451 
 147      143FE7CE 
 147      8CEF6BC6 
 147      1A342222 
 148 0014 112924A4 		.ascii	"\021)$\244t\023\375\003\375\003}\010\331&F\033\206\007"
 148      7413FD03 
 148      FD037D08 
 148      D926461B 
 148      8607
 149 0026 B9993746 		.ascii	"\271\2317F\345\302\253#\341\"c\220\026Q\024\212H\020"
 149      E5C2AB23 
 149      E1226390 
 149      1651148A 
 149      4810
 150 0038 565004A9 		.ascii	"VP\004\251D\023\204\030\331\327\246\017t1\233\024\242"
 150      44138418 
 150      D9D7A60F 
 150      74319B14 
 150      A2
 151 0049 5D1B9168 		.ascii	"]\033\221h:\347\336\373fF\231\210\350\301{\347\336{"
 151      3AE7DEFB 
 151      66469988 
 151      E8C17BE7 
 151      DE7B
 152 005b CEF99DDF 		.ascii	"\316\371\235\3379\277\373\004\010\330\376\234\244w%"
 152      39BFFB04 
 152      08D8FE9C 
 152      A47725
 153 006a 0AD04116 		.ascii	"\012\320A\026\023\200\242\360\026`\330\026\302\035k"
 153      1380A2F0 
 153      1660D816 
 153      C21D6B
 154 0079 0719F5F8 		.ascii	"\007\031\365\370+\\\264\370\030=c-a\317\267\200t\235"
 154      2B5CB4F8 
 154      183D632D 
 154      61CFB780 
 154      749D
 155 008b 8F9D20E3 		.ascii	"\217\235 \3436::\311A\344\005 \014\011\327\263h?\324"
 155      363A3AC9 
 155      41E40520 
 155      0C09D7B3 
 155      683FD4
 156 009e 835C24D2 		.ascii	"\203\\$\322\006SRN\224\276\256\\\333-K\262 \177\225"
 156      0653524E 
 156      94BEAE5C 
 156      DB2D4BB2 
 156      207F95
 157 00b1 CBE823D1 		.ascii	"\313\350#\321iF\350C8M\033\264\225\021\270\225\237\312"
 157      6946E843 
 157      384D1BB4 
ARM GAS  /tmp/cckr3qri.s 			page 12


 157      9511B895 
 157      9FCA
 158 00c3 2C14E716 		.ascii	",\024\347\026\307\367\310\311\22103\"`_5\263UgF\353"
 158      C7F7C8C9 
 158      91303322 
 158      605F35B3 
 158      556746EB 
 159 00d7 644E149F 		.ascii	"dN\024\237/^\337Vs\377\337j>\024\305R\271\374\375\376"
 159      2F5EDF56 
 159      73FFDF6A 
 159      3E14C552 
 159      B9FCFDFE 
 160 00eb FB4FB80B 		.ascii	"\373O\270\013!\205S\330Fi)\234&\033\305~\204\2309\264"
 160      218553D8 
 160      4669299C 
 160      261BC57E 
 160      849839B4 
 161 00ff 68830EF8 		.ascii	"h\203\016\370\030\365\214;Nv\206l\302\330Fc\223&\243"
 161      18F58C3B 
 161      4E76866C 
 161      C2D84663 
 161      9326A3
 162 0112 C9C43553 		.ascii	"\311\3045SR\214J\305`\224\332k\325N\355\002fG\317)\372"
 162      528C4AC5 
 162      6094DA6B 
 162      D54EED02 
 162      6647CF29 
 163 0127 F238BB51 		.ascii	"\3628\273Q\260\215\274\201\221;\007\0002\330\234Aju"
 163      B08DBC81 
 163      913B0700 
 163      32D89C41 
 163      6A75
 164 0139 0946D792 		.ascii	"\011F\327\222j\313-\304\"5\374\273\321\205\261v|M\222"
 164      6ACB2DC4 
 164      2235FCBB 
 164      D185B176 
 164      7C4D92
 165 014c 009CA374 		.ascii	"\000\234\243t\240\334\247\202\203c\034\\\023\350\325"
 165      A0DCA782 
 165      83631C5C 
 165      13E8D5
 166 015b 064654E0 		.ascii	"\006FT\340\252\012L\036\202Y)\345N\212\276\0057\207"
 166      AA0A4C1E 
 166      825929E5 
 166      4E8ABE05 
 166      3787
 167 016d 0BBC6A18 		.ascii	"\013\274j\030\204My\203WV?SP\303\263\024\022\321\330"
 167      844D7983 
 167      57563F53 
 167      50C3B314 
 167      12D1D8
 168 0180 32C26E3A 		.ascii	"2\302n:g\322!4\365\032.\0334\235\215\265\222H\341]\362"
 168      67D22134 
 168      F51A2E1B 
 168      349D8DB5 
 168      9248E15D 
 169 0195 E84AF238 		.ascii	"\350J\3628\225\352\200{\274LP-\252J\350v\006-\256\342"
ARM GAS  /tmp/cckr3qri.s 			page 13


 169      95EA807B 
 169      BC4C502D 
 169      AA4AE876 
 169      062DAEE2 
 170 01a9 28D45E43 		.ascii	"(\324^C\235O\334J-\325\322:\273\010w3\377\343\352\031"
 170      9D4FDC4A 
 170      2DD5D23A 
 170      BB087733 
 170      FFE3EA19 
 171 01bd 8D9B4167 		.ascii	"\215\233Ag\020.\2238\006\365\031\305y\365ak.\300;\270"
 171      102E9338 
 171      06F519C5 
 171      79F5616B 
 171      2EC03BB8 
 172 01d1 52DC1B02 		.ascii	"R\334\033\002x\334\361\030w\034\3573A\204\252\012\352"
 172      78DCF118 
 172      771CEF33 
 172      4184AA0A 
 172      EA
 173 01e2 1B44C6A7 		.ascii	"\033D\306\247\337\206\324x\271\376ba1RIdgc\025\365\013"
 173      DF86D478 
 173      B9FE6261 
 173      31524964 
 173      676315F5 
 174 01f7 200DDFA5 		.ascii	" \015\337\245O\322C\036\217\015\363-,\351\352\306\372"
 174      4FD2431E 
 174      8F0DF32D 
 174      2CE9EAC6 
 174      FA
 175 0208 92A8DC82 		.ascii	"\222\250\334\202\031\245\277\006Q\265\342f8\267\261"
 175      19A5BF06 
 175      51B5E266 
 175      38B7B1
 176 0217 3A9D4B3E 		.ascii	":\235K>\356\250\337\206\2503\035\236J~!?=~0\205\217"
 176      EEA8DF86 
 176      A8331D9E 
 176      4A7E213F 
 176      3D7E3085 
 177 022c 14B704C1 		.ascii	"\024\267\004\301*\356?\365\314\362s\371\231D\350lT~"
 177      2AEE3FF5 
 177      CCF273F9 
 177      9944E86C 
 177      547E
 178 023e D41A7DFE 		.ascii	"\324\032}\376V\214h\207\241\321Seq\344\3375Z3\032\275"
 178      568C6887 
 178      A1D15365 
 178      71E4DF35 
 178      5A331ABD 
 179 0252 DAF85FDC 		.ascii	"\332\370_\334\212^\031\0362IV\232\315\273a\013M\177"
 179      8A5E191E 
 179      3249569A 
 179      CDBB610B 
 179      4D7F
 180 0264 164D80B9 		.ascii	"\026M\200\271\377J4}Q\035uQ?\300p\351\3014\206\372\011"
 180      FF4A347D 
 180      511D7551 
 180      3FC070E9 
ARM GAS  /tmp/cckr3qri.s 			page 14


 180      C13486FA 
 181 0279 2D9A2025 		.ascii	"-\232 %\255\345\307\347\011\324^~2\211\374W\"\307\263"
 181      ADE5C7E7 
 181      09D45E7E 
 181      3289FC57 
 181      22C7B3
 182 028c 3F792CEB 		.ascii	"?y,\353_Hg\203\316\300?\332u\261\353p\037\330\331tp"
 182      5F486783 
 182      CEC03FDA 
 182      75B1EB70 
 182      1FD8D974 
 183 02a1 B6D7CF05 		.ascii	"\266\327\317\005\015A.\225\033\010\254\201 \235=\221"
 183      0D412E95 
 183      1B08AC81 
 183      209D3D91 
 184 02b1 CEFC0659 		.ascii	"\316\374\006Y\011\035\255"
 184      091DAD
 185              		.text
 186              		.section	.gnu.lto_si70x0_init.c5189ec495287f61,"",%progbits
 187 0000 789C8D92 		.ascii	"x\234\215\222Ah\023Q\020\206g\336\333lv\263i\233j[\361"
 187      41681351 
 187      108667DE 
 187      DB6C76B3 
 187      699B6A5B 
 188 0015 22A5576D 		.ascii	"\"\245WmMU\020<\025\364\342\271-\304\203\207\030Bx\207"
 188      4D55103C 
 188      15F4E2B9 
 188      2DC48387 
 188      18427887 
 189 0029 444854C4 		.ascii	"DHT\304\036\372\322Z\214\036d\321\203\245\"XKiiC=x\361"
 189      1EFAD25A 
 189      8C1E64D1 
 189      83A52258 
 189      4B696943 
 190 0040 520CDE2C 		.ascii	"R\014\336,T\361\350m\217\202\036<\211\024q\235\367\336"
 190      54F1E86D 
 190      8F821E3C 
 190      8914719D 
 190      F7DE
 191 0052 6E4D620E 		.ascii	"nMb\016\035\310\233\267\231\371\277\2317\014\003\006"
 191      1DC89BB7 
 191      99F9BF99 
 191      370C0306 
 192 0062 DD76927E 		.ascii	"\335v\222~\0179\300%\362\310\001\231\377\021\240\356"
 192      0F39C025 
 192      F2C80199 
 192      FF11A0EE 
 193 0072 30447501 		.ascii	"0Du\001\204y\206\363\327P\245\3621X\225\362I\260\264"
 193      847986F3 
 193      D750A5F2 
 193      315895F2 
 193      49B0B4
 194 0085 F7F8C4A3 		.ascii	"\367\370\304\243@\372\362O\030\242@\202\016!\024\020"
 194      40FAF24F 
 194      18A24082 
 194      0E211410 
 195 0095 72F4818E 		.ascii	"r\364\201\216v\014;\253\030\245\334\331\\\340/\345\357"
ARM GAS  /tmp/cckr3qri.s 			page 15


 195      760C3BAB 
 195      18A5DCD9 
 195      5CE02FE5 
 195      EF
 196 00a6 30E45A36 		.ascii	"0\344Z6\332SV\306N]\313o\275\373\352\220\272\376#\014"
 196      DA5356C6 
 196      4E5DCB6F 
 196      BDFBEA90 
 196      BAFE230C 
 197 00ba 07047206 		.ascii	"\007\004r\006g\376\011sF\350u\326{\315ZA\030~_\363G"
 197      67FE0973 
 197      46E875D6 
 197      7BCD5A41 
 197      187E5FF3 
 198 00cf 321CF2B8 		.ascii	"2\034\362\270\212c`\221_#o\203@\313\3012\242K\267D\212"
 198      8A636091 
 198      5F236F83 
 198      40CBC132 
 198      A24BB744 
 199 00e4 0EDBA323 		.ascii	"\016\333\243#\231\246\377\324|\022p_J\1774\217\353\224"
 199      99A6FFD4 
 199      7C12705F 
 199      4A7F348F 
 199      EB94
 200 00f6 0DAA10D9 		.ascii	"\015\252\020\331\014\235j \263\224B\236\357\303\302"
 200      0C9D6A20 
 200      B394429E 
 200      EFC3C2
 201 0105 EEAF077D 		.ascii	"\356\257\007}y\334\300\004\230\324S0\371B.OQ\203\224"
 201      79DCC004 
 201      98D45330 
 201      F9422E4F 
 201      518394
 202 0118 4FF10FCB 		.ascii	"O\361\017\313{\375&^B\376\034V\352Rf\004:sp \033\352"
 202      7BFD265E 
 202      42FE1C56 
 202      EA526604 
 202      3A737020 
 203 012e E69A87AA 		.ascii	"\346\232\207\252\366\335\250\355}Xl\360Xc\221L\005\035"
 203      F6DDA8ED 
 203      7D586CF0 
 203      5863914C 
 203      051D
 204 0140 34BCAB26 		.ascii	"4\274\253&p\024\022\211\273`v\004\263\262\035\260qh"
 204      70141289 
 204      BB607604 
 204      B3B21DB0 
 204      7168
 205 0152 4AB2F314 		.ascii	"J\262\363\0240\217P9\251d<F\322\351\354\203\305\355"
 205      308F5039 
 205      A9643C46 
 205      D2E9EC83 
 205      C5ED
 206 0164 2F2C46B9 		.ascii	"/,F\271sp\217\006w\032\266\224\364\272@\217Z\"Y\272"
 206      73708F06 
 206      771AB694 
 206      F4BA408F 
ARM GAS  /tmp/cckr3qri.s 			page 16


 206      5A2259BA 
 207 0178 848E92F7 		.ascii	"\204\216\222\367i\351\215\366\015\320\210W\351\230\220"
 207      69E98DF6 
 207      0DD08857 
 207      E99890
 208 0187 D2043B22 		.ascii	"\322\004;\"<\265\005\366\367F`\027\342\347!\302\323"
 208      3CB505F6 
 208      F7466017 
 208      E2E721C2 
 208      D3
 209 0198 886484D8 		.ascii	"\210d\204\330%\304@oD\333\306\177\202\025\3716a\010"
 209      25C4406F 
 209      44DBC67F 
 209      8215F936 
 209      6108
 210 01aa 0087D3CB 		.ascii	"\000\207\323\313\024\242:\364\264\022\246\365\310\247"
 210      14A23AF4 
 210      B412A6F5 
 210      C8A7
 211 01b8 54975445 		.ascii	"T\227TE}\0146\231N&{\226\024x\314\014*\302\010<\256"
 211      7D0C3699 
 211      4E267B96 
 211      1478CC0C 
 211      2AC2083C 
 212 01cd C04BC176 		.ascii	"\300K\301v\365?\360P!\252\036\2654\314(}D=\345\3757"
 212      F53FF050 
 212      21AA1EB5 
 212      34CC287D 
 212      443DE5FD 
 213 01e2 D6BE3917 		.ascii	"\326\2769\027\340\215l\240Y\234\317P\017\232,f\031\233"
 213      E08D6CA0 
 213      599CCF50 
 213      0F9A2C66 
 213      199B
 214 01f4 A10669E9 		.ascii	"\241\006i\351\024l\360JU\334)Vkgk\342b\366nv\242\000"
 214      146CF04A 
 214      55DC2956 
 214      6B676BE2 
 214      62F66E76 
 215 020a 5EAD58A9 		.ascii	"^\255X\251]\276y\273rk\"\333v?gU\362\345\242;\255\323"
 215      5DBE79BB 
 215      726B22DB 
 215      763F6755 
 215      F2E5A23B 
 216 0220 C673F017 		.ascii	"\306s\360\027\357v\327\002"
 216      EF76D702 
 217              		.text
 218              		.section	.gnu.lto_si70x0_heaterEnable.c5189ec495287f61,"",%progbits
 219 0000 789CA553 		.ascii	"x\234\245S\317k\023Q\020\236y\3733?\266\032\024z(\226"
 219      CF6B1351 
 219      109E79FB 
 219      333FB61A 
 219      147A2896 
 220 0014 928B07A9 		.ascii	"\222\213\007\251\351E<\2107\377\001\245\005\353-\306"
 220      E9453C88 
 220      37FF01A5 
 220      05EB2DC6 
ARM GAS  /tmp/cckr3qri.s 			page 17


 221 0024 1016EA25 		.ascii	"\020\026\352%iE\355\241\257&H\205P\202\010\242\245\320"
 221      6945EDA1 
 221      AF264885 
 221      508208A2 
 221      A5D0
 222 0036 12BC68C5 		.ascii	"\022\274h\305\213\207\204ZH\241\222\212\250\210=T\360"
 222      8B87845A 
 222      48A1928A 
 222      A8883D54 
 222      F0
 223 0047 B0205811 		.ascii	"\260 X\021\021\254\007C,\306y\273o7I\211\007\361Av\336"
 223      11AC0743 
 223      2CC679BB 
 223      6F374989 
 223      07F14176 
 224 005c EC7C33F3 		.ascii	"\354|3\363\3157\033\006\014\366\237K\364\233P\001\342"
 224      CD371B06 
 224      0CF69F4B 
 224      F49B5001 
 224      E2
 225 006d 643104C8 		.ascii	"d1\004\310J\257\001fM\306\224\255\004\360\260\371l\020"
 225      4AAF0166 
 225      4DC694AD 
 225      04F0B0F9 
 225      6C10
 226 007f 785461EA 		.ascii	"xTa\352\334Q\3624\361\214\252\250{ \315\277\350\314"
 226      DC51F234 
 226      F18CAAA8 
 226      7B20CDBF 
 226      E8CC
 227 0091 E8401B68 		.ascii	"\350@\033hz\257MDq\001\204\031\246\250\232n\23083\216"
 227      7AAF4D44 
 227      71018419 
 227      A6A89A6E 
 227      9838338E 
 228 00a5 A22B8BC3 		.ascii	"\242+\213\3032\347%\347\371\3566\336\343\265\302\022"
 228      32E725E7 
 228      F9EE36DE 
 228      E3B5C212 
 229 00b5 DF6BB510 		.ascii	"\337k\265\020m$\206\207\021R\010\347\311\301!\3270\265"
 229      6D248687 
 229      115208E7 
 229      C9C121D7 
 229      30B5
 230 00c7 9BB29B7B 		.ascii	"\233\262\233{\273\266P\277\323\317\035^\342\277)\325"
 230      BBB650BF 
 230      D3CF1D5E 
 230      E2BF29D5 
 231 00d7 4685C140 		.ascii	"F\205\301@;\323\3642\261;\363\011\2539\255V\261Zh\016"
 231      3BD3F432 
 231      B13BF309 
 231      AB39AD56 
 231      B15A680E 
 232 00eb 1E4248E2 		.ascii	"\036BH\3422\306\251a\022\313d5\274\214`\200\215jHF\302"
 232      32C6A961 
 232      12CB6435 
 232      BC8C6080 
ARM GAS  /tmp/cckr3qri.s 			page 18


 232      8D6A4846 
 233 0100 3212A108 		.ascii	"2\022\241\010F\245cI\033\223 :\032\024h\226!\337O\271"
 233      46A56349 
 233      1B93203A 
 233      1A146896 
 233      21DF4FB9 
 234 0114 4D47E929 		.ascii	"MG\351)\206\037C&\254\362\012nT*\273\016K\342\003\324"
 234      861F4326 
 234      ACF20A6E 
 234      542ABB0E 
 234      4BE203D4 
 235 0128 60185638 		.ascii	"`\030V8\235\263D\373\030<\024W\313Fm\001\356\023i=\203"
 235      9DB344FB 
 235      183C1457 
 235      CB466D01 
 235      EE13693D 
 236 013d 9A206FB8 		.ascii	"\232 o\270\224/\312\021\304\0333\030Dx\312\216\010Q"
 236      942FCA11 
 236      C41B3318 
 236      4478CA8E 
 236      0851
 237 014f DD66FED1 		.ascii	"\335f\376\321\374\005\257n\006\215i\270N3\310\252k\204"
 237      FC05AF6E 
 237      068D69B8 
 237      4E33C8AA 
 237      6B84
 238 0161 0BF52EDB 		.ascii	"\013\365.\333!\315\033\270Y\033\360\013\204\246\241"
 238      21CD1BB8 
 238      591BF00B 
 238      84A6A1
 239 0170 C9E7F841 		.ascii	"\311\347\370A\033\303)\011\242\252nCO[26F\0006acg\375"
 239      1BC32909 
 239      A2AA6E43 
 239      4F5B3236 
 239      46003661 
 240 0187 6E5D0912 		.ascii	"n]\011\022E0\332)\367\030*\260\225\020\243\177\250\374"
 240      4530DA29 
 240      F7182AB0 
 240      9510A37F 
 240      A8FC
 241 0199 D864814E 		.ascii	"\330d\201NeW'/\317-\037\226z,b[\220k6Z\275\231\263\036"
 241      6557272F 
 241      CF2D1F96 
 241      7A2C625B 
 241      906B365A 
 242 01b1 82083A85 		.ascii	"\202\010:\205\257\353\213u+\211\217]:\021\001\350\353"
 242      AFEB8B75 
 242      2B898F5D 
 242      3A1101E8 
 242      EB
 243 01c2 A6A3C297 		.ascii	"\246\243\302\227~\242\223\257\346?\316\017\373\300("
 243      7EA293AF 
 243      E63FCE0F 
 243      FBC028
 244 01d1 F517D803 		.ascii	"\365\027\330\003j\200\323$n5\377\275\317\207Y\022\246"
 244      6A80D324 
 244      6E35FFBD 
ARM GAS  /tmp/cckr3qri.s 			page 19


 244      CF875912 
 244      A6
 245 01e2 FCC200A7 		.ascii	"\374\302\000\247\313\361*\333?k\212\007\224\223\214"
 245      CBF12ADB 
 245      3F6B8A07 
 245      94938C
 246 01f1 B70739F1 		.ascii	"\267\0079\361\357\233\375$7\373\242\361\277u\203-g\204"
 246      EF9BFD24 
 246      37FBA2F1 
 246      BF75832D 
 246      6784
 247 0203 6CB468E7 		.ascii	"l\264h\347s>\354\217\024\373\373\252\231G\004:V\375"
 247      733EEC8F 
 247      14FBFBAA 
 247      9947043A 
 247      56FD
 248 0215 AEAD6D6C 		.ascii	"\256\255ml\337\252\337\003#\035\325\342\352S$\241\264"
 248      DFAADF03 
 248      231DD5E2 
 248      EA5324A1 
 248      B4
 249 0226 8D53421C 		.ascii	"\215SB\034\003n\035\021\342\274l4\033\314\313\224\314"
 249      036E1D11 
 249      E2BC6C34 
 249      1BCCCB94 
 249      CC
 250 0237 4FD3627A 		.ascii	"O\323bz3W$\211\210\257\260\351\376y\336\302\254\363"
 250      33572489 
 250      88AFB0E9 
 250      FE79DEC2 
 250      ACF3
 251 0249 AD8CFE97 		.ascii	"\255\214\376\227\206^O\352\025b+\325\011\342\243\027"
 251      865E4FEA 
 251      15622BD5 
 251      09E2A317 
 252 0259 D796C88D 		.ascii	"\327\226\310\215\211:\243\024\247$\361\225\304\316d"
 252      893AA314 
 252      A724F195 
 252      C4CE64
 253 0268 ED2BE96C 		.ascii	"\355+\351l.\221\263O\216\\\0359\236\002=7\231\234\234"
 253      2E91B34F 
 253      8E5C1D39 
 253      9E023D37 
 253      999C9C
 254 027b CA1953B9 		.ascii	"\312\031S\271t\366\\:\363\007V\346\015\373"
 254      74F65C3A 
 254      F30756E6 
 254      0DFB
 255              		.text
 256              		.section	.gnu.lto_si70x0_setHeaterCurrent.c5189ec495287f61,"",%progbits
 257 0000 789CA590 		.ascii	"x\234\245\220=K\003A\020\206\337w\357\316\313\005D\305"
 257      3D4B0341 
 257      1086DF77 
 257      EFCECB05 
 257      44C5
 258 0012 CACEDEAF 		.ascii	"\312\316\336\257t\376\001\033\355\002\021\264\324C\302"
 258      74FE011B 
ARM GAS  /tmp/cckr3qri.s 			page 20


 258      ED0211B4 
 258      D443C2
 259 0021 16360988 		.ascii	"\0266\011\210\230\"kN\304\302\342\212T\212\240v~`\332"
 259      98226B4E 
 259      C4C2E28A 
 259      548AA076 
 259      7E60DA
 260 0034 804D6A21 		.ascii	"\200Mj!\212\377@\377F\2328\273\227\273B\354\\\330\231"
 260      8AFF40FF 
 260      469A38BB 
 260      97BB42EC 
 260      5CD899
 261 0047 B99B799F 		.ascii	"\271\233y\237\231\035\005\205\337gA\356\003\201y\361"
 261      991D0585 
 261      DF6741EE 
 261      038179F1 
 262 0057 F44095BE 		.ascii	"\364@\225\276\003\247%E\332\000D[\261\275KW\333S\203"
 262      03A72545 
 262      DA00445B 
 262      B1BD4B57 
 262      DB5383
 263 006a AFF1F825 		.ascii	"\257\361\370%}\273\275\244*+\036\022\276\030\006\320"
 263      7DBBBDA4 
 263      2A2B1E12 
 263      BE1806D0 
 264 007a 44288691 		.ascii	"D(\206\221\030\333#\300\2311\351\"\020;eM\254\305mK"
 264      18DB23C0 
 264      9931E922 
 264      103B654D 
 264      ACC56D4B 
 265 008e 52BC3744 		.ascii	"R\2747D\247\337\277\377V{\274\023\361\012\236\215\234"
 265      A7DFBFFF 
 265      567BBC13 
 265      F10A9E8D 
 265      9C
 266 009f AAA6B784 		.ascii	"\252\246\267\204G\033Nk\372\327\270\242fP\247\332\021"
 266      471B4E6B 
 266      FAD7B8A2 
 266      6650A7DA 
 266      11
 267 00b0 3FE506D8 		.ascii	"?\345\006\330\317\346\200\375\023\026O\260_^U\202!\222"
 267      CFE680FD 
 267      13164FB0 
 267      5F5E5582 
 267      2192
 268 00c2 D7E4A9BB 		.ascii	"\327\344\251\273\234a\353V\354\273\344\214Kv6\377\325"
 268      9C61EB56 
 268      ECBBE48C 
 268      4B7636FF 
 268      D5
 269 00d3 8F793F01 		.ascii	"\217y?\001;\334(\351u\267\362^a\013'\262\200\011\360"
 269      3BDC28E9 
 269      75B7F25E 
 269      610B27B2 
 269      8009F0
 270 00e6 4604A5BF 		.ascii	"F\004\245\277\211\005\006\370\300\371 \310\001Q\013"
 270      890506F8 
ARM GAS  /tmp/cckr3qri.s 			page 21


 270      C0F920C8 
 270      01510B
 271 00f5 23736166 		.ascii	"#saf5\243xR$T7\276\312\236\010Yn\031\370\004\013M\306"
 271      35A37852 
 271      245437BE 
 271      CA9E0859 
 271      6E19F804 
 272 010c A949BDAC 		.ascii	"\251I\275\254\325.~n\243\241\217\016\032\315\265\246"
 272      D52E7E6E 
 272      A3A18F0E 
 272      1ACDB5A6 
 273 011c 5EAF1C57 		.ascii	"^\257\034WVc\374\000}Y]/"
 273      5663FC00 
 273      7D595D2F 
 274              		.text
 275              		.section	.gnu.lto_si70x0_readTemperature.c5189ec495287f61,"",%progbits
 276 0000 789C6D90 		.ascii	"x\234m\220\273JCA\020\206\377\177\317&&\361\202\202"
 276      BB4A4341 
 276      1086FF7F 
 276      CF2626F1 
 276      8282
 277 0012 958288AD 		.ascii	"\225\202\210\255h\264\362\005|\001!\202\332\305 \341"
 277      68B4F205 
 277      7C012182 
 277      DAC520E1 
 278 0022 14364645 		.ascii	"\0246FEL\341F\243X\246\260Q\033\203\210 \202m@\213\010"
 278      4CE146A3 
 278      58A6B051 
 278      1B838820 
 278      826D408B 
 279 0037 1612D010 		.ascii	"\026\022\320\020\264P\020\211\210\370\016\"\034gs\222"
 279      B4501089 
 279      88F80E22 
 279      1C677392 
 280 0047 78C18173 		.ascii	"x\301\201sfw.\337\374;\012\012\177mT\276g\002=\342\031"
 280      66772EDF 
 280      FC3B0A0A 
 280      7F6D54BE 
 280      67023DE2 
 281 005c 0055EE16 		.ascii	"\000U\356\026\310\204\224r\356\2430\021}\321\007\323"
 281      C8849472 
 281      EEA33011 
 281      7DD107D3 
 282 006c E650DB30 		.ascii	"\346P\33305i=\2105\345h\256M\323\"8\200\2741\271\352"
 282      35693D88 
 282      35E568AE 
 282      4DD32238 
 282      80BC31B9 
 283 0081 DBF12377 		.ascii	"\333\361#wM1{`>=\217t)\343\272\211\0041%\027\366\327"
 283      4D317B60 
 283      3E3D8F74 
 283      29E3BA89 
 283      04312517 
 284 0097 9CD2BFE7 		.ascii	"\234\322\277\347\237\251b\325\363\236\356\262\245\301"
 284      9FA962D5 
 284      F39EEEB2 
 284      A5C1
ARM GAS  /tmp/cckr3qri.s 			page 22


 285 00a5 88E23CA1 		.ascii	"\210\342<\241\341\322\011\"\316\274p\303\022\2613\002"
 285      E1D20922 
 285      CEBC70C3 
 285      12B13302 
 286 00b5 C8CA847E 		.ascii	"\310\312\204~?\010\213\024\213\311\337\312\231\244\262"
 286      3F088B14 
 286      8BC9DFCA 
 286      99A4B2
 287 00c4 DEB9C17A 		.ascii	"\336\271\301z\341\341\370E\305y(/\031\302\251\021\233"
 287      E1E1F845 
 287      C579282F 
 287      19C2A911 
 287      9B
 288 00d5 70A90771 		.ascii	"p\251\007qb\217\355.\003\373\330\023\021\301$\225\025"
 288      628FED2E 
 288      03FBD813 
 288      11C12495 
 288      15
 289 00e6 D3529330 		.ascii	"\323R\2230K_\212\215\204\232\302\354M\277\332\224p?"
 289      4B5F8A8D 
 289      849AC2EC 
 289      4DBFDA94 
 289      703F
 290 00f8 36BC9D19 		.ascii	"6\274\235\031\237\233\244NcU4\326\251\347R\027\376\037"
 290      9F9BA44E 
 290      635534D6 
 290      A9E75217 
 290      FE1F
 291 010a CBEF6796 		.ascii	"\313\357g\226\261U\354m\000\202i|\230m\323\3512\222"
 291      B155EC6D 
 291      0082697C 
 291      986DD3E9 
 291      3292
 292 011c A81709B5 		.ascii	"\250\027\011\2656\320\337\225V\262\204V\340\032W\357"
 292      36D0DF95 
 292      56B28456 
 292      E01A57EF 
 293 012c 979592D3 		.ascii	"\227\225\222\323l\264\311\266\237\353\233\244\203\373"
 293      6CB4C9B6 
 293      9FEB9BA4 
 293      83FB
 294 013a A853C666 		.ascii	"\250S\306f\310/\002\232\360\366\004U\035\256\222\014"
 294      C82F029A 
 294      F0F60455 
 294      1DAE920C 
 295 014a BBEC68F4 		.ascii	"\273\354h\364\350\332\276*\310T\013Gl\302\375lL\024"
 295      E8DABE2A 
 295      C8540B47 
 295      6CC2FD6C 
 295      4C14
 296 015c 49D67676 		.ascii	"I\326vv\215/\270\313s\013\251h\312\035\033Y\031\031"
 296      8D2FB8CB 
 296      730BA968 
 296      CA1D1B59 
 296      1919
 297 016e 4E20985A 		.ascii	"N \230Z\214/.\245\276\000\241\356u\350"
 297      8C2F2EA5 
ARM GAS  /tmp/cckr3qri.s 			page 23


 297      BE00A1EE 
 297      75E8
 298              		.text
 299              		.section	.gnu.lto_si70x0_readHumidity.c5189ec495287f61,"",%progbits
 300 0000 789C6D90 		.ascii	"x\234m\220\275K\202Q\024\306\237\347\276WS\263(h*\010"
 300      BD4B8251 
 300      14C69FE7 
 300      BE5753B3 
 300      28682A08 
 301 0014 698DD4A6 		.ascii	"i\215\324\246\376\201\376\201\240\240\332LB\336\241"
 301      FE81FE81 
 301      A0A0DA4C 
 301      42DEA1
 302 0023 252DA286 		.ascii	"%-\242\206n\245\321\330\024TK\021-!\004\271\0045\030"
 302      6EA5D1D8 
 302      14544B11 
 302      2D2104B9 
 302      043518
 303 0036 34045112 		.ascii	"4\004Q\022\270\264\204\015\321\324\322\024\022\330\271"
 303      B8B4840D 
 303      D1D4D214 
 303      12D8B9
 304 0045 BE6A1F74 		.ascii	"\276j\037t\340}\317\275\347\343w\236{\024\024\376\332"
 304      E07DCFBD 
 304      E7E3779E 
 304      7B1414FE 
 304      DA
 305 0056 B07C4F04 		.ascii	"\260|O\004z\305\323\007\252\355{`-\240\224S\216\301"
 305      7AC5D307 
 305      AAED7B60 
 305      2DA09453 
 305      8EC1
 306 0068 84F4653F 		.ascii	"\204\364e?L\330\241\266aj\322z\020\253\312\321\\\235"
 306      4CD8A1B6 
 306      616AD27A 
 306      10ABCAD1 
 306      5C9D
 307 007a A2457000 		.ascii	"\242Ep\000\207\306lWr\205G\356\232b\366\300|\326j\244"
 307      87C66C57 
 307      728547EE 
 307      9A62F6C0 
 307      7CD66AA4 
 308 008e 4B19D743 		.ascii	"K\031\327C$\211I\2710RwJ\377\236\177\252\212\225Z-\377"
 308      248949B9 
 308      3052774A 
 308      FF9E7FAA 
 308      8A955A2D 
 309 00a3 987D8F86 		.ascii	"\230}\217\206\024\347\010\015\227\216\037\011\036\012"
 309      14E7080D 
 309      978E1F09 
 309      1E0A
 310 00b1 3728113B 		.ascii	"7(\021;\303\207\254L\210xAX\244\330\270\374\255\234"
 310      C387AC4C 
 310      88784158 
 310      A4D8B8FC 
 310      AD9C
 311 00c3 092AEB9D 		.ascii	"\011*\353\235;\254\237\177\234=\253\004\217\344%C\310"
ARM GAS  /tmp/cckr3qri.s 			page 24


 311      3BAC9F7F 
 311      9C3DAB04 
 311      8FE42543 
 311      C8
 312 00d4 1BB13197 		.ascii	"\033\2611\227z\020'\366\330\341\322\267\217=\021\341"
 312      7A1027F6 
 312      D8E1D2B7 
 312      8F3D11E1 
 313 00e4 4F515931 		.ascii	"OQY1mu\0113\364\244\330H\240%\314\336\364\213M\011\267"
 313      6D750933 
 313      F4A4D848 
 313      A025CCDE 
 313      F48B4D09 
 314 00f9 BA51D899 		.ascii	"\272Q\330\231\366\270)\352\025,\213\306\006\365B\352"
 314      F6B829EA 
 314      152C8BC6 
 314      06F542EA 
 315 0109 82FF63F9 		.ascii	"\202\377c\371\375\314\0226\213}M\200\177\005U\263e\272"
 315      FDCC1236 
 315      8B7D4D80 
 315      7F0555B3 
 315      65BA
 316 011b 5C86928D 		.ascii	"\\\206\222\215\"\241\326\007z\273\322J\226\320\016\334"
 316      22A1D607 
 316      7ABBD24A 
 316      96D00EDC 
 317 012b E0FAF56A 		.ascii	"\340\372\365j\377\326i5\332d\370\347\372&\350\240\034"
 317      FFD66935 
 317      DA64F8E7 
 317      FA26E8A0 
 317      1C
 318 013c 734AC805 		.ascii	"sJ\310\005\274\"\240\005\357HR5\340*\305\240\313\316"
 318      BC22A005 
 318      EF485235 
 318      E02AC5A0 
 318      CBCE
 319 014e 668FAEEF 		.ascii	"f\217\256\357\353\001k\225\267c\266\340^v\\\024I\326"
 319      EB016B95 
 319      B763B6E0 
 319      5E765C14 
 319      49D6
 320 0160 76768FCE 		.ascii	"vv\217\316\273\213\263\363\351X\332\035\211/\305\243"
 320      BB8BB3F3 
 320      E958DA1D 
 320      892FC5A3 
 321 0170 49F8D399 		.ascii	"I\370\323\231Df!\375\005\337oux"
 321      446621FD 
 321      05DF6F75 
 321      78
 322              		.text
 323              		.section	.gnu.lto_.symbol_nodes.c5189ec495287f61,"",%progbits
 324 0000 789C4DCB 		.ascii	"x\234M\313;r\302@\020\204\341\236\336E\010\011\310\211"
 324      3B72C240 
 324      1084E19E 
 324      DE450809 
 324      C889
 325 0012 B806B76B 		.ascii	"\270\006\267k\231\207xS\\\000\022E\\\303\256r\340\200"
ARM GAS  /tmp/cckr3qri.s 			page 25


 325      99877853 
 325      5C001245 
 325      5CC3AE72 
 325      E080
 326 0024 33D88133 		.ascii	"3\330\2013\316@\241\005\025\332I\376\372\246f\010bb"
 326      CE40A105 
 326      15DA49FE 
 326      FAA66608 
 326      6262
 327 0036 780DF714 		.ascii	"x\015\367\024p\274\002\322ie<P\026qJ\261\341\271\346"
 327      70BC02D2 
 327      69653C50 
 327      16714AB1 
 327      E1B9E6
 328 0049 8C7211E7 		.ascii	"\214r\021\347\224o\331\331\021^\340\007\325\211\266"
 328      946FD9D9 
 328      115EE007 
 328      D589B6
 329 0058 05CDCB71 		.ascii	"\005\315\313qA%\321kIu#.\2514\342\212\352\265\264\015"
 329      4125D16B 
 329      4975232E 
 329      A934E28A 
 329      EAB5B40D 
 330 006c 95BD5814 		.ascii	"\225\275X\024f[*o\265\246\372o9\366Q\375\336\315\271"
 330      665B2A6F 
 330      B5A6FA6F 
 330      39F651FD 
 330      DECDB9
 331 007f 01BE427D 		.ascii	"\001\276B}\335\3626\016\255~\276\023\227\014Q\005'\036"
 331      DDF2360E 
 331      AD7EBE13 
 331      970C5105 
 331      271E
 332 0091 9FA16973 		.ascii	"\237\241is\027Z\376\217\\o\200\331_\355\254\331g\300"
 332      175AFE8F 
 332      5C6F80D9 
 332      5FEDACD9 
 332      67C0
 333 00a3 F4723597 		.ascii	"\364r5\2277\316\355i<\000pP[\255"
 333      37CEED69 
 333      3C007050 
 333      5BAD
 334              		.text
 335              		.section	.gnu.lto_.refs.c5189ec495287f61,"",%progbits
 336 0000 789C6362 		.ascii	"x\234cb`b\340f\200\000F\026\006V&6\006vFv\006\000\001"
 336      6062E066 
 336      80004616 
 336      06562636 
 336      06764676 
 337 0017 FA0031   		.ascii	"\372\0001"
 338              		.text
 339              		.section	.gnu.lto_.decls.c5189ec495287f61,"",%progbits
 340 0000 789CBD5C 		.ascii	"x\234\275\\{t\024U\232\257\252\356t\272IL\002\214\212"
 340      7B741455 
 340      9AAFAAEE 
 340      74BA494C 
 340      028C8A
ARM GAS  /tmp/cckr3qri.s 			page 26


 341 0013 AE7BECD9 		.ascii	"\256{\354\331\243;\256\216\344\001\303c]\0350\301\011"
 341      A33BAE8E 
 341      E401C363 
 341      5D1D30C1 
 341      09
 342 0024 677999C4 		.ascii	"gy\231\304\327\234\263\333\226\351\012\3515Ig\252+\030"
 342      D79CB3DB 
 342      96E90AE9 
 342      354967AA 
 342      2B18
 343 0036 FED89D22 		.ascii	"\376\330\235\"\230(\310#\004\220\200\274\034\005\021"
 343      9828C823 
 343      049080BC 
 343      1C0511
 344 0045 81010292 		.ascii	"\201\001\002\222 \217\306\007\004p\000E\020\202\214"
 344      208FC607 
 344      04700045 
 344      10828C
 345 0054 8D0B0832 		.ascii	"\215\013\0102\316\002\032\001\221d\357\375\352V\367"
 345      CE021A01 
 345      9164EFFD 
 345      EA56F7
 346 0063 AD4A5575 		.ascii	"\255JUuUt\246\317\271\267\252n\356\375}\217\373}\337"
 346      5574A6CF 
 346      B9B7AA6E 
 346      EEFD7D8F 
 346      FB7DDF
 347 0076 7DD4AD70 		.ascii	"}\324\255p\014\307\\t3L7\372\235x\224a\032|\014\223"
 347      0CC75C74 
 347      334C37FA 
 347      9D789461 
 347      1A7C0C93 
 348 008a C630CC43 		.ascii	"\3060\314C(yPz\025\245\315(\335\3161L*\272\262(\375"
 348      2879507A 
 348      15A5CD28 
 348      DDCE314C 
 348      2ABAB228 
 349 009f 02DDE3DF 		.ascii	"\002\335\343\337M(\335\213\356\013Qz\024\245\337\242"
 349      4D28DD8B 
 349      EE0B517A 
 349      14A5DFA2 
 350 00af F4344A21 		.ascii	"\3644J!\224D\224jQ\232\202\3224\224f\2414\017\245E("
 350      9444946A 
 350      519A82D2 
 350      349466A1 
 350      340FA545 
 351 00c4 E1E62B50 		.ascii	"\341\346+P\266\212\340\250?\214\2051\007\242\224\201"
 351      B68AE0A8 
 351      3F8C8531 
 351      07A29481 
 352 00d4 523A4AAB 		.ascii	"R:J\253QY\035\253\320]\317)\274<\204\256\003Q\272\037"
 352      51591DAB 
 352      D05DCF29 
 352      BC3C84AE 
 352      0351BA1F 
 353 00e8 25C43A33 		.ascii	"%\304:3\204\360\365 \247\\\357%4\362Q6JG\243\220\320"
 353      84F0F520 
ARM GAS  /tmp/cckr3qri.s 			page 27


 353      A75CEF25 
 353      34F25136 
 353      4A47A390 
 354 00fd 705334B6 		.ascii	"pS4\266\261\011\032.B_OGO\243\220\320\030\213\262q:"
 354      B1091A2E 
 354      425F4F47 
 354      4FA390D0 
 354      188BB271 
 355 0112 1A8F125D 		.ascii	"\032\217\022]\315!\274c\035\2528\033P\232M0\006\021"
 355      CD21BC63 
 355      1DAA381B 
 355      509A4D30 
 355      0611
 356 0124 8C47897E 		.ascii	"\214G\211~\360\375\343({B\207\207\365\332\207\302\303"
 356      F0FDE328 
 356      7B428787 
 356      F5DA87C2 
 356      C3
 357 0135 BCFDAB4E 		.ascii	"\274\375\253N\007\230\306Ft?\237\340\014\347\022\370"
 357      0798C646 
 357      743F9FE0 
 357      0CE712F8 
 358 0145 BF25BAC7 		.ascii	"\277%\272\3074\377S\207\215\373+\213\310\253\352\003"
 358      34FF5387 
 358      8DFB2B8B 
 358      C8ABEA03 
 359 0155 D39843EA 		.ascii	"\323\230C\352c:-\026\264<DO.\212\346\203\204\356\323"
 359      633A2D16 
 359      B43C444F 
 359      2E8AE683 
 359      84EED3
 360 0168 842ED645 		.ascii	"\204.\326E\031\272\012(m\302}\310)\375\3776J[t\374`"
 360      19BA0A28 
 360      6DC27DC8 
 360      29FDFF36 
 360      4A5B74FC 
 361 017d DBB995E8 		.ascii	"\333\271\225\350Z\345\247\037*\253 <a^Z\211\035\334"
 361      5AE5A71F 
 361      2AAB203C 
 361      615E5A89 
 361      1DDC
 362 018f 42F1A3F2 		.ascii	"B\361\243\362\207\371\305\374\264\021\272[\321\365\025"
 362      87F9C5FC 
 362      B411BA5B 
 362      D1F515
 363 019e 94DEE114 		.ascii	"\224\336\341\024\033\346\011\257\230\317\341\204W\027"
 363      1BE609AF 
 363      98CFE184 
 363      5717
 364 01ac A1BB88D8 		.ascii	"\241\273\210\330/~\306\266Y\205RX\307\237H\364\205u"
 364      2F7EC6B6 
 364      59855258 
 364      C79F48F4 
 364      8575
 365 01be A4F2B799 		.ascii	"\244\362\267\231\364\215U\237\250z\372\005\321\253["
 365      F48D559F 
 365      A87AFA05 
ARM GAS  /tmp/cckr3qri.s 			page 28


 365      D1AB5B
 366 01cd A7AFA144 		.ascii	"\247\257\241Dg\"\321\031\276\227PV\243\243\217}*\215"
 366      6722D119 
 366      BE975056 
 366      A3A38F7D 
 366      2A8D
 367 01df E8A7B7F6 		.ascii	"\350\247\267\366PK\321\370o\224\375\217\216\006\366"
 367      504BD1F8 
 367      6F94FD8F 
 367      8E06F6
 368 01ee D94C9D8C 		.ascii	"\331L\235\214s\270\344t\260\214\333\320\365>\035M\027"
 368      73B8E474 
 368      B08CDBD0 
 368      F53E1D4D 
 368      17
 369 01ff C1C43455 		.ascii	"\301\3044U\337l@\331\013:\272\323~\004\335\355\350:"
 369      DF6C40D9 
 369      0B3ABAD3 
 369      7E04DDED 
 369      E83A
 370 0211 DA80EE34 		.ascii	"\332\200\3564BW\365\327\227P6CG\267\0373GF?\177;\"\372"
 370      4257F5D7 
 370      97503643 
 370      47B71F33 
 370      47463F7F 
 371 0228 24CBB319 		.ascii	"$\313\263\031>F\346\340.\335\307\370Q\205\273\231\327"
 371      3E46E6E0 
 371      2EDDC7F8 
 371      5185BB99 
 371      D7
 372 0239 65B93156 		.ascii	"e\2711V?\233\365\363\354\253l?\2044\200e\356e\336D\255"
 372      3F9BF5F3 
 372      ECAB6C3F 
 372      84348065 
 372      EE65DE44 
 373 024e 1A65B9AE 		.ascii	"\032e\271\256?\323\363\227\024\024\331\"\273\002a\361"
 373      3FD3F397 
 373      1414D922 
 373      BB0261F1 
 374 025e ECEBECBD 		.ascii	"\354\353\354\275\012\0119z$\350WJ\031Rn\360\3739\263"
 374      0A09397A 
 374      24E8574A 
 374      19526EF0 
 374      FB39B3
 375 0271 1CD18C1E 		.ascii	"\034\321\214\036\337\324\306\312\015\351\251L\003z\222"
 375      DFD4C6CA 
 375      0DE9A94C 
 375      037A92
 376 0280 63F57503 		.ascii	"c\365u\003\232\023\244\274*%6\316~\364#/\307\263\253"
 376      9A13A4BC 
 376      2A2536CE 
 376      7EF4232F 
 376      C7B3AB
 377 0293 D854C4FD 		.ascii	"\330T\304\375}\254\006\336\006\006\346\347-\324V\303"
 377      7DAC06DE 
 377      0606E6E7 
 377      2DD456C3 
ARM GAS  /tmp/cckr3qri.s 			page 29


 378 02a3 6D9B9B53 		.ascii	"m\233\233SJ-\270u1\240\371\007X@s\373\022E\005\361\""
 378      4A2DB875 
 378      31A0F907 
 378      584073FB 
 378      124505F1 
 379 02b8 96AA383A 		.ascii	"\226\2528:^\252\366\022~d}\211\233nVC\200\346\213g\327"
 379      5EAAF612 
 379      7E647D89 
 379      9B6E5643 
 379      80E68B67 
 380 02cd B077A37C 		.ascii	"\260w\243|-\3532l\3061\343X\242v#!\311m\202l\206\372"
 380      2DEB326C 
 380      C631E358 
 380      A2762321 
 380      C96D826C 
 381 02e3 A02AFDC4 		.ascii	"\240*\375\304\267\255X\351>\346EP\330\0129\211\322c"
 381      B7AD58E9 
 381      3EE64550 
 381      D80A3989 
 381      D263
 382 02f5 C71BD6DE 		.ascii	"\307\033\326\336'\313^\236\335\314b\211&k\025o\037g"
 382      27CB5E9E 
 382      DDCC6289 
 382      266B156F 
 382      1F67
 383 0307 EEF4A5C3 		.ascii	"\356\364\245\303\000\247\025p\336f\265@DTJ)\350Y\255"
 383      00A71570 
 383      DE66B540 
 383      44544A29 
 383      E859AD
 384 031a 90548149 		.ascii	"\220T\201I\352rL\224u\2526/\255\266\330\007/\315\273"
 384      EA724C94 
 384      75AA362F 
 384      ADB6D807 
 384      2FCDBB
 385 032d 4D5EFE2E 		.ascii	"M^\376.\233\306L\307\362.o\220\013\3333\014<$\352R\301"
 385      9BC64CC7 
 385      F22E6F90 
 385      0BDB330C 
 385      3C24EA52 
 386 0342 862544DF 		.ascii	"\206%D\337p\340\310Jv\252,\243?\354\000\337\233\311"
 386      70E0C84A 
 386      76AA2CA3 
 386      3FEC00DF 
 386      9BC9
 387 0354 69854F0A 		.ascii	"i\205O\012\304\263Q\226C\371.\275\273]Z\224.\273\225"
 387      C4B35196 
 387      43F92EBD 
 387      BB5D5A94 
 387      2EBB95
 388 0367 F2E40E77 		.ascii	"\362\344\016w\255c\351\255r,\312\332\366\270\330\347"
 388      AD63E9AD 
 388      722CCADA 
 388      F6B8D8E7 
 389 0377 1F7F9A0B 		.ascii	"\037\177\232\013\235\366>x\335>\256Wn\267G\357v\037"
 389      9DF63E78 
 389      DD3EAE57 
ARM GAS  /tmp/cckr3qri.s 			page 30


 389      6EB747EF 
 389      761F
 390 0389 356462AE 		.ascii	"5db\256\367\330r\274#\\O\317\213q\206\256w\236\323\372"
 390      F7D872BC 
 390      235C4FCF 
 390      8B7186AE 
 390      779ED3FA 
 391 039d 1E29FE26 		.ascii	"\036)\376&Q\354\242\212\247\270\342\305n\252xv\2428"
 391      51ECA28A 
 391      A7B8E2C5 
 391      6EAA7876 
 391      A238
 392 03af 8532094B 		.ascii	"\2052\011K\373\333C9p;8\360^\023\007\346\331\226xO\366"
 392      FBDB4339 
 392      703B38F0 
 392      5E1307E6 
 392      D996784F 
 393 03c4 CA83631B 		.ascii	"\312\203c\033f\235>\313\316\235*\267\347\030\031#\252"
 393      669D3ECB 
 393      CE9D2AB7 
 393      E7181923 
 393      AA
 394 03d5 C25266F4 		.ascii	"\302Rf\364\264\012\230\036\357\324\350\366\016\326o"
 394      B40A981E 
 394      EFD4E8F6 
 394      0ED66F
 395 03e4 60719AAA 		.ascii	"`q\232\252<{\014\211\221\254\026\256\327\2417\311%\035"
 395      3C7B0C89 
 395      91AC16AE 
 395      D7A137C9 
 395      251D
 396 03f6 60921DB6 		.ascii	"`\222\035\266LrC\307|g&\031\275\364)\036\303N\202=."
 396      4C7243C7 
 396      7C672619 
 396      BDF4291E 
 396      C34E823D 
 397 040b 72F5CA1E 		.ascii	"r\365\312\036cz{<\276\000\3541f\313\036W\272(\333#e"
 397      637A7B3C 
 397      BE00EC31 
 397      66CB1E57 
 397      BA28DB23 
 398 0420 1B5C8686 		.ascii	"\033\\\206\206\367\201KkxvL)F\231\322)0\245/L\307\202"
 398      F7814B6B 
 398      78764C29 
 398      4699D229 
 398      30A52F4C 
 399 0436 4F41FE8E 		.ascii	"OA\376\216^\017\006-\035\363!\252\221(\256\030R\274"
 399      5E0F062D 
 399      1DF321AA 
 399      9128AE18 
 399      52BC
 400 0448 AE5F4570 		.ascii	"\256_Ep3\324h\360\301.\266\016B\331W\020\307?w\031\016"
 400      33D468F0 
 400      C12EB60E 
 400      42D95710 
 400      C73F7719 
 401 045d 0836A0E6 		.ascii	"\0106\240\346N\3376\034b\313\327\000t\316\245\037\020"
ARM GAS  /tmp/cckr3qri.s 			page 31


 401      4EDF361C 
 401      62CBD700 
 401      74CEA51F 
 401      10
 402 046e 52750342 		.ascii	"Ru\003B\2526\310\247\372\0227x\361\227\3118\255\216"
 402      AA36C8A7 
 402      FA123778 
 402      F197C938 
 402      AD8E
 403 0480 22835E81 		.ascii	"\"\203^\201\032F\215\024\350\247\025\210|\361\300\333"
 403      1A468D14 
 403      E8A71588 
 403      7CF1C0DB 
 404 0490 ECE53AB9 		.ascii	"\354\345:\2719\307\276\001\317\355\300\006|\031\014"
 404      39C7BE01 
 404      CFEDC006 
 404      7C190C
 405 049f B8BB7706 		.ascii	"\270\273w\006\334\2517\340\353\212\001w\3322\340Y\356"
 405      DCA937E0 
 405      EB8A0177 
 405      DA32E059 
 405      EE
 406 04b0 9E06BCC4 		.ascii	"\236\006\274\304mh\300\177t;7\340N\312\200\277\003\003"
 406      6D68C07F 
 406      743B37E0 
 406      4ECA80BF 
 406      0303
 407 04c2 BE626AC0 		.ascii	"\276bj\300\357\273m\030\260\327\300\200)z\012\245\023"
 407      EFBB6D18 
 407      B0D7C080 
 407      297A0AA5 
 407      13
 408 04d3 40E933F6 		.ascii	"@\3513\366\347(?\017\371%\224\307\177\034s\320\255\267"
 408      E7283F0F 
 408      F92594C7 
 408      7F1C73D0 
 408      ADB7
 409 04e5 2F254251 		.ascii	"/%BQH\211P\306Xa\031\231\012np\224MK\220;\016\344v\365"
 409      488950C6 
 409      58611999 
 409      0A6E7094 
 409      4D4B903B 
 410 04fd D6B2A20B 		.ascii	"\326\262\242\013O,u\346\232\321\235\013n\30660\205\303"
 410      4F2C75E6 
 410      9AD19D0B 
 410      6EC63630 
 410      85C3
 411 050f 5D18EB21 		.ascii	"]\030\353!\355W\372\371\225\035\377\270`G\012\243\376"
 411      ED57FAF9 
 411      951DFFB8 
 411      60470AA3 
 411      FE
 412 0520 0129E468 		.ascii	"\001)\344h\313\211\245,\226\302h-\301\252\355\263\342"
 412      CB89A52C 
 412      96C2682D 
 412      C1AAEDB3 
 412      E2
ARM GAS  /tmp/cckr3qri.s 			page 32


 413 0531 32C48E7C 		.ascii	"2\304\216|y\356,\011/\015\034\236)\255LI:S\322\002q"
 413      79EE2C09 
 413      2F0D1C9E 
 413      29AD4C49 
 413      3A53D202 
 414 0546 CC3A6832 		.ascii	"\314:h2\215\323\015K\235\274_)M6(\311\321+g|rS\272\001"
 414      8DD30D4B 
 414      9DBC5F29 
 414      4D3628C9 
 414      D12B677C 
 415 055e A911B4C8 		.ascii	"\251\021\264\310jD\274\020\273m\257,g\361\354L\340\370"
 415      6A44BC10 
 415      BB6DAF2C 
 415      67F1EC4C 
 415      E0F8
 416 0570 6B638E97 		.ascii	"kc\216\227\2170\303\341\230\033\320\244Q\307ql\373\345"
 416      8F30C3E1 
 416      981BD0A4 
 416      51C7716C 
 416      FBE5
 417 0582 F6DB9B01 		.ascii	"\366\333\233\001\271\321\006\333u\321#\015Kl\315Q\227"
 417      B9D106DB 
 417      75D1230D 
 417      4B6CCD51 
 417      97
 418 0593 BB55F205 		.ascii	"\273U\362\005\0111\216]\210\016\200h<\037\244x\317\223"
 418      09318E5D 
 418      880E8068 
 418      3C1FA478 
 418      CF93
 419 05a5 54EF5A18 		.ascii	"T\357Z\030\216\371\020\2324\367\224\"\366\017\212\024"
 419      8EF9109A 
 419      34F79422 
 419      F60F8A14 
 420 05b5 CDB6A4B8 		.ascii	"\315\266\244\270N\244\340\331y\\\032\202=\032\207\265"
 420      4EA4E0D9 
 420      795C1A82 
 420      3D1A87B5 
 421 05c5 EB485ABC 		.ascii	"\353HZ\274\256\335\351\215\274\012v\3221\230_\0036w"
 421      AEDDE98D 
 421      BC0A76D2 
 421      31985F03 
 421      3677
 422 05d7 CF628703 		.ascii	"\317b\207\003\346\302+\347n\333\016\342/\007\307\\\233"
 422      E6C22BE7 
 422      6EDB0EE2 
 422      2F07C75C 
 422      9B
 423 05e8 FA9338E6 		.ascii	"\372\2238\346\346T\033\202\230;&\352\225Cw\264m\224"
 423      E6541B82 
 423      983B26EA 
 423      954377B4 
 423      6D94
 424 05fa E5691ED5 		.ascii	"\345i\036\325>=f\202p\3146 \266B\337\263\013\273\016"
 424      3E3D6682 
 424      70CC3620 
 424      B642DFB3 
ARM GAS  /tmp/cckr3qri.s 			page 33


 424      0BBB0E
 425 060d DDAFF4EC 		.ascii	"\335\257\364\354\012[=\273e\377\002{\366\351Q\311\007"
 425      0A5B3DBB 
 425      65FF027B 
 425      F6E951C9 
 425      07
 426 061e 817C1790 		.ascii	"\201|\027\220_\255'\277\371\017\347\037R\310\257\266"
 426      5FAD27BF 
 426      F90FE71F 
 426      52C8AFB6 
 427 062e 45FEF383 		.ascii	"E\376\363\203\006K8\236}\350f\313\356\353\272x\3172"
 427      064B389E 
 427      7DE866CB 
 427      EEEBBA78 
 427      CF32
 428 0640 20B20E0C 		.ascii	" \262\016\014\250\335\253\357\276_\247\321\264\340\231"
 428      A8DDABEF 
 428      BE5FA7D1 
 428      B4E099
 429 064f AAC0311F 		.ascii	"\252\3001\037yU\356{e\277H\314]\277~\023zJ\345\341\210"
 429      7955EE7B 
 429      65BF48CC 
 429      5DBF7E13 
 429      7A4AE5E1 
 430 0664 6344AD11 		.ascii	"cD\255\021_>\010\036\241\200\035\267\003fjHu\321oi\260"
 430      5F3E081E 
 430      A1801DB7 
 430      03666A48 
 430      75D16F69 
 431 0679 938EC1B4 		.ascii	"\223\216\301\264\234}G\203\235\262\003\226e\316\331"
 431      9C7D4783 
 431      9DB20396 
 431      65CED9
 432 0688 551AEC8C 		.ascii	"U\032\354\214c0-g\337\323`\347\355\200\0150\347\354"
 432      63302D67 
 432      DFD360E7 
 432      ED800D30 
 432      E7EC
 433 069a 071AEC6B 		.ascii	"\007\032\354k\307`Z\316\272h\260Kv\300\374\346\2345"
 433      C7605ACE 
 433      BA68B04B 
 433      76C0FCE6 
 433      9C35
 434 06ac 7E4C8175 		.ascii	"~L\201u:\006\323r\326D\203]\263\003v\2179g\363h\260"
 434      3A06D372 
 434      D644835D 
 434      B303768F 
 434      3967F368 
 435 06c1 1B8EC1B4 		.ascii	"\033\216\301\264\234\275L\203M\361\331\000\3131\347"
 435      9CBD4C83 
 435      4DF1D900 
 435      CB31E7
 436 06d0 AC9906AB 		.ascii	"\254\231\006\253w\014\246\345l\021\0156\315\016\330"
 436      770CA6E5 
 436      6C110D36 
 436      CD0ED8
 437 06df 3073CE16 		.ascii	"0s\316\026\323`3\035\203i9[O\203\315\261\0036\302\234"
ARM GAS  /tmp/cckr3qri.s 			page 34


 437      D360331D 
 437      8369395B 
 437      4F83CDB1 
 437      0336C29C 
 438 06f3 B38D34D8 		.ascii	"\263\2154\330<\307`Z\3166\321`\013\354\200\025\232s"
 438      3CC7605A 
 438      CE36D160 
 438      0BEC8015 
 438      9A73
 439 0705 F6360DB6 		.ascii	"\3666\015\266\3101\230\226\263V\032l\211\035\260\011"
 439      C8319896 
 439      B3561A6C 
 439      891DB009 
 440 0715 E69C6DA5 		.ascii	"\346\234m\245\301\226;\006\323r\266\215\006{\315\016"
 440      C1963B06 
 440      D372B68D 
 440      067BCD0E 
 441 0725 D893E69C 		.ascii	"\330\223\346\234\355\240\301\336p\014\246\345\354\020"
 441      EDA0C1DE 
 441      700CA6E5 
 441      EC10
 442 0733 0DF6961D 		.ascii	"\015\366\226\035\260\247\0158\213\377\214\332\341a\372"
 442      B0A70D38 
 442      8BFF8CDA 
 442      E161FA
 443 0742 4D8E5AAC 		.ascii	"M\216Z\254\255\363\251\023\034\207c4\223\300\330\350"
 443      ADF3A913 
 443      1C876334 
 443      93C0D8E8 
 444 0752 733A23D3 		.ascii	"s:#\323\310\215\347\311wl%\343\2742Ym\265\203h1\000"
 444      C88DE7C9 
 444      776C25E3 
 444      BC32596D 
 444      B5836831 
 445 0767 2EDA43CD 		.ascii	".\332C\315|\243\216\301t\246\214\3014S\247\370\326\177"
 445      7CA38EC1 
 445      74A68CC1 
 445      3453A7F8 
 445      D67F
 446 0779 D47AC703 		.ascii	"\324z\307\003\277`\342\250\367\004\003\214\353\362\354"
 446      BF60E2A8 
 446      F704038C 
 446      EBF2EC
 447 0788 050E2FE1 		.ascii	"\005\016/\341\377\302\371\342\\(\367\352\235\262e\320"
 447      FFC2F9E2 
 447      5C28F7EA 
 447      9DB265D0 
 448 0798 EED36E38 		.ascii	"\356\323n8\304\177\311\232\232Y\302y\332\022\376dGM"
 448      C47FC99A 
 448      9A59C279 
 448      DA12FE64 
 448      474D
 449 07aa 1643FBE7 		.ascii	"\026C\373\347{\026\303~\246\375\367\"\013\257\034\""
 449      7B16C37E 
 449      A6FDF722 
 449      0BAF1C22 
 450 07ba 0B848BB0 		.ascii	"\013\204\213\260@\370\304\247\237anv\370f\004\315\303"
ARM GAS  /tmp/cckr3qri.s 			page 35


 450      40F8C4A7 
 450      9F616E76 
 450      F86604CD 
 450      C3
 451 07cb F452186D 		.ascii	"\364R\030m\253"
 451      AB
 452 07d0 98CF2990 		.ascii	"\230\317)\220-\036\273\263m\235,O\3658\221\243\235\310"
 452      2D1EBBB3 
 452      6D9D2C4F 
 452      F53891A3 
 452      9DC8
 453 07e2 D109729C 		.ascii	"\321\011r\234\371\011\344\370\332\261\034\367\350\344"
 453      F909E4F8 
 453      DAB11CF7 
 453      E8E4
 454 07f0 88DEE35C 		.ascii	"\210\336\343\\\216cD\216\357A\216\316\237@\216\033\216"
 454      8E63448E 
 454      EF418ECE 
 454      9F408E1B 
 454      8E
 455 0801 E5C8A1E4 		.ascii	"\345\310\241\344\200\325\332@e\265\326\237i\262^\255"
 455      80D5DA40 
 455      65B5D69F 
 455      69B25EAD 
 456 0811 617EBAB9 		.ascii	"a~\272\271\376\272\375\355}x\313\021\027\333\330\374"
 456      FEBAFDED 
 456      7D78CB11 
 456      17DBD8FC 
 457 0821 D8472D71 		.ascii	"\330G-qe{K\334\213Dcu.\254\261\347\373\030l\011\333"
 457      657B4BDC 
 457      8B446375 
 457      2EACB1E7 
 457      FB186C09 
 458 0836 423ABEFB 		.ascii	"B:\276\373\375\015d\373\247\036\240\246\367\032j\356"
 458      FD0D64FB 
 458      A71EA0A6 
 458      F71A6AEE 
 459 0846 BE2DCAEB 		.ascii	"\276-\312\353\306\027\001\250\251\217\276\027=\272N"
 459      C61701A8 
 459      A98FBE17 
 459      3DBA4E
 460 0855 F4683B11 		.ascii	"\364h;\021=bJW\361\212\233\375=)\301\017\251\314\337"
 460      3D624A57 
 460      F18A9BFD 
 460      3D29C10F 
 460      A9CCDF
 461 0868 BD1DC72C 		.ascii	"\275\035\307,\006\366q\007:\034\240\022\006\364\313"
 461      06F67107 
 461      3A1CA012 
 461      06F4CB
 462 0877 3632B828 		.ascii	"62\270(\235\364\332\217B\254\213\266\274\244n\323\374"
 462      9DF4DA8F 
 462      42AC8BB6 
 462      BCA46ED3 
 462      FC
 463 0888 1A0F2F6B 		.ascii	"\032\017/k~$\334G\373\235o\254DoW\254n\016\010\324\322"
 463      7E24DC47 
ARM GAS  /tmp/cckr3qri.s 			page 36


 463      FB9D6FAC 
 463      446F57AC 
 463      6E0E08D4 
 464 089d A3877BB5 		.ascii	"\243\207{\265\261\262\263\267\202\304\177\034\263\273"
 464      B1B2B3B7 
 464      82C47F1C 
 464      B3BB
 465 08ab 8F8D41C4 		.ascii	"\217\215A\304o\325[W\007\332\334\234\211oB\236\033\320"
 465      6FD55B57 
 465      07DADC9C 
 465      896F429E 
 465      1BD0
 466 08bd 0ECA58E0 		.ascii	"\016\312X\340\302\333w\373t\312\260\261\311s\034\232"
 466      C2DB77FB 
 466      74CAB0B1 
 466      C9731C9A 
 467 08cd 2C72F5D8 		.ascii	",r\365\330\276;t\233\262\313\202\377dc\223G\263}\307"
 467      BE3B749B 
 467      B2CB82FF 
 467      64639347 
 467      B37DC7
 468 08e0 B38B398E 		.ascii	"\263\2139\216\300\366V\237\232.L\360\207\240]x\276\260"
 468      C0F6569F 
 468      9A2E4CF0 
 468      87A05D78 
 468      BEB0
 469 08f2 C4A5D9E6 		.ascii	"\304\245\331\346?\357X\367~Z\367\321\353\373\027\263"
 469      3FEF58F7 
 469      7E5AF7D1 
 469      EBFB17B3 
 470 0902 0AFFCA76 		.ascii	"\012\377\312v\3567z\274\021\364\\\216\334\232\256[\345"
 470      EE377ABC 
 470      11F45C8E 
 470      DC9AAE5B 
 470      E5
 471 0913 68D30198 		.ascii	"h\323\001\230\204)N\327e\2079\213\245\346R\005L1\370"
 471      84294ED7 
 471      6587398B 
 471      A5E65205 
 471      4C31F8
 472 0926 E7D39C82 		.ascii	"\347\323\234\202\3715`\333g\031l\027+[\344f\003\313"
 472      F93560DB 
 472      67196C17 
 472      2B5BE466 
 472      03CB
 473 0938 4A173555 		.ascii	"J\0275U\232m\207\276\305\352\364\310\201\305\304R\224"
 473      9A6D87BE 
 473      C5EAF4C8 
 473      81C5C452 
 473      94
 474 0949 9DD1858E 		.ascii	"\235\321\205\216\361\264\362\\\232\245\211H\257\333"
 474      F1B4F25C 
 474      9AA58948 
 474      AFDB
 475 0957 811B61DB 		.ascii	"\201\033a\333\360\022\373\332\310\010a\242\372\012\207"
 475      F012FBDA 
 475      C80861A2 
ARM GAS  /tmp/cckr3qri.s 			page 37


 475      FA0A87
 476 0966 DF0C2D81 		.ascii	"\337\014-\201|\031\344\257C~\032\362\263\220\237\203"
 476      7C19E4AF 
 476      437E1AF2 
 476      B3909F83 
 477 0976 FCFF20FF 		.ascii	"\374\377 \377\026\362k\220wA\376\262\013\332B\376*\344"
 477      16F26B90 
 477      7741FEB2 
 477      0BDA42FE 
 477      2AE4
 478 0988 AF41BE02 		.ascii	"\257A\276\002\362U\220\257\246\315\333\254_\024W\213"
 478      F25590AF 
 478      A6CDDBAC 
 478      5F14578B 
 479 0998 3BA6EA75 		.ascii	";\246\352u\215\275\3364?\232\3304\347\331\245\216\301"
 479      8DBDDE34 
 479      3F9AD834 
 479      E7D9A58E 
 479      C1
 480 09a9 FC569A6C 		.ascii	"\374V\232l\2444\331\004\232\234\013\332X\243u\3445i"
 480      A434D904 
 480      9A9C0BDA 
 480      58A375E4 
 480      3569
 481 09bb EA6B1C0B 		.ascii	"\352k\034\013\3073\027!\366\311\227\347R\027\312\321"
 481      C7331721 
 481      F6C997E7 
 481      5217CAD1 
 482 09cb E75DEA0A 		.ascii	"\347]\352\012h\223\0360\351\002M\253\223.Aw\342ByGe"
 482      68931E30 
 482      E9024DAB 
 482      932E4177 
 482      E2427947 
 483 09e0 D6271B68 		.ascii	"\326'\033h_\331\346\230\266\245\012\247Q*|\011T8\003"
 483      5FD9E698 
 483      B6A50AA7 
 483      512A7C09 
 483      543803
 484 09f3 54B80E4C 		.ascii	"T\270\016Lf=\255H\236\235\316\351\316\233h_\230Y\020"
 484      663DAD48 
 484      9E9DCEE9 
 484      CE9B685F 
 484      985910
 485 0a06 8FBFE4EE 		.ascii	"\217\277\344\356<jp\340DyUd1(-\330q\374\21650tlr\341"
 485      3C6A70E0 
 485      44795564 
 485      31282DD8 
 485      71FC8E35 
 486 0a1f 0EB89EA6 		.ascii	"\016\270\236\246\037\241\347q\272\315s\235!s\314\254"
 486      1FA1E771 
 486      BACD739D 
 486      2173CCAC 
 487 0a2f 741B2F20 		.ascii	"t\033/ -V2\033f]9\312N\235*\257\312!3\013\271A\276g"
 487      2D56321B 
 487      665D39CA 
 487      4E9D2AAF 
 487      CA21330B 
ARM GAS  /tmp/cckr3qri.s 			page 38


 488 0a47 556210CC 		.ascii	"Ub\020\314R1\2708\337\321\315\312\213\3246\210\262\363"
 488      5231B838 
 488      DFD1CDCA 
 488      8BD43688 
 488      B2F3
 489 0a59 D30DCF37 		.ascii	"\323\015\3177$\207\211\035o\330\362K\230\201n\003\240"
 489      2487891D 
 489      6FD8F24B 
 489      98816E03 
 489      A0
 490 0a6a 65BD069A 		.ascii	"e\275\006\232;\375\015\345\240\304N\000Z\225\256W\243"
 490      3BFD0DE5 
 490      A0C44E00 
 490      5A95AE57 
 490      A3
 491 0a7b 4B37CF71 		.ascii	"K7\317qi\3479._\342\246\273\333\305\374\015+\243i\230"
 491      69E7392E 
 491      5FE2A6BB 
 491      DBC5FC0D 
 491      2BA36998 
 492 0a8f BEC33412 		.ascii	"\276\3034\022%\233\373\340\016\273A\214M=a\322j\307"
 492      259BFBE0 
 492      0EBB418C 
 492      4D3D61D2 
 492      6AC7
 493 0aa1 0434881A 		.ascii	"\0044\210\032\023\210\376p\002b\231\002\366\256\035"
 493      1388FE70 
 493      02629902 
 493      F6AE1D
 494 0ab0 308B6DE8 		.ascii	"0\213m\350\371K\227\231\276\303Z\236\364\350U\254\355"
 494      F94B9799 
 494      BEC35A9E 
 494      F4E855AC 
 494      ED
 495 0ac1 ECDE7FC3 		.ascii	"\354\336\177\303\007\001\223\037\277\332\347\262w\374"
 495      0701931F 
 495      BFDAE7B2 
 495      77FC
 496 0acf EA4397FE 		.ascii	"\352C\227\376=\367\0018~\365\241\255\331\332\025\243"
 496      3DF70138 
 496      7EF5A1AD 
 496      D9DA15A3 
 497 0adf 3980D169 		.ascii	"9\200\321i\304x\310\030\220\020\346\323\257\366>\244"
 497      C478C818 
 497      9010E6D3 
 497      AFF63EA4 
 498 0aef 9C6A3C04 		.ascii	"\234j<\004\223\316\2037%?\325\250\301\301\374\035\326"
 498      93CE8337 
 498      253FD5A8 
 498      C1C1FC1D 
 498      D6
 499 0b00 F3DF7210 		.ascii	"\363\337r\020\370?\234\234\377\347\247F\267\220wz\340"
 499      F83F9C9C 
 499      FFE7A746 
 499      B790777A 
 499      E0
 500 0b11 4C532D97 		.ascii	"LS-\227\015<{\001\216\210\330Y\004|\001\222\034v>i%"
ARM GAS  /tmp/cckr3qri.s 			page 39


 500      0D3C7B01 
 500      8E88D859 
 500      047C0192 
 500      1C763E69 
 501 0b26 6CB52AEF 		.ascii	"l\265*\357d\216\202\277\236q\014\346\327\200m\245\301"
 501      648E82BF 
 501      9E710CE6 
 501      D7806DA5 
 501      C1
 502 0b37 BEB20366 		.ascii	"\276\262\003f6\210!\260m4\330_\035\203i9\333A\203}c"
 502      368821B0 
 502      6D34D85F 
 502      1D836939 
 502      DB41837D 
 503 0b4c 07CC6CB7 		.ascii	"\007\314l\267\022\201\035\242\301\256:\006\363\033Y"
 503      12811DA2 
 503      C1AE3A06 
 503      F31B59
 504 0b5b 09D3C3C8 		.ascii	"\011\323\303\310x\366\023X5\034\201\221\362\030\344"
 504      78F61358 
 504      351C8191 
 504      F218E4
 505 0b6a 1D907F06 		.ascii	"\035\220\177\006\371\237!\217\331\231t\035\244\007\370"
 505      F99F218F 
 505      D999741D 
 505      A407F8
 506 0b79 1F80E10F 		.ascii	"\037\200\341\017{g1(\354\265\235=\365\200\262\373\253"
 506      7B673128 
 506      ECB59D3D 
 506      F580B2FB 
 506      AB
 507 0b8a 1B63B13E 		.ascii	"\033c\261>\31488Ms05\303)\007~\232\203\350\365\003\312"
 507      CC38384D 
 507      733035C3 
 507      29077E9A 
 507      83E8F503 
 508 0b9f CEA57AD0 		.ascii	"\316\245z\320\373E=\236\335\243Y\352t\351@\332\372\247"
 508      FB453D9E 
 508      DDA359EA 
 508      74E940DA 
 508      FAA7
 509 0bb1 55B0D98E 		.ascii	"U\260\331\216\3014\307\257\243\215\007)\260\205\216"
 509      C134C7AF 
 509      A38D0729 
 509      B0858E
 510 0bc0 C1B27A58 		.ascii	"\301\262zX\204b\013\177\002[8\000}\376\277\220\237\205"
 510      84620B7F 
 510      025B3800 
 510      7DFEBF90 
 510      9F85
 511 0bd2 FC1CE45F 		.ascii	"\374\034\344_i'\244\3133\364\343\256\022c)\324D0f\354"
 511      6927A4CB 
 511      33F4E3AE 
 511      126329D4 
 511      443066EC 
 512 0be6 E29AF56D 		.ascii	"\342\232\365m;\335\267-\031NG-M\337\242Au\317\227\352"
 512      3BDDB72D 
ARM GAS  /tmp/cckr3qri.s 			page 40


 512      194E472D 
 512      4DDFA241 
 512      75CF97EA 
 513 0bfa A0DA0E73 		.ascii	"\240\332\016s\2616;\210\026+\321M\177\326\277\0160\212"
 513      B1363B88 
 513      162BD14D 
 513      7FD6BF0E 
 513      308A
 514 0c0c F61CCD5B 		.ascii	"\366\034\315[|\324\330\365\2242j\\\206QcgF\362Q\203"
 514      7CD4D8F5 
 514      94326A5C 
 514      86516367 
 514      46F25183 
 515 0c20 D3CAC8B3 		.ascii	"\323\312\310\263\235\372Q\343\332a\0305:m\215\0327\016"
 515      9DFA51E3 
 515      DA611835 
 515      3A6D8D1A 
 515      370E
 516 0c32 CF232B45 		.ascii	"\317#+E%\332\354\007\026:{\035\356\273\016S\241\353"
 516      25DAEC07 
 516      163A7B1D 
 516      EEBB0E53 
 516      A1EB
 517 0c44 A06330BF 		.ascii	"\240c0\277\006\254\361(\005v\330\016\230E\270o\242\301"
 517      06ACF128 
 517      0576D80E 
 517      9845B86F 
 517      A2C1
 518 0c56 8E3906D3 		.ascii	"\2169\006\323r6\217\006;i\007\314\"\334\277L\203\305"
 518      72368F06 
 518      3B6907CC 
 518      22DCBF4C 
 518      83C5
 519 0c68 1C836939 		.ascii	"\034\203i9k\246\301N\333\0013{\205\203\300\026\321`"
 519      6BA6C14E 
 519      DB01337B 
 519      8583C016 
 519      D160
 520 0c7a E71C8369 		.ascii	"\347\034\203i9[L\203\375\305\016\230\337\234\263\245"
 520      395B4C83 
 520      FDC50E98 
 520      DF9CB3A5 
 521 0c8a 34D865C7 		.ascii	"4\330e\307`~#\227P~\264G\361\354w\020\026\257@\260\272"
 521      607E2397 
 521      507EB447 
 521      F1EC7710 
 521      16AF40B0 
 522 0c9f 06F975C8 		.ascii	"\006\371u\310o@\336\015\371\0247\316\247B^\017\371\013"
 522      6F40DE0D 
 522      F91437CE 
 522      A7425E0F 
 522      F90B
 523 0cb1 904F73DB 		.ascii	"\220Os\333\010n\227\350\340v\305q(\262\024$\361\211"
 523      086E97E8 
 523      E076C571 
 523      28B21424 
 523      F189
ARM GAS  /tmp/cckr3qri.s 			page 41


 524 0cc3 0CCFBE0B 		.ascii	"\014\317\276\0133\276\367\340\010\357\021\310eX'\327"
 524      33BEF7E0 
 524      08EF11C8 
 524      655827D7 
 525 0cd3 43DE0282 		.ascii	"C\336\002\202\264B\376\036\344\037@\276\007\362\277"
 525      B442FE1E 
 525      E41F40BE 
 525      07F2BF
 526 0ce2 427ED14E 		.ascii	"B~\321N\254\336\2368\370\213\326\343n\274\334^\321\353"
 526      ACDE9E38 
 526      F88BD6E3 
 526      6EBCDC5E 
 526      D1EB
 527 0cf4 23E567F6 		.ascii	"#\345g\366\317vz&\377Bl%yk2\023\316o_\3571R\365j+\274"
 527      CF767A26 
 527      FF426C25 
 527      796B3213 
 527      CE6F5FEF 
 528 0d0e 3E934D2E 		.ascii	">\223M.\211\305\031\303\372Y3Y<\243\350\3134BD\037\240"
 528      89C519C3 
 528      FA593359 
 528      3CA3E8CB 
 528      3442441F 
 529 0d23 BC8B2575 		.ascii	"\274\213%u\237T\021\322\010KM\356\276p\247y\307\003"
 529      9F5411D2 
 529      084B4DEE 
 529      BE70A779 
 529      C703
 530 0d35 35CCF43E 		.ascii	"5\314\364>\327\235x\337\233\356K\334\364\211\333\326"
 530      D79D78DF 
 530      9BEE4BDC 
 530      F489DBD6 
 531 0d45 4CBD081A 		.ascii	"L\275\010\032\252IB\036\032\346:\257\266\263rS\272n"
 531      AA49421E 
 531      1AE63AAF 
 531      B6B37253 
 531      BA6E
 532 0d57 4E86A721 		.ascii	"N\206\247!f<\275\354\246L\273\311\216\006-\336&\177"
 532      663CBDEC 
 532      A64CBBC9 
 532      8E062DDE 
 532      267F
 533 0d69 17C42336 		.ascii	"\027\304#6\206\344\230f\307X~\023\037a\264\037n\362"
 533      86E49866 
 533      C7587E13 
 533      1F61B41F 
 533      6EF2
 534 0d7b EC4A7093 		.ascii	"\354Jp\2237\300A6A\276\015\362\031\340\321s \237\017"
 534      37C04136 
 534      41BE0DF2 
 534      19E0D173 
 534      209F0F
 535 0d8e 7933EDDD 		.ascii	"y3\355\335\366?#\273\361\375\251\273`\007c\221\033\177"
 535      F63F23BB 
 535      F1FDA9BB 
 535      60076391 
 535      1B7F
ARM GAS  /tmp/cckr3qri.s 			page 42


 536 0da0 F5B03E53 		.ascii	"\365\260>Sk\2376\277zX\342\326}\365\320\215\277\336"
 536      6B9F36BF 
 536      7A58E2D6 
 536      7DF5D08D 
 536      BFDE
 537 0db2 C4A5C9BF 		.ascii	"\304\245\311\277yx7\263\347Gd\355\231\206\037\221\035"
 537      797837B3 
 537      E74764ED 
 537      99861F91 
 537      1D
 538 0dc3 CC34FC14 		.ascii	"\3144\374\024\342h\246\363O!\022\034\363\354R7V\362"
 538      E268A6F3 
 538      4F21121C 
 538      F3EC5237 
 538      56F2
 539 0dd5 32B7F1A7 		.ascii	"2\267\361\247\020^\346\005E\005\362\024\366w\026\272"
 539      105EE605 
 539      4505F214 
 539      F67716BA 
 540 0de5 84C314A8 		.ascii	"\204\303\024\250\257\334^<\006g\232\036\205\300\025"
 540      AFDC5E3C 
 540      06679A1E 
 540      85C015
 541 0df4 5416957B 		.ascii	"T\026\225{\365\0165\271\223Y*Gc\261\005\335\247\376"
 541      F50E35B9 
 541      93592A47 
 541      63B105DD 
 541      A7FE
 542 0e06 65C1D4BA 		.ascii	"e\301\324\272v\371\"v\370[\230\371\304\355dVR^X\230"
 542      76F92276 
 542      F85B98F9 
 542      C4ED6456 
 542      525E5898 
 543 0e1a D9F85BEE 		.ascii	"\331\370[\356[\022\272\305_s[O\003\345\370\247\2149"
 543      5B12BAC5 
 543      5F735B4F 
 543      03E5F8A7 
 543      8C39
 544 0e2c B4499CBF 		.ascii	"\264I\234\277\033Lb\235\033\317\002;u&\221\024\006\266"
 544      1B4C629D 
 544      1BCF023B 
 544      75269114 
 544      06B6
 545 0e3e 58DDFA4F 		.ascii	"X\335\372O\317\004\277R\232\3745\367\206\025\370\214"
 545      CF04BF52 
 545      9AFC35F7 
 545      8615F88C 
 546 0e4e BFFA3174 		.ascii	"\277\3721t\027\220\307-Ub\232/\235\223L\001\361\353"
 546      1790C72D 
 546      55629A2F 
 546      9D934C01 
 546      F1EB
 547 0e60 D0EDF02D 		.ascii	"\320\355\360-\263j\341\365Y:<\243%\212\337\034n\363"
 547      B36AE1F5 
 547      593A3CA3 
 547      258ADF1C 
 547      6EF3
ARM GAS  /tmp/cckr3qri.s 			page 43


 548 0e72 F956054E 		.ascii	"\371V\005N\351\350i\216\341\350\345\223\034\335\322"
 548      E9E8698E 
 548      E1E8E593 
 548      1CDDD2
 549 0e81 E9456824 		.ascii	"\351Eh$\016/\037\321\234$\206mu\034\211\3371\211\304"
 549      0E2F1FD1 
 549      9C24866D 
 549      751C89DF 
 549      3189C4
 550 0e94 AAA7704C 		.ascii	"\252\247pL\243^\204\244\323\225,\215\010\255)\3159\352"
 550      A35E84A4 
 550      D3952C8D 
 550      08AD29CD 
 550      39EA
 551 0ea6 40A2E37F 		.ascii	"@\242\343\177\2026\356\363\354\016\307\374\3574\341"
 551      8236EEF3 
 551      EC0EC7FC 
 551      EF34E1
 552 0eb5 DF17E77F 		.ascii	"\337\027\347\177\241\236\177\015U#\376s\214\254\217"
 552      A19E7F0D 
 552      5523FE73 
 552      8CAC8F
 553 0ec4 E961BA3C 		.ascii	"\351a\272<\273\021\"C\013\004\330\315\220o\201\274\015"
 553      BB112243 
 553      0B04D8CD 
 553      906F81BC 
 553      0D
 554 0ed5 F2ED7626 		.ascii	"\362\355v&Tk\023\243\016qJ\236\035\222\246\\\037Kl\342"
 554      546B13A3 
 554      0E714A9E 
 554      1D92A65C 
 554      1F4B6CE2 
 555 0ee9 72CC1FB2 		.ascii	"r\314\037\262\264~v\027\363\232,7A(8\266Q\226}\012\024"
 555      B47E7617 
 555      F39A2C37 
 555      412838B6 
 555      51967D0A 
 556 0efe C744A1DE 		.ascii	"\307D\241\336j\367\235\206$\011A\245\261|D(\004j(\312"
 556      6AF79D86 
 556      240941A5 
 556      B17C4428 
 556      046A28CA 
 557 0f12 2669A5B0 		.ascii	"&i\245\260\364\317\314\012\034\307\376\330P\237\345"
 557      F4CFCC0A 
 557      1CC7FED8 
 557      509FE5
 558 0f21 56020D63 		.ascii	"V\002\015c\321\212H\370\256[\363?\017\224\020\026m\332"
 558      D18A48F8 
 558      AE5BF33F 
 558      0F941016 
 558      6DDA
 559 0f33 3FC3DB38 		.ascii	"?\303\3338%\326\335}\247\203\360\265W\033\276\024a\254"
 559      25D6DD7D 
 559      A783F0B5 
 559      571BBE14 
 559      61AC
 560 0f45 D5B6C750 		.ascii	"\325\266\307Pm\362+Xr\334\232g\337\207i_\273-\205\355"
ARM GAS  /tmp/cckr3qri.s 			page 44


 560      6DF22B58 
 560      72DC9A67 
 560      DF87695F 
 560      BB2D85ED 
 561 0f59 8C2BEC0B 		.ascii	"\214+\354\013\3005oe\2450\263VD\312\017{*ly,z\015&4"
 561      C0356F65 
 561      A530B356 
 561      44CA0F7B 
 561      2A6C792C 
 562 0f71 F20FDDDD 		.ascii	"\362\017\335\335SQ\210s\240\264\217-\225F\206\033\235"
 562      53518873 
 562      A0B48F2D 
 562      9546861B 
 562      9D
 563 0f82 D62E186B 		.ascii	"\326.\030km\241^k\037\331\322Z\333\177\014P\343\341"
 563      6DA15E6B 
 563      1FD9D25A 
 563      DB7F0C50 
 563      E3E1
 564 0f94 1500A69A 		.ascii	"\025\000\246\232\351N\022\022v@o\262"
 564      E94E1212 
 564      76406FB2 
 565 0fa0 BCFDF484 		.ascii	"\274\375\364\204\302\204\332\314\210\0219\217\030\252"
 565      C284DACC 
 565      8811398F 
 565      18AA
 566 0fae 6DC9C974 		.ascii	"m\311\311t\307fv\302Hc:\015u\033k\350FP\247\241\016"
 566      C76676C2 
 566      48633A0D 
 566      751B6BE8 
 566      4650A7A1 
 567 0fc3 6B0DC545 		.ascii	"k\015\305E\325\231\210Y3\302\341\311\236\262\306.F;"
 567      D5998859 
 567      33C2E1C9 
 567      9EB2C62E 
 567      463B
 568 0fd5 046546E0 		.ascii	"\004eF\340@\324S\226\306\261\010fhz\321g\3645\024}\211"
 568      40D45396 
 568      C6B10866 
 568      687AD167 
 568      F435147D 
 569 0fea DE3862B6 		.ascii	"\3368b\266\214\343\0126\016e\354}\025\200c\246\306A"
 569      8CE30A36 
 569      0E65EC7D 
 569      158063A6 
 569      C641
 570 0ffc D831D698 		.ascii	"\3301\326\230"
 571 1000 193522E8 		.ascii	"\0315\"\350iC\353x\347\230\261u\230|Z\004\0132K\215"
 571      6943EB78 
 571      E798B175 
 571      987C5A04 
 571      0B324B8D 
 572 1014 9105A54E 		.ascii	"\221\005\245Nck\2145vMo,\347mil3V4&\3041\255\000l\336"
 572      636B8C35 
 572      764D6F2C 
 572      E76D696C 
 572      33563426 
ARM GAS  /tmp/cckr3qri.s 			page 45


 573 102e 8CB04334 		.ascii	"\214\260C46SF\263\033\020\216!\255\250\037\317~m\250"
 573      365346B3 
 573      1B108E21 
 573      ADA81FCF 
 573      7E6DA8
 574 1041 A2EEDDFB 		.ascii	"\242\356\335\373I\334q\221`\3021;\215\345\351\021T/"
 574      49DC7191 
 574      60C2313B 
 574      8DE5E911 
 574      542F
 575 1053 DB92E79D 		.ascii	"\333\222\347\235Dx8\014\300\227m\206\007\235\005\230"
 575      4478380C 
 575      C0976D86 
 575      079D0598 
 576 1063 5123E27D 		.ascii	"Q#\342}c(^\327\036\347\361\341\232\245\011\220C\246"
 576      63285ED7 
 576      1EE7F1E1 
 576      9AA50990 
 576      43A6
 577 1075 3A13F8CC 		.ascii	":\023\370\314Xe-z\225]\265\245\262\343Xe\312\236\372"
 577      58652D7A 
 577      955DB5A5 
 577      B2E35865 
 577      CA9EFA
 578 1088 B7007CD5 		.ascii	"\267\000|\325Te\204\035c\225\231Q#\202\376`\250\262"
 578      5465841D 
 578      63959951 
 578      2382FE60 
 578      A8B2
 579 109a D67D8ACA 		.ascii	"\326}\212\312\226\215p\240\263\272\024\307Cw]?C\225"
 579      968D70A0 
 579      B3BA14C7 
 579      43775D3F 
 579      4395
 580 10ac 6DD0AB6C 		.ascii	"m\320\253lJ\212\223\271\016\317\356N\322j\210E\\6kE"
 580      4A8A93B9 
 580      0ECFEE4E 
 580      D26A8845 
 580      5C366B45 
 581 10c0 A4AC4F31 		.ascii	"\244\254O1RX\323~Ua\212\036\320\234\324X\264\036\016"
 581      5258D37E 
 581      55618A1E 
 581      D09CD458 
 581      B41E0E
 582 10d3 34CD9668 		.ascii	"4\315\226h;\343\242\035L\322\312J4\263VD\264\351=E\213"
 582      3BE3A21D 
 582      4CD2CA4A 
 582      34B35644 
 582      B4E93D45 
 583 10e8 35C64E1F 		.ascii	"5\306N\037\234!\263\216\035hv\212\3712TY\330\231\265"
 583      9C21B38E 
 583      1D68768A 
 583      F9325459 
 583      D899B5
 584 10fb 9C93D273 		.ascii	"\234\223\322s\272l<\205Y\253S\261*\307\\#9\242Mgd\257"
 584      BA6C3C85 
 584      59AB53B1 
ARM GAS  /tmp/cckr3qri.s 			page 46


 584      2AC75C23 
 584      39A24D67 
 585 1111 E3C173BE 		.ascii	"\343\301s\276\336\2461w\3728\220$.l3as\241!\2337\216"
 585      DEA63177 
 585      FA389024 
 585      2E6C3361 
 585      73A1219B 
 586 1127 99A9DB62 		.ascii	"\231\251\333b\304z\305\222M2D\230\262M\266\305L\237"
 586      C47AC592 
 586      4D324498 
 586      B24DB6C5 
 586      4C9F
 587 1139 67BAE9FA 		.ascii	"g\272\351\372\272\256\244v\015{\260\365Z\242+{\252\345"
 587      BAAEA476 
 587      0D7BB0F5 
 587      5AA22B7B 
 587      AAE5
 588 114b B0895A5E 		.ascii	"\260\211Z^\327\252\345\237\230W\345\346(Z\004\355zb"
 588      D7AAE59F 
 588      9857E5E6 
 588      285A04ED 
 588      7A62
 589 115d 4A63F479 		.ascii	"Jc\364y\031\017S,\253\254\203\321\034\275\237\272\310"
 589      190F532C 
 589      ABAC83D1 
 589      1CBD9FBA 
 589      C8
 590 116e 36B469F4 		.ascii	"6\264i\364\033\314\264\310/FG(\015\360\337\225)\006"
 590      1BCCB4C8 
 590      2F464728 
 590      0DF0DF95 
 590      2906
 591 1180 BEC37A60 		.ascii	"\276\303z`\343el\274\214\213\227q\3612W\274\314\025"
 591      E3656CBC 
 591      8C8B9771 
 591      F13257BC 
 591      CC15
 592 1192 2F53D993 		.ascii	"/S\331\223?\216\276\264/m=\352\252\356\356\337\253\020"
 592      3F8EBEB4 
 592      2F6D3DEA 
 592      AAEEEEDF 
 592      AB10
 593 11a4 17E2E219 		.ascii	"\027\342\342\031\005m,\350\233DP\012\216,\212\355\034"
 593      056D2CE8 
 593      9B44500A 
 593      8E2C8AED 
 593      1C
 594 11b5 60DAFDB6 		.ascii	"`\332\375\266\362\237\277V\247\300\207\020:e\332\007"
 594      F29FBF56 
 594      A7C08710 
 594      3A65DA07 
 595 11c5 9ABB6FA5 		.ascii	"\232\273o\245r\026\177-\000\335\320\001\361,\247\333"
 595      72167F2D 
 595      00DDD001 
 595      F12CA7DB 
 596 11d5 9DE6B4BB 		.ascii	"\235\346\264\273\323\034>\033\337\325\335\2358\033\217"
 596      D31C3E1B 
ARM GAS  /tmp/cckr3qri.s 			page 47


 596      DFD5DD9D 
 596      381B8F
 597 11e4 3FE9E9B1 		.ascii	"?\351\351\261\333f\273\225\215\243W\030o}JbS@\271W\357"
 597      DB66BB95 
 597      8DA35718 
 597      6F7D4A62 
 597      5340B957 
 598 11f9 E0AC93CE 		.ascii	"\340\254\223\316Hq423\322\015\011#\325\037\241\263h"
 598      48713432 
 598      33D20D09 
 598      23D51FA1 
 598      B368
 599 120b B5D1B495 		.ascii	"\265\321\264\225jgF\255Z\022\255\374\3142\244\376F\271"
 599      6A6746AD 
 599      5A12ADFC 
 599      CC32A4FE 
 599      46B9
 600 121d 9E8B4FD7 		.ascii	"\236\213O\327b\364t\355o\375w\035\327;,\270n5\225\365"
 600      62F474ED 
 600      6FFD771D 
 600      D73B2CB8 
 600      6E3595F5 
 601 1231 150B0DB5 		.ascii	"\025\013\015\265\231\266j\262\240\265\325\264\025^\307"
 601      99B66AB2 
 601      A0B5D5B4 
 601      155EC7
 602 1240 98B57AC7 		.ascii	"\230\265z\307\264\325[\026\255\266\231\266\332k\321"
 602      B4D55B16 
 602      ADB699B6 
 602      DA6BD1
 603 124f 6A3B15D4 		.ascii	"j;\025\324n.\020C\223\0041\222\035\312+\015D\204\252"
 603      6E2E1043 
 603      93043192 
 603      1DCA2B0D 
 603      4484AA
 604 1262 48581C58 		.ascii	"HX\034X\316\244\215\316\313/\206\207\200\344\371\315"
 604      CEA48DCE 
 604      CB2F8687 
 604      80E4F9CD 
 605 1272 B8C7FCF9 		.ascii	"\270\307\374\371Lf\242(\"\361\222\340\035=nd~\311\350"
 605      4C66A228 
 605      22F192E0 
 605      1D3D6E64 
 605      7EC9E8
 606 1285 C747B947 		.ascii	"\307G\271G\027\214\031\345~\370\261\342\247R\340\017"
 606      178C19E5 
 606      7EF8B1E2 
 606      A752E00F 
 607 1295 7765D744 		.ascii	"we\327D\304l^\254\274\277*\\%\334/\360\317\204\262C"
 607      C46C5EAC 
 607      BCBF2A5C 
 607      25DC2FF0 
 607      CF84B243 
 608 12a9 55A51535 		.ascii	"U\245\0255A!;\"\005CU\022\"\220Z\203\256\303\002\322"
 608      41213B22 
 608      05435512 
 608      22905A83 
ARM GAS  /tmp/cckr3qri.s 			page 48


 608      AEC302D2 
 609 12bd 608BCA95 		.ascii	"`\213\312\225|iy\250J\310\016\004\2052\276\246B\012"
 609      7C6979A8 
 609      4AC80E04 
 609      8532BEA6 
 609      420A
 610 12cf 4893AB85 		.ascii	"H\223\253\205\010j\354\013\004H\363T>\030\024\205H\244"
 610      086AEC0B 
 610      0448F354 
 610      3E181485 
 610      48A4
 611 12e1 20BB3C5C 		.ascii	" \273<\\)d\227\206\203\223\263\203\302\244l\324\360"
 611      29649786 
 611      8393B383 
 611      C2A46CD4 
 611      F0
 612 12f2 99503892 		.ascii	"\231P8\222-\2115U\317f\243\233r\276\"\273:,J\221\354"
 612      2D893555 
 612      CF66A39B 
 612      72BE22BB 
 612      3A2C4A91 
 613 1307 E292B183 		.ascii	"\342\222\261\203\362\262\307\214)\310F\002M\312\005"
 613      F2B2C78C 
 613      29C84602 
 613      4DCA05
 614 1316 B92B2A82 		.ascii	"\271+*\202\030\026\025(\332\310\263\003\247\262\211"
 614      18161528 
 614      DAC8B303 
 614      A7B289
 615 1325 0050E33E 		.ascii	"\000P\343>\350\002\342\007\244>\010'\360\330\270\321"
 615      E802E207 
 615      A43E0827 
 615      F0D8B8D1 
 616 1335 E3469778 		.ascii	"\343F\227x\361mq\311\370\011\030;P4jd\301S7\341;Es\201"
 616      F16D71C9 
 616      F809183B 
 616      50346A64 
 616      C15337E1 
 617 134d 9227E9A7 		.ascii	"\222'\351\247\242'\241\345\230\361\371\377>\252 \015"
 617      A227A1E5 
 617      98F1F9FF 
 617      3EAA200D 
 618 135d E185AB2B 		.ascii	"\341\205\253+\303A\0148~\302\330\361\005\243\002\350"
 618      C3410C38 
 618      7EC2D8F1 
 618      05A302E8 
 619 136d AFFDC96D 		.ascii	"\257\375\311m\361X\244\360@\301\250\307G\347\217\352"
 619      F158A4F0 
 619      40C1A8C7 
 619      47E78FEA 
 620 137d AB292B1C 		.ascii	"\253)+\034_\\\222\032\256\016\340\246^\254\246Ay\010"
 620      5F5C921A 
 620      AE0EE0A6 
 620      5EACA641 
 620      7908
 621 138f 41D118BE 		.ascii	"A\321\030\276M+\255\010\227>\033\210T\013B0\003\021"
 621      4D2BAD08 
ARM GAS  /tmp/cckr3qri.s 			page 49


 621      973E1B88 
 621      540B4230 
 621      0311
 622 13a1 09D64893 		.ascii	"\011\326H\223K'\227V :\031\305%\005\201\202\307J\236"
 622      4B279756 
 622      203A19C5 
 622      25058182 
 622      C74A9E
 623 13b4 0AE43F95 		.ascii	"\012\344?\225?fT\337GF\026\227P\317\201\274\237\351"
 623      3F6654DF 
 623      47461697 
 623      50CF81BC 
 623      9FE9
 624 13c6 4B728704 		.ascii	"Kr\207\004\206\367\301\010\001\200\300R\346\207\253"
 624      86F7C108 
 624      0180C052 
 624      E687AB
 625 13d5 CA42133D 		.ascii	"\312B\023=\245p\301Z)\253\340'F\220\031\011\242\030"
 625      A570C15A 
 625      29ABE027 
 625      46901909 
 625      A218
 626 13e7 16238392 		.ascii	"\026#\203\222\251V\224\342\232--\257\224j\261\261T\326"
 626      A95694E2 
 626      9A2D2DAF 
 626      946AB1B1 
 626      54D6
 627 13f9 48426D40 		.ascii	"HBm@J\201\3530G\010\221\311\021\325l2\245rQ\340\203"
 627      4A81EB30 
 627      470891C9 
 627      11D56C32 
 627      A57251E0 
 628 140e 91C0EF6A 		.ascii	"\221\300\357j\204\032$nViy@S4\330\031ri9\266\032\257"
 628      841A246E 
 628      56697940 
 628      5334D819 
 628      726939B6 
 629 1424 0211907C 		.ascii	"\002\021\220|q8Ou\240J\250\225\320\245Z\024&\025\332"
 629      71384F75 
 629      A04AA895 
 629      D0A55A14 
 629      2615DA
 630 1437 40554C73 		.ascii	"@ULsd\321\330\374\261\265\250feu\250\002\373\344o\362"
 630      64D1D8FC 
 630      B1B5A866 
 630      6575A802 
 630      FBE46FF2 
 631 144b F3517595 		.ascii	"\363Qu\225\377T\251Z\014\205\003\012n(\234\212T\214"
 631      FF54A95A 
 631      0C85030A 
 631      6E289C8A 
 631      548C
 632 145d D4210D77 		.ascii	"\324!\015w\214_^\032\026\005\354\345\2708\200\354\242"
 632      8C5F5E1A 
 632      1605ECE5 
 632      B83880EC 
 632      A2
ARM GAS  /tmp/cckr3qri.s 			page 50


 633 146e 54AA7DB0 		.ascii	"T\252}\260w(\201IC+\261\022Da\"r\342\200\344\212\344"
 633      77288149 
 633      432BB112 
 633      44612272 
 633      E280E48A 
 634 1483 0E416928 		.ascii	"\016Ai(J\303P\032\356\212\344\345\240\224\213R\036J"
 634      4AC3501A 
 634      EE8AE4E5 
 634      A0948B52 
 634      1E4A
 635 1495 83501A8C 		.ascii	"\203P\032\214\322\257PB\365\362P\275<T/\017\325\033"
 635      D2AF5042 
 635      F5F250BD 
 635      3C542F0F 
 635      D51B
 636 14a7 84EA0DCA 		.ascii	"\204\352\015\312\345\304\301\234\370+N\034\302\211C"
 636      E5C4C19C 
 636      F82B4E1C 
 636      C28943
 637 14b6 39711827 		.ascii	"9q\030'\016w\211\2719(\345r\025\"\272\014J\251\016 "
 637      0E7789B9 
 637      3928E572 
 637      1522BA0C 
 637      4AA90E20 
 638 14ca 6E53B186 		.ascii	"nS\261\206\237\023Dt\015W\004\005\321]Z\316\213X\355"
 638      9F134474 
 638      0D570405 
 638      D15D5ACE 
 638      8B58ED
 639 14dd 7CA5E095 		.ascii	"|\245\340\225\210\037\242?\302]\252\244\270\021z\006"
 639      881FA23F 
 639      C25DAAA4 
 639      B8117A06 
 640 14ed 5B4C9544 		.ascii	"[L\225D\241,\002z\3047)\225\221\211\350\217\304=Pl!"
 640      A12C027A 
 640      C4372995 
 640      9189E88F 
 640      C43D506C 
 641 1502 771E3138 		.ascii	"w\03618\031\375\311+\324\206$\244\026\301\363\234\024"
 641      19FDC92B 
 641      D48624A4 
 641      16C1F39C 
 641      14
 642 1513 7EE6BFAA 		.ascii	"~\346\277\252\323\204IB\225T\311G\236\3056\375\034\276"
 642      D3844942 
 642      9554C947 
 642      9EC536FD 
 642      1CBE
 643 1525 7155076A 		.ascii	"qU\007j2TK\252\010EP\244\312\244l\013\227\370\252\003"
 643      32544BAA 
 643      084550A4 
 643      CAA46C0B 
 643      97F8AA03 
 644 1539 CFF12129 		.ascii	"\317\361!)T5\261\017r\315\310D\260\267\024\270E\005"
 644      5435B10F 
 644      72CDC844 
 644      B0B714B8 
ARM GAS  /tmp/cckr3qri.s 			page 51


 644      4505
 645 154b 42B55085 		.ascii	"B\265P\205\002\343DT\013Y<\256\337\007\363\306W@?\243"
 645      02E34454 
 645      0B593CAE 
 645      DF07F3C6 
 645      57403FA3 
 646 155f C2EA70B8 		.ascii	"\302\352p\270\"\265R\261Rt\015?W%\210\236J\260\262\241"
 646      22B552B1 
 646      52740D3F 
 646      5725889E 
 646      4AB0B2A1 
 647 1573 8E8C96F0 		.ascii	"\216\214\226\360\204\272\254\037\261[\244\002A\024\252"
 647      84BAAC1F 
 647      B15BA402 
 647      4114AA
 648 1582 4A91823C 		.ascii	"J\221\202<J\221\0179-\216\253\001\011\342\007\362q5"
 648      4A910F39 
 648      2D8EAB01 
 648      09E207F2 
 648      7135
 649 1594 7EE05B37 		.ascii	"~\340[7\376\223O\254\015V\362X\255>I\275{\304i\014\206"
 649      FE934FAC 
 649      0D56F258 
 649      AD3E49BD 
 649      7BC4690C 
 650 15a9 FC91C1B5 		.ascii	"\374\221\301\265\265hX\250D\032G8\210\257\007\222\301"
 650      B56858A8 
 650      441A4738 
 650      88AF0792 
 650      C1
 651 15ba 2099B3F3 		.ascii	" \231\263\363\307\026\217.F\000J\313\262\3019\271\265"
 651      C7168F2E 
 651      46004ACB 
 651      B2C139B9 
 651      B5
 652 15cb 3808F72B 		.ascii	"8\010\367+\030;2P\214\272\227\257\014\224 \257)\020"
 652      183B3250 
 652      8CBA97AF 
 652      0C9420AF 
 652      2910
 653 15dd CAB8FC22 		.ascii	"\312\270\374\"\367\270\202\222\"\327\204\221E\356\261"
 653      F7B88292 
 653      22D78491 
 653      45EEB1
 654 15ec 3938CB1D 		.ascii	"98\313\035Y\344z$\277\310\023\201\212\356PY\251\350"
 654      59E47A24 
 654      BFC81381 
 654      8AEE5059 
 654      A9E8
 655 15fe 0945CA43 		.ascii	"\011E\312Ce\222/\"T\224\205\252\202B\255g\222P*\205"
 655      65922F22 
 655      549485AA 
 655      8242AD67 
 655      92502A85 
 656 1612 C57E71CE 		.ascii	"\305~q\316\002Jm\024\204\320\203X\213s\251\026\017\223"
 656      024A6D14 
 656      84D08358 
ARM GAS  /tmp/cckr3qri.s 			page 52


 656      8B73A916 
 656      0F93
 657 1624 2A21577E 		.ascii	"*!W~Q.Jy\356\361#\213rq\226\307\025\024\271\212QaqQ"
 657      512E4A79 
 657      EEF1238B 
 657      727196C7 
 657      1514B98A 
 658 163c 9E2B3FBF 		.ascii	"\236+?\277(\245\244ht\361(\367#c\0203H\303>\034\231"
 658      28A5A468 
 658      74F128F7 
 658      23631033 
 658      48C33E1C 
 659 1651 4295D82E 		.ascii	"B\225\330.\361%\\#\271\261\365\246H\265\017\327\224"
 659      F1255C23 
 659      B9B1F5A6 
 659      48B50FD7 
 659      94
 660 1662 A58838EF 		.ascii	"\245\2108\357\253\216\315\221\320\320\234\332\034$`"
 660      AB8ECD91 
 660      D0D09CDA 
 660      1C2460
 661 1671 5FE50E75 		.ascii	"_\345\016uZ$\\Q#\205\302U)\205\303Jr\363<\205\2719%"
 661      5A245C51 
 661      2385C255 
 661      2985C34A 
 661      72F33C85 
 662 1688 B983D025 		.ascii	"\271\203\320%\267$7\027]\362Jr\007\247\004\036Ff\243"
 662      B7243717 
 662      5DF24A72 
 662      07A7041E 
 662      4666A3
 663 169b 072965BC 		.ascii	"\007)e\274\004D\362(\343\275\013\241y\312\005\344)\242"
 663      0444F228 
 663      E3BD0BA1 
 663      79CA05E4 
 663      29A2
 664 16ad 17A82383 		.ascii	"\027\250#\203\360\212\344\346\037\343\024\371`\211P"
 664      F08AE4E6 
 664      1FE314F9 
 664      608950
 665 16bc 592D88BC 		.ascii	"Y-\210\274T\203\242G5/J\003s\330\210[B\205\267S\225"
 665      5483A247 
 665      352F4A03 
 665      73D8885B 
 665      4285B753 
 666 16d1 0A6B2A43 		.ascii	"\012k*C\301\2204Y\251\221\353-'\317i\244ND\012W\247"
 666      C1903459 
 666      A991EB2D 
 666      27CF69A4 
 666      4E440A57 
 667 16e6 E20CE92E 		.ascii	"\342\014\351.=!\216 \375L\255 HEq\361\372$$U\001BU!"
 667      3D218E20 
 667      FD4CAD20 
 667      484571F1 
 667      FA242455 
 668 16fe C91304A1 		.ascii	"\311\023\004\241\372\223\"\205\371QU\3743\025\202Wy"
 668      FA932285 
ARM GAS  /tmp/cckr3qri.s 			page 53


 668      F95155FC 
 668      33158257 
 668      79
 669 170f 185F756B 		.ascii	"\030_uk\002\257\020\212\362kDd\350\322M\345\364\323"
 669      02AF108A 
 669      F26B4464 
 669      E8D24DE5 
 669      F4D3
 670 1721 2DC6F2F5 		.ascii	"-\306\362\3657\220(\203\236\001\205\253o\241\346H\""
 670      37902883 
 670      9E0185AB 
 670      6FA1E648 
 670      22
 671 1732 5F15E14B 		.ascii	"_\025\341K\245\30035eT-\314\2517\277\370\211\222\374"
 671      A5C03335 
 671      65542DCC 
 671      A937BFF8 
 671      8992FC
 672 1745 C281437C 		.ascii	"\302\201C|X\331\371\341\232*\0105\330\223\224P\203\357"
 672      58D9F9E1 
 672      9A2A0835 
 672      D8939450 
 672      83EF
 673 1757 FE1F68CB 		.ascii	"\376\037h\313\336x"
 673      DE78
 674              		.text
 675              		.section	.gnu.lto_.symtab.c5189ec495287f61,"",%progbits
 676 0000 73693730 		.ascii	"si70x0_stop\000\000\000\000\000\000\000\000\000\000"
 676      78305F73 
 676      746F7000 
 676      00000000 
 676      00000000 
 677 0015 00005102 		.ascii	"\000\000Q\002\000\000si70x0_reset\000\000\000\000\000"
 677      00007369 
 677      37307830 
 677      5F726573 
 677      65740000 
 678 002c 00000000 		.ascii	"\000\000\000\000\000\000\000Z\002\000\000si70x0_set"
 678      0000005A 
 678      02000073 
 678      69373078 
 678      305F7365 
 679 0041 5265736F 		.ascii	"Resolution\000\000\000\000\000\000\000\000\000\000\000"
 679      6C757469 
 679      6F6E0000 
 679      00000000 
 679      00000000 
 680 0056 00600200 		.ascii	"\000`\002\000\000si70x0_init\000\000\000\000\000\000"
 680      00736937 
 680      3078305F 
 680      696E6974 
 680      00000000 
 681 006c 00000000 		.ascii	"\000\000\000\000\000\000i\002\000\000si70x0_heaterE"
 681      00006902 
 681      00007369 
 681      37307830 
 681      5F686561 
ARM GAS  /tmp/cckr3qri.s 			page 54


 682 0084 6E61626C 		.ascii	"nable\000\000\000\000\000\000\000\000\000\000\000\000"
 682      65000000 
 682      00000000 
 682      00000000 
 682      00
 683 0095 72020000 		.ascii	"r\002\000\000si70x0_setHeaterCurrent\000\000\000\000"
 683      73693730 
 683      78305F73 
 683      65744865 
 683      61746572 
 684 00b4 00000000 		.ascii	"\000\000\000\000\000\000\000\000x\002\000\000si70x0"
 684      00000000 
 684      78020000 
 684      73693730 
 684      7830
 685 00c6 5F726561 		.ascii	"_readTemperature\000\000\000\000\000\000\000\000\000"
 685      6454656D 
 685      70657261 
 685      74757265 
 685      00000000 
 686 00df 00000081 		.ascii	"\000\000\000\201\002\000\000si70x0_readHumidity\000"
 686      02000073 
 686      69373078 
 686      305F7265 
 686      61644875 
 687 00fa 00000000 		.ascii	"\000\000\000\000\000\000\000\000\000\000\000\211\002"
 687      00000000 
 687      00000089 
 687      02
 688 0107 00004932 		.ascii	"\000\000I2CSensor_stop\000\000\002\000\000\000\000\000"
 688      4353656E 
 688      736F725F 
 688      73746F70 
 688      00000200 
 689 011f 00000000 		.ascii	"\000\000\000\000\216\002\000\000I2CSensor_transact_"
 689      8E020000 
 689      49324353 
 689      656E736F 
 689      725F7472 
 690 013a 62756600 		.ascii	"buf\000\000\002\000\000\000\000\000\000\000\000\000"
 690      00020000 
 690      00000000 
 690      000000
 691 0149 94020000 		.ascii	"\224\002\000\000I2CSensor_init\000\000\002\000\000\000"
 691      49324353 
 691      656E736F 
 691      725F696E 
 691      69740000 
 692 0161 00000000 		.ascii	"\000\000\000\000\000\000\232\002\000\000"
 692      00009A02 
 692      0000
 693              		.text
 694              		.section	.gnu.lto_.opts,"",%progbits
 695 0000 272D6D63 		.ascii	"'-mcpu=cortex-m4' '-mfloat-abi=hard' '-mfpu=fpv4-sp"
 695      70753D63 
 695      6F727465 
 695      782D6D34 
ARM GAS  /tmp/cckr3qri.s 			page 55


 695      2720272D 
 696 0033 2D643136 		.ascii	"-d16' '-mno-thumb-interwork' '-mthumb' '-O2' '-fomi"
 696      2720272D 
 696      6D6E6F2D 
 696      7468756D 
 696      622D696E 
 697 0066 742D6672 		.ascii	"t-frame-pointer' '-falign-functions=16' '-ffunction"
 697      616D652D 
 697      706F696E 
 697      74657227 
 697      20272D66 
 698 0099 2D736563 		.ascii	"-sections' '-fdata-sections' '-fno-common' '-flto' "
 698      74696F6E 
 698      73272027 
 698      2D666461 
 698      74612D73 
 699 00cc 272D6673 		.ascii	"'-fsingle-precision-constant'\000"
 699      696E676C 
 699      652D7072 
 699      65636973 
 699      696F6E2D 
 700              		.text
 701              		.section	.text.si70x0_stop,"ax",%progbits
 702              		.align	2
 703              		.p2align 4,,15
 704              		.global	si70x0_stop
 705              		.thumb
 706              		.thumb_func
 707              		.type	si70x0_stop, %function
 708              	si70x0_stop:
 709              		@ args = 0, pretend = 0, frame = 0
 710              		@ frame_needed = 0, uses_anonymous_args = 0
 711              		@ link register save eliminated.
 712 0000 FFF7FEBF 		b	I2CSensor_stop
 713              		.size	si70x0_stop, .-si70x0_stop
 714 0004 AFF30080 		.section	.text.si70x0_reset,"ax",%progbits
 714      AFF30080 
 714      AFF30080 
 715              		.align	2
 716              		.p2align 4,,15
 717              		.global	si70x0_reset
 718              		.thumb
 719              		.thumb_func
 720              		.type	si70x0_reset, %function
 721              	si70x0_reset:
 722              		@ args = 0, pretend = 0, frame = 0
 723              		@ frame_needed = 0, uses_anonymous_args = 0
 724              		@ link register save eliminated.
 725 0000 FE23     		movs	r3, #254
 726 0002 80F82230 		strb	r3, [r0, #34]
 727 0006 0121     		movs	r1, #1
 728 0008 0022     		movs	r2, #0
 729 000a FFF7FEBF 		b	I2CSensor_transact_buf
 730              		.size	si70x0_reset, .-si70x0_reset
 731 000e 00BF     		.section	.text.si70x0_setResolution,"ax",%progbits
 732              		.align	2
 733              		.p2align 4,,15
ARM GAS  /tmp/cckr3qri.s 			page 56


 734              		.global	si70x0_setResolution
 735              		.thumb
 736              		.thumb_func
 737              		.type	si70x0_setResolution, %function
 738              	si70x0_setResolution:
 739              		@ args = 0, pretend = 0, frame = 0
 740              		@ frame_needed = 0, uses_anonymous_args = 0
 741 0000 0329     		cmp	r1, #3
 742 0002 38B5     		push	{r3, r4, r5, lr}
 743 0004 9CBF     		itt	ls
 744 0006 104B     		ldrls	r3, .L9
 745 0008 5D5C     		ldrbls	r5, [r3, r1]	@ zero_extendqisi2
 746 000a 4FF0E703 		mov	r3, #231
 747 000e 4FF00101 		mov	r1, #1
 748 0012 0A46     		mov	r2, r1
 749 0014 80F82230 		strb	r3, [r0, #34]
 750 0018 0446     		mov	r4, r0
 751 001a 88BF     		it	hi
 752 001c 0025     		movhi	r5, #0
 753 001e FFF7FEFF 		bl	I2CSensor_transact_buf
 754 0022 0246     		mov	r2, r0
 755 0024 00B1     		cbz	r0, .L8
 756 0026 38BD     		pop	{r3, r4, r5, pc}
 757              	.L8:
 758 0028 94F82630 		ldrb	r3, [r4, #38]	@ zero_extendqisi2
 759 002c 03F0FC03 		and	r3, r3, #252
 760 0030 1D43     		orrs	r5, r5, r3
 761 0032 E623     		movs	r3, #230
 762 0034 84F82350 		strb	r5, [r4, #35]
 763 0038 84F82230 		strb	r3, [r4, #34]
 764 003c 2046     		mov	r0, r4
 765 003e 0221     		movs	r1, #2
 766 0040 BDE83840 		pop	{r3, r4, r5, lr}
 767 0044 FFF7FEBF 		b	I2CSensor_transact_buf
 768              	.L10:
 769              		.align	2
 770              	.L9:
 771 0048 00000000 		.word	.LANCHOR0
 772              		.size	si70x0_setResolution, .-si70x0_setResolution
 773 004c AFF30080 		.section	.text.si70x0_init,"ax",%progbits
 774              		.align	2
 775              		.p2align 4,,15
 776              		.global	si70x0_init
 777              		.thumb
 778              		.thumb_func
 779              		.type	si70x0_init, %function
 780              	si70x0_init:
 781              		@ args = 0, pretend = 0, frame = 16
 782              		@ frame_needed = 0, uses_anonymous_args = 0
 783 0000 F0B5     		push	{r4, r5, r6, r7, lr}
 784 0002 164B     		ldr	r3, .L12
 785 0004 164E     		ldr	r6, .L12+4
 786 0006 0446     		mov	r4, r0
 787 0008 0F46     		mov	r7, r1
 788 000a 93E80700 		ldmia	r3, {r0, r1, r2}
 789 000e 89B0     		sub	sp, sp, #36
 790 0010 05AB     		add	r3, sp, #20
ARM GAS  /tmp/cckr3qri.s 			page 57


 791 0012 03C3     		stmia	r3!, {r0, r1}
 792 0014 3078     		ldrb	r0, [r6]	@ zero_extendqisi2
 793 0016 1A70     		strb	r2, [r3]
 794 0018 4FF49675 		mov	r5, #300
 795 001c 04F12603 		add	r3, r4, #38
 796 0020 05AA     		add	r2, sp, #20
 797 0022 00F1010E 		add	lr, r0, #1
 798 0026 3946     		mov	r1, r7
 799 0028 0093     		str	r3, [sp]
 800 002a 00F13007 		add	r7, r0, #48
 801 002e 04F12203 		add	r3, r4, #34
 802 0032 2046     		mov	r0, r4
 803 0034 0195     		str	r5, [sp, #4]
 804 0036 0292     		str	r2, [sp, #8]
 805 0038 0025     		movs	r5, #0
 806 003a 4022     		movs	r2, #64
 807 003c 86F800E0 		strb	lr, [r6]
 808 0040 8DF81B70 		strb	r7, [sp, #27]
 809 0044 8DF81D50 		strb	r5, [sp, #29]
 810 0048 8DF81E50 		strb	r5, [sp, #30]
 811 004c FFF7FEFF 		bl	I2CSensor_init
 812 0050 2046     		mov	r0, r4
 813 0052 0221     		movs	r1, #2
 814 0054 FFF7FEFF 		bl	si70x0_setResolution
 815 0058 09B0     		add	sp, sp, #36
 816              		@ sp needed
 817 005a F0BD     		pop	{r4, r5, r6, r7, pc}
 818              	.L13:
 819              		.align	2
 820              	.L12:
 821 005c 00000000 		.word	.LANCHOR1
 822 0060 00000000 		.word	.LANCHOR2
 823              		.size	si70x0_init, .-si70x0_init
 824 0064 AFF30080 		.section	.text.si70x0_heaterEnable,"ax",%progbits
 824      AFF30080 
 824      AFF30080 
 825              		.align	2
 826              		.p2align 4,,15
 827              		.global	si70x0_heaterEnable
 828              		.thumb
 829              		.thumb_func
 830              		.type	si70x0_heaterEnable, %function
 831              	si70x0_heaterEnable:
 832              		@ args = 0, pretend = 0, frame = 0
 833              		@ frame_needed = 0, uses_anonymous_args = 0
 834 0000 38B5     		push	{r3, r4, r5, lr}
 835 0002 0D46     		mov	r5, r1
 836 0004 E723     		movs	r3, #231
 837 0006 0121     		movs	r1, #1
 838 0008 80F82230 		strb	r3, [r0, #34]
 839 000c 0A46     		mov	r2, r1
 840 000e 0446     		mov	r4, r0
 841 0010 FFF7FEFF 		bl	I2CSensor_transact_buf
 842 0014 88B9     		cbnz	r0, .L15
 843 0016 94F82620 		ldrb	r2, [r4, #38]	@ zero_extendqisi2
 844 001a 7DB9     		cbnz	r5, .L18
 845 001c 02F0FB02 		and	r2, r2, #251
ARM GAS  /tmp/cckr3qri.s 			page 58


 846              	.L17:
 847 0020 E623     		movs	r3, #230
 848 0022 84F82320 		strb	r2, [r4, #35]
 849 0026 84F82230 		strb	r3, [r4, #34]
 850 002a 2046     		mov	r0, r4
 851 002c 0221     		movs	r1, #2
 852 002e 0022     		movs	r2, #0
 853 0030 FFF7FEFF 		bl	I2CSensor_transact_buf
 854 0034 08B9     		cbnz	r0, .L15
 855 0036 84F82150 		strb	r5, [r4, #33]
 856              	.L15:
 857 003a 38BD     		pop	{r3, r4, r5, pc}
 858              	.L18:
 859 003c 42F00402 		orr	r2, r2, #4
 860 0040 EEE7     		b	.L17
 861              		.size	si70x0_heaterEnable, .-si70x0_heaterEnable
 862 0042 00BFAFF3 		.section	.text.si70x0_setHeaterCurrent,"ax",%progbits
 862      0080AFF3 
 862      0080AFF3 
 862      0080
 863              		.align	2
 864              		.p2align 4,,15
 865              		.global	si70x0_setHeaterCurrent
 866              		.thumb
 867              		.thumb_func
 868              		.type	si70x0_setHeaterCurrent, %function
 869              	si70x0_setHeaterCurrent:
 870              		@ args = 0, pretend = 0, frame = 0
 871              		@ frame_needed = 0, uses_anonymous_args = 0
 872              		@ link register save eliminated.
 873 0000 01F00F01 		and	r1, r1, #15
 874 0004 5122     		movs	r2, #81
 875 0006 80F82310 		strb	r1, [r0, #35]
 876 000a 80F82220 		strb	r2, [r0, #34]
 877 000e 0221     		movs	r1, #2
 878 0010 0022     		movs	r2, #0
 879 0012 FFF7FEBF 		b	I2CSensor_transact_buf
 880              		.size	si70x0_setHeaterCurrent, .-si70x0_setHeaterCurrent
 881 0016 00BFAFF3 		.section	.text.si70x0_readTemperature,"ax",%progbits
 881      0080AFF3 
 881      0080
 882              		.align	2
 883              		.p2align 4,,15
 884              		.global	si70x0_readTemperature
 885              		.thumb
 886              		.thumb_func
 887              		.type	si70x0_readTemperature, %function
 888              	si70x0_readTemperature:
 889              		@ args = 0, pretend = 0, frame = 0
 890              		@ frame_needed = 0, uses_anonymous_args = 0
 891 0000 38B5     		push	{r3, r4, r5, lr}
 892 0002 E323     		movs	r3, #227
 893 0004 0D46     		mov	r5, r1
 894 0006 80F82230 		strb	r3, [r0, #34]
 895 000a 0121     		movs	r1, #1
 896 000c 0222     		movs	r2, #2
 897 000e 0446     		mov	r4, r0
ARM GAS  /tmp/cckr3qri.s 			page 59


 898 0010 FFF7FEFF 		bl	I2CSensor_transact_buf
 899 0014 B0B9     		cbnz	r0, .L21
 900 0016 94F82620 		ldrb	r2, [r4, #38]	@ zero_extendqisi2
 901 001a 94F82730 		ldrb	r3, [r4, #39]	@ zero_extendqisi2
 902 001e 9FED0A6A 		flds	s12, .L22
 903 0022 9FED0A7A 		flds	s14, .L22+4
 904 0026 DFED0A7A 		flds	s15, .L22+8
 905 002a 03EB0223 		add	r3, r3, r2, lsl #8
 906 002e 1BB2     		sxth	r3, r3
 907 0030 06EE903A 		fmsr	s13, r3	@ int
 908 0034 F8EEE66A 		fsitos	s13, s13
 909 0038 66EE866A 		fmuls	s13, s13, s12
 910 003c E6EE877A 		vfma.f32	s15, s13, s14
 911 0040 C5ED007A 		fsts	s15, [r5]
 912              	.L21:
 913 0044 38BD     		pop	{r3, r4, r5, pc}
 914              	.L23:
 915 0046 00BF     		.align	2
 916              	.L22:
 917 0048 52B82F43 		.word	1127200850
 918 004c 00008037 		.word	931135488
 919 0050 66663BC2 		.word	3258672742
 920              		.size	si70x0_readTemperature, .-si70x0_readTemperature
 921 0054 AFF30080 		.section	.text.si70x0_readHumidity,"ax",%progbits
 921      AFF30080 
 921      AFF30080 
 922              		.align	2
 923              		.p2align 4,,15
 924              		.global	si70x0_readHumidity
 925              		.thumb
 926              		.thumb_func
 927              		.type	si70x0_readHumidity, %function
 928              	si70x0_readHumidity:
 929              		@ args = 0, pretend = 0, frame = 0
 930              		@ frame_needed = 0, uses_anonymous_args = 0
 931 0000 38B5     		push	{r3, r4, r5, lr}
 932 0002 E523     		movs	r3, #229
 933 0004 0D46     		mov	r5, r1
 934 0006 80F82230 		strb	r3, [r0, #34]
 935 000a 0121     		movs	r1, #1
 936 000c 0222     		movs	r2, #2
 937 000e 0446     		mov	r4, r0
 938 0010 FFF7FEFF 		bl	I2CSensor_transact_buf
 939 0014 18BB     		cbnz	r0, .L25
 940 0016 94F82620 		ldrb	r2, [r4, #38]	@ zero_extendqisi2
 941 001a 94F82730 		ldrb	r3, [r4, #39]	@ zero_extendqisi2
 942 001e 9FED106A 		flds	s12, .L26
 943 0022 9FED107A 		flds	s14, .L26+4
 944 0026 03EB0223 		add	r3, r3, r2, lsl #8
 945 002a 9BB2     		uxth	r3, r3
 946 002c 06EE903A 		fmsr	s13, r3	@ int
 947 0030 F8EEE66A 		fsitos	s13, s13
 948 0034 F9EE087A 		fconsts	s15, #152
 949 0038 66EE866A 		fmuls	s13, s13, s12
 950 003c E6EE877A 		vfma.f32	s15, s13, s14
 951 0040 FDEEE77A 		ftosizs	s15, s15
 952 0044 17EE903A 		fmrs	r3, s15	@ int
ARM GAS  /tmp/cckr3qri.s 			page 60


 953 0048 642B     		cmp	r3, #100
 954 004a A8BF     		it	ge
 955 004c 6423     		movge	r3, #100
 956 004e 23EAE373 		bic	r3, r3, r3, asr #31
 957 0052 07EE103A 		fmsr	s14, r3	@ int
 958 0056 F8EEC77A 		fsitos	s15, s14
 959 005a C5ED007A 		fsts	s15, [r5]
 960              	.L25:
 961 005e 38BD     		pop	{r3, r4, r5, pc}
 962              	.L27:
 963              		.align	2
 964              	.L26:
 965 0060 0000FA42 		.word	1123680256
 966 0064 00008037 		.word	931135488
 967              		.size	si70x0_readHumidity, .-si70x0_readHumidity
 968 0068 AFF30080 		.section	.rodata
 968      AFF30080 
 969              		.align	2
 970              		.set	.LANCHOR1,. + 0
 971              	.LC0:
 972 0000 53693730 		.ascii	"Si70x0-X\000"
 972      78302D58 
 972      00
 973 0009 0000     		.space	2
 974 000b 00       		.section	.rodata.CSWTCH.6,"a",%progbits
 975              		.align	2
 976              		.set	.LANCHOR0,. + 0
 977              		.type	CSWTCH.6, %object
 978              		.size	CSWTCH.6, 4
 979              	CSWTCH.6:
 980 0000 01       		.byte	1
 981 0001 02       		.byte	2
 982 0002 03       		.byte	3
 983 0003 00       		.byte	0
 984              		.section	.bss.sensCount,"aw",%nobits
 985              		.set	.LANCHOR2,. + 0
 986              		.type	sensCount, %object
 987              		.size	sensCount, 1
 988              	sensCount:
 989 0000 00       		.space	1
 990              		.comm	__gnu_lto_v1,1,1
 991              		.ident	"GCC: (GNU Tools for ARM Embedded Processors) 4.8.4 20140526 (release) [ARM/embedded-4_8-br
ARM GAS  /tmp/cckr3qri.s 			page 61


DEFINED SYMBOLS
                            *ABS*:0000000000000000 si70x0.c
     /tmp/cckr3qri.s:702    .text.si70x0_stop:0000000000000000 $t
     /tmp/cckr3qri.s:708    .text.si70x0_stop:0000000000000000 si70x0_stop
     /tmp/cckr3qri.s:715    .text.si70x0_reset:0000000000000000 $t
     /tmp/cckr3qri.s:721    .text.si70x0_reset:0000000000000000 si70x0_reset
     /tmp/cckr3qri.s:732    .text.si70x0_setResolution:0000000000000000 $t
     /tmp/cckr3qri.s:738    .text.si70x0_setResolution:0000000000000000 si70x0_setResolution
     /tmp/cckr3qri.s:771    .text.si70x0_setResolution:0000000000000048 $d
     /tmp/cckr3qri.s:774    .text.si70x0_init:0000000000000000 $t
     /tmp/cckr3qri.s:780    .text.si70x0_init:0000000000000000 si70x0_init
     /tmp/cckr3qri.s:821    .text.si70x0_init:000000000000005c $d
     /tmp/cckr3qri.s:825    .text.si70x0_heaterEnable:0000000000000000 $t
     /tmp/cckr3qri.s:831    .text.si70x0_heaterEnable:0000000000000000 si70x0_heaterEnable
     /tmp/cckr3qri.s:863    .text.si70x0_setHeaterCurrent:0000000000000000 $t
     /tmp/cckr3qri.s:869    .text.si70x0_setHeaterCurrent:0000000000000000 si70x0_setHeaterCurrent
     /tmp/cckr3qri.s:882    .text.si70x0_readTemperature:0000000000000000 $t
     /tmp/cckr3qri.s:888    .text.si70x0_readTemperature:0000000000000000 si70x0_readTemperature
     /tmp/cckr3qri.s:917    .text.si70x0_readTemperature:0000000000000048 $d
     /tmp/cckr3qri.s:922    .text.si70x0_readHumidity:0000000000000000 $t
     /tmp/cckr3qri.s:928    .text.si70x0_readHumidity:0000000000000000 si70x0_readHumidity
     /tmp/cckr3qri.s:965    .text.si70x0_readHumidity:0000000000000060 $d
     /tmp/cckr3qri.s:969    .rodata:0000000000000000 $d
     /tmp/cckr3qri.s:975    .rodata.CSWTCH.6:0000000000000000 $d
     /tmp/cckr3qri.s:979    .rodata.CSWTCH.6:0000000000000000 CSWTCH.6
     /tmp/cckr3qri.s:988    .bss.sensCount:0000000000000000 sensCount
     /tmp/cckr3qri.s:989    .bss.sensCount:0000000000000000 $d
                            *COM*:0000000000000001 __gnu_lto_v1
     /tmp/cckr3qri.s:773    .text.si70x0_setResolution:000000000000004c $t
     /tmp/cckr3qri.s:824    .text.si70x0_init:0000000000000064 $t
     /tmp/cckr3qri.s:921    .text.si70x0_readTemperature:0000000000000054 $t
     /tmp/cckr3qri.s:968    .text.si70x0_readHumidity:0000000000000068 $t

UNDEFINED SYMBOLS
I2CSensor_stop
I2CSensor_transact_buf
I2CSensor_init
