ARM GAS  /tmp/ccrOV94e.s 			page 1


   1              		.syntax unified
   2              		.cpu cortex-m4
   3              		.eabi_attribute 27, 3
   4              		.eabi_attribute 28, 1
   5              		.fpu fpv4-sp-d16
   6              		.eabi_attribute 20, 1
   7              		.eabi_attribute 21, 1
   8              		.eabi_attribute 23, 3
   9              		.eabi_attribute 24, 1
  10              		.eabi_attribute 25, 1
  11              		.eabi_attribute 26, 1
  12              		.eabi_attribute 30, 2
  13              		.eabi_attribute 34, 1
  14              		.eabi_attribute 18, 4
  15              		.thumb
  16              		.file	"si70x0.c"
  17              		.section	.gnu.lto_.jmpfuncs.e557e31b7e353495,"",%progbits
  18 0000 789C9D4F 		.ascii	"x\234\235O\333\015\200 \014\274k\211\017\\\312)\214"
  18      DB0D8020 
  18      0CBC6B89 
  18      0F5CCA29 
  18      8C
  19 0011 2BB80093 		.ascii	"+\270\000\223;\200\345e\214\021\023\345\243\224{p\255"
  19      3B80E565 
  19      8C1113E5 
  19      A3947B70 
  19      AD
  20 0022 40F07416 		.ascii	"@\360t\026\346\333C\251\242\342\260\031B\250\225\200"
  20      E6DB43A9 
  20      A2E2B019 
  20      42A89580 
  21 0032 08660490 		.ascii	"\010f\004\220\225\033\311\332\030\342\364F\312\205l"
  21      951BC9DA 
  21      18E2F446 
  21      CA856C
  22 0041 F9ACE92C 		.ascii	"\371\254\351,\310\210P 1[_\325)\227E;\347\331\322C\367"
  22      C8885020 
  22      315B5FD5 
  22      2997453B 
  22      E7D9D243 
  23 0056 E8C1F033 		.ascii	"\350\301\3603s|\363\371s\240\272v\343#3M\037\2648\000"
  23      737CF3F9 
  23      73A0BA76 
  23      E323334D 
  23      1FB43800 
  24 006a 5CB6187F 		.ascii	"\\\266\030\177"
  25              		.text
  26              		.section	.gnu.lto_.inline.e557e31b7e353495,"",%progbits
  27 0000 789C8D90 		.ascii	"x\234\215\2201N\3030\030\205\337\377\333\251\3358m\323"
  27      314EC330 
  27      1885DFFF 
  27      DBA9DD38 
  27      6DD3
  28 0012 16A9A812 		.ascii	"\026\251\250\022*LeB\214\014\334\000\3113\007\000\001"
  28      2A4C6542 
  28      8C0CDC00 
  28      C9330700 
ARM GAS  /tmp/ccrOV94e.s 			page 2


  28      01
  29 0023 37C9C060 		.ascii	"7\311\300`\211\201\265b\204\205\221c\364\014L\0319\002"
  29      8981B562 
  29      84859163 
  29      F40C4C19 
  29      3902
  30 0035 BFDDC655 		.ascii	"\277\335\306U\005Bxp\236\377\274\347\367%\014\306o\253"
  30      05427870 
  30      9EFFBCE7 
  30      F7250CC6 
  30      6FAB
  31 0047 DA8E4B91 		.ascii	"\332\216K\221\216\030\004\250\367\315\343\203\015\265"
  31      8E1804A8 
  31      F7CDE383 
  31      0DB5
  32 0055 06A659CA 		.ascii	"\006\246Y\312\2715\232e4\323Q\3324\260(\203\257b\230"
  32      B9359A65 
  32      34D351DA 
  32      34B02883 
  32      AF6298
  33 0068 30A97F64 		.ascii	"0\251\177d\305\374W\366\240}\242\024f\230\021QL%\304"
  33      C5FC57F6 
  33      A07DA214 
  33      66981151 
  33      4C25C4
  34 007b DE6A9190 		.ascii	"\336j\221\220\364@\316\301\007\257\320\037w\3573\217"
  34      F440CEC1 
  34      07AFD01F 
  34      77EF338F 
  35 008b AC62283D 		.ascii	"\254b(=\301\213\023\207G\244\351\366\232\036H+\241\271"
  35      C18B1387 
  35      47A4E9F6 
  35      9A1E482B 
  35      A1B9
  36 009d C98A3674 		.ascii	"\311\2126t\342\251\336.Q>\2373\364jQ\203#\001P\357."
  36      E2A9DE2E 
  36      513E9F33 
  36      F46A5183 
  36      230150EF 
  37 00b2 C9A2E766 		.ascii	"\311\242\347f\247]\335d\375H\031HU\011\010v\014\230"
  37      A75DDD64 
  37      FD481948 
  37      55090876 
  37      0C98
  38 00c4 0886B4C1 		.ascii	"\010\206\264\301b~\"\365\367\261\264\210uw\235J\227"
  38      627E22F5 
  38      F7B1B488 
  38      75779D4A 
  38      97
  39 00d5 248662F0 		.ascii	"$\206b\360z\005\367r!\365\315\364\030\374\251m\334\364"
  39      7A05F772 
  39      21F5CDF4 
  39      18FCA96D 
  39      DCF4
  40 00e7 DE7764D1 		.ascii	"\336wd\321\207\233\022\357\340\025\257G\260_g\014\021"
  40      879B12EF 
  40      E015AF47 
ARM GAS  /tmp/ccrOV94e.s 			page 3


  40      B05F670C 
  40      11
  41 00f8 FB9912C3 		.ascii	"\373\231\022\303yG[4\313\374s\266\260\301g\247\373\267"
  41      79475B34 
  41      CBFC73B6 
  41      B0C167A7 
  41      FBB7
  42 010a 13DF27B9 		.ascii	"\023\337'\271;:"
  42      3B3A
  43              		.text
  44              		.section	.gnu.lto_.pureconst.e557e31b7e353495,"",%progbits
  45 0000 789C6362 		.ascii	"x\234cb`b\020e\200\000.\006)F)&\011f)\026)6\011\016"
  45      60621065 
  45      80002E06 
  45      29462926 
  45      09662916 
  46 0018 294E292E 		.ascii	")N).)n)\000\017H\001Z"
  46      296E2900 
  46      0F48015A 
  47              		.text
  48              		.section	.gnu.lto_si70x0_readTemperature.part.0.e557e31b7e353495,"",%progbits
  49 0000 789C8D53 		.ascii	"x\234\215S\275k\024Q\020\237yowo\357#p\202\205\246\012"
  49      BD6B1451 
  49      109F796F 
  49      776FEF23 
  49      708285A6 
  50 0015 5709F1E3 		.ascii	"W\011\361\343:+A\320\316\366\002Zn\216pl\021\220\273"
  50      3A2B41D0 
  50      CEF6025A 
  50      6E8E706C 
  50      1190BB
  51 0028 F3039BBC 		.ascii	"\363\003\233\274\273\215p\006B\266\320\"\246\271 bH"
  51      BB8D7006 
  51      42B6D022 
  51      A6B92062 
  51      48
  52 0039 3029AE12 		.ascii	"0)\256\022A\257TA\301B\260\270\"\372\007\330Y\010\342"
  52      41AF5441 
  52      C142B0B8 
  52      22FA07D8 
  52      5908E2
  53 004c FA9BFD3A 		.ascii	"\372\233\375:#\212\016\334\314{\277\235\337\374f\336"
  53      238A0EDC 
  53      CC7BBF9D 
  53      DFFC66DE 
  54 005c 7BA748D1 		.ascii	"{\247H\321\3576\217\337\025Mt\012\221mb+|\207\205\305"
  54      EF368FDF 
  54      154D740A 
  54      916D622B 
  54      7C8785C5 
  55 0070 2A8E8AB5 		.ascii	"*\216\212\265\304\236\253\231eAL+\226\322\274r\215\205"
  55      C49EAB99 
  55      65414C2B 
  55      96D2BC72 
  55      8D85
  56 0082 AC6BB46D 		.ascii	"\254k\264mLxxw\357\023\217\314xuh\276G\021\263\317\020"
  56      4C787877 
ARM GAS  /tmp/ccrOV94e.s 			page 4


  56      EF138FCC 
  56      787568BE 
  56      4711B3CF 
  57 0097 3ACED464 		.ascii	":\316\324d\272\212\015\317\305AYG\225\023\356\370\303"
  57      BA8A0DCF 
  57      C5415947 
  57      9513EEF8 
  57      C3
  58 00a8 DAC60933 		.ascii	"\332\306\0113\354\205\346\007\250>kE\263Sf5a\252?2_"
  58      EC85E607 
  58      A83E6B45 
  58      B3536635 
  58      61AA3F32 
  59 00bd BE593F69 		.ascii	"\276Y?i\206\375\214i)\252\375K\363@\231\303(z\266_\254"
  59      86FD8C69 
  59      29AAFD4B 
  59      F34099C3 
  59      287AB65F 
  60 00d2 322F4B97 		.ascii	"2/K\227>\333\032\316\261\304\331\262udU\020\347\222"
  60      3EDB1ACE 
  60      B1C4D9B2 
  60      75645510 
  60      E792
  61 00e4 C78FB846 		.ascii	"\307\217\270FEl\250$\256,\256\002x\033\360\014*\310"
  61      456CA824 
  61      AE2CAE02 
  61      781BF00C 
  61      2AC8
  62 00f6 29D8B48A 		.ascii	")\330\264\212n\346<~\014\220\244\001X\003^\016\254\301"
  62      6EE63C7E 
  62      0C90A401 
  62      58035E0E 
  62      ACC1
  63 0108 9644BDC0 		.ascii	"\226D\275\300*\216o\251?\371\270\373\315\316I\"\220"
  63      2A8E6FA9 
  63      3FF9B8FB 
  63      CDCE4922 
  63      90
  64 0119 D423C427 		.ascii	"\324#\304'\270\002X\213\325\031:\355sa\236v\015l\013"
  64      B802588B 
  64      D5193AED 
  64      73619E76 
  64      0D6C0B
  65 012c A3B85BF4 		.ascii	"\243\270[\364\260gL\325\347b\213Y\206+\305#-r2\232 "
  65      B0674CD5 
  65      E7628B59 
  65      862BC523 
  65      2D72329A 
  66 0141 E55F4685 		.ascii	"\345_F\205\322\227\3403{\274\203\232-\326\250)`\360"
  66      D297E033 
  66      7BBC839A 
  66      2DD6A829 
  66      60F0
  67 0153 54679005 		.ascii	"Tg\220\005TX\0304N\237\204\315\354\223}D\376\353\377"
  67      54581834 
  67      4E9F84CD 
  67      EC937D44 
ARM GAS  /tmp/ccrOV94e.s 			page 5


  67      FEEBFF
  68 0166 CAF35FE5 		.ascii	"\312\363_\345\235\226L\006\371A._\210;p\322\324;\031"
  68      9D964C06 
  68      F9412E5F 
  68      883B70D2 
  68      D43B19
  69 0179 ECE24B8C 		.ascii	"\354\342K\214\355\004\243\007\0272\024\242n\314_\313"
  69      ED04A307 
  69      173214A2 
  69      6ECC5FCB 
  70 0189 F925A0B3 		.ascii	"\371%\240\263\264i\006&\274H$}\232\361\375\311\201\274"
  70      B4690626 
  70      BC48247D 
  70      9AF1FDC9 
  70      81BC
  71 019b 3E4A5283 		.ascii	">JR\203\027*K.#?M\036Dx.)AlJ\270\027\264\263\374\012"
  71      172A4B2E 
  71      233F4D1E 
  71      44782E29 
  71      416C4AB8 
  72 01b4 28697E3D 		.ascii	"(i~=+\2769z\236\347\366_\277\332K\207\313\017\006\264"
  72      2BBE397A 
  72      9EE7F65F 
  72      BFDA4B87 
  72      CB0F06B4 
  73 01c8 1939860A 		.ascii	"\0319\206\012%w\230DZ`\035_\375{\374\215\246\347\323"
  73      25779844 
  73      5A601D5F 
  73      FD7BFC8D 
  73      A6E7D3
  74 01db C0DB012A 		.ascii	"\300\333\001*/\373\330\345\266\177s\251\3359\327\361"
  74      2FFBD8E5 
  74      B67F73A9 
  74      DD39D7F1 
  75 01eb CFD76FD7 		.ascii	"\317\327o\327\3176\311\356.-_\277Th{\267\032X8\235\256"
  75      CF36C9EE 
  75      2E2D5FBF 
  75      54687BB7 
  75      1A58389D 
  76 0200 D7BDD1F9 		.ascii	"\327\275\321\371\011}\224\320\216"
  76      097D94D0 
  76      8E
  77              		.text
  78              		.section	.gnu.lto_si70x0_readHumidity.part.1.e557e31b7e353495,"",%progbits
  79 0000 789C8D53 		.ascii	"x\234\215SKkSA\024>g\346\316\275y5\211\250P\213H\350"
  79      4B6B5341 
  79      143E67E6 
  79      CEBD7935 
  79      89A8508B 
  80 0016 42055FDD 		.ascii	"B\005_\335i]\273\250\333\232\202\342*F\211W\020$\211"
  80      695DBBA8 
  80      DB9A82E2 
  80      2A468957 
  80      102489
  81 0029 8F959D3C 		.ascii	"\217\225\235<\026\361\205\301E1\2720E\324 \212\270\251"
  81      16F185C1 
  81      4531BA30 
ARM GAS  /tmp/ccrOV94e.s 			page 6


  81      45D4208A 
  81      B8A9
  82 003b 8B22A452 		.ascii	"\213\"\244RA\010\012]\206vQ\004\335(\376\000\025\343"
  82      41080A5D 
  82      86765104 
  82      DD28FE00 
  82      15E3
  83 004d 39F795A4 		.ascii	"9\367\225\244(:p\317\2319\363}\363}\363\270\002\004"
  83      283A70CF 
  83      9939F37D 
  83      F37DF3B8 
  83      0204
  84 005f 6C6CC7E8 		.ascii	"ll\307\350\373!\001vR\306\020\240U\377@\035\013\205"
  84      FB210176 
  84      52C610A0 
  84      55FF401D 
  84      0B85
  85 0071 93855037 		.ascii	"\223\205P7\267\202\216\310\352$\350\230\024Fm\027\215"
  85      B7828EC8 
  85      EA24E898 
  85      14466D17 
  85      8D
  86 0082 14C79881 		.ascii	"\024\307\230\201\2121\245\220B\323\355\230\210\334\001"
  86      8A31A590 
  86      42D3ED98 
  86      88DC01
  87 0091 84594B48 		.ascii	"\204YKHC\2318{\002YD\216\303\274\326\365\365\267\013"
  87      4399387B 
  87      0259448E 
  87      C3BCD6F5 
  87      F5B70B
  88 00a4 2BD8D0ED 		.ascii	"+\330\320\355jS\377\354\365\020m$C[\020\262\010\307"
  88      6A53FFEC 
  88      F5106D24 
  88      435B10B2 
  88      08C7
  89 00b6 69802927 		.ascii	"i\200)'\011c\330\241\303\275\323~\331\271=\252\233\245"
  89      0963D8A1 
  89      C3BDD37E 
  89      D9B93DAA 
  89      9BA5
  90 00c8 BAFE4554 		.ascii	"\272\376ET\033\245\200\261>3\3512\305\037\230\365v\243"
  90      1BA580B1 
  90      3E33E932 
  90      C51F98F5 
  90      76A3
  91 00da 736B9B6E 		.ascii	"sk\233n\226}\246! \365/\315\027B\257\367z\335\305\360"
  91      967DA621 
  91      20F52FCD 
  91      1742AFF7 
  91      7ADDC5F0 
  92 00ee 66C4F3EC 		.ascii	"f\304\363\354\322F%)\230\006\007\305C\223{\026d\360"
  92      D2462529 
  92      980607C5 
  92      43937B16 
  92      64F0
  93 0100 218E4388 		.ascii	"!\216C\210\006\020\246`E8D9\3048\214\020`\236\000q/"
ARM GAS  /tmp/ccrOV94e.s 			page 7


  93      0610A660 
  93      45384439 
  93      C4388C10 
  93      609E0071 
  94 0115 27B898A4 		.ascii	"'\270\230\2445\371\\\024T\311_*\203\217h\006\330\022"
  94      35F95C14 
  94      54C95F2A 
  94      838F6806 
  94      D812
  95 0127 B534453E 		.ascii	"\2654E>\3054Z\234\345\014\012'\277\207\362\332\335\205"
  95      C5345A9C 
  95      E50C0A27 
  95      BF87F2DA 
  95      DD85
  96 0139 AE119058 		.ascii	"\256\021\220X\327]\024(?A\305\354\034\212}\260\327\306"
  96      D75D1428 
  96      3F41C5EC 
  96      1C8A7DB0 
  96      D7C6
  97 014b D01E78AA 		.ascii	"\320\036x\252\251\025l\014\337\207{%\255\2236Fr\210"
  97      A9156C0C 
  97      DF877B25 
  97      AD933646 
  97      7288
  98 015d BCDBA8B3 		.ascii	"\274\333\250\263\307S\350\356\225+\203{'\241o\225\253"
  98      C753E8EE 
  98      952B837B 
  98      27A16F95 
  98      AB
  99 016e 196CD18A 		.ascii	"\031l\321\2129\224\264\"\327*\317\245_2\250\312$\031"
  99      3994B422 
  99      D72ACFA5 
  99      5F32A8CA 
  99      2419
 100 0180 72D16BF5 		.ascii	"r\321k\365\035\376\224\032\022\177\215\377\251\216\177"
 100      1DFE941A 
 100      127F8DFF 
 100      A98E7F
 101 018f 533773BC 		.ascii	"S7s\274-R\257\005\352\226c\300\364\220_\346\016\373"
 101      2D52AF05 
 101      EA9663C0 
 101      F4905FE6 
 101      0EFB
 102 01a1 13219A73 		.ascii	"\023!\232s\252\255\000\033\246\252C\277\036\224\310"
 102      AAAD001B 
 102      A6AA43BF 
 102      1E94C8
 103 01b0 45780C1A 		.ascii	"Ex\014\032\272\246\353\207\000\264\327\276\223\013\013"
 103      BAA6EB87 
 103      00B4D7BE 
 103      930B0B
 104 01bf 5C68E5B1 		.ascii	"\\h\345\261\360\301Q\302{\340Z\217\036O\237\240\373"
 104      F0C151C2 
 104      7BE05A8F 
 104      1E4F9FA0 
 104      FB
 105 01d0 846B958F 		.ascii	"\204k\225\217\001!F\034\2170\332\007\267\003p\371A\345"
ARM GAS  /tmp/ccrOV94e.s 			page 8


 105      0121461C 
 105      8F30DA07 
 105      B70370F9 
 105      41E5
 106 01e2 9C8F1D21 		.ascii	"\234\217\035!8\300;X\376\264\364\352F,\250n\274\016"
 106      38C03B58 
 106      FEB4F4EA 
 106      462CA86E 
 106      BC0E
 107 01f4 984109D5 		.ascii	"\230A\011\325II\300\317K\213\235\3700\360\364\0000\215"
 107      4949C0CF 
 107      4B8B9DF8 
 107      30F0F400 
 107      308D
 108 0206 06BCD94E 		.ascii	"\006\274\331N\017F\371\017\246U\351\315\355\366\011"
 108      0F46F90F 
 108      A655E9CD 
 108      EDF609
 109 0215 891CC61D 		.ascii	"\211\034\306\035\017G\335Jp1t\242I^,\006\356\013Jp\352"
 109      0F47DD4A 
 109      703174A2 
 109      495E2C06 
 109      EE0B4A70 
 110 022a 42DC7322 		.ascii	"B\334s\"\226O\222\232|\266z\326S4\276\2566\221}\231"
 110      964F929A 
 110      7CB67AD6 
 110      5334BEAE 
 110      36917D99 
 111 023e 8ECE0AFD 		.ascii	"\216\316\012\375\371\203&\220\253\374'n:\222\267/\235"
 111      F9832690 
 111      ABFC276E 
 111      3A92B72F 
 111      9D
 112 024f C9170E14 		.ascii	"\311\027\016\024\354\203\023W&\366gA]\310\026\247\247"
 112      EC831357 
 112      26F66741 
 112      5DC816A7 
 112      A7
 113 0260 543E7379 		.ascii	"T>syz\312,\0243\305\213\205\337^\236\372\361"
 113      7ACA2C14 
 113      33C58B85 
 113      DF5E9EFA 
 113      F1
 114              		.text
 115              		.section	.gnu.lto_si70x0_stop.e557e31b7e353495,"",%progbits
 116 0000 789C5D50 		.ascii	"x\234]P;\212\002A\024\254z=\343\032*F\233\231/\250\231"
 116      3B8A0241 
 116      14AC7A3D 
 116      E31A2A46 
 116      9B992FA8 
 117 0015 17F0080A 		.ascii	"\027\360\010\012n\250\203\014\035\230(\210\354\004\266"
 117      6EA8830C 
 117      1D982888 
 117      EC04B6
 118 0024 3F3034D6 		.ascii	"?04\326hS\003\275\202\027\330]\304\013x\216\331@_\217"
 118      685303BD 
 118      8217D85D 
ARM GAS  /tmp/ccrOV94e.s 			page 9


 118      C40B788E 
 118      D9405F8F 
 119 0038 ACC83EA8 		.ascii	"\254\310>\250~\025T\325+Z \370?\257\212\263\242\244"
 119      7E1554D5 
 119      2B5A20F8 
 119      3FAF8AB3 
 119      A2A4
 120 004a A00165FD 		.ascii	"\240\001e\375\015L\363Bz\002b\"\234\2743\323\036\344"
 120      0D4CF342 
 120      7A026222 
 120      9CBC33D3 
 120      1EE4
 121 005c 78B95EF7 		.ascii	"x\271^\367\351\"5/d\237\032g\211@\031s\312\274(\304"
 121      E922352F 
 121      649F1A67 
 121      89401973 
 121      CABC28C4 
 122 0070 C2B97519 		.ascii	"\302\271u\031\2102KS_\237\323\242\370m\2760K\347\277"
 122      88324B53 
 122      5F9FD3A2 
 122      F86DBE30 
 122      4BE7BF
 123 0083 27D3E127 		.ascii	"'\323\341'C\304\224\004\037\032\361\206\235\323I,e\213"
 123      43C49404 
 123      1F1AF186 
 123      9DD3492C 
 123      658B
 124 0095 0D2D4D4C 		.ascii	"\015-ML\266u\007\331\335.\237\012\377`y\014\377\374"
 124      B67507D9 
 124      DD2E9F0A 
 124      FF60790C 
 124      FFFC
 125 00a7 B904A95B 		.ascii	"\271\004\251[\271\202e\030\361\256\322\320\230\201\325"
 125      B9826518 
 125      F1AED2D0 
 125      9881D5
 126 00b6 4638810F 		.ascii	"F8\201\017\341\335\334T\221\366\360\337Pl\014\354\250"
 126      E1DDDC54 
 126      91F6F0DF 
 126      506C0CEC 
 126      A8
 127 00c7 37185687 		.ascii	"7\030V\207\266^\033\327*\021nP\3535\251"
 127      B65E1BD7 
 127      2A116E50 
 127      EB35A9
 128              		.text
 129              		.section	.gnu.lto_si70x0_reset.e557e31b7e353495,"",%progbits
 130 0000 789C6362 		.ascii	"x\234cb`b@\007\222@l\310\310\300 \014\244\031\231\031"
 130      60624007 
 130      92406CC8 
 130      C8C0200C 
 130      A4199919 
 131 0014 1899269C 		.ascii	"\030\231&\234c`h\344`bd\0041\030\030\031\352\231\030"
 131      636068E4 
 131      60626404 
 131      31181819 
 131      EA9918
ARM GAS  /tmp/ccrOV94e.s 			page 10


 132 0027 EB2319C1 		.ascii	"\353#\031\301j\3273\035x\360\377\377\272y\255\257X\331"
 132      6AD7331D 
 132      78F0FFFF 
 132      BA79ADAF 
 132      58D9
 133 0039 99187319 		.ascii	"\231\030s\031\031X\0302\031\031\330\200\004H\236\225"
 133      19581832 
 133      1919D880 
 133      04489E95 
 134 0049 A1A5A161 		.ascii	"\241\245\241a\202\002\003C2Xu\010\220\004\031\021\312"
 134      82020343 
 134      32587508 
 134      90041911 
 134      CA
 135 005a C804A299 		.ascii	"\310\004\242\231\31724\355\2301M,\221q!#+\203.\303\232"
 135      CF3234ED 
 135      98314D2C 
 135      91712123 
 135      2B832EC3 
 136 006f 062008CC 		.ascii	"\006 \010\314dd\322fX\005b\362f22\317f\230\305\230\311"
 136      6464D266 
 136      580562F2 
 136      663232CF 
 136      6698C598 
 137 0084 C892CEC8 		.ascii	"\310\222\316\310\024\001\244Y\301v&A\254f\000\211\260"
 137      1401A459 
 137      C1762641 
 137      AC660089 
 137      B0
 138 0095 C15D0DE2 		.ascii	"\301]\015\3421\375\003I\001\215\375\325\374\376\022"
 138      31FD0349 
 138      018DFDD5 
 138      FCFE12
 139 00a4 0BC4DC74 		.ascii	"\013\304\334tF\226j\206*\240\243\240\246\316\006\252"
 139      46966A86 
 139      2AA0A3A0 
 139      A6CE06AA 
 140 00b4 63C76E2C 		.ascii	"c\307n,#\"\014\3163\264\035`\205\031\300V\315\360\253"
 140      23220CCE 
 140      33B41D60 
 140      8519C056 
 140      CDF0AB
 141 00c7 A1A34120 		.ascii	"\241\243A \223\221#\031\252\010h*\330BF\210\275\014"
 141      93912319 
 141      AA08682A 
 141      D8424688 
 141      BD0C
 142 00d9 400F7332 		.ascii	"@\017s20\\d`\204\353\201\230\023\002T\017\364*(\220"
 142      305C6460 
 142      84EB8198 
 142      1302540F 
 142      F42A2890 
 143 00ed 055D8A32 		.ascii	"\005]\2122\313R\213\212\365\2133\315\015*\014\364\222"
 143      CB528B8A 
 143      F58B33CD 
 143      0D2A0CF4 
 143      92
ARM GAS  /tmp/ccrOV94e.s 			page 11


 144 00fe 1900A98E 		.ascii	"\031\000\251\216Fw"
 144      4677
 145              		.text
 146              		.section	.gnu.lto_si70x0_setResolution.e557e31b7e353495,"",%progbits
 147 0000 789CA553 		.ascii	"x\234\245S\315KTQ\024?\347\316\214\357k\306\0324\"\""
 147      CD4B5451 
 147      143FE7CE 
 147      8CEF6BC6 
 147      1A342222 
 148 0014 112924A4 		.ascii	"\021)$\244t\023\375\003\375\003}\010\331&F\033\206\007"
 148      7413FD03 
 148      FD037D08 
 148      D926461B 
 148      8607
 149 0026 B9993746 		.ascii	"\271\2317F\345\302\253#\341\"c\220\026Q\024\212H\020"
 149      E5C2AB23 
 149      E1226390 
 149      1651148A 
 149      4810
 150 0038 565004A9 		.ascii	"VP\004\251D\023\204\030\331\327\246\017t1\233\024\242"
 150      44138418 
 150      D9D7A60F 
 150      74319B14 
 150      A2
 151 0049 5D1B9168 		.ascii	"]\033\221h:\347\336\373fF\231\210\350\301{\347\336{"
 151      3AE7DEFB 
 151      66469988 
 151      E8C17BE7 
 151      DE7B
 152 005b CEF99DDF 		.ascii	"\316\371\235\3379\277\373\004\010\330\376\234\244w%"
 152      39BFFB04 
 152      08D8FE9C 
 152      A47725
 153 006a 0AD04116 		.ascii	"\012\320A\026\023\200\242\360\026`\330\026\302\035k"
 153      1380A2F0 
 153      1660D816 
 153      C21D6B
 154 0079 0719F5F8 		.ascii	"\007\031\365\370+\\\264\370\030=c-a\317\267\200t\235"
 154      2B5CB4F8 
 154      183D632D 
 154      61CFB780 
 154      749D
 155 008b 8F9D20E3 		.ascii	"\217\235 \3436::\311A\344\005 \014\011\327\263h?\324"
 155      363A3AC9 
 155      41E40520 
 155      0C09D7B3 
 155      683FD4
 156 009e 835C24D2 		.ascii	"\203\\$\322\006SRN\224\276\256\\\333-K\262 \177\225"
 156      0653524E 
 156      94BEAE5C 
 156      DB2D4BB2 
 156      207F95
 157 00b1 CBE823D1 		.ascii	"\313\350#\321iF\350C8M\033\264\225\021\270\225\237\312"
 157      6946E843 
 157      384D1BB4 
 157      9511B895 
 157      9FCA
ARM GAS  /tmp/ccrOV94e.s 			page 12


 158 00c3 2C14E716 		.ascii	",\024\347\026\307\367\310\311\22103\"`_5\263UgF\353"
 158      C7F7C8C9 
 158      91303322 
 158      605F35B3 
 158      556746EB 
 159 00d7 644E149F 		.ascii	"dN\024\237/^\337Vs\377\337j>\024\305R\271\374\375\376"
 159      2F5EDF56 
 159      73FFDF6A 
 159      3E14C552 
 159      B9FCFDFE 
 160 00eb FB4FB80B 		.ascii	"\373O\270\013!\205S\330Fi)\234&\033\305~\204\2309\264"
 160      218553D8 
 160      4669299C 
 160      261BC57E 
 160      849839B4 
 161 00ff 68830EF8 		.ascii	"h\203\016\370\030\365\214;Nv\206l\302\330Fc\223&\243"
 161      18F58C3B 
 161      4E76866C 
 161      C2D84663 
 161      9326A3
 162 0112 C9C43553 		.ascii	"\311\3045SR\214J\305`\224\332k\325N\355\002fG\317)\372"
 162      528C4AC5 
 162      6094DA6B 
 162      D54EED02 
 162      6647CF29 
 163 0127 F238BB51 		.ascii	"\3628\273Q\260\215\274\201\221;\007\0002\330\234Aju"
 163      B08DBC81 
 163      913B0700 
 163      32D89C41 
 163      6A75
 164 0139 0946D792 		.ascii	"\011F\327\222j\313-\304\"5\374\273\321\205\261v|M\222"
 164      6ACB2DC4 
 164      2235FCBB 
 164      D185B176 
 164      7C4D92
 165 014c 009CA374 		.ascii	"\000\234\243t\240\334\247\202\203c\034\\\023\350\325"
 165      A0DCA782 
 165      83631C5C 
 165      13E8D5
 166 015b 064654E0 		.ascii	"\006FT\340\252\012L\036\202Y)\345N\212\276\0057\207"
 166      AA0A4C1E 
 166      825929E5 
 166      4E8ABE05 
 166      3787
 167 016d 0BBC6A18 		.ascii	"\013\274j\030\204My\203WV?SP\303\263\024\022\321\330"
 167      844D7983 
 167      57563F53 
 167      50C3B314 
 167      12D1D8
 168 0180 32C26E3A 		.ascii	"2\302n:g\322!4\365\032.\0334\235\215\265\222H\341]\362"
 168      67D22134 
 168      F51A2E1B 
 168      349D8DB5 
 168      9248E15D 
 169 0195 E84AF238 		.ascii	"\350J\3628\225\352\200{\274LP-\252J\350v\006-\256\342"
 169      95EA807B 
 169      BC4C502D 
ARM GAS  /tmp/ccrOV94e.s 			page 13


 169      AA4AE876 
 169      062DAEE2 
 170 01a9 28D45E43 		.ascii	"(\324^C\235O\334J-\325\322:\273\010w3\377\343\352\031"
 170      9D4FDC4A 
 170      2DD5D23A 
 170      BB087733 
 170      FFE3EA19 
 171 01bd 8D9B4167 		.ascii	"\215\233Ag\020.\2238\006\365\031\305y\365ak.\300;\270"
 171      102E9338 
 171      06F519C5 
 171      79F5616B 
 171      2EC03BB8 
 172 01d1 52DC1B02 		.ascii	"R\334\033\002x\334\361\030w\034\3573A\204\252\012\352"
 172      78DCF118 
 172      771CEF33 
 172      4184AA0A 
 172      EA
 173 01e2 1B44C6A7 		.ascii	"\033D\306\247\337\206\324x\271\376ba1RIdgc\025\365\013"
 173      DF86D478 
 173      B9FE6261 
 173      31524964 
 173      676315F5 
 174 01f7 200DDFA5 		.ascii	" \015\337\245O\322C\036\217\015\363-,\351\352\306\372"
 174      4FD2431E 
 174      8F0DF32D 
 174      2CE9EAC6 
 174      FA
 175 0208 92A8DC82 		.ascii	"\222\250\334\202\031\245\277\006Q\265\342f8\267\261"
 175      19A5BF06 
 175      51B5E266 
 175      38B7B1
 176 0217 3A9D4B3E 		.ascii	":\235K>\356\250\337\206\2503\035\236J~!?=~0\205\217"
 176      EEA8DF86 
 176      A8331D9E 
 176      4A7E213F 
 176      3D7E3085 
 177 022c 14B704C1 		.ascii	"\024\267\004\301*\356?\365\314\362s\371\231D\350lT~"
 177      2AEE3FF5 
 177      CCF273F9 
 177      9944E86C 
 177      547E
 178 023e D41A7DFE 		.ascii	"\324\032}\376V\214h\207\241\321Seq\344\3375Z3\032\275"
 178      568C6887 
 178      A1D15365 
 178      71E4DF35 
 178      5A331ABD 
 179 0252 DAF85FDC 		.ascii	"\332\370_\334\212^\031\0362IV\232\315\273a\013M\177"
 179      8A5E191E 
 179      3249569A 
 179      CDBB610B 
 179      4D7F
 180 0264 164D80B9 		.ascii	"\026M\200\271\377J4}Q\035uQ?\300p\351\3014\206\372\011"
 180      FF4A347D 
 180      511D7551 
 180      3FC070E9 
 180      C13486FA 
 181 0279 2D9A2025 		.ascii	"-\232 %\255\345\307\347\011\324^~2\211\374W\"\307\263"
ARM GAS  /tmp/ccrOV94e.s 			page 14


 181      ADE5C7E7 
 181      09D45E7E 
 181      3289FC57 
 181      22C7B3
 182 028c 3F792CEB 		.ascii	"?y,\353_Hg\203\316\300?\332u\261\353p\037\330\331tp"
 182      5F486783 
 182      CEC03FDA 
 182      75B1EB70 
 182      1FD8D974 
 183 02a1 B6D7CF05 		.ascii	"\266\327\317\005\015A.\225\033\010\254\201 \235=\221"
 183      0D412E95 
 183      1B08AC81 
 183      209D3D91 
 184 02b1 CEFC0659 		.ascii	"\316\374\006Y\011\035\255"
 184      091DAD
 185              		.text
 186              		.section	.gnu.lto_si70x0_init.e557e31b7e353495,"",%progbits
 187 0000 789C8D92 		.ascii	"x\234\215\222Mh\023Q\020\307g\336\333lv\263i\233j[\361"
 187      4D681351 
 187      10C767DE 
 187      DB6C76B3 
 187      699B6A5B 
 188 0015 22A5576D 		.ascii	"\"\245Wm\215\037 x*\350\305\263-\304\203\207\030Bx\207"
 188      8D1F2078 
 188      2AE8C5B3 
 188      2DC48387 
 188      18427887 
 189 0029 4448B414 		.ascii	"DH\264\024{\350Kk1z\220E/\245\"X\213\264\264\245=x\361"
 189      7BE84B6B 
 189      317A9045 
 189      2FA52258 
 189      8BB4B4A5 
 190 0040 22066F16 		.ascii	"\"\006o\026\252x\354A\330\243\240\007\017\036\244\210"
 190      AA78EC41 
 190      D8A3A007 
 190      0F1EA488 
 191 0050 EBBCF776 		.ascii	"\353\274\367v\333$\315\241\003y\36363\377\337\314\033"
 191      DB24CDA1 
 191      0379F336 
 191      33FFDFCC 
 191      1B
 192 0061 8601834E 		.ascii	"\206\001\203N;M\277\307\034\340*y\344\200\314\377\014"
 192      3B4DBFC7 
 192      1CE02A79 
 192      E480CCFF 
 192      0C
 193 0072 507718A2 		.ascii	"Pw\030\242\272\000\302,\303\331[\250R\371\010,K\371"
 193      BA00C22C 
 193      C3D95BA8 
 193      52F9082C 
 193      4BF9
 194 0084 2C58D879 		.ascii	",X\330yz\352I }\371/\014Q A\007\020\012\0109\372@G;"
 194      7AEA4920 
 194      7DF92F0C 
 194      51204107 
 194      100A0839 
 195 009c 86ED558C 		.ascii	"\206\355U\214Rn\255\315\361W\362o\030r-\033\356*+c\273"
ARM GAS  /tmp/ccrOV94e.s 			page 15


 195      526EADCD 
 195      F157F26F 
 195      18722D1B 
 195      EE2A2B63 
 196 00b1 AEE9373F 		.ascii	"\256\3517?|wH]\377\025\206}\0029\203s\207\302\234\021"
 196      7C77485D 
 196      FF15867D 
 196      02398373 
 196      87C29C11 
 197 00c5 7AEDF5B6 		.ascii	"z\355\365\266Y3\010\303\237+\376P\206C\036\227q\004"
 197      593308C3 
 197      9F2BFE50 
 197      86431E97 
 197      7104
 198 00d7 2CF22BE4 		.ascii	",\362+\344m\020h9XFt\351\226H\321a{t$\323\364\237\232"
 198      6D106839 
 198      584674E9 
 198      9648D161 
 198      7B7424D3 
 199 00ee 4F021E4A 		.ascii	"O\002\036J\351\017\347\361\015e\203*D6A\247\032\310"
 199      E90FE7F1 
 199      0D65832A 
 199      443641A7 
 199      1AC8
 200 0100 24A590E7 		.ascii	"$\245\220\347\2730\367\376\317\243\236<\256b\002L\352"
 200      BB30F7FE 
 200      CFA39E3C 
 200      AE62024C 
 200      EA
 201 0111 19B8F052 		.ascii	"\031\270\360R.\216S\203\224O\361O\213;\275&^B\376\002"
 201      2E8E5383 
 201      944FF14F 
 201      8B3BBD26 
 201      5E42FE02 
 202 0125 96EA5266 		.ascii	"\226\352Rf\004:3\260/\033\352\346\232\207\252\366\335"
 202      043A33B0 
 202      2F1BEAE6 
 202      9A87AAF6 
 202      DD
 203 0136 A8ED5D98 		.ascii	"\250\355]\230o\360Xc\221L\005\0354\274\033&p\034\022"
 203      6FF05863 
 203      914C051D 
 203      34BC1B26 
 203      701C12
 204 0149 893B6076 		.ascii	"\211;`v\004\263\262m\260Q\330\224d\227(`\036\241rR\311"
 204      04B3B26D 
 204      B051D894 
 204      64972860 
 204      1EA17252 
 205 015e 788CA4D3 		.ascii	"x\214\244\323\331\373\363\033{,F\2713\360\200\006w\026"
 205      D9FBF31B 
 205      7B2C46B9 
 205      33F08006 
 205      7716
 206 0170 D695F4B6 		.ascii	"\326\225\364\266@\217Z\"Y\272\204\216\222\367h\351\235"
 206      408F5A22 
 206      59BA848E 
ARM GAS  /tmp/ccrOV94e.s 			page 16


 206      92F768E9 
 206      9D
 207 0181 D60DD088 		.ascii	"\326\015\320\210\255\203fR\232`G\204=\322\364vG`\007"
 207      AD836652 
 207      9A604784 
 207      3DD2F476 
 207      476007
 208 0194 E2753A46 		.ascii	"\342u:Fx\032\221\214\020\317m\201}\335\021-\033\377"
 208      781A918C 
 208      10CF6D81 
 208      7DDD112D 
 208      1BFF
 209 01a6 0596E4BB 		.ascii	"\005\226\344\273\204!\000\034L/S\210\352\320\323J\230"
 209      8421001C 
 209      4C2F5388 
 209      EAD0D34A 
 209      98
 210 01b7 D6231F57 		.ascii	"\326#\037W]R\025\365\321\377\233\353d\262oT\347\204"
 210      5D5215F5 
 210      D1FF9BEB 
 210      64B26F54 
 210      E784
 211 01c9 19548411 		.ascii	"\031T\204\021xR\201\027\202\215\352\021\360@!\252\036"
 211      78528117 
 211      828DEA11 
 211      F04021AA 
 211      1E
 212 01da B534C828 		.ascii	"\2654\310(}H=\345\343\017\326\2729\227\341\255l\240"
 212      7D483DE5 
 212      E30FD6BA 
 212      3997E1AD 
 212      6CA0
 213 01ec 599CAF50 		.ascii	"Y\234\257P\0176Y\31426A\015\322\322)X\377\365\252\230"
 213      0F3659CC 
 213      3236410D 
 213      D2D22958 
 213      FFF5AA98 
 214 0200 2A566BE7 		.ascii	"*Vk\347k\342Jv:;V\000\257V\254\324\256\335\275_\271"
 214      6BE24A76 
 214      3A3B5600 
 214      AF56ACD4 
 214      AEDDBD5F 
 215 0215 37966DB9 		.ascii	"7\226m\271_\264*\371r\321\275\251\323Fs\360\037\"m\327"
 215      5FB42AF9 
 215      72D1BDA9 
 215      D34673F0 
 215      1F226DD7 
 216 0229 56       		.ascii	"V"
 217              		.text
 218              		.section	.gnu.lto_si70x0_heaterEnable.e557e31b7e353495,"",%progbits
 219 0000 789CA553 		.ascii	"x\234\245S\317k\023Q\020\236y\3733?\266\032\024z(\226"
 219      CF6B1351 
 219      109E79FB 
 219      333FB61A 
 219      147A2896 
 220 0014 928B07A9 		.ascii	"\222\213\007\251\351E<\2107\377\001\245\005\353-\306"
 220      E9453C88 
ARM GAS  /tmp/ccrOV94e.s 			page 17


 220      37FF01A5 
 220      05EB2DC6 
 221 0024 1016EA25 		.ascii	"\020\026\352%iE\355\241\257&H\205P\202\010\242\245\320"
 221      6945EDA1 
 221      AF264885 
 221      508208A2 
 221      A5D0
 222 0036 12BC68C5 		.ascii	"\022\274h\305\213\207\204ZH\241\222\212\250\210=T\360"
 222      8B87845A 
 222      48A1928A 
 222      A8883D54 
 222      F0
 223 0047 B0205811 		.ascii	"\260 X\021\021\254\007C,\306y\273o7I\211\007\361Av\336"
 223      11AC0743 
 223      2CC679BB 
 223      6F374989 
 223      07F14176 
 224 005c EC7C33F3 		.ascii	"\354|3\363\3157\033\006\014\366\237K\364\233P\001\342"
 224      CD371B06 
 224      0CF69F4B 
 224      F49B5001 
 224      E2
 225 006d 643104C8 		.ascii	"d1\004\310J\257\001fM\306\224\255\004\360\260\371l\020"
 225      4AAF0166 
 225      4DC694AD 
 225      04F0B0F9 
 225      6C10
 226 007f 785461EA 		.ascii	"xTa\352\334Q\3624\361\214\252\250{ \315\277\350\314"
 226      DC51F234 
 226      F18CAAA8 
 226      7B20CDBF 
 226      E8CC
 227 0091 E8401B68 		.ascii	"\350@\033hz\257MDq\001\204\031\246\250\232n\23083\216"
 227      7AAF4D44 
 227      71018419 
 227      A6A89A6E 
 227      9838338E 
 228 00a5 A22B8BC3 		.ascii	"\242+\213\3032\347%\347\371\3566\336\343\265\302\022"
 228      32E725E7 
 228      F9EE36DE 
 228      E3B5C212 
 229 00b5 DF6BB510 		.ascii	"\337k\265\020m$\206\207\021R\010\347\311\301!\3270\265"
 229      6D248687 
 229      115208E7 
 229      C9C121D7 
 229      30B5
 230 00c7 9BB29B7B 		.ascii	"\233\262\233{\273\266P\277\323\317\035^\342\277)\325"
 230      BBB650BF 
 230      D3CF1D5E 
 230      E2BF29D5 
 231 00d7 4685C140 		.ascii	"F\205\301@;\323\3642\261;\363\011\2539\255V\261Zh\016"
 231      3BD3F432 
 231      B13BF309 
 231      AB39AD56 
 231      B15A680E 
 232 00eb 1E4248E2 		.ascii	"\036BH\3422\306\251a\022\313d5\274\214`\200\215jHF\302"
 232      32C6A961 
ARM GAS  /tmp/ccrOV94e.s 			page 18


 232      12CB6435 
 232      BC8C6080 
 232      8D6A4846 
 233 0100 3212A108 		.ascii	"2\022\241\010F\245cI\033\223 :\032\024h\226!\337O\271"
 233      46A56349 
 233      1B93203A 
 233      1A146896 
 233      21DF4FB9 
 234 0114 4D47E929 		.ascii	"MG\351)\206\037C&\254\362\012nT*\273\016K\342\003\324"
 234      861F4326 
 234      ACF20A6E 
 234      542ABB0E 
 234      4BE203D4 
 235 0128 60185638 		.ascii	"`\030V8\235\263D\373\030<\024W\313Fm\001\356\023i=\203"
 235      9DB344FB 
 235      183C1457 
 235      CB466D01 
 235      EE13693D 
 236 013d 9A206FB8 		.ascii	"\232 o\270\224/\312\021\304\0333\030Dx\312\216\010Q"
 236      942FCA11 
 236      C41B3318 
 236      4478CA8E 
 236      0851
 237 014f DD66FED1 		.ascii	"\335f\376\321\374\005\257n\006\215i\270N3\310\252k\204"
 237      FC05AF6E 
 237      068D69B8 
 237      4E33C8AA 
 237      6B84
 238 0161 0BF52EDB 		.ascii	"\013\365.\333!\315\033\270Y\033\360\013\204\246\241"
 238      21CD1BB8 
 238      591BF00B 
 238      84A6A1
 239 0170 C9E7F841 		.ascii	"\311\347\370A\033\303)\011\242\252nCO[26F\0006acg\375"
 239      1BC32909 
 239      A2AA6E43 
 239      4F5B3236 
 239      46003661 
 240 0187 6E5D0912 		.ascii	"n]\011\022E0\332)\367\030*\260\225\020\243\177\250\374"
 240      4530DA29 
 240      F7182AB0 
 240      9510A37F 
 240      A8FC
 241 0199 D864814E 		.ascii	"\330d\201NeW'/\317-\037\226z,b[\220k6Z\275\231\263\036"
 241      6557272F 
 241      CF2D1F96 
 241      7A2C625B 
 241      906B365A 
 242 01b1 82083A85 		.ascii	"\202\010:\205\257\353\213u+\211\217]:\021\001\350\353"
 242      AFEB8B75 
 242      2B898F5D 
 242      3A1101E8 
 242      EB
 243 01c2 A6A3C297 		.ascii	"\246\243\302\227~\242\223\257\346?\316\017\373\300("
 243      7EA293AF 
 243      E63FCE0F 
 243      FBC028
 244 01d1 F517D803 		.ascii	"\365\027\330\003j\200\323$n5\377\275\317\207Y\022\246"
ARM GAS  /tmp/ccrOV94e.s 			page 19


 244      6A80D324 
 244      6E35FFBD 
 244      CF875912 
 244      A6
 245 01e2 FCC200A7 		.ascii	"\374\302\000\247\313\361*\333?k\212\007\224\223\214"
 245      CBF12ADB 
 245      3F6B8A07 
 245      94938C
 246 01f1 B70739F1 		.ascii	"\267\0079\361\357\233\375$7\373\242\361\277u\203-g\204"
 246      EF9BFD24 
 246      37FBA2F1 
 246      BF75832D 
 246      6784
 247 0203 6CB468E7 		.ascii	"l\264h\347s>\354\217\024\373\373\252\231G\004:V\375"
 247      733EEC8F 
 247      14FBFBAA 
 247      9947043A 
 247      56FD
 248 0215 AEAD6D6C 		.ascii	"\256\255ml\337\252\337\003#\035\325\342\352S$\241\264"
 248      DFAADF03 
 248      231DD5E2 
 248      EA5324A1 
 248      B4
 249 0226 8D53421C 		.ascii	"\215SB\034\003n\035\021\342\274l4\033\314\313\224\314"
 249      036E1D11 
 249      E2BC6C34 
 249      1BCCCB94 
 249      CC
 250 0237 4FD3627A 		.ascii	"O\323bz3W$\211\210\257\260\351\376y\336\302\254\363"
 250      33572489 
 250      88AFB0E9 
 250      FE79DEC2 
 250      ACF3
 251 0249 AD8CFE97 		.ascii	"\255\214\376\227\206^O\352\025b+\325\011\342\243\027"
 251      865E4FEA 
 251      15622BD5 
 251      09E2A317 
 252 0259 D796C88D 		.ascii	"\327\226\310\215\211:\243\024\247$\361\225\304\316d"
 252      893AA314 
 252      A724F195 
 252      C4CE64
 253 0268 ED2BE96C 		.ascii	"\355+\351l.\221\263O\216\\\0359\236\002=7\231\234\234"
 253      2E91B34F 
 253      8E5C1D39 
 253      9E023D37 
 253      999C9C
 254 027b CA1953B9 		.ascii	"\312\031S\271t\366\\:\363\007V\346\015\373"
 254      74F65C3A 
 254      F30756E6 
 254      0DFB
 255              		.text
 256              		.section	.gnu.lto_si70x0_setHeaterCurrent.e557e31b7e353495,"",%progbits
 257 0000 789CA590 		.ascii	"x\234\245\220=K\003A\020\206\337w\357\316\313\005D\305"
 257      3D4B0341 
 257      1086DF77 
 257      EFCECB05 
 257      44C5
ARM GAS  /tmp/ccrOV94e.s 			page 20


 258 0012 CACEDEAF 		.ascii	"\312\316\336\257t\376\001\033\355\002\021\264\324C\302"
 258      74FE011B 
 258      ED0211B4 
 258      D443C2
 259 0021 16360988 		.ascii	"\0266\011\210\230\"kN\304\302\342\212T\212\240v~`\332"
 259      98226B4E 
 259      C4C2E28A 
 259      548AA076 
 259      7E60DA
 260 0034 804D6A21 		.ascii	"\200Mj!\212\377@\377F\2328\273\227\273B\354\\\330\231"
 260      8AFF40FF 
 260      469A38BB 
 260      97BB42EC 
 260      5CD899
 261 0047 B99B799F 		.ascii	"\271\233y\237\231\035\005\205\337gA\356\003\201y\361"
 261      991D0585 
 261      DF6741EE 
 261      038179F1 
 262 0057 F44095BE 		.ascii	"\364@\225\276\003\247%E\332\000D[\261\275KW\333S\203"
 262      03A72545 
 262      DA00445B 
 262      B1BD4B57 
 262      DB5383
 263 006a AFF1F825 		.ascii	"\257\361\370%}\273\275\244*+\036\022\276\030\006\320"
 263      7DBBBDA4 
 263      2A2B1E12 
 263      BE1806D0 
 264 007a 44288691 		.ascii	"D(\206\221\030\333#\300\2311\351\"\020;eM\254\305mK"
 264      18DB23C0 
 264      9931E922 
 264      103B654D 
 264      ACC56D4B 
 265 008e 52BC3744 		.ascii	"R\2747D\247\337\277\377V{\274\023\361\012\236\215\234"
 265      A7DFBFFF 
 265      567BBC13 
 265      F10A9E8D 
 265      9C
 266 009f AAA6B784 		.ascii	"\252\246\267\204G\033Nk\372\327\270\242fP\247\332\021"
 266      471B4E6B 
 266      FAD7B8A2 
 266      6650A7DA 
 266      11
 267 00b0 3FE506D8 		.ascii	"?\345\006\330\317\346\200\375\023\026O\260_^U\202!\222"
 267      CFE680FD 
 267      13164FB0 
 267      5F5E5582 
 267      2192
 268 00c2 D7E4A9BB 		.ascii	"\327\344\251\273\234a\353V\354\273\344\214Kv6\377\325"
 268      9C61EB56 
 268      ECBBE48C 
 268      4B7636FF 
 268      D5
 269 00d3 8F793F01 		.ascii	"\217y?\001;\334(\351u\267\362^a\013'\262\200\011\360"
 269      3BDC28E9 
 269      75B7F25E 
 269      610B27B2 
 269      8009F0
ARM GAS  /tmp/ccrOV94e.s 			page 21


 270 00e6 4604A5BF 		.ascii	"F\004\245\277\211\005\006\370\300\371 \310\001Q\013"
 270      890506F8 
 270      C0F920C8 
 270      01510B
 271 00f5 23736166 		.ascii	"#saf5\243xR$T7\276\312\236\010Yn\031\370\004\013M\306"
 271      35A37852 
 271      245437BE 
 271      CA9E0859 
 271      6E19F804 
 272 010c A949BDAC 		.ascii	"\251I\275\254\325.~n\243\241\217\016\032\315\265\246"
 272      D52E7E6E 
 272      A3A18F0E 
 272      1ACDB5A6 
 273 011c 5EAF1C57 		.ascii	"^\257\034WVc\374\000}Y]/"
 273      5663FC00 
 273      7D595D2F 
 274              		.text
 275              		.section	.gnu.lto_si70x0_readTemperature.e557e31b7e353495,"",%progbits
 276 0000 789C6D90 		.ascii	"x\234m\220\273JCA\020\206\377\177\317&&\361\202\202"
 276      BB4A4341 
 276      1086FF7F 
 276      CF2626F1 
 276      8282
 277 0012 958288AD 		.ascii	"\225\202\210\255h\264\362\005|\001!\202\332\305 \341"
 277      68B4F205 
 277      7C012182 
 277      DAC520E1 
 278 0022 14364645 		.ascii	"\0246FEL\341F\243X\246\260Q\033\203\210 \202m@\213\010"
 278      4CE146A3 
 278      58A6B051 
 278      1B838820 
 278      826D408B 
 279 0037 1612D010 		.ascii	"\026\022\320\020\264P\020\211\210\370\016\"\034gs\222"
 279      B4501089 
 279      88F80E22 
 279      1C677392 
 280 0047 78C18173 		.ascii	"x\301\201sfw.\337\374;\012\012\177mT\276g\002=\342\031"
 280      66772EDF 
 280      FC3B0A0A 
 280      7F6D54BE 
 280      67023DE2 
 281 005c 0055EE16 		.ascii	"\000U\356\026\310\204\224r\356\2430\021}\321\007\323"
 281      C8849472 
 281      EEA33011 
 281      7DD107D3 
 282 006c E650DB30 		.ascii	"\346P\33305i=\2105\345h\256M\323\"8\200\2741\271\352"
 282      35693D88 
 282      35E568AE 
 282      4DD32238 
 282      80BC31B9 
 283 0081 DBF12377 		.ascii	"\333\361#wM1{`>=\217t)\343\272\211\0041%\027\366\327"
 283      4D317B60 
 283      3E3D8F74 
 283      29E3BA89 
 283      04312517 
 284 0097 9CD2BFE7 		.ascii	"\234\322\277\347\237\251b\325\363\236\356\262\245\301"
 284      9FA962D5 
ARM GAS  /tmp/ccrOV94e.s 			page 22


 284      F39EEEB2 
 284      A5C1
 285 00a5 88E23CA1 		.ascii	"\210\342<\241\341\322\011\"\316\274p\303\022\2613\002"
 285      E1D20922 
 285      CEBC70C3 
 285      12B13302 
 286 00b5 C8CA847E 		.ascii	"\310\312\204~?\010\213\024\213\311\337\312\231\244\262"
 286      3F088B14 
 286      8BC9DFCA 
 286      99A4B2
 287 00c4 DEB9C17A 		.ascii	"\336\271\301z\341\341\370E\305y(/\031\302\251\021\233"
 287      E1E1F845 
 287      C579282F 
 287      19C2A911 
 287      9B
 288 00d5 70A90771 		.ascii	"p\251\007qb\217\355.\003\373\330\023\021\301$\225\025"
 288      628FED2E 
 288      03FBD813 
 288      11C12495 
 288      15
 289 00e6 D3529330 		.ascii	"\323R\2230K_\212\215\204\232\302\354M\277\332\224p?"
 289      4B5F8A8D 
 289      849AC2EC 
 289      4DBFDA94 
 289      703F
 290 00f8 36BC9D19 		.ascii	"6\274\235\031\237\233\244NcU4\326\251\347R\027\376\037"
 290      9F9BA44E 
 290      635534D6 
 290      A9E75217 
 290      FE1F
 291 010a CBEF6796 		.ascii	"\313\357g\226\261U\354m\000\202i|\230m\323\3512\222"
 291      B155EC6D 
 291      0082697C 
 291      986DD3E9 
 291      3292
 292 011c A81709B5 		.ascii	"\250\027\011\2656\320\337\225V\262\204V\340\032W\357"
 292      36D0DF95 
 292      56B28456 
 292      E01A57EF 
 293 012c 979592D3 		.ascii	"\227\225\222\323l\264\311\266\237\353\233\244\203\373"
 293      6CB4C9B6 
 293      9FEB9BA4 
 293      83FB
 294 013a A853C666 		.ascii	"\250S\306f\310/\002\232\360\366\004U\035\256\222\014"
 294      C82F029A 
 294      F0F60455 
 294      1DAE920C 
 295 014a BBEC68F4 		.ascii	"\273\354h\364\350\332\276*\310T\013Gl\302\375lL\024"
 295      E8DABE2A 
 295      C8540B47 
 295      6CC2FD6C 
 295      4C14
 296 015c 49D67676 		.ascii	"I\326vv\215/\270\313s\013\251h\312\035\033Y\031\031"
 296      8D2FB8CB 
 296      730BA968 
 296      CA1D1B59 
 296      1919
ARM GAS  /tmp/ccrOV94e.s 			page 23


 297 016e 4E20985A 		.ascii	"N \230Z\214/.\245\276\000\241\356u\350"
 297      8C2F2EA5 
 297      BE00A1EE 
 297      75E8
 298              		.text
 299              		.section	.gnu.lto_si70x0_readHumidity.e557e31b7e353495,"",%progbits
 300 0000 789C6D90 		.ascii	"x\234m\220\275K\202Q\024\306\237\347\276WS\263(h*\010"
 300      BD4B8251 
 300      14C69FE7 
 300      BE5753B3 
 300      28682A08 
 301 0014 698DD4A6 		.ascii	"i\215\324\246\376\201\376\201\240\240\332LB\336\241"
 301      FE81FE81 
 301      A0A0DA4C 
 301      42DEA1
 302 0023 252DA286 		.ascii	"%-\242\206n\245\321\330\024TK\021-!\004\271\0045\030"
 302      6EA5D1D8 
 302      14544B11 
 302      2D2104B9 
 302      043518
 303 0036 34045112 		.ascii	"4\004Q\022\270\264\204\015\321\324\322\024\022\330\271"
 303      B8B4840D 
 303      D1D4D214 
 303      12D8B9
 304 0045 BE6A1F74 		.ascii	"\276j\037t\340}\317\275\347\343w\236{\024\024\376\332"
 304      E07DCFBD 
 304      E7E3779E 
 304      7B1414FE 
 304      DA
 305 0056 B07C4F04 		.ascii	"\260|O\004z\305\323\007\252\355{`-\240\224S\216\301"
 305      7AC5D307 
 305      AAED7B60 
 305      2DA09453 
 305      8EC1
 306 0068 84F4653F 		.ascii	"\204\364e?L\330\241\266aj\322z\020\253\312\321\\\235"
 306      4CD8A1B6 
 306      616AD27A 
 306      10ABCAD1 
 306      5C9D
 307 007a A2457000 		.ascii	"\242Ep\000\207\306lWr\205G\356\232b\366\300|\326j\244"
 307      87C66C57 
 307      728547EE 
 307      9A62F6C0 
 307      7CD66AA4 
 308 008e 4B19D743 		.ascii	"K\031\327C$\211I\2710RwJ\377\236\177\252\212\225Z-\377"
 308      248949B9 
 308      3052774A 
 308      FF9E7FAA 
 308      8A955A2D 
 309 00a3 987D8F86 		.ascii	"\230}\217\206\024\347\010\015\227\216\037\011\036\012"
 309      14E7080D 
 309      978E1F09 
 309      1E0A
 310 00b1 3728113B 		.ascii	"7(\021;\303\207\254L\210xAX\244\330\270\374\255\234"
 310      C387AC4C 
 310      88784158 
 310      A4D8B8FC 
ARM GAS  /tmp/ccrOV94e.s 			page 24


 310      AD9C
 311 00c3 092AEB9D 		.ascii	"\011*\353\235;\254\237\177\234=\253\004\217\344%C\310"
 311      3BAC9F7F 
 311      9C3DAB04 
 311      8FE42543 
 311      C8
 312 00d4 1BB13197 		.ascii	"\033\2611\227z\020'\366\330\341\322\267\217=\021\341"
 312      7A1027F6 
 312      D8E1D2B7 
 312      8F3D11E1 
 313 00e4 4F515931 		.ascii	"OQY1mu\0113\364\244\330H\240%\314\336\364\213M\011\267"
 313      6D750933 
 313      F4A4D848 
 313      A025CCDE 
 313      F48B4D09 
 314 00f9 BA51D899 		.ascii	"\272Q\330\231\366\270)\352\025,\213\306\006\365B\352"
 314      F6B829EA 
 314      152C8BC6 
 314      06F542EA 
 315 0109 82FF63F9 		.ascii	"\202\377c\371\375\314\0226\213}M\200\177\005U\263e\272"
 315      FDCC1236 
 315      8B7D4D80 
 315      7F0555B3 
 315      65BA
 316 011b 5C86928D 		.ascii	"\\\206\222\215\"\241\326\007z\273\322J\226\320\016\334"
 316      22A1D607 
 316      7ABBD24A 
 316      96D00EDC 
 317 012b E0FAF56A 		.ascii	"\340\372\365j\377\326i5\332d\370\347\372&\350\240\034"
 317      FFD66935 
 317      DA64F8E7 
 317      FA26E8A0 
 317      1C
 318 013c 734AC805 		.ascii	"sJ\310\005\274\"\240\005\357HR5\340*\305\240\313\316"
 318      BC22A005 
 318      EF485235 
 318      E02AC5A0 
 318      CBCE
 319 014e 668FAEEF 		.ascii	"f\217\256\357\353\001k\225\267c\266\340^v\\\024I\326"
 319      EB016B95 
 319      B763B6E0 
 319      5E765C14 
 319      49D6
 320 0160 76768FCE 		.ascii	"vv\217\316\273\213\263\363\351X\332\035\211/\305\243"
 320      BB8BB3F3 
 320      E958DA1D 
 320      892FC5A3 
 321 0170 49F8D399 		.ascii	"I\370\323\231Df!\375\005\337oux"
 321      446621FD 
 321      05DF6F75 
 321      78
 322              		.text
 323              		.section	.gnu.lto_.symbol_nodes.e557e31b7e353495,"",%progbits
 324 0000 789C4DCB 		.ascii	"x\234M\313;r\302@\020\204\341\236\336E\010\011\310\211"
 324      3B72C240 
 324      1084E19E 
 324      DE450809 
ARM GAS  /tmp/ccrOV94e.s 			page 25


 324      C889
 325 0012 B806B76B 		.ascii	"\270\006\267k\231\207xS\\\000\022E\\\303\256r\340\200"
 325      99877853 
 325      5C001245 
 325      5CC3AE72 
 325      E080
 326 0024 33D88133 		.ascii	"3\330\2013\316@\241\005\025\332I\376\372\246f\010bb"
 326      CE40A105 
 326      15DA49FE 
 326      FAA66608 
 326      6262
 327 0036 780DF714 		.ascii	"x\015\367\024p\274\002\322ie<P\026qJ\261\341\271\346"
 327      70BC02D2 
 327      69653C50 
 327      16714AB1 
 327      E1B9E6
 328 0049 8C7211E7 		.ascii	"\214r\021\347\224o\331\331\021^\340\007\325\211\266"
 328      946FD9D9 
 328      115EE007 
 328      D589B6
 329 0058 05CDCB71 		.ascii	"\005\315\313qA%\321kIu#.\2514\342\212\352\265\264\015"
 329      4125D16B 
 329      4975232E 
 329      A934E28A 
 329      EAB5B40D 
 330 006c 95BD5814 		.ascii	"\225\275X\024f[*o\265\246\372o9\366Q\375\336\315\271"
 330      665B2A6F 
 330      B5A6FA6F 
 330      39F651FD 
 330      DECDB9
 331 007f 01BE427D 		.ascii	"\001\276B}\335\3626\016\255~\276\023\227\014Q\005'\036"
 331      DDF2360E 
 331      AD7EBE13 
 331      970C5105 
 331      271E
 332 0091 9FA16973 		.ascii	"\237\241is\027Z\376\217\\o\200\331_\355\254\331g\300"
 332      175AFE8F 
 332      5C6F80D9 
 332      5FEDACD9 
 332      67C0
 333 00a3 F4723597 		.ascii	"\364r5\2277\316\355i<\000pP[\255"
 333      37CEED69 
 333      3C007050 
 333      5BAD
 334              		.text
 335              		.section	.gnu.lto_.refs.e557e31b7e353495,"",%progbits
 336 0000 789C6362 		.ascii	"x\234cb`b\340f\200\000F\026\006V&6\006vFv\006\000\001"
 336      6062E066 
 336      80004616 
 336      06562636 
 336      06764676 
 337 0017 FA0031   		.ascii	"\372\0001"
 338              		.text
 339              		.section	.gnu.lto_.decls.e557e31b7e353495,"",%progbits
 340 0000 789CBD5C 		.ascii	"x\234\275\\{t\024U\232\257\252\356$\335$\022\036\243"
 340      7B741455 
 340      9AAFAAEE 
ARM GAS  /tmp/ccrOV94e.s 			page 26


 340      24DD2412 
 340      1EA3
 341 0012 A2EB1E7B 		.ascii	"\242\353\036{\346\350\216\253#y\300\360XW\007Lp\302"
 341      E6E88EAB 
 341      2379C0F0 
 341      5857074C 
 341      70C2
 342 0024 595E26F1 		.ascii	"Y^&\3615\347\354\266ER!\275&\351Lw\005\302\231?\246"
 342      35E7ECB6 
 342      455221BD 
 342      26E94C77 
 342      05C2993F 
 343 0039 788411E4 		.ascii	"x\204\021\344\021\003H` \340(\210\012\014\030\036\211"
 343      11034860 
 343      20E02888 
 343      0A0C181E 
 343      89
 344 004a F2687C40 		.ascii	"\362h|@\000\007P\004!\310\330\270\200 \343,\240\021"
 344      00075004 
 344      21C8D8B8 
 344      8020E32C 
 344      A011
 345 005c 1149F6BB 		.ascii	"\021I\366\273_\335\352\276U\251\352\256\212\316\366"
 345      5FDDEABE 
 345      55A9EAAE 
 345      8ACEF6
 346 006b 39F756D5 		.ascii	"9\367V\325M\335\337\367}\277\373\335\357>\252*\002'"
 346      4DDDDFF7 
 346      7DBFFBDD 
 346      EF3EAA2A 
 346      0227
 347 007d 7097DC1C 		.ascii	"p\227\334\034\327\005\277\237\025r\334\002/\307\245"
 347      D705BF9F 
 347      1572DC02 
 347      2FC7A5
 348 008c 731CF710 		.ascii	"s\034\367\020\244TH/B\332\002\351v\201\343\322\340\310"
 348      A454482F 
 348      42DA02E9 
 348      7681E3D2 
 348      E0C8
 349 009e 43FA399C 		.ascii	"C\3729\234\223\337M\220\356\205\363\002H\217B\372\015"
 349      93DF4D90 
 349      EE85F302 
 349      488F42FA 
 349      0D
 350 00af A4A72105 		.ascii	"\244\247!\005 \325@\372\035\244\231\220\346Bz\036\322"
 350      20D540FA 
 350      1DA49990 
 350      E6427A1E 
 350      D2
 351 00c0 12482B20 		.ascii	"\022H+ \221\352k!{\235\342h?\202E0\007B\352\015)\003"
 351      91EA6B21 
 351      7B9DE268 
 351      3F824530 
 351      0742EA0D 
 352 00d6 D27A289B 		.ascii	"\322z(\233\316\253r\233\005U\227\207\3408\020\322\375"
 352      CEAB729B 
ARM GAS  /tmp/ccrOV94e.s 			page 27


 352      05559787 
 352      E03810D2 
 352      FD
 353 00e7 9040756E 		.ascii	"\220@un\010\325\353AA=\336Ke\344A6\312 \243\200\312"
 353      08D5EB41 
 353      413DDE4B 
 353      65E44136 
 353      CA20A380 
 354 00fc 703332B6 		.ascii	"p32\266\363q\031.*\337(\307(\243\200\312\030\013\331"
 354      F371192E 
 354      2ADF28C7 
 354      28A380CA 
 354      180BD9
 355 010f 38838C47 		.ascii	"8\203\214G)W\213\250\356\204C\015g3\244\006\2121\210"
 355      29578BA8 
 355      EE84430D 
 355      6733A406 
 355      8A3188
 356 0122 623C4AF9 		.ascii	"b<J\371!\347\217C\366\204\001\217\360\332\213\301#\272"
 356      21E78F43 
 356      F684018F 
 356      F0DA8BC1 
 356      23BA
 357 0134 FD9B8103 		.ascii	"\375\233\201\003l'8o\2448\303\2058\376o(\367D\346\177"
 357      6C27386F 
 357      A438C385 
 357      38FE6F28 
 357      F744E67F 
 358 0148 19B0497B 		.ascii	"\031\260I{\365\241\366j|\020\031\213\350\375D\316\326"
 358      F5A1F66A 
 358      7C10198B 
 358      E8FD44CE 
 358      D6
 359 0159 04B25229 		.ascii	"\004\262R)O.F\346\203T\356\323T.\341\242\014\216\022"
 359      4F2E46E6 
 359      8354EED3 
 359      542EE1A2 
 359      0C8E12
 360 016c A46D905A 		.ascii	"\244m\220Z\004\265\375[!\275i\320\207\370\316\255\224"
 360      04B5FD5B 
 360      21BD69D0 
 360      87F8CEAD 
 360      94
 361 017d 6B4D9F7E 		.ascii	"kM\237~PVAu\"\272\274E\375\340\026F\037M?\242/\321g"
 361      50564175 
 361      22BABC45 
 361      FDE01646 
 361      1F4D3FA2 
 362 0194 3B95BB03 		.ascii	";\225\273\003\216M\220v\012\252\017\213TW\242\347p\252"
 362      8E4D9076 
 362      0AAA0F8B 
 362      5457A2E7 
 362      70AA
 363 01a6 AB8BCA5D 		.ascii	"\253\213\312]A\375\227\\\023\337\014B\2526\350WC\371"
 363      41FD975C 
 363      13DF0C42 
 363      AA36E857 
ARM GAS  /tmp/ccrOV94e.s 			page 28


 363      43F9
 364 01b8 221C69FA 		.ascii	"\"\034i\372m\241m\223\250M4\236~Nyu\033\370\032J9\253"
 364      6DA16D93 
 364      A84D349E 
 364      7E4E7975 
 364      1BF81A4A 
 365 01ce A19C91F3 		.ascii	"\241\234\221\363)\220\325\032\344\223>\225N\371\351"
 365      2990D51A 
 365      E4933E95 
 365      4EF9E9
 366 01dd A93FFC8E 		.ascii	"\251?\374\216\221\241@6\315 \203\364\331L\203\215\213"
 366      91A14036 
 366      CD2083F4 
 366      D94C838D 
 366      8B
 367 01ee 84E47288 		.ascii	"\204\344r\210\215\273\340x\237A\246\213b\022\231Z\337"
 367      8DBBE078 
 367      9F41A68B 
 367      6212995A 
 367      DF
 368 01ff 9C0DD91C 		.ascii	"\234\015\331\034\203\334\271?@n\004\216\243M\344\316"
 368      83DCB93F 
 368      406E048E 
 368      A34DE4CE 
 369 020f A572B5FE 		.ascii	"\245r\265\376:\037\262\005\006\271\375\270\347\025\370"
 369      3A1FB205 
 369      06B9FDB8 
 369      E715F8
 370 021e F9DA40E8 		.ascii	"\371\332@\350\223\274\310\367\366\022Z\310Y\206\227"
 370      93BCC8F7 
 370      F6125AC8 
 370      598697
 371 022d F3C10D77 		.ascii	"\363\301\015ws/+J}\264n\001\357\023\371\027\371~\200"
 371      732F2B4A 
 371      7DB46E01 
 371      EF13F917 
 371      F97E80
 372 0240 3480E7EE 		.ascii	"4\200\347\356\345^\205Z\365\2122\275?\327\375\227\024"
 372      E55E855A 
 372      F58A32BD 
 372      3FD7FD97 
 372      14
 373 0251 147C915F 		.ascii	"\024|\221_\015X\"\3772\177\257*B\211\034-\365\251\245"
 373      0D5822FF 
 373      327FAF2A 
 373      42891C2D 
 373      F5A9A5
 374 0264 1C2D37F9 		.ascii	"\034-7\371\375\224[\0052#'6\267\362\312\254\2144n\026"
 374      FD945B05 
 374      32232736 
 374      B7F2CAAC 
 374      8C346E16 
 375 0278 5C29D1BA 		.ascii	"\\)\321\272\351\003\032\343\242<\232$>\246~\344\003"
 375      E9031AE3 
 375      A23C9A24 
 375      3EA67EE4 
 375      03
ARM GAS  /tmp/ccrOV94e.s 			page 29


 376 0289 8F20F26B 		.ascii	"\217 \362k\3714\320\376>^\007o\003\203\350\363:\324"
 376      F934D0FE 
 376      3E5E076F 
 376      0383E8F3 
 376      3AD4
 377 029b D569DBEA 		.ascii	"\325i\333\352\026\324\322\004\332\2728d\376\001\036"
 377      16D4D204 
 377      DABA3864 
 377      FE011E
 378 02aa D1DCDE78 		.ascii	"\321\334\336xQ~\254\210gn\034\035+\325Z\211\\\362\336"
 378      517EAC88 
 378      676E1C1D 
 378      2BD55A89 
 378      5CF2DE
 379 02bd F84917AF 		.ascii	"\370I\027\257\023\300\352%\362\353\370\273!_\317\273"
 379      13C0EA25 
 379      F2EBF8BB 
 379      215FCFBB 
 380 02cd 4CAB09DC 		.ascii	"L\253\011\3348\236\322nf$=\215\213\355\255]h\244\237"
 380      389ED26E 
 380      66243D8D 
 380      8BEDAD5D 
 380      68A49F
 381 02e0 FCBA8590 		.ascii	"\374\272\205\220\356\345\236E\302V+IH\217\236\230\265"
 381      EEE59E45 
 381      C2562B49 
 381      488F9E98 
 381      B5
 382 02f1 FE3E45F1 		.ascii	"\376>E\361\210\374\026\236X4UO\274}\234\205s\232\206"
 382      88FC169E 
 382      5834554F 
 382      BC7D9C85 
 382      739A86
 383 0304 214E0BE2 		.ascii	"!N\013\342l\345\365@\324T\206\024\270\326nHJ`\222{\005"
 383      6CE5F540 
 383      D4548614 
 383      B8D66E48 
 383      4A60927B 
 384 0319 2EC23BA5 		.ascii	".\302;\245\315\303\322\026}\357\271E\267)\253\336\346"
 384      CDC3D216 
 384      7DEFB945 
 384      B729ABDE 
 384      E6
 385 032a D3B939C4 		.ascii	"\323\2719\304\336U\263\224\202\266\336&=$\342\322\300"
 385      DE55B394 
 385      82B6DE26 
 385      3D24E2D2 
 385      C0
 386 033b 86C54DDF 		.ascii	"\206\305M\337t\360\350\032~\206\242\300\037vb\337\233"
 386      74F0E81A 
 386      7E86A2C0 
 386      1F7662DF 
 386      9B
 387 034c 27E88D4F 		.ascii	"'\350\215O\012$\362\021^\200|\267\261\273]^\226\241"
 387      0A24F211 
 387      5E807CB7 
 387      B1BB5D5E 
ARM GAS  /tmp/ccrOV94e.s 			page 30


 387      96A1
 388 035e B8D5F2E4 		.ascii	"\270\325\362\344\035\356Z{\323\255J4\302\333\356q\321"
 388      1DEE5A7B 
 388      D3AD4A34 
 388      C2DBEE71 
 388      D1
 389 036f 4F3FFC38 		.ascii	"O?\3748\007\033\355]\354u\373\205\036u\273\275\306n"
 389      071BED5D 
 389      EC75FB85 
 389      1E75BBBD 
 389      C66E
 390 0381 F7C1AC4C 		.ascii	"\367\301\254L\242\365^[\035\357\250\320\275\347E\005"
 390      A2F55E5B 
 390      1DEFA8D0 
 390      BDE74505 
 391 0391 D3AE7741 		.ascii	"\323\256wA\320\367=Z\374U\274\330\305\024Os\305\212"
 391      D0F73D5A 
 391      FC55BCD8 
 391      C5144F73 
 391      C58A
 392 03a3 DD4CF182 		.ascii	"\335L\361\202xq\012\343\022\011\375o/\323\201\333\260"
 392      78710AE3 
 392      1209FD6F 
 392      2FD381DB 
 392      B0
 393 03b4 03EFB3E8 		.ascii	"\003\357\263\350\300\"\337\034k\311\036\365\340\350"
 393      C022DF1C 
 393      6BC91EF5 
 393      E0E8
 394 03c2 A6F967CE 		.ascii	"\246\371g\316\361\013g(m\331f\316\010\267\360\214\033"
 394      F10B6728 
 394      6DD966CE 
 394      08B7F08C 
 394      1B
 395 03d3 3DAD0166 		.ascii	"=\255\001f\304\0325\262\243\235\367\231x\234\356V\221"
 395      C41A35B2 
 395      A39DF799 
 395      789CEE56 
 395      91
 396 03e4 3F0E6624 		.ascii	"?\016f$\273\213\334\327nt\311\025\355\350\222\355\266"
 396      BB8BDCD7 
 396      6E74C915 
 396      EDE892ED 
 396      B6
 397 03f5 5C7253FB 		.ascii	"\\rS\373bg.\031\271\3741\031\303N\241?.s\365\310\037"
 397      62672E19 
 397      B9FC3119 
 397      C34EA13F 
 397      2E73F5C8 
 398 040a A3467F3C 		.ascii	"\243F\177<\261\004\3751j\313\037\327\270\030\337\243"
 398      B104FD31 
 398      6ACB1FD7 
 398      B818DFA3 
 399 041a 659B5CA6 		.ascii	"e\233\\\246\216\367\236K\357xv\\)\312\270\322it\245"
 399      8EF79E4B 
 399      EF78765C 
 399      29CAB8D2 
ARM GAS  /tmp/ccrOV94e.s 			page 31


 399      6974A5
 400 042d CF2CC782 		.ascii	"\317,\307\202\217\321\376\366\036\017\006\315\355\213"
 400      8FD1FEF6 
 400      1E0F06CD 
 400      ED8B
 401 043b 31AAD128 		.ascii	"1\252\321(\256:R\354^\237\206\340\346\230\321\340\275"
 401      AE3A52EC 
 401      5E9F86E0 
 401      E698D1E0 
 401      BD
 402 044c DDFC740C 		.ascii	"\335\374t\014e_`\034\377\324e: \330\200Z8g\373p\214"
 402      655F601C 
 402      FFD4653A 
 402      20D8805A 
 402      3867FB70 
 403 0461 2D5F22D0 		.ascii	"-_\"\320y\227q@H3\014\010i\372 \237\346\215\237\220"
 403      79977140 
 403      48330C08 
 403      69FA209F 
 403      E68D9F90 
 404 0475 C55F26E7 		.ascii	"\305_&\347\364v\210\014F\002u\212\232\021\350c\011\204"
 404      F476880C 
 404      4602758A 
 404      9A11E863 
 404      0984
 405 0487 BE78702B 		.ascii	"\276xp+\177e\272\322\230m\337\201\027\266\023\007\276"
 405      7F65BAD2 
 405      986DDF81 
 405      17B61307 
 405      BE
 406 0498 820EDCD5 		.ascii	"\202\016\334\3253\007\3560:\360u\325\201;l9\360|ww\007"
 406      3307EE30 
 406      3AF075D5 
 406      813B6C39 
 406      F07C7777 
 407 04ad 5EE13675 		.ascii	"^\3416u\340?\273\235;p\007\343\300\337\240\003_\265"
 407      E03FBB9D 
 407      3B7007E3 
 407      C0DFA003 
 407      5FB5
 408 04bf 74E077DD 		.ascii	"t\340w\3356\034\330c\342\300\214<U\322I\224\364\011"
 408      361CD863 
 408      E2C08C3C 
 408      55D24994 
 408      F409
 409 04d1 FF53C82F 		.ascii	"\377S\310/`~\031\362\330O\340\016\271\215\376\245F("
 409      607E19F2 
 409      D84FE00E 
 409      B98DFEA5 
 409      4628
 410 04e3 06291ECA 		.ascii	"\006)\036\312\270DXf\256B*\034\343\323\343\342N\240"
 410      B8445866 
 410      AE422A1C 
 410      E3D3E3E2 
 410      4EA0
 411 04f5 B8DD3DF5 		.ascii	"\270\335=\365\254\310\322\223M\316\272fd\327\222\233"
 411      ACC8D293 
ARM GAS  /tmp/ccrOV94e.s 			page 32


 411      4DCEBA66 
 411      64D7929B 
 412 0505 890F4C13 		.ascii	"\211\017L\023H\023F\273Y\373\205q~e\247\177\\\264c\205"
 412      481346BB 
 412      59FB8571 
 412      7E65A77F 
 412      5CB46385 
 413 0519 59FBA015 		.ascii	"Y\373\240\025J\244\371d\023O\2540[K\360Z\375>1\033\242"
 413      4AA4F964 
 413      134FAC30 
 413      5B4BF05A 
 413      FD3E311B 
 414 052e 473F3F7F 		.ascii	"G??\177\216\206\227Y\002\231)\255II:S\322\003\011\334"
 414      8E869759 
 414      029929AD 
 414      49493A53 
 414      D20309DC 
 415 0542 06AC325B 		.ascii	"\006\2542[0\014K\035\242O-M6()\221\253g\275JC\206\211"
 415      300C4B1D 
 415      A24F2D4D 
 415      36282991 
 415      AB67BD4A 
 416 0559 A811ACC9 		.ascii	"\250\021\254\311ZD\274\030\275m\237\242\364\021\371"
 416      5A44BC18 
 416      BD6D9FA2 
 416      F411F9
 417 0568 79A8F197 		.ascii	"y\250\361\227\346\032\257\032a\205#p7\260J\275A\343"
 417      E61AAF1A 
 417      61852370 
 417      37B04ABD 
 417      41E3
 418 057a E88E2B6D 		.ascii	"\350\216+m\2677\"r\275\015\265\247G\216\316Zak\216\272"
 418      B7372272 
 418      BD0DB5A7 
 418      478ECE5A 
 418      616B8EBA 
 419 058e CAAD89CF 		.ascii	"\312\255\211\317\217\233q\374bd\000F\343\305h\305;\251"
 419      8F9B71FC 
 419      62640046 
 419      E3C568C5 
 419      3BA9
 420 05a0 4979D7C3 		.ascii	"Iy\327\303\010\334\373X\245\261\273\025\321\177R\255"
 420      08DCFB58 
 420      A5B1BB15 
 420      D17F52AD 
 421 05b0 68B465C5 		.ascii	"h\264e\305uj\205\310/\022\322\001\366X\014\326nG\322"
 421      756A85C8 
 421      2F12D201 
 421      F6580CD6 
 421      6E47D2
 422 05c3 E375EEC9 		.ascii	"\343u\356\311\250\0275\260S\216\301|:\260\205{\227;"
 422      A81735B0 
 422      538EC17C 
 422      3AB0857B 
 422      973B
 423 05d5 1C30975E 		.ascii	"\0340\227^=\177\333\0164\177\025v\314\365i?J\307\334"
 423      3D7FDB0E 
ARM GAS  /tmp/ccrOV94e.s 			page 33


 423      347F1576 
 423      CCF5693F 
 423      4AC7DC
 424 05e8 9266C310 		.ascii	"\222f\303\020\353\216\011\255r\370\216\3267\024ev\252"
 424      EB8E09AD 
 424      72F88ED6 
 424      37146576 
 424      AA
 425 05f9 E69FA956 		.ascii	"\346\237\251V\206\010\334v\024\266\332\330\262K;\017"
 425      8608DC76 
 425      14B6DAD8 
 425      B24B3B0F 
 426 0609 DFAFB6EC 		.ascii	"\337\257\266\354j[-\273\355\300\022{\376\231\252\211"
 426      6A5B2DBB 
 426      EDC0127B 
 426      FE99AA89 
 427 0619 2F45F19D 		.ascii	"/E\361\235(\3765\243\370-\177\272\360\220*\3765[\342"
 427      28FE35A3 
 427      F82D7FBA 
 427      F0902AFE 
 427      355BE2
 428 062c 3F3D64B2 		.ascii	"?=d\262\204\023\371\207nN\330|\235\227\356Y\211B6\240"
 428      8413F987 
 428      6E4ED87C 
 428      9D97EE59 
 428      894236A0 
 429 0640 03B5798C 		.ascii	"\003\265y\214\315\367\253tV\026^37\010\334\007\036M"
 429      CDF7AB74 
 429      56165E33 
 429      3708DC07 
 429      1E4D
 430 0652 FB1EF92F 		.ascii	"\373\036\371/\230\271\373W\257bKi:\034u\214\250w\342"
 430      98B9FB57 
 430      AF624B69 
 430      3A1C758C 
 430      A877E2
 431 0665 2B87B047 		.ascii	"+\207\260G\250`'\354\200Y:\322\364\310\327,\330)\307"
 431      A86027EC 
 431      80593AD2 
 431      F4C8D72C 
 431      D829C7
 432 0678 607ACDBE 		.ascii	"`z\315\276a\301N\333\001\353c\255\331\267,\330Y\307"
 432      61C14EDB 
 432      01EB63AD 
 432      D9B72CD8 
 432      59C7
 433 068a 607ACDBE 		.ascii	"`z\315\276c\301.\330\001\033`\255\331\367,\330\227\216"
 433      63C12ED8 
 433      011B60AD 
 433      D9F72CD8 
 433      978E
 434 069c C1F49A75 		.ascii	"\301\364\232u\262`\227\355\200\371\2545\253\377\220"
 434      B26097ED 
 434      80F9AC35 
 434      ABFF90
 435 06ab 01EB700C 		.ascii	"\001\353p\014\246\327\254\201\005\273f\007\354\036k"
 435      A6D7AC81 
ARM GAS  /tmp/ccrOV94e.s 			page 34


 435      05BB6607 
 435      EC1E6B
 436 06ba CD16B160 		.ascii	"\315\026\261`7\034\203\3515{\201\005\233\346\265\001"
 436      371C83E9 
 436      357B8105 
 436      9BE6B501 
 437 06ca 966DAD59 		.ascii	"\226m\255Y#\013V\347\030L\257\3312\026l\266\035\260"
 437      230B56E7 
 437      184CAFD9 
 437      32166CB6 
 437      1DB0
 438 06dc 61D69A2D 		.ascii	"a\326\232-g\301\3469\006\323k\266\221\005{\336\016\330"
 438      67C1E639 
 438      06D36BB6 
 438      91057BDE 
 438      0ED8
 439 06ee 086BCDDE 		.ascii	"\010k\315\336`\301\0269\006\323k\266\231\005[b\007\254"
 439      60C11639 
 439      06D36BB6 
 439      99055B62 
 439      07AC
 440 0700 C05AB3AD 		.ascii	"\300Z\263\255,\3302\307`z\315ZX\260\025v\300&Xk\366"
 440      2CD832C7 
 440      607ACD5A 
 440      58B01576 
 440      C026586B 
 441 0715 260BB6CA 		.ascii	"&\013\266\3121\230^\263\355,\330Kv\300\236\264\326l"
 441      31985EB3 
 441      ED2CD84B 
 441      76C09EB4 
 441      D66C
 442 0727 270BF68A 		.ascii	"'\013\366\212c0\275f\207Y\260\327\355\200=m\242Y\354"
 442      6330BD66 
 442      8759B0D7 
 442      ED803D6D 
 442      A259EC
 443 073a 67568F0C 		.ascii	"gV\217\014\323\257\012\314bm\203W\233\3408\034\243\271"
 443      D3AF0ACC 
 443      626D8357 
 443      9BE0381C 
 443      A3B9
 444 074c 38C61B5E 		.ascii	"8\306\033^\24732\235\335d\236|\307\233t\234W'\253-v"
 444      A733329D 
 444      DD649E7C 
 444      C79B749C 
 444      5727AB2D 
 445 0761 10130C80 		.ascii	"\020\023\014\200\313\36623\337\210c0\203+\0230\335\324"
 445      CBF63233 
 445      DF886330 
 445      832B1330 
 445      DDD4
 446 0773 29B6F51F 		.ascii	")\266\365\037I\274\343A\0360\011\314s\202\001\346\367"
 446      49BCE341 
 446      1E3009CC 
 446      738201E6 
 446      F7
 447 0784 8AFC4581 		.ascii	"\212\374E\201,\341\377&xcZ\250\347\332\231\272e\320"
ARM GAS  /tmp/ccrOV94e.s 			page 35


 447      2CE1FF26 
 447      78635AA8 
 447      E7DA99BA 
 447      65D0
 448 0796 E6D56F38 		.ascii	"\346\325o8\304~\311\252Zy\302\005\326\023\376b\207\246"
 448      C47EC9AA 
 448      5A79C205 
 448      D613FE62 
 448      87A6
 449 07a8 0443FBA7 		.ascii	"\004C\373\247{\227\343~\246\375\347\"K\257\036\246\013"
 449      7B97E37E 
 449      A6FDE722 
 449      4BAF1EA6 
 449      0B
 450 07b9 844BB840 		.ascii	"\204K\270@\370\310k\234anq\370d\004\346aF+\314\266U"
 450      F8C86B9C 
 450      616E71F8 
 450      6404E661 
 450      462BCCB6 
 451 07ce ACE7     		.ascii	"\254\347"
 452 07d0 14E08BC7 		.ascii	"\024\340\213\307\357l\335\240(3R\235\330\321F\355\350"
 452      EF6CDDA0 
 452      2833529D 
 452      D8D146ED 
 452      E8
 453 07e1 403BCEFE 		.ascii	"@;\316\376\010v|\351\330\216{\014vD\356qn\307qj\307"
 453      08767CE9 
 453      D88E7B0C 
 453      7644EE71 
 453      6EC7716A 
 454 07f6 776847C7 		.ascii	"whG\307\217`\307\015\307vd3v\340jm\240\272Z\353\317"
 454      8F60C70D 
 454      C7766433 
 454      76E06A6D 
 454      A0BA5AEB 
 455 080b 35245EAD 		.ascii	"5$^\255\021}\272\204\376\206\375\355\375d\313\221\024"
 455      117DBA84 
 455      FE86FDED 
 455      FD64CB91 
 455      14
 456 081c DBD8FCD8 		.ascii	"\333\330\374\330\317,q\025{K\334K\224\261\351.\302\330"
 456      CF2C7115 
 456      7B4BDC4B 
 456      94B1E92E 
 456      C2D8
 457 082e CC5E265B 		.ascii	"\314^&[\302\266\220N\354yw\023\335\376\251C\2509=\206"
 457      C2B6904E 
 457      EC797713 
 457      DDFEA943 
 457      A8393D86 
 458 0842 5AB87F9B 		.ascii	"Z\270\177\233\372\270\361Y\004j\350el\305TC#\246\352"
 458      FAB8F159 
 458      046AE865 
 458      6CC55443 
 458      23A6EA
 459 0855 1B112E89 		.ascii	"\033\021.\211\244o\311\212\233\377=-!\027i\334\377{"
 459      A46FC98A 
ARM GAS  /tmp/ccrOV94e.s 			page 36


 459      9BFF3D2D 
 459      211769DC 
 459      FF7B
 460 0867 3D815B8E 		.ascii	"=\201[\216\352\223\006t8@\305\035\350\027\255tpQ\033"
 460      EA930674 
 460      3840C51D 
 460      E817AD74 
 460      70511B
 461 087a E9A51F84 		.ascii	"\351\245\037\2048=\322\374\234\266M\363+2\274\254\373"
 461      383DD2FC 
 461      9CB64DF3 
 461      2B32BCAC 
 461      FB
 462 088b 81701F1C 		.ascii	"\201p\037\034p\276\261\022\271]\365\272\347\321\240"
 462      70BEB112 
 462      B95DF5BA 
 462      E7D1A0
 463 089a E66E2DDC 		.ascii	"\346n-\334\243\215\225]=5$\366\023\270=\275l\014\"\276"
 463      A38D955D 
 463      3D3524F6 
 463      13B83DBD 
 463      6C0C22BE 
 464 08ae 44ADF5ED 		.ascii	"D\255\365\355@\233\2333\261M\310\363\003\332\220\214"
 464      409B9B33 
 464      B14DC8F3 
 464      03DA908C 
 465 08be 252EB27D 		.ascii	"%.\262}\267\337@\206\215M\236\023Xe\231\253\333\366"
 465      B7DF4086 
 465      8D4D9E13 
 465      586599AB 
 465      DBF6
 466 08d0 DDE1DBD4 		.ascii	"\335\341\333\324]\026\362'\033\233<\272\355;\221_.\010"
 466      5D16F227 
 466      1B9B3CBA 
 466      ED3B915F 
 466      2E08
 467 08e2 14B6A77C 		.ascii	"\024\266\247|\352\2320\256\037@\273\310|a\205K\267\315"
 467      EA9A30AE 
 467      1F40BBC8 
 467      7C61854B 
 467      B7CD
 468 08f4 7FC131F7 		.ascii	"\177\3011\367>\226\373\310\365\003\313yU\177u;\367+"
 468      3E96FBC8 
 468      F503CB79 
 468      557F753B 
 468      F72B
 469 0906 23DE0876 		.ascii	"#\336\010v.GO-\327\255J\244\341 N\302\324N\327iG\271"
 469      2E474F2D 
 469      D7AD4AA4 
 469      E1204EC2 
 469      D44ED769 
 470 091c 044BCD26 		.ascii	"\004K\315&\025Lu\370\231\351N\301|:\260\035\363M\266"
 470      154C75F8 
 470      99E94EC1 
 470      7C3AB01D 
 470      F34DB6
 471 092f 8BD52D72 		.ascii	"\213\325-r\253\201e\215\213\231*-\260#?\301\352\364"
ARM GAS  /tmp/ccrOV94e.s 			page 37


 471      AB81658D 
 471      8B992A2D 
 471      B0233FC1 
 471      EAF4
 472 0941 E8C1E5D4 		.ascii	"\350\301\345\324S\324\235\321\245\216\361\364\366\\"
 472      53D49DD1 
 472      A58EF1F4 
 472      F65C
 473 094f 9EAF8B48 		.ascii	"\236\257\213H/\333\201\033a\333\361\342\373\332\340"
 473      2FDB811B 
 473      61DBF1E2 
 473      FBDAE0
 474 095e 843851FD 		.ascii	"\2048Q\375\243@\236\014\255\300|%\346/c~\006\363s\230"
 474      A3409E0C 
 474      ADC07C25 
 474      E62F637E 
 474      06F37398 
 475 0972 9FC7FC7F 		.ascii	"\237\307\374\1771\377\032\363k\230wb\376\202\013\353"
 475      31FF1AF3 
 475      6B987762 
 475      FE820BEB 
 476 0982 62FE22E6 		.ascii	"b\376\"\346/a\276\032\363\265\230\277\306\272\267U\273"
 476      2F61BE1A 
 476      F3B598BF 
 476      C6BAB755 
 476      BB
 477 0993 A85D2DD6 		.ascii	"\250]-\3261\265^W\337\343M\363c\361Ms\221or\014\346"
 477      31B55E57 
 477      DFE34DF3 
 477      63F14D73 
 477      916F720C 
 478 09a8 4BC4643D 		.ascii	"K\304d=\303d\0032\271\020\331X\247\357\310\353\322\265"
 478      C3640332 
 478      B910D958 
 478      A7EFC8EB 
 478      D2B5
 479 09ba C738093A 		.ascii	"\3078\011:\236\265\011\321\217>?\237\266T\211\314ti"
 479      9EB509D1 
 479      8F3E3F9F 
 479      B65489CC 
 479      7469
 480 09cc 2BA0CD46 		.ascii	"+\240\315F\300\244\0134='\235\222\341\215\013\365\031"
 480      C0A40B34 
 480      3D279D92 
 480      E18D0BF5 
 480      19
 481 09dd 95559B6C 		.ascii	"\225U\233lb\373\312v\307\262\023R8\233\241\3609\244"
 481      62FBCA76 
 481      C7B21352 
 481      389BA1F0 
 481      39A4
 482 09ef 702E52B8 		.ascii	"p.R\270\001]f#K\244\310\317\021\014\357\233\350\037"
 482      015D6623 
 482      4BA4C8CF 
 482      110CEF9B 
 482      E81F
 483 0a01 9825101E 		.ascii	"\230%\020\036{\310\335q\314\344\205\023\365QQ\202Ai"
ARM GAS  /tmp/ccrOV94e.s 			page 38


 483      7BC8DD71 
 483      CCE48513 
 483      F5515182 
 483      4169
 484 0a13 C9CE1377 		.ascii	"\311\316\023w\254\303\241c\263\2134\300\365t\343\010"
 484      ACC3A163 
 484      B38B34C0 
 484      F574E308 
 485 0a23 BD48306C 		.ascii	"\275H0l\236\033\034Y\340\346g\330x\000\231`%\263i\376"
 485      9E1B1C59 
 485      E0E667D8 
 485      78009960 
 485      25B369FE 
 486 0a37 D563FC8C 		.ascii	"\325c\374\214\031\312\332l:\263Pf)\367\254\215\017\202"
 486      19CADA6C 
 486      3AB35066 
 486      29F7AC8D 
 486      0F82
 487 0a49 7D340C21 		.ascii	"}4\014!\246wd\213\372 \265\025\243\354\342\014\323\367"
 487      A677648B 
 487      FA20B515 
 487      A3ECE20C 
 487      D3F7
 488 0a5b 1B92C344 		.ascii	"\033\222\303DO\314\332\366\013\234\201nG\240\225=\006"
 488      4FCCDAF6 
 488      0B9C816E 
 488      47A0953D 
 488      06
 489 0a6c 5A38E715 		.ascii	"Z8\347\025\365E\211]\010\2646\303H\243\3130\317q\351"
 489      F545895D 
 489      08B436C3 
 489      48A3CB30 
 489      CF71E9
 490 0a7f E7392E6F 		.ascii	"\3479.o\374\244\253\313\305\375\003o\206i\230\261\301"
 490      FCA4ABCB 
 490      C5FD036F 
 490      866998B1 
 490      C1
 491 0a90 7416259B 		.ascii	"t\026%\233\373\220\006\273A\235M{\303\244\305\216\013"
 491      FB9006BB 
 491      419D4D7B 
 491      C3A4C58E 
 491      0B
 492 0aa1 E810752E 		.ascii	"\350\020u.\020\371\376$\3062\025\354m;`\011\266\241"
 492      10F9FE24 
 492      C63215EC 
 492      6D3B6009 
 492      B6A1
 493 0ab3 1737ADB4 		.ascii	"\0277\255\264|\206\265*\351\253W\321\326s\373\376\235"
 493      7C86B52A 
 493      E9AB57D1 
 493      D673FBFE 
 493      9D
 494 0ac4 BC0898FC 		.ascii	"\274\010\230\374\365\253\375.{\257_\275\3572>\347>\210"
 494      F5ABFD2E 
 494      7BAF5FBD 
 494      EF323EE7 
ARM GAS  /tmp/ccrOV94e.s 			page 39


 494      3E88
 495 0ad6 AF5FBD6F 		.ascii	"\257_\275ok\266v\325l\016`\3666b,d\014\210\033\363\361"
 495      6BB676D5 
 495      6C0E60F6 
 495      36622C64 
 495      0C881BF3 
 496 0aeb 17FB1E52 		.ascii	"\027\373\036R\337j<\214\223\316C7%\177\253Q\207C\364"
 496      DF6A3C8C 
 496      93CE4337 
 496      257FAB51 
 496      8743F4
 497 0afe 3B62D4BF 		.ascii	";b\324\277\371\020\352\177$\271\3763gD\266\321gz\330"
 497      F910EA7F 
 497      24B9FE33 
 497      6744B6D1 
 497      677AD8
 498 0b11 9966245C 		.ascii	"\231f$\\6\210\374E|E\304\316\"\3403\264\344\210\363"
 498      3688FC45 
 498      7C45C4CE 
 498      22E033B4 
 498      E488F3
 499 0b24 492B55AB 		.ascii	"I+U\253E}&s\014\373\353Y\307`>\035\330\233,\330\027"
 499      457D2673 
 499      0CFBEB59 
 499      C7603E1D 
 499      D89B2CD8 
 500 0b39 76C0AC06 		.ascii	"v\300\254\0061\000\333\316\202\375\3351\230^\263\235"
 500      3100DBCE 
 500      82FDDD31 
 500      985EB39D 
 501 0b49 2CD85776 		.ascii	",\330Wv\300\254v+\001\3540\013\366\255c0\237\231\227"
 501      C0AC762B 
 501      01EC300B 
 501      F6AD6330 
 501      9F9997
 502 0b5c 70DD9C4C 		.ascii	"p\335\234L\344?\302U\303Q\034)\217c\336\216\371'\230"
 502      E43FC255 
 502      C3511C29 
 502      8F63DE8E 
 502      F92798
 503 0b6f FF15F3A8 		.ascii	"\377\025\363\250\235I\327!v\200\377\036\025~\277g\036"
 503      9D49D721 
 503      7680FF1E 
 503      157EBF67 
 503      1E
 504 0b80 0361AFF5 		.ascii	"\003a\257\365\334\351\007\324\335_\303\030K\370\260"
 504      DCE907D4 
 504      DD5FC318 
 504      4BF8B0
 505 0b8f D2E00CAB 		.ascii	"\322\340\014\253\301\214\336N5\360\261\032D\256\037"
 505      C18CDE4E 
 505      35F0B11A 
 505      44AE1F
 506 0b9e 54772EB5 		.ascii	"Tw.\265\027\275\2375\342\331}5K\233.\035L\337\370\264"
 506      17BD9F35 
 506      E2D97D35 
 506      4B9B2E1D 
ARM GAS  /tmp/ccrOV94e.s 			page 40


 506      4CDFF8B4 
 507 0bb2 06B6C031 		.ascii	"\006\266\3001\230\356\365\353H\375!\006l\251c\260>\335"
 507      98EEF5EB 
 507      48FD2106 
 507      6CA963B0 
 507      3EDD
 508 0bc4 3C42F585 		.ascii	"<B\365\205\277\240/\034\3046\377\037\314\317a~\036\363"
 508      BFA02F1C 
 508      C436FF1F 
 508      CCCF617E 
 508      1EF3
 509 0bd6 2FF413D2 		.ascii	"/\364\023\322U\275\215\343\256\032c\031\324x0\346\354"
 509      55BD8DE3 
 509      AE1A6319 
 509      D47830E6 
 509      EC
 510 0be7 E25AB56D 		.ascii	"\342Z\265m\033\333\266\315\275\235\216Z\272\266\205"
 510      1BDBB6CD 
 510      BD9D8E5A 
 510      BAB685
 511 0bf6 4175EFE7 		.ascii	"Au\357\347\332\240\332\206s\261V;\210\011V\242\233\377"
 511      DAA0DA86 
 511      73B1563B 
 511      880956A2 
 511      9BFF
 512 0c08 6A7C1C60 		.ascii	"j|\034`\026\355\005V\267\330\250\261\373)u\324\270\202"
 512      16ED0556 
 512      B7D8A8B1 
 512      FB2975D4 
 512      B882
 513 0c1a A3C6AEDE 		.ascii	"\243\306\256\336\311G\015Ao\243\310w\030G\215kGp\324"
 513      C9470D41 
 513      6FA3C877 
 513      18478D6B 
 513      4770D4
 514 0c2d E8B0356A 		.ascii	"\350\2605j\3348\262\210\256\024\325hs\000U\350\350q"
 514      DC38B288 
 514      AE14D568 
 514      730055E8 
 514      E871
 515 0c3f B8EF3CC2 		.ascii	"\270\357<\302\204\256C\216\301|:\260\372c\014\330\021"
 515      84AE438E 
 515      C17C3AB0 
 515      FA630CD8 
 515      11
 516 0c50 3B6009C2 		.ascii	";`\011\302}\003\013v\3341\230^\263E,\330);`\011\302"
 516      7D030B76 
 516      DC31985E 
 516      B3452CD8 
 516      293B6009 
 517 0c65 FD0B2C58 		.ascii	"\375\013,X\3241\230^\263F\026\354\214\0350\253G8\000"
 517      D431985E 
 517      B34616EC 
 517      8C1D30AB 
 517      473800
 518 0c78 B68C053B 		.ascii	"\266\214\005;\357\030L\257\331r\026\354ov\300|\326\232"
 518      EF184CAF 
ARM GAS  /tmp/ccrOV94e.s 			page 41


 518      D97216EC 
 518      6F76C07C 
 518      D69A
 519 0c8a 35B16057 		.ascii	"5\261`W\034\203\371\314\272\204\372c{\224\310\177\203"
 519      1C83F9CC 
 519      BA84FA63 
 519      7B94C87F 
 519      83
 520 0c9b 61F12A06 		.ascii	"a\361*\006\253k\230_\307\374\006\346]\230Os\223|\006"
 520      AB6B985F 
 520      C7FC06E6 
 520      5D984F73 
 520      937C06
 521 0cae E67598FF 		.ascii	"\346u\230\377\001\363\331n\033\301\3552\033\334\256"
 521      01F3D96E 
 521      1BC1ED32 
 521      1BDCAE
 522 0cbd 3A0E4509 		.ascii	":\016E\011\015\211\177\"#\362o\343\214\357\035|\205"
 522      0D897F22 
 522      23F26FE3 
 522      8CEF1D7C 
 522      85
 523 0cce F728E60A 		.ascii	"\367(\346\012\256\223\3530oFCZ0\177\007\363\3670\337"
 523      AE93EB30 
 523      6F46435A 
 523      307F07F3 
 523      F730DF
 524 0ce1 8BF9DF31 		.ascii	"\213\371\3371\277d'V\357\210\277\370\013\353q7Yn\257"
 524      BF642756 
 524      EF88BFF8 
 524      0BEB7137 
 524      596EAF
 525 0cf4 EEF12BE5 		.ascii	"\356\361+\345g\017,p\372N\376\305\350\032\372\324d\036"
 525      670F2C70 
 525      FA4EFEC5 
 525      E81AFAD4 
 525      641E
 526 0d06 BEBF7DBD 		.ascii	"\276\277}\275\333H\325\243\255\360\272L>\271%\011\336"
 526      DB48D5A3 
 526      ADF0BA4C 
 526      3EB92509 
 526      DE
 527 0d17 31AC9B3F 		.ascii	"1\254\233?\217'3\212\276\\=F\364\001\352\263Xz\357\223"
 527      8F27338A 
 527      BE5C3D46 
 527      F401EAB3 
 527      587AEF93 
 528 0d2b 1A423A55 		.ascii	"\032B:U\251\301\335\027\317t\317x\360\016+\336\027\272"
 528      A9C1DD17 
 528      CF74CF78 
 528      F00E2BDE 
 528      17BA
 529 0d3d E3CF7B33 		.ascii	"\343\317{3\274\361\223^1\337\232g4A'5I\310\203a\256"
 529      BCF1935E 
 529      31DF9A67 
 529      34412735 
 529      49C88361 
ARM GAS  /tmp/ccrOV94e.s 			page 42


 530 0d52 E3DB365E 		.ascii	"\343\3336^i\3100\314\311\3104\304J\247\027\334\214k"
 530      69C830CC 
 530      C9C834C4 
 530      4AA717DC 
 530      8C6B
 531 0d64 37D86130 		.ascii	"7\330a0\301\323\344oJ\311\210M \005\256\3211\226\317"
 531      C1D3E46F 
 531      4AC9884D 
 531      2005AED1 
 531      3196CF
 532 0d77 A28F70FA 		.ascii	"\242\217p\372\0177E~\015v\223W\260\203l\306|;\346s\261"
 532      0F37457E 
 532      0D769357 
 532      B0836CC6 
 532      7C3BE673 
 533 0d8c 473F8FF9 		.ascii	"G?\217\371b\314\033\331\336m\3773\262\033\337\235\276"
 533      62CC1BD9 
 533      DE6DFF33 
 533      B21BDF9D 
 533      BE
 534 0d9d 0B773096 		.ascii	"\013w0\226\271\311W\017\0333\365\376i\363\253\207\025"
 534      B9C9570F 
 534      1B33F5FE 
 534      69F3AB87 
 534      15
 535 0dae 6EC3570F 		.ascii	"n\303W\017]\344\353MR\232\374\233\207\2673\273\177D"
 535      5DE4EB4D 
 535      529AFC9B 
 535      87B733BB 
 535      7F44
 536 0dc0 D69669FA 		.ascii	"\326\226i\372\021\331\241L\323O!\216e:\377\024\"\256"
 536      11D9A14C 
 536      D34F218E 
 536      653AFF14 
 536      22AE
 537 0dd2 B1C837B9 		.ascii	"\261\3107\271\011\311+\335\346\237Bx\270?\250\024(\323"
 537      09C92BDD 
 537      E69F4278 
 537      B83FA814 
 537      28D3
 538 0de4 F8DF26E0 		.ascii	"\370\337&\340\022_\246\200\266r{\310\030\234i\371*\004"
 538      125FA680 
 538      B6727BC8 
 538      189C69F9 
 538      2A04
 539 0df6 B9415351 		.ascii	"\271ASQ=\327\316\240\312\235\\\223\022\211F\227t\235"
 539      3DD7CEA0 
 539      CA9D5C93 
 539      12894697 
 539      749D
 540 0e08 FED72533 		.ascii	"\376\327%3\246\267)\227H\207\277\205[L\273\235\302\313"
 540      A6B72997 
 540      4887BF85 
 540      5B4CBB9D 
 540      C2CB
 541 0e1a EA030B2B 		.ascii	"\352\003\013+\037\177\335}K\234[\3625w\342i\240\022"
 541      1F7FDD7D 
ARM GAS  /tmp/ccrOV94e.s 			page 43


 541      4B9C5BF2 
 541      3577E269 
 541      A012
 542 0e2c FB94319B 		.ascii	"\373\2241\233u\211\013w\243Klp\223Y`\207\301%\222\302"
 542      75890B77 
 542      A34B6C70 
 542      93596087 
 542      C12592C2 
 543 0e40 E016ABDB 		.ascii	"\340\026\253\333\370\351\231\344SK\223?\346\336\264"
 543      F8E999E4 
 543      534B933F 
 543      E6DEB4
 544 0e4f 9ABCE3AF 		.ascii	"\232\274\343\257}\014\335\211\342IMM\230\356K\347$S"
 544      7D0CDD89 
 544      E2494D4D 
 544      98EE4BE7 
 544      2453
 545 0e61 40F23874 		.ascii	"@\3628t\007~\313\254yx]\037\003\236\331\022\305g\015"
 545      077ECBAC 
 545      79785D1F 
 545      039ED912 
 545      C5670D
 546 0e74 B7E5428B 		.ascii	"\267\345B\213\012\2476\364l\307p\354\362I\211l\353\360"
 546      0AA736F4 
 546      6CC770EC 
 546      F249896C 
 546      EBF0
 547 0e86 001A8DC3 		.ascii	"\000\032\215\303\253F4&\211ao:\216\304oYDb\255\247\010"
 547      AB463426 
 547      89616F3A 
 547      8EC46F59 
 547      4462ADA7 
 548 0e9b 5CBDD184 		.ascii	"\\\275\321\204\244\323\225>:\023ZR\032\263\265\201\304"
 548      A4D3953E 
 548      3A135A52 
 548      1AB3B581 
 548      C4
 549 0eac A0FF047D 		.ascii	"\240\377\004}\334\027\371\235\216\365\337e\241\2777"
 549      DC17F99D 
 549      8EF5DF65 
 549      A1BF37
 550 0ebb A6FF52A3 		.ascii	"\246\377R\243\376:\251f\372g\233y\037\327\315uE\376"
 550      FE3AA966 
 550      FA679B79 
 550      1FD7CD75 
 550      45FE
 551 0ecd 0D8C0CCD 		.ascii	"\015\214\014\315\030`\267`\276\015\363V\314w\330\231"
 551      1860B760 
 551      BE0DF356 
 551      CC77D899 
 552 0edd 50AD8F8F 		.ascii	"P\255\217\217:\264S\212\374\220t\365\370X|\023W\340"
 552      3AB4538A 
 552      FC9074F5 
 552      F8587C13 
 552      57E0
 553 0eef FED447DF 		.ascii	"\376\324G\337\317\356\342^R\224\006\014\005\307\337"
 553      CFEEE25E 
ARM GAS  /tmp/ccrOV94e.s 			page 44


 553      5294060C 
 553      05C7DF
 554 0efe 5014AF0A 		.ascii	"P\024\257\012%p\021\274\3575\367\235\246\"\251@\265"
 554      257011BC 
 554      EF35F79D 
 554      A622A940 
 554      B5
 555 0f0f B272542A 		.ascii	"\262rT*@i\020e\223\324RU\372\027n5\211c\177\236U\327"
 555      40691065 
 555      93D45255 
 555      FA176E35 
 555      89637F9E 
 556 0f25 C7AD061A 		.ascii	"\307\255\006\032.A-j\341\333n\335\377<PCX\244\341\300"
 556      2E412D6A 
 556      E1DB6EDD 
 556      FF3C5043 
 556      58A4E1C0 
 557 0f39 5C4FFDB4 		.ascii	"\\O\375\264hW\327\235\016\302\327>}\370R\215IL\333^"
 557      6857D79D 
 557      0EC2D73E 
 557      7DF8528D 
 557      494CDB5E 
 558 0f4d 53DA943F 		.ascii	"S\332\224?\022\313Im\221\177\027\247}m\266\010\333\025"
 558      12CB496D 
 558      917F17A7 
 558      7D6DB608 
 558      DB15
 559 0f5f 23EC33C4 		.ascii	"#\3543\304\265\256\225\2100\253Z\324\312\367\273\023"
 559      B5AE9588 
 559      30AB5AD4 
 559      CAF7BB13 
 560 0f6f B62A1AB9 		.ascii	"\266*\032\271\206\023\032\345\373\256\256\031\020\342"
 560      86131AE5 
 560      FBAEAE19 
 560      10E2
 561 0f7d 1C90F661 		.ascii	"\034\220\366aB\322\350pc`\355\2429kK\215\254}`\213\265"
 561      42D2E870 
 561      6360EDA2 
 561      396B4B8D 
 561      AC7D608B 
 562 0f92 D6FF1CA0 		.ascii	"\326\377\034\240\305\303\253\010\314T3\274IH"
 562      C5C3AB08 
 562      CC5433BC 
 562      4948
 563 0fa0 D541DE14 		.ascii	"\325A\336\024e\307\231\011\005q\332\254\204Q;\217\232"
 563      65C79909 
 563      0571DAAC 
 563      84513B8F 
 563      9A
 564 0fb1 D2B6E254 		.ascii	"\322\266\342T\206c7;i\306\230\201\241.s\206n\224\032"
 564      8663373B 
 564      69C69881 
 564      A12E7386 
 564      6E941A
 565 0fc4 186A4FCC 		.ascii	"\030jO\314P\314T\203\213XU\243\032\236\352nk\364R\244"
 565      50CC5483 
 565      8B5855A3 
ARM GAS  /tmp/ccrOV94e.s 			page 45


 565      1A9EEA6E 
 565      6BF452A4 
 566 0fd8 5D526704 		.ascii	"]Rg\004\016L=\235\3209\226\341\014\315h\372\334\276"
 566      0E4C3D9D 
 566      D03996E1 
 566      0CCD68FA 
 566      DCBE
 567 0fea A6A6AF30 		.ascii	"\246\246\2570:G\324\226s\\%\316\241\216\275/\"p\324"
 567      3A47D496 
 567      735C25CE 
 567      A18EBD2F 
 567      2270D4
 568 0ffd D239A8   		.ascii	"\3229\250"
 569 1000 3AE68C59 		.ascii	":\346\214YI\243\206\2361\365\216\267\216\233{\207\305"
 569      49A3869E 
 569      31F58EB7 
 569      8E9B7B87 
 569      C5
 570 1011 A745B820 		.ascii	"\247E\270 K\310\030]P\306\256\351\033\207\006\006\327"
 570      4BC8185D 
 570      50C6AEE9 
 570      1B870606 
 570      D7
 571 1022 993378CD 		.ascii	"\2313x\315\350<\027l1\270\205\020O\004\013\\\013\002"
 571      E83C176C 
 571      31B88510 
 571      4F040B5C 
 571      0B02
 572 1034 5B5743F5 		.ascii	"[WC\365\260\332t\245\203\020\257\356\313\3562V3\020"
 572      B0DA74A5 
 572      8310AFEE 
 572      CBEE3256 
 572      3310
 573 1046 4FADA0C4 		.ascii	"O\255\240\304\317S`\222\204\034q\264\026\363\203\345"
 573      CF536092 
 573      841C71B4 
 573      16F383E5 
 574 1056 B729D35D 		.ascii	"\267)\323]{\016\320\360\345\2421\011\246\361\3464t\213"
 574      7B0ED0F0 
 574      E5A23109 
 574      A6F1E634 
 574      748B
 575 1068 CD1DB668 		.ascii	"\315\035\266hx+\036e>A\340\016\233Q\306\340HV\322\250"
 575      782B1E65 
 575      3E41E00E 
 575      9B51C6E0 
 575      4856D2A8 
 576 107c 79DF989A 		.ascii	"y\337\230\232\327\271\327y\230\371>\241'\231{\316Ys"
 576      D7B9D779 
 576      98F93EA1 
 576      27997BCE 
 576      5973
 577 108e CA9A8D94 		.ascii	"\312\232\215\224]\267E\331\211\270\013\334@\340\353"
 577      5DB745D9 
 577      89B80BDC 
 577      40E0EB
 578 109d 365DC040 		.ascii	"6]\300@\231\2254jh\227)e-\373U\312V\216p\300Y]\212\343"
ARM GAS  /tmp/ccrOV94e.s 			page 46


 578      9995346A 
 578      68972965 
 578      2DFB55CA 
 578      568E70C0 
 579 10b5 19C073FD 		.ascii	"\031\300s\375L)\333d\244lf\212\223)\223\310\357IRkH"
 579      4C29DB64 
 579      A46C668A 
 579      932993C8 
 579      EF49526B 
 580 10ca 82F06E55 		.ascii	"\202\360nU\213Z\371l\212\031a\015\0074\302T\036`Nhn"
 580      8B5AF96C 
 580      8A19610D 
 580      0734C254 
 580      1E604E68 
 581 10df 5AB70E34 		.ascii	"Z\267\0164\327\226i\273b\246\035JR+\221iV\265\250i\363"
 581      D79669BB 
 581      62A61D4A 
 581      522B9169 
 581      56B5A869 
 582 10f4 BA9B16AD 		.ascii	"\272\233\026\255\217\23694W\341\035w\240\206\024\353"
 582      8F9E3934 
 582      57E11D77 
 582      A08614EB 
 583 1104 D5ACBA3E 		.ascii	"\325\254\272>\264\252\271(\245\373\254\333|&\264\325"
 583      B4AAB928 
 583      A5FBACDB 
 583      7C26B4D5 
 584 1114 40B166C7 		.ascii	"@\261f\307\013fvD\032\316*\036\307cp\243\321\247\211"
 584      0B667644 
 584      1ACE2A1E 
 584      C76370A3 
 584      D1A789
 585 1127 76C63890 		.ascii	"v\3068\220$.\274g\241\346rS5o\034\267\242;\301\300\327"
 585      242EBC67 
 585      A1E67253 
 585      356F1CB7 
 585      A23BC1C0 
 586 113c 94504D8B 		.ascii	"\224PM\213\201/vMw\327,\257\347\271\331\373\015M\311"
 586      812F764D 
 586      77D72CAF 
 586      E7B9D9FB 
 586      0D4DC9
 587 114f 6C3E7653 		.ascii	"l>vSkM\274)\273\323\362\211\005-\257\350i\371\031\367"
 587      6B4DBC29 
 587      BBD3F289 
 587      052DAFE8 
 587      69F919F7 
 588 1163 A2D21881 		.ascii	"\242\322\030\201\265\324\356'\246\325Gf*d\230\342yu"
 588      B5D4EE27 
 588      A6D54766 
 588      2A6498E2 
 588      7975
 589 1175 390D93E1 		.ascii	"9\015\223\341~\332Z\335\324\247\3417\230kV\236\215\214"
 589      7EDA5ADD 
 589      D4A7E137 
 589      986B569E 
 589      8D8C
ARM GAS  /tmp/ccrOV94e.s 			page 47


 590 1187 502B90BF 		.ascii	"P+\220\277\2533\025rFx\340ce|\254L\210\225\011\2612"
 590      AB331572 
 590      4678E063 
 590      657CAC4C 
 590      889509B1 
 591 119c 57ACCC15 		.ascii	"W\254\314\025+\323\324S>\214<\267?}#4UW\327\3575\210"
 591      2BD3D453 
 591      3E8C3CB7 
 591      3F7D2334 
 591      5557D7EF 
 592 11b2 AF63E699 		.ascii	"\257c\346\231\005mb\350:j(\003G\327\326v\336\203\332"
 592      056D62E8 
 592      3A6A2803 
 592      47D7D676 
 592      DE83DA
 593 11c5 B355FD07 		.ascii	"\263U\375\007b\353S\360\035X\003\231\366\201\026\356"
 593      62EB53F0 
 593      1D580399 
 593      F68116EE 
 594 11d5 5FA3BED2 		.ascii	"_\243\276\322\277\021\201f\3657\356r\013\206MnA\277"
 594      BF118166 
 594      F537EE72 
 594      0B864D6E 
 594      41BF
 595 11e7 C92D9057 		.ascii	"\311-\220W\354;\273\272\342\257\330\223/\203\272m\332"
 595      EC3BBBBA 
 595      E2AFD893 
 595      2F83BA6D 
 595      DA
 596 11f8 D9AE65E3 		.ascii	"\331\256e\343\015.\202\327\234\022\337[P\317\2653|e"
 596      0D2E82D7 
 596      9C12DF5B 
 596      50CFB533 
 596      7C65
 597 120a CAE0A424 		.ascii	"\312\340\244$\032Y9\351\346\270\223\032j5&\250\265\305"
 597      1A5939E9 
 597      E6B8931A 
 597      6A3526A8 
 597      B5C5
 598 121c B296E667 		.ascii	"\262\226\346gf\265\266\306k\371\270\225@\177\275R'\304"
 598      66B5B6C6 
 598      6BF9B895 
 598      407FBD52 
 598      27C4
 599 122e A66B5176 		.ascii	"\246kQv\272\366\217\376\273A\353\235\011\264~\313\322"
 599      BAF68FFE 
 599      BB41EB9D 
 599      09B47ECB 
 599      D2
 600 123f D6A6040C 		.ascii	"\326\246\004\014m\267\254\325\220@\326\016\313Zd9dU"
 600      6DB7ACD5 
 600      9040D60E 
 600      CB5A6439 
 600      6455
 601 1251 6BA765AD 		.ascii	"k\247e\255\327\023\324\332eYk_\202Z\021&\250\335\234"
 601      D713D4DA 
 601      65596B5F 
ARM GAS  /tmp/ccrOV94e.s 			page 48


 601      825A1126 
 601      A8DD9C
 602 1264 1F0A4C96 		.ascii	"\037\012L\226B\341\254@n\211?,U\205\203\241\201\345"
 602      42E1AC40 
 602      6E893F2C 
 602      558583A1 
 602      81E5
 603 1276 5CFAE8DC 		.ascii	"\\\372\350\334\274\"\274\360\313\251\277\036\367\230"
 603      BC22BCF0 
 603      CBA9BF1E 
 603      F798
 604 1284 2F8FCB8C 		.ascii	"/\217\313\214\027\205eQ\226<\243\307\215\314+\036\375"
 604      17856551 
 604      963CA3C7 
 604      8DCC2B1E 
 604      FD
 605 1295 F828F7E8 		.ascii	"\370(\367\350\3741\243\334\017?V\364T\012\376\341\256"
 605      FC31A3DC 
 605      0F3F56F4 
 605      540AFEE1 
 605      AE
 606 12a6 AC9A7028 		.ascii	"\254\232p(K\014U\336_\025\254\222\356\227\304\211\201"
 606      4B0C55DE 
 606      5F15AC92 
 606      EE97C489 
 606      81
 607 12b7 AC405549 		.ascii	"\254@UIEM\251\224\025\226K\003U2\010H\253\201\3430\277"
 607      454DA994 
 607      15964B03 
 607      55320848 
 607      AB81E330 
 608 12cc 3C38C1CD 		.ascii	"<8\301\315\225bIy\240J\312\362\227JebM\205\354\227\247"
 608      95624979 
 608      A04ACAF2 
 608      974A6562 
 608      4D85EC97 
 609 12e1 564B61A8 		.ascii	"VKa\250\354\365\373i\3654\261\2644$\205\303\371Y\345"
 609      ECF5FB69 
 609      F534B1B4 
 609      342485C3 
 609      F959E5
 610 12f4 C14A29AB 		.ascii	"\301J)\253$X:5\253T\232\234\005\025'\006\202\341,9T"
 610      24583A35 
 610      AB549A9C 
 610      05152706 
 610      82E12C39 
 611 1309 53F54C16 		.ascii	"S\365L\026\234\224\213\025Y\325\301\220\034\316**\036"
 611      9C948B15 
 611      59D5C190 
 611      1CCE2A2A 
 611      1E
 612 131a 3B28376B 		.ascii	";(7k\314\230\374,0hr\016\332]QQJ`\241@e#\327\016\234"
 612      CC98FC2C 
 612      3068720E 
 612      DA5D5151 
 612      4A60A140 
 613 1333 A6260040 		.ascii	"\246&\000@\345^p@\363\375r/\300\361?6n\364\270\321\305"
ARM GAS  /tmp/ccrOV94e.s 			page 49


 613      E55E7040 
 613      F3FD722F 
 613      C0F13F36 
 613      6EF4B8D1 
 614 1348 1E725A54 		.ascii	"\036rZT<~\002\301\366\027\216\032\231\377\324M\344L"
 614      3C7E02C1 
 614      F6178E1A 
 614      99FFD44D 
 614      E44C
 615 135a 65CE5FFC 		.ascii	"e\316_\374${U\370$\326\0343>\357?F\345\247\003^\260"
 615      247B55F8 
 615      24D61C33 
 615      3EEF3F46 
 615      E5A7035E 
 616 136f BA32584A 		.ascii	"\2722XJ\000\307O\030;>\177\224\037\376\332\237\236\026"
 616      00C74F18 
 616      3B3E7F94 
 616      1FFEDA9F 
 616      9E16
 617 1381 8D05C2FD 		.ascii	"\215\005\302\375\371\243\036\037\2357\252\257\256\254"
 617      F9A31E1F 
 617      9D37AAAF 
 617      AEAC
 618 138f 607C5171 		.ascii	"`|QqZ\260\332O\252z\010M\203r\001Ae\214\234\246\227"
 618      5AB0DA4F 
 618      AA7A084D 
 618      83720141 
 618      658C9CA6 
 619 13a4 54044B9E 		.ascii	"T\004K\236\361\207\253%\251\2647\010)\255\221\247\226"
 619      F187AB25 
 619      A9B43708 
 619      29AD91A7 
 619      96
 620 13b5 4C2DA900 		.ascii	"L-\251\0009\275\213\212\363\375\371\217\025?\345\317"
 620      39BD8B8A 
 620      F3FDF98F 
 620      153FE5CF 
 621 13c5 7B2A6FCC 		.ascii	"{*o\314\250\276\217\214,*f\256\375\271?1\226\344\014"
 621      A8BE8F8C 
 621      2C2A66AE 
 621      FDB93F31 
 621      96E40C
 622 13d8 F10FEF45 		.ascii	"\361\017\357E\020\374\010A\254\314\013V\225\005&\245"
 622      10FC0841 
 622      ACCC0B56 
 622      950526A5 
 623 13e8 96E081B0 		.ascii	"\226\340\201\260RV!N\012\203\033I\241P0\024\036\224"
 623      5256214E 
 623      0A831B49 
 623      A1503014 
 623      1E94
 624 13fa 8CDA901C 		.ascii	"\214\332\220\034c\266\244\274R\256%\316RY#K\265~9\005"
 624      63B6A4BC 
 624      52AE25CE 
 624      5259234B 
 624      B57E3905 
 625 140e 8FC31C21 		.ascii	"\217\303\034!\204\247\2065\267\311\224\313C\222X\032"
ARM GAS  /tmp/ccrOV94e.s 			page 50


 625      84A78635 
 625      B7C994CB 
 625      4392581A 
 626 141e F6FFB646 		.ascii	"\366\377\266F\252\001s\373\224\224\373uE\203\235!\227"
 626      AA0173FB 
 626      9494FB75 
 626      45839D21 
 626      97
 627 142f 9413AFF1 		.ascii	"\224\023\257\361\250\020~\331\033\203K\255\366WI\265"
 627      A8107ED9 
 627      1B834BAD 
 627      F65749B5 
 628 143f 321CAA43 		.ascii	"2\034\252C\322\344\002\033\250\252k\216,\034\2337\266"
 628      D2E4021B 
 628      A8AA6B8E 
 628      2C1C9B37 
 628      B6
 629 1450 16EEACAC 		.ascii	"\026\356\254\254\016T\220>\371\353\274<\270]\323?M\256"
 629      0E54903E 
 629      F9EBBC3C 
 629      B85DD33F 
 629      4DAE
 630 1462 0E05827E 		.ascii	"\016\005\202~\0257\020L\003\212\201\016y\270c\374\362"
 630      1537104C 
 630      038A810E 
 630      79B863FC 
 630      F2
 631 1473 92604822 		.ascii	"\222`H\"\275\234\024\373\301/J\344\332\007{\206\342"
 631      BD9C14FB 
 631      C12F4AE4 
 631      DA077B86 
 631      E2
 632 1484 9F3CB492 		.ascii	"\237<\264\222\220\020\222&A'\366\313\256p\316\020HC"
 632      90109226 
 632      4127F6CB 
 632      AE70CE10 
 632      4843
 633 1496 210D8334 		.ascii	"!\015\2034\334\025\316\315\206\224\003)\027\322 H\203"
 633      DC15CECD 
 633      86940329 
 633      17D22048 
 633      83
 634 14a7 21FD1212 		.ascii	"!\375\022\022\334\227\013\367\345\302}\271p\337 \270"
 634      DC970BF7 
 634      E5C27DB9 
 634      70DF20B8 
 635 14b7 6F508E10 		.ascii	"oP\216\020\032,\204~)\204\206\010\241\241Bh\230\020"
 635      1A2C847E 
 635      29848608 
 635      A1A14268 
 635      9810
 636 14c9 1AEE0AE5 		.ascii	"\032\356\012\345dC\312\021*Bp\030\224R\355\007m\323"
 636      6443CA11 
 636      2A427018 
 636      9452ED07 
 636      6DD3
 637 14db 08C353A4 		.ascii	"\010\303S\244\020\034\203\025\245R\310]R.\206\010\355"
ARM GAS  /tmp/ccrOV94e.s 			page 51


 637      101C8315 
 637      A552C85D 
 637      522E8608 
 637      ED
 638 14ec 62A5E491 		.ascii	"b\245\344\221i?\204?\342Y\232\254v#\270F_L\223CRY\030"
 638      693F843F 
 638      E2599AAC 
 638      7623B846 
 638      5F4C9343 
 639 1503 79242729 		.ascii	"y$')\225\341I\360G\332= \266\320\263\324P\351T\370\223"
 639      95E149F0 
 639      47DA3D20 
 639      B6D0B3D4 
 639      50E954F8 
 640 1518 47AA0DC8 		.ascii	"G\252\015\310@\213\224:E\016N\374\357\352ti\262T%W\212"
 640      408B943A 
 640      450E4EFC 
 640      EFEA7469 
 640      B2542557 
 641 152d E167884F 		.ascii	"\341g\210OO!'\256j\177Mo\315\223*\002a\210T\231\214"
 641      4F2127AE 
 641      6A7F4D6F 
 641      CD932A02 
 641      61885499 
 642 1542 6F91126F 		.ascii	"o\221\022o\265\177\212\030\220\003U\223zA\327\014OB"
 642      B57F8A18 
 642      90035593 
 642      7A41D70C 
 642      4F42
 643 1554 7F4BC153 		.ascii	"\177K\301S(\220\252\245*\010\214\223\340.\360xr\177"
 643      2890AAA5 
 643      2A088C93 
 643      E02EF078 
 643      727F
 644 1566 2FA29B58 		.ascii	"/\242\233X\201\355\014\205\325\301`EZ\245\352\245p\014"
 644      81ED0C85 
 644      D5C16045 
 644      5AA5EAA5 
 644      700C
 645 1578 4EA99242 		.ascii	"N\251\222B\251\225\350eC\0359-\325\011\232\254\037\365"
 645      A995E865 
 645      431D392D 
 645      D5099AAC 
 645      1FF5
 646 158a 5BA0400A 		.ascii	"[\240@\012IU%@P\252Z\344\205NK\342\252_\306\370\001"
 646      49552540 
 646      50AA5AE4 
 646      854E4BE2 
 646      AA5FC6F8 
 647 159f 7D5C8B1F 		.ascii	"}\\\213\037\344\324M\376\344\015\325\226V\212\204V\257"
 647      E4D44DFE 
 647      E40DD596 
 647      568A8456 
 647      AF
 648 15b0 AC9D3DE2 		.ascii	"\254\235=\3424\006c\376\310\340\332Z\030\026*\201q\300"
 648      340663FE 
 648      C8E0DA5A 
ARM GAS  /tmp/ccrOV94e.s 			page 52


 648      18162A81 
 648      71C0
 649 15c2 01BD1E48 		.ascii	"\001\275\036H\006\0036g\345\215-\032]\004\000j\315\262"
 649      06033667 
 649      E58D2D1A 
 649      5D04006A 
 649      CDB2
 650 15d4 C1D939B5 		.ascii	"\301\3319\265$\010\367\313\037;\322_\004\315+V\372\213"
 650      2408F7CB 
 650      1F3BD25F 
 650      04CD2B56 
 650      FA8B
 651 15e6 A1D7E44B 		.ascii	"\241\327\344KeB^\241{\\~q\241k\302\310B\367\330l\222"
 651      65425EA1 
 651      7B5C7E71 
 651      A16BC2C8 
 651      42F7D86C 
 652 15fb E58C2C74 		.ascii	"\345\214,t=\222W\230\032\306\033\335\201\262\222Pj "
 652      3D925798 
 652      1AC61BDD 
 652      81B29250 
 652      6A20
 653 160d 5C1E2893 		.ascii	"\\\036(\223\275a\251\242,PU*\325\246N\226J\344`\250"
 653      BD61A9A2 
 653      2C50552A 
 653      D5A64E96 
 653      4AE460A8 
 654 1621 5F4C33BF 		.ascii	"_L3\277z7\004!\270\010\325\222\\\256%\303\244&\310\225"
 654      7A370421 
 654      B808D592 
 654      5CAE25C3 
 654      A426C895 
 655 1635 57980329 		.ascii	"W\230\003)\327=~da\016\311r\205\374BW\021\024\026\025"
 655      D73D7E64 
 655      610EC972 
 655      85FC4257 
 655      11141615 
 656 1649 E6BAF2F2 		.ascii	"\346\272\362\362\012S\212\013G\027\215r?2\006\224\001"
 656      0A538A0B 
 656      47178D72 
 656      3F320694 
 656      01
 657 165a 86BD2432 		.ascii	"\206\275$2\005*\211_\222C\260Fv\023\357M\221k\037\256"
 657      052A895F 
 657      9243B046 
 657      7613EF4D 
 657      916B1FAE 
 658 166e 294B0991 		.ascii	")K\011\221\274\25766\207\003C\263k\263\301\300\276\352"
 658      BCAF3636 
 658      870343B3 
 658      6BB3C1C0 
 658      BEEA
 659 1680 19345A38 		.ascii	"\0314Z8XQ#\007\202U)\005\303\212srS\013r\262\213s\006"
 659      58512307 
 659      82552905 
 659      C38A7372 
 659      530B72B2 
ARM GAS  /tmp/ccrOV94e.s 			page 53


 660 1697 C121A738 		.ascii	"\301!\2478'\007\016\271\3059\203S\374\017\203\333\030"
 660      27070EB9 
 660      C5398353 
 660      FC0F83DB 
 660      18
 661 16a8 414A380F 		.ascii	"AJ8\017\005\221S\325\361\336\005h\251\345\022\364\224"
 661      059153D5 
 661      F1DE0568 
 661      A9E512F4 
 661      94
 662 16b9 9007A583 		.ascii	"\220\007\245\203CxB\364\344\237c\022\305\322b\251\262"
 662      437842F4 
 662      E49F6312 
 662      C5D262A9 
 662      B2
 663 16ca 5A0A8972 		.ascii	"Z\012\211r\015D\217j1$\017\314\346\303n\031\012ogn*"
 663      0D448F6A 
 663      31240FCC 
 663      E6C36E19 
 663      0A6F676E 
 664 16df A8A90C94 		.ascii	"\250\251\014\224\006\344\251\352\0359\236rz\235N\357"
 664      06E4A9EA 
 664      1D399E72 
 664      7A9D4EEF 
 665 16ef 09CBC1EA 		.ascii	"\011\313\301\3524\222\001w\031qs$\371'\332\015\222\\"
 665      34920177 
 665      19717324 
 665      F927DA0D 
 665      925C
 666 1701 1833AF57 		.ascii	"\0303\257W\334R\015 P\025\220SK\321(\317D1,\215\004"
 666      DC520D20 
 666      50159053 
 666      4BD128CF 
 666      44312C8D 
 667 1716 7FEC4FFF 		.ascii	"\177\354O\377\246Z1\252J\234X!y\324\213\361U\267\306"
 667      A65A31AA 
 667      4A9C5821 
 667      79D48BF1 
 667      55B7C6
 668 1729 810BB028 		.ascii	"\201\013\260(\257&\004\036/\337T\316^\335bnh\177\023"
 668      AF26041E 
 668      2FDF54CE 
 668      5EDD626E 
 668      687F13
 669 173c D37AB353 		.ascii	"\323z\263S\241`\365-\314d)$V\205\305\022\331?\261\246"
 669      A160F52D 
 669      CC642924 
 669      5685C512 
 669      D93FB1A6 
 670 1750 8CB98BA8 		.ascii	"\214\271\213\250\354\311+z\2428\257`\340\020/a=/XS\205"
 670      ECC92B7A 
 670      A238AF60 
 670      E0102F61 
 670      3D2F5853 
 671 1765 31877429 		.ascii	"1\207t)5\346\220\263\377\003`\237\355\314"
 671      35E690B3 
 671      FF03609F 
ARM GAS  /tmp/ccrOV94e.s 			page 54


 671      EDCC
 672              		.text
 673              		.section	.gnu.lto_.symtab.e557e31b7e353495,"",%progbits
 674 0000 73693730 		.ascii	"si70x0_stop\000\000\000\000\000\000\000\000\000\000"
 674      78305F73 
 674      746F7000 
 674      00000000 
 674      00000000 
 675 0015 00005102 		.ascii	"\000\000Q\002\000\000si70x0_reset\000\000\000\000\000"
 675      00007369 
 675      37307830 
 675      5F726573 
 675      65740000 
 676 002c 00000000 		.ascii	"\000\000\000\000\000\000\000Z\002\000\000si70x0_set"
 676      0000005A 
 676      02000073 
 676      69373078 
 676      305F7365 
 677 0041 5265736F 		.ascii	"Resolution\000\000\000\000\000\000\000\000\000\000\000"
 677      6C757469 
 677      6F6E0000 
 677      00000000 
 677      00000000 
 678 0056 00600200 		.ascii	"\000`\002\000\000si70x0_init\000\000\000\000\000\000"
 678      00736937 
 678      3078305F 
 678      696E6974 
 678      00000000 
 679 006c 00000000 		.ascii	"\000\000\000\000\000\000i\002\000\000si70x0_heaterE"
 679      00006902 
 679      00007369 
 679      37307830 
 679      5F686561 
 680 0084 6E61626C 		.ascii	"nable\000\000\000\000\000\000\000\000\000\000\000\000"
 680      65000000 
 680      00000000 
 680      00000000 
 680      00
 681 0095 75020000 		.ascii	"u\002\000\000si70x0_setHeaterCurrent\000\000\000\000"
 681      73693730 
 681      78305F73 
 681      65744865 
 681      61746572 
 682 00b4 00000000 		.ascii	"\000\000\000\000\000\000\000\000{\002\000\000si70x0"
 682      00000000 
 682      7B020000 
 682      73693730 
 682      7830
 683 00c6 5F726561 		.ascii	"_readTemperature\000\000\000\000\000\000\000\000\000"
 683      6454656D 
 683      70657261 
 683      74757265 
 683      00000000 
 684 00df 00000084 		.ascii	"\000\000\000\204\002\000\000si70x0_readHumidity\000"
 684      02000073 
 684      69373078 
 684      305F7265 
ARM GAS  /tmp/ccrOV94e.s 			page 55


 684      61644875 
 685 00fa 00000000 		.ascii	"\000\000\000\000\000\000\000\000\000\000\000\214\002"
 685      00000000 
 685      0000008C 
 685      02
 686 0107 00004932 		.ascii	"\000\000I2CSensor_stop\000\000\002\000\000\000\000\000"
 686      4353656E 
 686      736F725F 
 686      73746F70 
 686      00000200 
 687 011f 00000000 		.ascii	"\000\000\000\000\221\002\000\000I2CSensor_transact_"
 687      91020000 
 687      49324353 
 687      656E736F 
 687      725F7472 
 688 013a 62756600 		.ascii	"buf\000\000\002\000\000\000\000\000\000\000\000\000"
 688      00020000 
 688      00000000 
 688      000000
 689 0149 97020000 		.ascii	"\227\002\000\000I2CSensor_init\000\000\002\000\000\000"
 689      49324353 
 689      656E736F 
 689      725F696E 
 689      69740000 
 690 0161 00000000 		.ascii	"\000\000\000\000\000\000\235\002\000\000"
 690      00009D02 
 690      0000
 691              		.text
 692              		.section	.gnu.lto_.opts,"",%progbits
 693 0000 272D6D63 		.ascii	"'-mcpu=cortex-m4' '-mfloat-abi=hard' '-mfpu=fpv4-sp"
 693      70753D63 
 693      6F727465 
 693      782D6D34 
 693      2720272D 
 694 0033 2D643136 		.ascii	"-d16' '-mno-thumb-interwork' '-mthumb' '-O2' '-fomi"
 694      2720272D 
 694      6D6E6F2D 
 694      7468756D 
 694      622D696E 
 695 0066 742D6672 		.ascii	"t-frame-pointer' '-falign-functions=16' '-ffunction"
 695      616D652D 
 695      706F696E 
 695      74657227 
 695      20272D66 
 696 0099 2D736563 		.ascii	"-sections' '-fdata-sections' '-fno-common' '-flto' "
 696      74696F6E 
 696      73272027 
 696      2D666461 
 696      74612D73 
 697 00cc 272D6673 		.ascii	"'-fsingle-precision-constant'\000"
 697      696E676C 
 697      652D7072 
 697      65636973 
 697      696F6E2D 
 698              		.text
 699              		.section	.text.si70x0_stop,"ax",%progbits
 700              		.align	2
ARM GAS  /tmp/ccrOV94e.s 			page 56


 701              		.p2align 4,,15
 702              		.global	si70x0_stop
 703              		.thumb
 704              		.thumb_func
 705              		.type	si70x0_stop, %function
 706              	si70x0_stop:
 707              		@ args = 0, pretend = 0, frame = 0
 708              		@ frame_needed = 0, uses_anonymous_args = 0
 709              		@ link register save eliminated.
 710 0000 FFF7FEBF 		b	I2CSensor_stop
 711              		.size	si70x0_stop, .-si70x0_stop
 712 0004 AFF30080 		.section	.text.si70x0_reset,"ax",%progbits
 712      AFF30080 
 712      AFF30080 
 713              		.align	2
 714              		.p2align 4,,15
 715              		.global	si70x0_reset
 716              		.thumb
 717              		.thumb_func
 718              		.type	si70x0_reset, %function
 719              	si70x0_reset:
 720              		@ args = 0, pretend = 0, frame = 0
 721              		@ frame_needed = 0, uses_anonymous_args = 0
 722              		@ link register save eliminated.
 723 0000 FE23     		movs	r3, #254
 724 0002 80F82230 		strb	r3, [r0, #34]
 725 0006 0121     		movs	r1, #1
 726 0008 0022     		movs	r2, #0
 727 000a FFF7FEBF 		b	I2CSensor_transact_buf
 728              		.size	si70x0_reset, .-si70x0_reset
 729 000e 00BF     		.section	.text.si70x0_setResolution,"ax",%progbits
 730              		.align	2
 731              		.p2align 4,,15
 732              		.global	si70x0_setResolution
 733              		.thumb
 734              		.thumb_func
 735              		.type	si70x0_setResolution, %function
 736              	si70x0_setResolution:
 737              		@ args = 0, pretend = 0, frame = 0
 738              		@ frame_needed = 0, uses_anonymous_args = 0
 739 0000 0329     		cmp	r1, #3
 740 0002 38B5     		push	{r3, r4, r5, lr}
 741 0004 9CBF     		itt	ls
 742 0006 104B     		ldrls	r3, .L9
 743 0008 5D5C     		ldrbls	r5, [r3, r1]	@ zero_extendqisi2
 744 000a 4FF0E703 		mov	r3, #231
 745 000e 4FF00101 		mov	r1, #1
 746 0012 0A46     		mov	r2, r1
 747 0014 80F82230 		strb	r3, [r0, #34]
 748 0018 0446     		mov	r4, r0
 749 001a 88BF     		it	hi
 750 001c 0025     		movhi	r5, #0
 751 001e FFF7FEFF 		bl	I2CSensor_transact_buf
 752 0022 0246     		mov	r2, r0
 753 0024 00B1     		cbz	r0, .L8
 754 0026 38BD     		pop	{r3, r4, r5, pc}
 755              	.L8:
ARM GAS  /tmp/ccrOV94e.s 			page 57


 756 0028 94F82630 		ldrb	r3, [r4, #38]	@ zero_extendqisi2
 757 002c 03F0FC03 		and	r3, r3, #252
 758 0030 1D43     		orrs	r5, r5, r3
 759 0032 E623     		movs	r3, #230
 760 0034 84F82350 		strb	r5, [r4, #35]
 761 0038 84F82230 		strb	r3, [r4, #34]
 762 003c 2046     		mov	r0, r4
 763 003e 0221     		movs	r1, #2
 764 0040 BDE83840 		pop	{r3, r4, r5, lr}
 765 0044 FFF7FEBF 		b	I2CSensor_transact_buf
 766              	.L10:
 767              		.align	2
 768              	.L9:
 769 0048 00000000 		.word	.LANCHOR0
 770              		.size	si70x0_setResolution, .-si70x0_setResolution
 771 004c AFF30080 		.section	.text.si70x0_init,"ax",%progbits
 772              		.align	2
 773              		.p2align 4,,15
 774              		.global	si70x0_init
 775              		.thumb
 776              		.thumb_func
 777              		.type	si70x0_init, %function
 778              	si70x0_init:
 779              		@ args = 0, pretend = 0, frame = 16
 780              		@ frame_needed = 0, uses_anonymous_args = 0
 781 0000 F0B5     		push	{r4, r5, r6, r7, lr}
 782 0002 164B     		ldr	r3, .L12
 783 0004 164E     		ldr	r6, .L12+4
 784 0006 0446     		mov	r4, r0
 785 0008 0F46     		mov	r7, r1
 786 000a 93E80700 		ldmia	r3, {r0, r1, r2}
 787 000e 89B0     		sub	sp, sp, #36
 788 0010 05AB     		add	r3, sp, #20
 789 0012 03C3     		stmia	r3!, {r0, r1}
 790 0014 3078     		ldrb	r0, [r6]	@ zero_extendqisi2
 791 0016 1A70     		strb	r2, [r3]
 792 0018 4FF4FA75 		mov	r5, #500
 793 001c 04F12603 		add	r3, r4, #38
 794 0020 05AA     		add	r2, sp, #20
 795 0022 00F1010E 		add	lr, r0, #1
 796 0026 3946     		mov	r1, r7
 797 0028 0093     		str	r3, [sp]
 798 002a 00F13007 		add	r7, r0, #48
 799 002e 04F12203 		add	r3, r4, #34
 800 0032 2046     		mov	r0, r4
 801 0034 0195     		str	r5, [sp, #4]
 802 0036 0292     		str	r2, [sp, #8]
 803 0038 0025     		movs	r5, #0
 804 003a 4022     		movs	r2, #64
 805 003c 86F800E0 		strb	lr, [r6]
 806 0040 8DF81B70 		strb	r7, [sp, #27]
 807 0044 8DF81D50 		strb	r5, [sp, #29]
 808 0048 8DF81E50 		strb	r5, [sp, #30]
 809 004c FFF7FEFF 		bl	I2CSensor_init
 810 0050 2046     		mov	r0, r4
 811 0052 0221     		movs	r1, #2
 812 0054 FFF7FEFF 		bl	si70x0_setResolution
ARM GAS  /tmp/ccrOV94e.s 			page 58


 813 0058 09B0     		add	sp, sp, #36
 814              		@ sp needed
 815 005a F0BD     		pop	{r4, r5, r6, r7, pc}
 816              	.L13:
 817              		.align	2
 818              	.L12:
 819 005c 00000000 		.word	.LANCHOR1
 820 0060 00000000 		.word	.LANCHOR2
 821              		.size	si70x0_init, .-si70x0_init
 822 0064 AFF30080 		.section	.text.si70x0_heaterEnable,"ax",%progbits
 822      AFF30080 
 822      AFF30080 
 823              		.align	2
 824              		.p2align 4,,15
 825              		.global	si70x0_heaterEnable
 826              		.thumb
 827              		.thumb_func
 828              		.type	si70x0_heaterEnable, %function
 829              	si70x0_heaterEnable:
 830              		@ args = 0, pretend = 0, frame = 0
 831              		@ frame_needed = 0, uses_anonymous_args = 0
 832 0000 38B5     		push	{r3, r4, r5, lr}
 833 0002 0D46     		mov	r5, r1
 834 0004 E723     		movs	r3, #231
 835 0006 0121     		movs	r1, #1
 836 0008 80F82230 		strb	r3, [r0, #34]
 837 000c 0A46     		mov	r2, r1
 838 000e 0446     		mov	r4, r0
 839 0010 FFF7FEFF 		bl	I2CSensor_transact_buf
 840 0014 88B9     		cbnz	r0, .L15
 841 0016 94F82620 		ldrb	r2, [r4, #38]	@ zero_extendqisi2
 842 001a 7DB9     		cbnz	r5, .L18
 843 001c 02F0FB02 		and	r2, r2, #251
 844              	.L17:
 845 0020 E623     		movs	r3, #230
 846 0022 84F82320 		strb	r2, [r4, #35]
 847 0026 84F82230 		strb	r3, [r4, #34]
 848 002a 2046     		mov	r0, r4
 849 002c 0221     		movs	r1, #2
 850 002e 0022     		movs	r2, #0
 851 0030 FFF7FEFF 		bl	I2CSensor_transact_buf
 852 0034 08B9     		cbnz	r0, .L15
 853 0036 84F82150 		strb	r5, [r4, #33]
 854              	.L15:
 855 003a 38BD     		pop	{r3, r4, r5, pc}
 856              	.L18:
 857 003c 42F00402 		orr	r2, r2, #4
 858 0040 EEE7     		b	.L17
 859              		.size	si70x0_heaterEnable, .-si70x0_heaterEnable
 860 0042 00BFAFF3 		.section	.text.si70x0_setHeaterCurrent,"ax",%progbits
 860      0080AFF3 
 860      0080AFF3 
 860      0080
 861              		.align	2
 862              		.p2align 4,,15
 863              		.global	si70x0_setHeaterCurrent
 864              		.thumb
ARM GAS  /tmp/ccrOV94e.s 			page 59


 865              		.thumb_func
 866              		.type	si70x0_setHeaterCurrent, %function
 867              	si70x0_setHeaterCurrent:
 868              		@ args = 0, pretend = 0, frame = 0
 869              		@ frame_needed = 0, uses_anonymous_args = 0
 870              		@ link register save eliminated.
 871 0000 01F00F01 		and	r1, r1, #15
 872 0004 5122     		movs	r2, #81
 873 0006 80F82310 		strb	r1, [r0, #35]
 874 000a 80F82220 		strb	r2, [r0, #34]
 875 000e 0221     		movs	r1, #2
 876 0010 0022     		movs	r2, #0
 877 0012 FFF7FEBF 		b	I2CSensor_transact_buf
 878              		.size	si70x0_setHeaterCurrent, .-si70x0_setHeaterCurrent
 879 0016 00BFAFF3 		.section	.text.si70x0_readTemperature,"ax",%progbits
 879      0080AFF3 
 879      0080
 880              		.align	2
 881              		.p2align 4,,15
 882              		.global	si70x0_readTemperature
 883              		.thumb
 884              		.thumb_func
 885              		.type	si70x0_readTemperature, %function
 886              	si70x0_readTemperature:
 887              		@ args = 0, pretend = 0, frame = 0
 888              		@ frame_needed = 0, uses_anonymous_args = 0
 889 0000 38B5     		push	{r3, r4, r5, lr}
 890 0002 E323     		movs	r3, #227
 891 0004 0D46     		mov	r5, r1
 892 0006 80F82230 		strb	r3, [r0, #34]
 893 000a 0121     		movs	r1, #1
 894 000c 0222     		movs	r2, #2
 895 000e 0446     		mov	r4, r0
 896 0010 FFF7FEFF 		bl	I2CSensor_transact_buf
 897 0014 B0B9     		cbnz	r0, .L21
 898 0016 94F82620 		ldrb	r2, [r4, #38]	@ zero_extendqisi2
 899 001a 94F82730 		ldrb	r3, [r4, #39]	@ zero_extendqisi2
 900 001e 9FED0A6A 		flds	s12, .L22
 901 0022 9FED0A7A 		flds	s14, .L22+4
 902 0026 DFED0A7A 		flds	s15, .L22+8
 903 002a 03EB0223 		add	r3, r3, r2, lsl #8
 904 002e 1BB2     		sxth	r3, r3
 905 0030 06EE903A 		fmsr	s13, r3	@ int
 906 0034 F8EEE66A 		fsitos	s13, s13
 907 0038 66EE866A 		fmuls	s13, s13, s12
 908 003c E6EE877A 		vfma.f32	s15, s13, s14
 909 0040 C5ED007A 		fsts	s15, [r5]
 910              	.L21:
 911 0044 38BD     		pop	{r3, r4, r5, pc}
 912              	.L23:
 913 0046 00BF     		.align	2
 914              	.L22:
 915 0048 52B82F43 		.word	1127200850
 916 004c 00008037 		.word	931135488
 917 0050 66663BC2 		.word	3258672742
 918              		.size	si70x0_readTemperature, .-si70x0_readTemperature
 919 0054 AFF30080 		.section	.text.si70x0_readHumidity,"ax",%progbits
ARM GAS  /tmp/ccrOV94e.s 			page 60


 919      AFF30080 
 919      AFF30080 
 920              		.align	2
 921              		.p2align 4,,15
 922              		.global	si70x0_readHumidity
 923              		.thumb
 924              		.thumb_func
 925              		.type	si70x0_readHumidity, %function
 926              	si70x0_readHumidity:
 927              		@ args = 0, pretend = 0, frame = 0
 928              		@ frame_needed = 0, uses_anonymous_args = 0
 929 0000 38B5     		push	{r3, r4, r5, lr}
 930 0002 E523     		movs	r3, #229
 931 0004 0D46     		mov	r5, r1
 932 0006 80F82230 		strb	r3, [r0, #34]
 933 000a 0121     		movs	r1, #1
 934 000c 0222     		movs	r2, #2
 935 000e 0446     		mov	r4, r0
 936 0010 FFF7FEFF 		bl	I2CSensor_transact_buf
 937 0014 18BB     		cbnz	r0, .L25
 938 0016 94F82620 		ldrb	r2, [r4, #38]	@ zero_extendqisi2
 939 001a 94F82730 		ldrb	r3, [r4, #39]	@ zero_extendqisi2
 940 001e 9FED106A 		flds	s12, .L26
 941 0022 9FED107A 		flds	s14, .L26+4
 942 0026 03EB0223 		add	r3, r3, r2, lsl #8
 943 002a 9BB2     		uxth	r3, r3
 944 002c 06EE903A 		fmsr	s13, r3	@ int
 945 0030 F8EEE66A 		fsitos	s13, s13
 946 0034 F9EE087A 		fconsts	s15, #152
 947 0038 66EE866A 		fmuls	s13, s13, s12
 948 003c E6EE877A 		vfma.f32	s15, s13, s14
 949 0040 FDEEE77A 		ftosizs	s15, s15
 950 0044 17EE903A 		fmrs	r3, s15	@ int
 951 0048 642B     		cmp	r3, #100
 952 004a A8BF     		it	ge
 953 004c 6423     		movge	r3, #100
 954 004e 23EAE373 		bic	r3, r3, r3, asr #31
 955 0052 07EE103A 		fmsr	s14, r3	@ int
 956 0056 F8EEC77A 		fsitos	s15, s14
 957 005a C5ED007A 		fsts	s15, [r5]
 958              	.L25:
 959 005e 38BD     		pop	{r3, r4, r5, pc}
 960              	.L27:
 961              		.align	2
 962              	.L26:
 963 0060 0000FA42 		.word	1123680256
 964 0064 00008037 		.word	931135488
 965              		.size	si70x0_readHumidity, .-si70x0_readHumidity
 966 0068 AFF30080 		.section	.rodata
 966      AFF30080 
 967              		.align	2
 968              		.set	.LANCHOR1,. + 0
 969              	.LC0:
 970 0000 53693730 		.ascii	"Si70x0-X\000"
 970      78302D58 
 970      00
 971 0009 0000     		.space	2
ARM GAS  /tmp/ccrOV94e.s 			page 61


 972 000b 00       		.section	.rodata.CSWTCH.6,"a",%progbits
 973              		.align	2
 974              		.set	.LANCHOR0,. + 0
 975              		.type	CSWTCH.6, %object
 976              		.size	CSWTCH.6, 4
 977              	CSWTCH.6:
 978 0000 01       		.byte	1
 979 0001 02       		.byte	2
 980 0002 03       		.byte	3
 981 0003 00       		.byte	0
 982              		.section	.bss.sensCount,"aw",%nobits
 983              		.set	.LANCHOR2,. + 0
 984              		.type	sensCount, %object
 985              		.size	sensCount, 1
 986              	sensCount:
 987 0000 00       		.space	1
 988              		.comm	__gnu_lto_v1,1,1
 989              		.ident	"GCC: (GNU Tools for ARM Embedded Processors) 4.8.4 20140526 (release) [ARM/embedded-4_8-br
ARM GAS  /tmp/ccrOV94e.s 			page 62


DEFINED SYMBOLS
                            *ABS*:0000000000000000 si70x0.c
     /tmp/ccrOV94e.s:700    .text.si70x0_stop:0000000000000000 $t
     /tmp/ccrOV94e.s:706    .text.si70x0_stop:0000000000000000 si70x0_stop
     /tmp/ccrOV94e.s:713    .text.si70x0_reset:0000000000000000 $t
     /tmp/ccrOV94e.s:719    .text.si70x0_reset:0000000000000000 si70x0_reset
     /tmp/ccrOV94e.s:730    .text.si70x0_setResolution:0000000000000000 $t
     /tmp/ccrOV94e.s:736    .text.si70x0_setResolution:0000000000000000 si70x0_setResolution
     /tmp/ccrOV94e.s:769    .text.si70x0_setResolution:0000000000000048 $d
     /tmp/ccrOV94e.s:772    .text.si70x0_init:0000000000000000 $t
     /tmp/ccrOV94e.s:778    .text.si70x0_init:0000000000000000 si70x0_init
     /tmp/ccrOV94e.s:819    .text.si70x0_init:000000000000005c $d
     /tmp/ccrOV94e.s:823    .text.si70x0_heaterEnable:0000000000000000 $t
     /tmp/ccrOV94e.s:829    .text.si70x0_heaterEnable:0000000000000000 si70x0_heaterEnable
     /tmp/ccrOV94e.s:861    .text.si70x0_setHeaterCurrent:0000000000000000 $t
     /tmp/ccrOV94e.s:867    .text.si70x0_setHeaterCurrent:0000000000000000 si70x0_setHeaterCurrent
     /tmp/ccrOV94e.s:880    .text.si70x0_readTemperature:0000000000000000 $t
     /tmp/ccrOV94e.s:886    .text.si70x0_readTemperature:0000000000000000 si70x0_readTemperature
     /tmp/ccrOV94e.s:915    .text.si70x0_readTemperature:0000000000000048 $d
     /tmp/ccrOV94e.s:920    .text.si70x0_readHumidity:0000000000000000 $t
     /tmp/ccrOV94e.s:926    .text.si70x0_readHumidity:0000000000000000 si70x0_readHumidity
     /tmp/ccrOV94e.s:963    .text.si70x0_readHumidity:0000000000000060 $d
     /tmp/ccrOV94e.s:967    .rodata:0000000000000000 $d
     /tmp/ccrOV94e.s:973    .rodata.CSWTCH.6:0000000000000000 $d
     /tmp/ccrOV94e.s:977    .rodata.CSWTCH.6:0000000000000000 CSWTCH.6
     /tmp/ccrOV94e.s:986    .bss.sensCount:0000000000000000 sensCount
     /tmp/ccrOV94e.s:987    .bss.sensCount:0000000000000000 $d
                            *COM*:0000000000000001 __gnu_lto_v1
     /tmp/ccrOV94e.s:771    .text.si70x0_setResolution:000000000000004c $t
     /tmp/ccrOV94e.s:822    .text.si70x0_init:0000000000000064 $t
     /tmp/ccrOV94e.s:919    .text.si70x0_readTemperature:0000000000000054 $t
     /tmp/ccrOV94e.s:966    .text.si70x0_readHumidity:0000000000000068 $t

UNDEFINED SYMBOLS
I2CSensor_stop
I2CSensor_transact_buf
I2CSensor_init
