ARM GAS  /tmp/ccYbVqKw.s 			page 1


   1              		.syntax unified
   2              		.cpu cortex-m4
   3              		.eabi_attribute 27, 3
   4              		.eabi_attribute 28, 1
   5              		.fpu fpv4-sp-d16
   6              		.eabi_attribute 20, 1
   7              		.eabi_attribute 21, 1
   8              		.eabi_attribute 23, 3
   9              		.eabi_attribute 24, 1
  10              		.eabi_attribute 25, 1
  11              		.eabi_attribute 26, 1
  12              		.eabi_attribute 30, 2
  13              		.eabi_attribute 34, 1
  14              		.eabi_attribute 18, 4
  15              		.thumb
  16              		.file	"spi_lld.c"
  17              		.section	.gnu.lto_.jmpfuncs.51ec3df8cc403039,"",%progbits
  18 0000 789C6362 		.ascii	"x\234cb`b\300\006\256\0011/\030312U3\374j\230\321 \220"
  18      6062C006 
  18      AE01312F 
  18      18333132 
  18      5533FC6A 
  19 0018 C9C820C7 		.ascii	"\311\310 \307\3008\267a\206C&##X\025#3P7S\004c&#\310"
  19      C038B761 
  19      86432623 
  19      23581523 
  19      33503753 
  20 0031 14BC0A81 		.ascii	"\024\274\012\201D\031\003\220\007R\314\314\302P\017"
  20      44190390 
  20      0752CCCC 
  20      C2500F
  21 0040 D4C7C00C 		.ascii	"\324\307\300\014\325\322\001\322\302\222\013Q\312\316"
  21      D5D201D2 
  21      C2920B51 
  21      CACE
  22 004e C8023593 		.ascii	"\310\0025\223\225\025\310\200\313\263%C\344!&1\340T"
  22      9515C880 
  22      CBB32543 
  22      E4212631 
  22      E054
  23 0060 C488A488 		.ascii	"\304\210\244\210\203\221\001\310\005\"NF.Fnf^~>v~v\001"
  23      839101C8 
  23      05224E46 
  23      2E466E66 
  23      5E7E3E76 
  24 0077 66061E17 		.ascii	"f\006\036\027_G\205\264\304\314\234\322\242T\006\000"
  24      5F4785B4 
  24      C4CC9CD2 
  24      A2540600 
  25 0087 C84C2261 		.ascii	"\310L\"a"
  26              		.text
  27              		.section	.gnu.lto_.inline.51ec3df8cc403039,"",%progbits
  28 0000 789C9D53 		.ascii	"x\234\235S;k\024Q\024>\347\334;\217\354\354\3061\346"
  28      3B6B1451 
  28      143EE7DC 
  28      3B8FECEC 
  28      C631E6
ARM GAS  /tmp/ccYbVqKw.s 			page 2


  29 0013 6121713B 		.ascii	"a!q;\273\\b\260\022d\212l\021\210\213\020\005\033\221"
  29      BB5C62B0 
  29      12648A6C 
  29      11888B10 
  29      051B91
  30 0026 B81B328B 		.ascii	"\270\0332\213\0337dc \004d\312-\267\260\264\210\342"
  30      1B376463 
  30      200464CA 
  30      2DB7B0B4 
  30      88E2
  31 0038 8F90A459 		.ascii	"\217\220\244Y\260P\354\005\261\032\260\021lR\212\215"
  31      B050EC05 
  31      B11AB011 
  31      6C528A8D 
  32 0048 9EFB7076 		.ascii	"\236\373pv\227,\022\234\201s\276\373\315y|\347\336;"
  32      972C129C 
  32      8173BEFB 
  32      CD797CE7 
  32      DE3B
  33 005a 0404939E 		.ascii	"\004\004\223\236\\\000\324\330W\000\302)\344\2071S\340"
  33      5C00D4D8 
  33      5700C229 
  33      E4873153 
  33      E0
  34 006b 1F5F27F0 		.ascii	"\037_'\360\317\226\244\016\242\010\000\371\275\365\022"
  34      CF96A40E 
  34      A20800F9 
  34      BDF512
  35 007a 914C0898 		.ascii	"\221L\010\230\270\332\357\263\012TNk\303HQ\346\350~"
  35      B8DAEFB3 
  35      0A544E6B 
  35      C34851E6 
  35      E87E
  36 008c DD65C898 		.ascii	"\335e\310\230m\277\316\237=\004\342\030[\326\264\210"
  36      6DBFCE9F 
  36      3D04E218 
  36      5BD6B488 
  37 009c AE3055CE 		.ascii	"\2560U\316\037\025\224M\011\340\366\"\006\260\375\020"
  37      1F15944D 
  37      09E0F622 
  37      06B0FD10 
  38 00ac 5B28504B 		.ascii	"[(PKI\207p\373\010~e\275,\177\377\343\023sr\007\355"
  38      498770FB 
  38      087E65BD 
  38      2C7FFFE3 
  38      13737207 
  39 00c1 0CE926BE 		.ascii	"\014\351&\276\306#+JXi\006f\024\251\301[\202\313?\037"
  39      C6232B4A 
  39      58690666 
  39      14A9C15B 
  39      82CB3F1F 
  40 00d5 10E0F720 		.ascii	"\020\340\367 !\360z7\022\220y\230\241\004\234\311(\226"
  40      21F07A37 
  40      12907998 
  40      A1049CC9 
  40      2896
  41 00e7 E43C3BBD 		.ascii	"\344<;\275\010^0\024\037}\206Q\357\252\231\311\233\006"
ARM GAS  /tmp/ccYbVqKw.s 			page 3


  41      085E3014 
  41      1F7D8651 
  41      EFAA99C9 
  41      9B06
  42 00f9 E6244F05 		.ascii	"\346$O\005\375\372\330\"\204\231\010C'\226\206biD\354"
  42      FDFAD822 
  42      84990843 
  42      27968662 
  42      6944EC
  43 010c E064715C 		.ascii	"\340dq\\\352\233q\251\"G'\326\010\217\376\356\375\210"
  43      EA9B71A9 
  43      224727D6 
  43      088FFEEE 
  43      FD88
  44 011e 5EFC80AC 		.ascii	"^\374\200\254\227\234\007\357[ \015&\307\221Y\362B\276"
  44      979C07EF 
  44      5B200D26 
  44      C79159F2 
  44      42BE
  45 0130 F2336934 		.ascii	"\3623i4cI\313\324{*\315\0118?\005a\200\266_U\206\203"
  45      6349CBD4 
  45      7B2ACD09 
  45      383F0561 
  45      80B65F55 
  46 0146 3B452B69 		.ascii	";E+i\255N-] &\202\271Y\275\203\205n1\260\356\330\272"
  46      AD4E2D5D 
  46      202682B9 
  46      59BD8385 
  46      6E31B0EE 
  47 015c 9C4AD7F2 		.ascii	"\234J\327\362\257x.\225Mh`\250Ml`\254M\325\300*\230"
  47      AF782E95 
  47      4D6860A8 
  47      4D6C60AC 
  47      4DD5C02A 
  48 0171 9BB8308F 		.ascii	"\233\2700\217\276\253-\212\303,\032PA\375\243\013\227"
  48      BEAB2D8A 
  48      C32C1A50 
  48      41FDA30B 
  48      97
  49 0182 16EF16C6 		.ascii	"\026\357\026\306J\263\311\320\320\231\2510\015\363s"
  49      4AB3C9D0 
  49      D099A930 
  49      0DF373
  50 0191 E84D9CE1 		.ascii	"\350M\234\341B-&\017\222\230\016\211\316\2774\332\200"
  50      422D260F 
  50      92980E89 
  50      CEBF34DA 
  50      80
  51 01a2 CE0FF27F 		.ascii	"\316\017\362\1773$\366j\350j1\224\226\321\225\261\177"
  51      3324F66A 
  51      E86A3194 
  51      96D195B1 
  51      7F
  52 01b3 AE2C7FF9 		.ascii	"\256,\177\371\354M:0XUiggK5:\315C\325\334:P\215\264"
  52      EC4D3A30 
  52      58556967 
  52      674B353A 
ARM GAS  /tmp/ccYbVqKw.s 			page 4


  52      CD43D5DC 
  53 01cb F5A4D5E9 		.ascii	"\365\244\325\351\252\375\275\347\317\236*\006\351f["
  53      AAFDBDE7 
  53      CF9E2A06 
  53      E9665B
  54 01da ED76F6F6 		.ascii	"\355v\366\366\273j\343\376\335\225\233j}}Um\334[;XV"
  54      BB6AE3FE 
  54      DD959B6A 
  54      7D7D556D 
  54      DC5B3B58 
  55 01ef DDDDD6E3 		.ascii	"\335\335\326\343v\273\271\324\200?\220y\240\005"
  55      76BBB9D4 
  55      803F9079 
  55      A005
  56              		.text
  57              		.section	.gnu.lto_.pureconst.51ec3df8cc403039,"",%progbits
  58 0000 789C6362 		.ascii	"x\234cb`b\220f\200\000^\006\011F+&)f\011v)\016)N).)"
  58      60629066 
  58      80005E06 
  58      09462B26 
  58      29660976 
  59 001b 6E295E29 		.ascii	"n)^)>)~)\001)\000\035{\002\010"
  59      3E297E29 
  59      0129001D 
  59      7B0208
  60              		.text
  61              		.section	.gnu.lto_spi_lld_serve_tx_interrupt.51ec3df8cc403039,"",%progbits
  62 0000 789C6362 		.ascii	"x\234cb`b@\007F@,\304\310\300\320\016\244\031Y\031\030"
  62      60624007 
  62      46402CC4 
  62      C8C0D00E 
  62      A4195919 
  63 0015 99269C63 		.ascii	"\231&\234c`h\344`bb\336%\307\320\300\305rM\237\241\201"
  63      6068E460 
  63      6262DE25 
  63      C7D0C0C5 
  63      724D9FA1 
  64 002a 87999105 		.ascii	"\207\231\221\005\"\314\302\310\010b002\32431\2630\326"
  64      22CCC2C8 
  64      08623030 
  64      32D43331 
  64      B330D6
  65 003d 4732820D 		.ascii	"G2\202\015Y\317t\340\301\377\377\353\376\234:s\220\361"
  65      59CF74E0 
  65      C1FFFFEB 
  65      FE9C3A73 
  65      90F1
  66 004f 962A3B13 		.ascii	"\226*;\023c.#\0033C&X\222\225\241\245\241a\202\002\003"
  66      632E2303 
  66      33432658 
  66      9295A1A5 
  66      A1618202 
  67 0064 4332981B 		.ascii	"C2\230\033\002$AF\20422\201h\346\263\014\315\273\233"
  67      02244146 
  67      84323281 
  67      68E6B30C 
  67      CDBB9B
ARM GAS  /tmp/ccYbVqKw.s 			page 5


  68 0077 D74F934B 		.ascii	"\327O\223Kd\\\010\264>\235\2219\235\221)\202\021\250"
  68      645C08B4 
  68      3E9D9139 
  68      9D912982 
  68      11A8
  69 0089 9507A8F8 		.ascii	"\225\007\250\370\004C\313\233F^\270\024X\034\031\204"
  69      0443CB9B 
  69      465EB814 
  69      581C1984 
  70 0099 323233EC 		.ascii	"223\354\222c>\317\320\362\241\377\361\372\307\214p\273"
  70      92633ECF 
  70      D0F2A1FF 
  70      F1FAC78C 
  70      70BB
  71 00ab 208C03DD 		.ascii	" \214\003\335\317\202\030\030 \332\223\031\241Z\253"
  71      CF821818 
  71      20DA9319 
  71      A15AAB
  72 00ba 197E3574 		.ascii	"\031~5t4\010d22&32%2.\006\312AE%2\031\231\344\030\252"
  72      34086432 
  72      32263332 
  72      25322E06 
  72      CA414525 
  73 00d4 E736CC70 		.ascii	"\3476\314p\310\004\032\014\321\007\364\005\013\3142"
  73      C8041A0C 
  73      D107F405 
  73      0BCC32
  74 00e3 16B08B2F 		.ascii	"\026\260\213/24>\270\245\012\225\205\202\020\240\351"
  74      32343EB8 
  74      A50A9585 
  74      8210A0E9 
  75 00f3 403950F0 		.ascii	"@9P\360\272\350g\344\347\246\352'\347\247T\352\247\244"
  75      BAE867E4 
  75      E7A6EA27 
  75      E7A754EA 
  75      A7A4
  76 0105 96E92767 		.ascii	"\226\351'gd&e\346\027\353\227\024\225\346e\353\003\031"
  76      642665E6 
  76      17EB9714 
  76      95E665EB 
  76      0319
  77 0117 198939FA 		.ascii	"\031\2119\372\005\371E%\305\372\301!\276\306F\372>>"
  77      05F94525 
  77      C5FAC121 
  77      BEC646FA 
  77      3E3E
  78 0129 2EFAC101 		.ascii	".\372\301\001\236e\206\372\305\005\231\36199)z\311\014"
  78      9E6586FA 
  78      C50599F1 
  78      3939297A 
  78      C90C
  79 013b C6C41892 		.ascii	"\306\304\030\222_\014$\212J\300\264^\006\003\217\213"
  79      5F0C248A 
  79      4AC0B45E 
  79      06038F8B 
  80 014b AFA3425A 		.ascii	"\257\243BZbfNiQ*\003\000\204\351v\313"
  80      62664E69 
ARM GAS  /tmp/ccYbVqKw.s 			page 6


  80      512A0300 
  80      84E976CB 
  81              		.text
  82              		.section	.gnu.lto_spi_lld_serve_rx_interrupt.51ec3df8cc403039,"",%progbits
  83 0000 789CA556 		.ascii	"x\234\245VMl\033U\020\236\331]{\327\366\372\247I\355"
  83      4D6C1B55 
  83      109ED95D 
  83      7BD7F6FA 
  83      A749ED
  84 0013 FC3BA651 		.ascii	"\374;\246QsHQ\227\266\022\364\202\324\210\010)R#\241"
  84      73485197 
  84      B612F482 
  84      D4880829 
  84      5223A1
  85 0026 3A91A097 		.ascii	":\221\240\227\312\331\230d\205\035GvRQr\250\335\270"
  85      CAD99864 
  85      851D4776 
  85      525172A8 
  85      DDB8
  86 0038 12075073 		.ascii	"\022\007Ps\340\020\201\220@\275\240T\264\300\265\034"
  86      E0108190 
  86      40BDA054 
  86      B4C0B51C 
  87 0048 0A149540 		.ascii	"\012\024\225@\333\010\0019\004!!\202\304\005\241\034"
  87      DB080139 
  87      04212182 
  87      C405A11C 
  88 0058 38F51266 		.ascii	"8\365\022f\366\347\305\265\027\234\212\225<\373v\346"
  88      F6E7C5B5 
  88      179C8A95 
  88      3CFB76E6 
  89 0068 7DF3BE99 		.ascii	"}\363\276\231\367\355>K A\363\265N\277=\015\340w\272"
  89      F7ED3E4B 
  89      2041F3B5 
  89      4EBF3D0D 
  89      E077BA
  90 007b 631C505A 		.ascii	"c\034PZ}\010P\323$I\3761\005\325\260\362\371sP\325e"
  90      7D0850D3 
  90      2449FE31 
  90      05D5B0F2 
  90      F97350D5 
  91 0090 541CB782 		.ascii	"T\034\267\202\001g\020\220bo\335\003\232\020\254\253"
  91      01671090 
  91      626FDD03 
  91      9A10ACAB 
  92 00a0 3421E6F8 		.ascii	"4!\346\370G\203\250:qU\212:q\315\216G\035\377\250&\205"
  92      4783A83A 
  92      71558A3A 
  92      71CD8E47 
  92      1DFFA826 
  93 00b5 EE3D4BDE 		.ascii	"\356=K\336\310F\027yCRx7IO\372\007\247\351)\214\272"
  93      C8461779 
  93      43527837 
  93      494FFA07 
  93      A7E9298C 
  94 00ca 838D7803 		.ascii	"\203\215x\003\035\221\007\200pY\222\225@,\250F\265P"
  94      1D910780 
ARM GAS  /tmp/ccYbVqKw.s 			page 7


  94      70599295 
  94      402CA846 
  94      B550
  95 00dc 38A2E3E5 		.ascii	"8\242\343\345W\320&\177K\272\363\353\336\336\315\265"
  95      57D0267F 
  95      4BBAF3EB 
  95      DEDECDB5 
  96 00ec 6FEF7F81 		.ascii	"o\357\177\2017\217\236\220\261\210\240\200\205\240\322"
  96      378F9E90 
  96      B188A080 
  96      85A0D2
  97 00fb 08351A61 		.ascii	"\0105\032a\210\214\024f_\204M\224M\214M\234\214\234"
  97      888C1466 
  97      5F844D94 
  97      4D8C4D9C 
  97      8C9C
  98 010d 20A31C22 		.ascii	" \243\034\"\023\350`\323\311\201$\303R\014\353\342\307"
  98      13E860D3 
  98      C98124C3 
  98      520CEBE2 
  98      C7
  99 011e 6E36BD6C 		.ascii	"n6\275l\372\330\3643l\200aiF\014\262\311p\340\010\231"
  99      FAD8F433 
  99      6C806169 
  99      460CB2C9 
  99      70E00899 
 100 0132 E0101975 		.ascii	"\340\020\031u\230\2146B&D\024\003P\257VW3\000\246My"
 100      988C3642 
 100      26441403 
 100      50AF5657 
 100      3300A64D 
 101 0147 922C7564 		.ascii	"\222,ud\012%\272\311\017`\345\366\312\316;\351\034~"
 101      0A25BAC9 
 101      0F60E5F6 
 101      CACE3BE9 
 101      1C7E
 102 0159 88019845 		.ascii	"\210\001\230Ee\026\345\227\221\222\3514\365\033\250"
 102      6516E597 
 102      9192E934 
 102      F51BA8
 103 0168 FF598B8A 		.ascii	"\377Y\213\212\220\355o\274\246P\206\253\222\274\011"
 103      90ED6FBC 
 103      A65086AB 
 103      92BC09
 104 0177 F5DD6B3B 		.ascii	"\365\335k;\267vP\254\344\014\356|w\377\034\200\0037"
 104      B77650AC 
 104      E40CEE7C 
 104      77FF1C80 
 104      0337
 105 0189 D1852EC3 		.ascii	"\321\205.\303\243\352\233\325\204\205a\023\245\034^"
 105      A3EA9BD5 
 105      84856113 
 105      A51C5E
 106 0198 A798EBED 		.ascii	"\247\230\353\355\2660\222\206\345\367\253kg,\324]\034"
 106      B6309286 
 106      E5F7AB6B 
 106      672CD45D 
ARM GAS  /tmp/ccYbVqKw.s 			page 8


 106      1C
 107 01a9 D510F516 		.ascii	"\325\020\365\026S\034\302W\266\327\326{<R\3321\030\241"
 107      531CC257 
 107      B6D7D67B 
 107      3C52DA31 
 107      18A1
 108 01bb 66BD07EF 		.ascii	"f\275\007\357\022\271\330,\252L2n\003\246\005Y\302\234"
 108      12B9D82C 
 108      AA4C326E 
 108      03A60559 
 108      C29C
 109 01cd F700A163 		.ascii	"\367\000\241c\260\316\313'\034\310!J\301\020t!( _\012"
 109      B0CECB27 
 109      1CC8214A 
 109      C1107421 
 109      28205F0A 
 110 01e1 489821F5 		.ascii	"H\230!\365\032\201:\034P'\245aP\302\005I\002\264r[\366"
 110      1A813A1C 
 110      5027A561 
 110      50C20549 
 110      02B4725B 
 111 01f6 501102DA 		.ascii	"P\021\002\332\035#}\354\305\235\224\343N\360`\371(\205"
 111      1D237DEC 
 111      C59D94E3 
 111      4EF060F9 
 111      2885
 112 0208 57790048 		.ascii	"Wy\000H\205r#\247\250\235\003\237\214\022\365'jSBws"
 112      857223A7 
 112      A89D039F 
 112      8C12F527 
 112      6A534277 
 113 021d 51445AF6 		.ascii	"QDZ\366v\022c@\357\017Na\320m\273X;\356\266\360\260"
 113      76126340 
 113      EF0F4E61 
 113      D06DBB58 
 113      3BEEB6F0 
 114 0232 7F0B659F 		.ascii	"\177\013e\237\256'\\H\322\037\242\354C\376\022liR\302"
 114      AE275C48 
 114      D21FA2EC 
 114      43FE126C 
 114      6952C2
 115 0245 2EE063E1 		.ascii	".\340c\341\352`P\340y\0166M\246\372;\032[L\353\324\354"
 115      EA6050E0 
 115      790E364D 
 115      A6FA3B1A 
 115      5B4CEBD4 
 116 025a F6105D06 		.ascii	"\366\020]\006\035v[\332i\343\266?Z\027\245'\377KA\001"
 116      1D765BDA 
 116      69E3B63F 
 116      5A17A527 
 116      FF4B4101 
 117 026e 9F5A522D 		.ascii	"\237ZR-\012J\266SP\227\317\216\247\332nW7\001\017\256"
 117      0A4AB653 
 117      5097CF8E 
 117      A7DA6E57 
 117      37010FAE 
 118 0282 209F7C94 		.ascii	" \237|\224\302S\220\332\242\240\336V\005\265\247\324"
ARM GAS  /tmp/ccYbVqKw.s 			page 9


 118      C25390DA 
 118      A2A0DE56 
 118      05B5A7D4 
 119 0292 47387F05 		.ascii	"G8\177\005\365\371((\352*HkVP\177\213\202\222\355\024"
 119      F5F92828 
 119      EA2A486B 
 119      56507F8B 
 119      8292ED14 
 120 02a6 34D0A2A0 		.ascii	"4\320\242\240d[\005\245\011\326\244\240A\241\240t\323"
 120      645B05A5 
 120      09D6A4A0 
 120      41A1A074 
 120      D3
 121 02b7 E40C05FF 		.ascii	"\344\014\005\377EA\375\215\012\312\270\012\272!J?b+"
 121      4541FD8D 
 121      0ACAB80A 
 121      BA214A3F 
 121      622B
 122 02c9 28E8AFA0 		.ascii	"(\350\257\240\240O-Cn-)\007\322E)\030\022t!\252\013"
 122      A04F2D43 
 122      6E2D2907 
 122      D2452918 
 122      127421AA 
 123 02de 79ACBF43 		.ascii	"y\254\277C<\243\273\261\277S\364u\377[\341\276\236\366"
 123      3CA3BBB1 
 123      BF53F475 
 123      FF5BE1BE 
 123      9EF6
 124 02f0 4441347A 		.ascii	"DA4z\374ih\366\235==\334\252MP\334\357+\247f\243Z\330"
 124      FC6968F6 
 124      9D3D3DDC 
 124      AA4D50DC 
 124      EF2BA766 
 125 0307 FB38CBE1 		.ascii	"\3738\313\341\366\371\230\343\335?\004\307a\221\177"
 125      F6F998E3 
 125      DD3F04C7 
 125      61917F
 126 0316 9F63183E 		.ascii	"\237c\030>\301'\347(\011|\004V\245\377\203\327Y{\017"
 126      C127E728 
 126      097C0456 
 126      A5FF83D7 
 126      597B0F
 127 0329 E1CAA76B 		.ascii	"\341\312\247k_\177\246\213\003\312+\036X\311\033$8\002"
 127      5F7FA68B 
 127      03CA2B1E 
 127      58C91B24 
 127      3802
 128 033b C8CE7F93 		.ascii	"\310\316\177\2234l\243s\006\365y\351\3723<\022\361_"
 128      346CA373 
 128      06F579E9 
 128      FA333C12 
 128      F15F
 129 034d DCF880D8 		.ascii	"\334\370\200\330\331G_mlI^\027F\226\341\015\213\317"
 129      D9475F6D 
 129      6C495E17 
 129      4696E10D 
 129      8BCF
ARM GAS  /tmp/ccYbVqKw.s 			page 10


 130 035f 19629AF6 		.ascii	"\031b\232\366g\032\332\357\320&\\\335\275v\375\306\333"
 130      671ADAEF 
 130      D0265CDD 
 130      BD76FDC6 
 130      DB
 131 0370 832D87E7 		.ascii	"\203-\207\347\326\311\375\303\323}#\304\3419h\"m\340"
 131      D6C9FDC3 
 131      D37D23C4 
 131      E1396822 
 131      6DE0
 132 0382 CF4E0DB4 		.ascii	"\317N\015\264$'\317\360a\371\024\300\201\212\315\341"
 132      2427CFF0 
 132      61F914C0 
 132      818ACDE1 
 133 0392 0F34B08B 		.ascii	"\0174\260\213\203\206\342r\270\305/\006_\337Cm\367\267"
 133      8386E272 
 133      B8C52F06 
 133      5FDF436D 
 133      F7B7
 134 03a4 9F844C9C 		.ascii	"\237\204L\234k\222^\270\272\312S\307\214\271R1o\230"
 134      6B925EB8 
 134      BACA53C7 
 134      8CB95231 
 134      6F98
 135 03b6 A5994BC6 		.ascii	"\245\231K\306L\376\242a\316Y\323V\251b,\226\227\346"
 135      4CFEA261 
 135      CE59D356 
 135      A9622C96 
 135      97E6
 136 03c8 5F336830 		.ascii	"_3h0\227+\030\013\245\362b\305\310NN\234:i\234=;fd_"
 136      972B180B 
 136      A5F262C5 
 136      C84E4E9C 
 136      3A699C3D 
 137 03e0 1ABF78C2 		.ascii	"\032\277x\302\250,X\027\012\205\231\343&\234:H\222R"
 137      A82C5817 
 137      0A8599E3 
 137      269C3A48 
 137      9252
 138 03f2 854C79D1 		.ascii	"\205Ly\321\276\037\237\003}lb4\363j\316*,\225\363p\246"
 138      BE1F9F03 
 138      7D6C6234 
 138      F36ACE2A 
 138      2C95F370 
 139 0407 5D82FCEB 		.ascii	"]\202\374\353\213\306\013\023\331\361\254a\315\233\205"
 139      8BC60B13 
 139      D9F1AC61 
 139      CD9B85
 140 0416 A5199E5B 		.ascii	"\245\031\236[\316_0\213/.\315\233\224-1\221=\227\231"
 140      CE5F308B 
 140      2F2ECD9B 
 140      942D3191 
 140      3D9799
 141 0429 CE55F20B 		.ascii	"\316U\362\013e\353\351\314\321g@*\203Z\314\027K\345"
 141      65EBE9CC 
 141      D167402A 
 141      835ACC17 
ARM GAS  /tmp/ccYbVqKw.s 			page 11


 141      4BE5
 142 043b 4BF00FE6 		.ascii	"K\360\017\346\340\014\236"
 142      E00C9E
 143              		.text
 144              		.section	.gnu.lto_spi_lld_stop.part.0.51ec3df8cc403039,"",%progbits
 145 0000 789C954F 		.ascii	"x\234\225O\261J\003A\024|\263\273\027\004\013m\355\202"
 145      B14A0341 
 145      147CB3BB 
 145      17040B6D 
 145      ED82
 146 0012 6DC0452D 		.ascii	"m\300E-m\003\022\214\020\310\005\264\222\344\022\314"
 146      6D03128C 
 146      10C805B4 
 146      92E412CC 
 147 0022 61F44212 		.ascii	"a\364B\022\003V\331\323\024\226\207\2456\006\261\261"
 147      0356D9D3 
 147      149687A5 
 147      3606B1B1 
 148 0032 B1B012D1 		.ascii	"\261\260\022\321\"}\004;\261Jg\251?\240\347\333\013"
 148      227D043B 
 148      B14A67A9 
 148      3FA0E7DB 
 148      0B
 149 0043 29B4F3C1 		.ascii	")\264\363\301\356\314\356{;3+H\320\337\312\360*\200"
 149      EECCEE7B 
 149      3B332B48 
 149      D0DFCAF0 
 149      2A80
 150 0055 6883110E 		.ascii	"h\203\021\016AE\317L\024D\202\002\322b8#\001K\010\324"
 150      4145CF4C 
 150      14448202 
 150      D2623823 
 150      014B08D4 
 151 0069 5342A2B7 		.ascii	"SB\242\267\015\373\030\21340\346l|\375t\267`.\217#\363"
 151      0DFB188B 
 151      3430E66C 
 151      7CFD74B7 
 151      602E8F23 
 152 007e 1DC7F0C1 		.ascii	"\035\307\360\3016\353 \017\264\305\007\244\023\020\352"
 152      36EB200F 
 152      B4C507A4 
 152      1310EA
 153 008d B7EFAD30 		.ascii	"\267\357\2550\3438\276\377\230u@>\244\260\033_;\324"
 153      E338BEFF 
 153      9875403E 
 153      A4B01B5F 
 153      3BD4
 154 009f 37264A97 		.ascii	"7&J\2271`m\262\032\\.\357\326\335\205\262(K\020\011"
 154      31606DB2 
 154      1A5C2EEF 
 154      D6DD85B2 
 154      284B1009 
 155 00b3 8E68F8F6 		.ascii	"\216h\370\366\372\276V\306\025'\337\0052tc\372\341\274"
 155      FABE56C6 
 155      1527DF05 
 155      327463FA 
 155      E1BC
ARM GAS  /tmp/ccYbVqKw.s 			page 12


 156 00c5 0F7541E7 		.ascii	"\017uA\347ad\2309\326;e>O\215Jb\244\022\363\012\246"
 156      61649839 
 156      D63B653E 
 156      4F8D4A62 
 156      A412F30A 
 157 00da 314674F2 		.ascii	"1Ft\362 \247\002\2025\354\220\214\343\257x.\351\016"
 157      20A70282 
 157      35EC908C 
 157      E3AF782E 
 157      E90E
 158 00ec 7393E6BF 		.ascii	"s\223\346\277\245YmBJ\374/\033\366\205\302\361\243\236"
 158      A5596D42 
 158      4AFC2F1B 
 158      F685C2F1 
 158      A39E
 159 00fe A84DCB05 		.ascii	"\250M\313\005l\317Nfu=\330\257i/\250\036\351j\255\253"
 159      6CCF4E66 
 159      753DD8AF 
 159      692FA81E 
 159      E96AADAB 
 160 0112 BDBA5FF1 		.ascii	"\275\272_\361\203\266\356\264\016\017\3664\223z\271"
 160      83B6EEB4 
 160      0E0FF634 
 160      937AB9
 161 0121 A19B41AB 		.ascii	"\241\233A\253\323\326EwsuE\347\363Y],\344\272\313\272"
 161      D3D64577 
 161      737545E7 
 161      F3595D2C 
 161      E4BACBBA 
 162 0135 DDF4771A 		.ascii	"\335\364w\032\215\352\222G\212i\363\007\337\014m\274"
 162      8DEA9247 
 162      8A69F307 
 162      DF0C6DBC 
 163              		.text
 164              		.section	.gnu.lto_spi_lld_init.51ec3df8cc403039,"",%progbits
 165 0000 789C6362 		.ascii	"x\234cb`b@\007\222@<\025(\354\006\244\031\231\031\030"
 165      60624007 
 165      92403C15 
 165      28EC06A4 
 165      19991918 
 166 0014 99269C63 		.ascii	"\231&\234c`h\344`bd\0041\030\030\031\352\231\030\353"
 166      6068E460 
 166      62640431 
 166      181819EA 
 166      9918EB
 167 0027 2319C16A 		.ascii	"#\031\301j\3273\035x\360\377\377\272O\247\347\3640\236"
 167      D7331D78 
 167      F0FFFFBA 
 167      4FA7E7F4 
 167      309E
 168 0039 65E2048A 		.ascii	"e\342\004\212\2602\26444LP``H\006\253\010\001\222 m"
 168      B032B434 
 168      344C5060 
 168      604806AB 
 168      08019220 
 169 004e A18C4C20 		.ascii	"\241\214L \232\371,C\323\216\037\373n2&2.dde\230\315"
 169      9AF92C43 
ARM GAS  /tmp/ccYbVqKw.s 			page 13


 169      D38E1FFB 
 169      6E322632 
 169      2E646465 
 170 0064 30ABB1A1 		.ascii	"0\253\261\241A \223\221\241\232\341WC\007\210\305\230"
 170      41209391 
 170      A19AE157 
 170      430788C5 
 170      98
 171 0075 0BD617C1 		.ascii	"\013\326\027\301\010d2\300X\014\377\3773\003\231\347"
 171      086432C0 
 171      580CFFFF 
 171      330399E7 
 172 0085 195A1E9C 		.ascii	"\031Z\036\234j\347\202\350e@\350aJ\206\252\005\211p"
 172      6AE782E8 
 172      6540E861 
 172      4A86AA05 
 172      8970
 173 0097 643232E7 		.ascii	"d22\3472B-`\310dda`\000[\372\351&\023DL\233aU\003\020"
 173      32422D60 
 173      C8646461 
 173      60005BFA 
 173      E9261344 
 174 00b1 186632B2 		.ascii	"\030f2\262\302\355g\203\233\005\322\013\265\225\031"
 174      C2ED6783 
 174      9B05D20B 
 174      B59519
 175 00c0 6C6612C4 		.ascii	"lf\022\304h\260\010k\303\217\206\006\240\201 \023\177"
 175      68B0086B 
 175      C38F8606 
 175      A0812013 
 175      7F
 176 00d1 356F9EA7 		.ascii	"5o\236\247\215n\";q&\"\\;\243\241!\032\250M\227a\015"
 176      8D6E223B 
 176      7126225C 
 176      3BA3A121 
 176      1AA84D97 
 177 00e7 4829472E 		.ascii	"H)G.#\023H\035'j\214\200m\333N\266mL\204lcG\267m\307"
 177      2313481D 
 177      276A8C80 
 177      6DDB4EB6 
 177      6D4C846C 
 178 0100 8DCF98A1 		.ascii	"\215\317\230\241\305E\234m\314\360\320\342\026\203\232"
 178      C5459C6D 
 178      CCF0D0E2 
 178      16839A
 179 010f 36E33BD9 		.ascii	"6\343;\331\246\261 L\003\245\307\213\014\215\017nh\302"
 179      A6B1204C 
 179      03A5C78B 
 179      0C8D0F6E 
 179      68C2
 180 0121 12000484 		.ascii	"\022\000\004\204\0005\001\223\026\310\227.\372\031\371"
 180      00350193 
 180      16C8972E 
 180      FA19F9
 181 0130 B9A9FAC9 		.ascii	"\271\251\372\311\371)\225\372)\251e\372\311\031\231"
 181      F92995FA 
 181      29A965FA 
ARM GAS  /tmp/ccYbVqKw.s 			page 14


 181      C91999
 182 013f 4999F9C5 		.ascii	"I\231\371\305\372%E\245y\331\372@FFb\216~A~QI\261~p"
 182      FA2545A5 
 182      79D9FA40 
 182      4646628E 
 182      7E417E51 
 183 0157 88AFB191 		.ascii	"\210\257\261\221\276\217\217\213~p\200g\231\241~qAf"
 183      BE8F8F8B 
 183      7E708067 
 183      99A17E71 
 183      4166
 184 0169 7C4E4E8A 		.ascii	"|NN\212^2\003\000\"S\271\252"
 184      5E320300 
 184      2253B9AA 
 185              		.text
 186              		.section	.gnu.lto_spi_lld_start.51ec3df8cc403039,"",%progbits
 187 0000 789C9556 		.ascii	"x\234\225VMh\033G\024~3\253]\375\332\222U\253\216C\234"
 187      4D681B47 
 187      147E33AB 
 187      5DFDDA92 
 187      55AB8E43 
 188 0015 D824C6D8 		.ascii	"\330$\306\330J\263q}\351\317\245\207P0\244\020\210\015"
 188      4AB3717D 
 188      E9CFA587 
 188      5030A410 
 188      880D
 189 0027 4D2FC191 		.ascii	"M/\301\221\203,jG!N\003m\016YU\206\372P\250\241PL{I"
 189      832C6A47 
 189      214E036D 
 189      0E595586 
 189      FA50A8A1 
 190 003f 0E6DA185 		.ascii	"\016m\241\205\2708\324?\330\007\327\364\220P\322\322"
 190      B838D43F 
 190      D807D7F4 
 190      9050D2D2 
 191 004f 2604A350 		.ascii	"&\004\243P\010\366\241\245\005W\024\002\"\207(\357\315"
 191      08F6A1A5 
 191      05571402 
 191      228728EF 
 191      CD
 192 0060 ECCC2A92 		.ascii	"\354\314*\222\354\310\013~;\273\357}\337|\363\315\316"
 192      ECC80B7E 
 192      3BBBEF7D 
 192      DF7CF3CD 
 192      CE
 193 0071 933970A8 		.ascii	"\2239p\250\276\262\3707\030\002x\033\357,\004\214\317"
 193      BEB2F837 
 193      1802781B 
 193      EF2C048C 
 193      CF
 194 0082 FC0A900B 		.ascii	"\374\012\220\013pn\024\023\340\204\254\353\257\201\023"
 194      706E1413 
 194      E084ACEB 
 194      AF8113
 195 0091 31B8EFBA 		.ascii	"1\270\357\272\211Of\3616\340\243\217\231\262\312d\226"
 195      894F66F1 
 195      36E0A38F 
ARM GAS  /tmp/ccYbVqKw.s 			page 15


 195      99B2CA64 
 195      96
 196 00a2 1C58DCBF 		.ascii	"\034X\334\277z\020\013\002\367m\314\373YP\276\016\250"
 196      7A100B02 
 196      F76DCCFB 
 196      5950BE0E 
 196      A8
 197 00b3 4190311A 		.ascii	"A\2201\032\000\203k\334\360\231\226\037\337\\;\303\204"
 197      00836BDC 
 197      F099961F 
 197      DF5C3BC3 
 197      84
 198 00c4 8239BEF6 		.ascii	"\2029\276\366\250\\\276\371\307\275o>e\333|\300d\023"
 198      A85CBEF9 
 198      C7BD6F3E 
 198      65DB7CC0 
 198      6413
 199 00d6 0C2CC830 		.ascii	"\014,\3100\360c`A\012a\014<B\241\231\036\243\030\214"
 199      F0636041 
 199      0A610C3C 
 199      42A1991E 
 199      A3188C
 200 00e9 18065F0B 		.ascii	"\030\006_\013\0063N\211VJ$(\321\206\301\332\207\301"
 200      06334E89 
 200      564A2428 
 200      D186C1DA 
 200      87C1
 201 00fb DF4E89FD 		.ascii	"\337N\211\375\024\016P\350\240p\210B'\205.\012\207)"
 201      140E50E8 
 201      A0708842 
 201      27852E0A 
 201      8729
 202 010d 1CA1D04D 		.ascii	"\034\241\320M\241\207H{\211\240\217\010\222\024\216"
 202      A187487B 
 202      89A08F08 
 202      92148E
 203 011c 52C2A6D1 		.ascii	"R\302\246\321q\032\365S@\331&L9\316L'@J,c\010#-q\030"
 203      711AF553 
 203      40D9264C 
 203      39CE4C27 
 203      404A2C63 
 204 0135 937837EE 		.ascii	"\223x7\356\302\307\205\331\225\002\033a7\230\011if%"
 204      C2C785D9 
 204      95021B61 
 204      37980969 
 204      6625
 205 0147 A12FC302 		.ascii	"\241/\303\002_\301\227,\303\202if\276\213\367\2200\340"
 205      5FC1972C 
 205      C3826966 
 205      BE8BF790 
 205      30E0
 206 0159 1C539B71 		.ascii	"\034S\233q\033~\376+\327\244!T\022`\025\2335\314\014"
 206      1B7EFE2B 
 206      D7A42154 
 206      1260159B 
 206      35CC0C
 207 016c 28260C2A 		.ascii	"(&\014*\373\351\317/\"\252\320\274\012O\234i\307\031"
ARM GAS  /tmp/ccYbVqKw.s 			page 16


 207      FBE9CF2F 
 207      22AAD0BC 
 207      0A4F9C69 
 207      C719
 208 017e 40C60956 		.ascii	"@\306\011V\011 \210\017V\231\224\263\275ih\325\022\213"
 208      0920880F 
 208      569994B3 
 208      BD6968D5 
 208      128B
 209 0190 579A9689 		.ascii	"W\232\226\211\322\030J\3139\216\363y\035}\212\3627\370"
 209      D2184ACB 
 209      398EF379 
 209      1D7D8AF2 
 209      37F8
 210 01a2 64AD7D84 		.ascii	"d\255}\204}-\220r\322X\206\205Sn\001R\021*b\272\271"
 210      7D2D9072 
 210      D2588685 
 210      536E0152 
 210      112A62BA 
 211 01b7 B5C70F8E 		.ascii	"\265\307\017\216eXS\212q\027\203\264\031\326\014@j\226"
 211      6558538A 
 211      711783B4 
 211      19D60C40 
 211      6A96
 212 01c9 FEDB34E4 		.ascii	"\376\3334\344\3534\013\276P\001oTA\360y\005eW\201Q\243"
 212      EB340BBE 
 212      50016F54 
 212      41F07905 
 212      65578151 
 213 01de 60BDB0F1 		.ascii	"`\275\260\361\377\033J@8\011\3379S9\244\212\312\035"
 213      FF1B4A40 
 213      3809DF39 
 213      5339A48A 
 213      CA1D
 214 01f0 8A114D8B 		.ascii	"\212\021M\213S\234v| \206\256\016\303\325q\027\362\313"
 214      539C767C 
 214      2086AE0E 
 214      C3D57117 
 214      F2CB
 215 0202 5A7E0409 		.ascii	"Z~\004\011\250\210;\016\027\271\365A\231\332\033+\022"
 215      A8883B0E 
 215      17B9F541 
 215      99DA1B2B 
 215      12
 216 0213 A93D3369 		.ascii	"\251=3i\233\311\245\322\367I\265\313\315\332\244]v\010"
 216      9BC9A5D2 
 216      F749B5CB 
 216      CDDAA45D 
 216      7608
 217 0225 31EF2940 		.ascii	"1\357)@\224\246\307\311\343\022\362\022R\020\204\271"
 217      94A6C7C9 
 217      E312F212 
 217      521084B9 
 218 0235 105F1D48 		.ascii	"\020_\035HL\314\341\253?\207\351\001\236\030\012\321"
 218      4CCCE1AB 
 218      3F87E901 
 218      9E180AD1 
ARM GAS  /tmp/ccYbVqKw.s 			page 17


 219 0245 72153EC2 		.ascii	"r\025>\3023(V\312\364B[\323r\255>\027jy\037$\242\267"
 219      332856CA 
 219      F4425BD3 
 219      72AD3E17 
 219      6A791F24 
 220 025b 353A9E26 		.ascii	"5:\236&\017\244a7\224a\036M\002\027A4q\227\306\357\372"
 220      0FA46137 
 220      94611E4D 
 220      02174134 
 220      7197C6EF 
 221 0270 14979FD0 		.ascii	"\024\227\237\320\364MM\324\272\2339\334\233Z\2574Qc"
 221      F44D4DD4 
 221      BA9B39DC 
 221      9B5AAF34 
 221      5163
 222 0282 4E6B7D73 		.ascii	"Nk}sv\226\226\330A\232\334B\313k\003s[\272\015\264\011"
 222      769696D8 
 222      419ADC42 
 222      CB6B0373 
 222      5BBA0DB4 
 223 0297 9D567D9D 		.ascii	"\235V}\235\001Oga&\254 \373\\\245/KP\033\222\020\310"
 223      014F6761 
 223      26AC20FB 
 223      5CA52F4B 
 223      501B9210 
 224 02ac 724141EF 		.ascii	"rAA\357\213\\\311\377\243'\262\021He~'\006\325\215\305"
 224      8B5CC9FF 
 224      A327B211 
 224      48657E27 
 224      06D58DC5 
 225 02c0 1609A8B8 		.ascii	"\026\011\250\270\206\361q\365\240P\2731\267\245]m\027"
 225      86F171F5 
 225      A050BB31 
 225      B7A55D6D 
 225      17
 226 02d1 6A23F5D5 		.ascii	"j#\365\325\206*'.\377xV\201\366#N\234\206\362gO\313"
 226      862A272E 
 226      FF785681 
 226      F6234E9C 
 226      86F2674F 
 227 02e6 51B99C3B 		.ascii	"Q\271\234;\033s\377r\317GG\364\252]y\221G\0321;\357"
 227      1B73FF72 
 227      CF4747F4 
 227      AA5D7991 
 227      471A313B 
 228 02fb E939B09B 		.ascii	"\3519\260\233\236p\245\236o\027\264\236\016\304\325"
 228      9E70A59E 
 228      6F17B49E 
 228      0EC4D5
 229 030a E8999D6F 		.ascii	"\350\231\235oXO\330\325\323\241\254\012\300}[X\265t"
 229      584FD8D5 
 229      D3A1AC0A 
 229      C07D5B58 
 229      B574
 230 031c CB9376A8 		.ascii	"\313\223v\250a\2536\271\302t\"\254JY~9\277\2620\246"
 230      61AB36B9 
 230      C27422AC 
ARM GAS  /tmp/ccYbVqKw.s 			page 18


 230      4A597E39 
 230      BFB230A6 
 231 0330 0ABAB046 		.ascii	"\012\272\260F6\226S\256\356\245[{\366\261K\372X\252"
 231      369653AE 
 231      EEA55B7B 
 231      F6B14BFA 
 231      58AA
 232 0342 107BB861 		.ascii	"\020{\270a\037=\261G\020V+v\313\023\333\2155\317\213"
 232      1F3DB147 
 232      10562B76 
 232      CB13DB8D 
 232      35CF8B
 233 0355 2D352E56 		.ascii	"-5.V\231\334\255L\016\352\343SZxSM\321\323X{Z_*\206"
 233      99DCAD4C 
 233      0EEAE353 
 233      5A78534D 
 233      D1D3587B 
 234 036d 2A0E6DCE 		.ascii	"*\016m\316y\275\2621\365T6&\331q\351MT\235\274\331\305"
 234      79BDB231 
 234      F5543626 
 234      D971E94D 
 234      549DBCD9 
 235 0382 5FB451BD 		.ascii	"_\264Q\275\215\036\327\037\342\012\322Ws\\{w8\256\313"
 235      8D1ED71F 
 235      E20AD257 
 235      735C7B77 
 235      38AECB
 236 0395 F979FD13 		.ascii	"\371y\375\023\236D\2408\225S\026T\365\310\243\230\025"
 236      9E44A038 
 236      95531654 
 236      F5C8A398 
 236      15
 237 03a6 ABBAB3C7 		.ascii	"\253\272\263\307U!T\272\261\261\370\2207\210l\322~p"
 237      552154BA 
 237      B1B1F890 
 237      37886CD2 
 237      7E70
 238 03b8 BFF4B250 		.ascii	"\277\364\262PZ\274\247?\202\343\325\277h\365g\326\277"
 238      5ABCA73F 
 238      82E3D5BF 
 238      68F567D6 
 238      BF
 239 03c9 8F12D58F 		.ascii	"\217\022\325\217@A\371\026\324t\324\027r!\034\340w\310"
 239      4041F916 
 239      D474D417 
 239      72211CE0 
 239      77C8
 240 03db 3DFAFB15 		.ascii	"=\372\373\025\375?\213\270\206\260Y\3437B\315\375\204"
 240      FD3F8BB8 
 240      86B059E3 
 240      3742CDFD 
 240      84
 241 03ec 3D969D38 		.ascii	"=\226\2358o\247\262\243\037\332\243\347\257\330\251"
 241      6FA7B2A3 
 241      1FDAA3E7 
 241      AFD8A9
 242 03fb B1CCB94C 		.ascii	"\261\314\271Lv\322\276|\351\203\013\357\3338\030\033"
ARM GAS  /tmp/ccYbVqKw.s 			page 19


 242      76D2BE7C 
 242      E9830BEF 
 242      DB38181B 
 243 040b 19B72F66 		.ascii	"\031\267/f/]\236\264O\017\2753\360\252}\362\344\011"
 243      2F5D9EB4 
 243      4F0FBD33 
 243      F0AA7DF2 
 243      E409
 244 041d FBF4A9C1 		.ascii	"\373\364\251\301+\375\366\344\305\314\331\361\361\321"
 244      2BFDF6E4 
 244      C5CCD9F1 
 244      F1D1
 245 042b 63297806 		.ascii	"c)x\006\265mD\272"
 245      B56D44BA 
 246              		.text
 247              		.section	.gnu.lto_spi_lld_stop.51ec3df8cc403039,"",%progbits
 248 0000 789C8D92 		.ascii	"x\234\215\222\317+DA\034\300\277\337\2317\373\303\217"
 248      CF2B4441 
 248      1CC0BFDF 
 248      9937FBC3 
 248      8F
 249 0011 F8139C89 		.ascii	"\370\023\234\211\011gr\220R\224\262\212\223x+;\331\265"
 249      09677290 
 249      5294B28A 
 249      93782B3B 
 249      D9B5
 250 0023 B2283998 		.ascii	"\262(9\230\307\036\034\367(\033\345\342\340\300UI~$"
 250      C71E1CF7 
 250      281BE5E2 
 250      E0C05549 
 250      7E24
 251 0035 89902B0E 		.ascii	"\211\220+\016Z\007\0077.\342\300w\336\333\331\204b\352"
 251      5A070737 
 251      2EE2C077 
 251      DEDBD984 
 251      62EA
 252 0047 CDF7CD9B 		.ascii	"\315\367\315\233\357\3473\337\231y\014\030|om\364\344"
 252      EFE733DF 
 252      99790C18 
 252      7C6F6DF4 
 252      E4
 253 0058 E9730745 		.ascii	"\351s\007E\014\001\262\334%\200\027a\214\237T\201.\023"
 253      0C01B2DC 
 253      25801761 
 253      8C9F5481 
 253      2E13
 254 006a 67ADA02B 		.ascii	"g\255\240+8s^\252\315h\265\205F\016\012\223\204\002"
 254      38735EAA 
 254      CD68B585 
 254      460E0A93 
 254      8402
 255 007c D1444098 		.ascii	"\321D@\230g\334\0218?\200\276r\233\035\334\177|l=\347"
 255      67DC1138 
 255      3F80BE72 
 255      9B1DDC7F 
 255      7C6C3DE7 
 256 0090 37EEF09D 		.ascii	"7\356\360\235U2L!pP\010\016u\030\246\216EMG\251\002"
ARM GAS  /tmp/ccYbVqKw.s 			page 20


 256      55324C21 
 256      7050080E 
 256      7518A68E 
 256      454D47A9 
 257 00a5 B25AE76A 		.ascii	"\262Z\347j\000\\\037\215Qo\224}4I\221_\300\302\315\362"
 257      005C1F8D 
 257      516F947D 
 257      3449915F 
 257      C0C2CDF2 
 258 00b9 FE2D0EE1 		.ascii	"\376-\016\341:\012\030E^\007\265\012y\036VP\2413\212"
 258      3A0A1845 
 258      5E07B50A 
 258      791E5650 
 258      A1338A
 259 00cc AC9FA2F0 		.ascii	"\254\237\242\360\027\035F\273\243S8~\364*K\210I\341"
 259      171D46BB 
 259      A353387E 
 259      F42A4B88 
 259      49E1
 260 00de 5FF7DD87 		.ascii	"_\367\335\207\034N\252|\367\353\376y\311\355\370n\374"
 260      1C4EAA7C 
 260      F7EBFE79 
 260      C9EDF86E 
 260      FC
 261 00ef DD6DE517 		.ascii	"\335m\345\027p\264\223+\017\220:\330\324YO\267(\014"
 261      70B4932B 
 261      0F903AD8 
 261      D4594FB7 
 261      280C
 262 0101 05509824 		.ascii	"\005P\230$\006\302\"\024,j\276\204,\273\\x`\377\244"
 262      06C22214 
 262      2C6ABE84 
 262      2CBB5C78 
 262      60FFA4
 263 0114 F9777AE1 		.ascii	"\371wz\341f\247\360\304l\271a\277\\F\254\247\265\236"
 263      66A7F0C4 
 263      6CB961BF 
 263      5C46ACA7 
 263      B59E
 264 0126 FE59B253 		.ascii	"\376Y\262S,\371\012\262\007\365\001\0050\007ozIW+\214"
 264      2CF90AB2 
 264      07F50105 
 264      30076F7A 
 264      49572B8C 
 265 013a B8C585C8 		.ascii	"\270\305\205\310\2440\032\370O\013\334\352\243\177\351"
 265      A4301AF8 
 265      4F0BDCEA 
 265      A37FE9
 266 0149 C57FF551 		.ascii	"\305\177\365Q_o.\345pw\255\302\372Y\220\252\233\311"
 266      5F6F2EE5 
 266      7077ADC2 
 266      FA5990AA 
 266      9BC9
 267 015b 982A1DAF 		.ascii	"\230*\035\257\275 \007\2668\277\202\305\310\017q\231"
 267      BD2007B6 
 267      38BF82C5 
 267      C80F7199 
ARM GAS  /tmp/ccYbVqKw.s 			page 21


 268 016b 5B3C5685 		.ascii	"[<V\205\3456[\370\377\3125x\367{\322\002A\213\221\231"
 268      E5365BF8 
 268      FFCA3578 
 268      F77BD202 
 268      418B9199 
 269 017f E60CD12E 		.ascii	"\346\014\321.\023\351\324\210t\323\361Y\031\037\231"
 269      13E9D488 
 269      74D3F159 
 269      191F99
 270 018e 916E420D 		.ascii	"\221nB\015\253tFNMN\217\217IzI\014%\345Dzr*#{c\335\315"
 270      AB74464E 
 270      4D4E8F8F 
 270      497A490C 
 270      25E5447A 
 271 01a9 4DB2ABAB 		.ascii	"M\262\253\253]\366\366t\3164\312\314\204\032L&\343\015"
 271      5DF6F674 
 271      CE34CACC 
 271      841A4C26 
 271      E30D
 272 01bb 2E7C027A 		.ascii	".|\002z\255\253\335"
 272      ADABDD
 273              		.text
 274              		.section	.gnu.lto_spi_lld_select.51ec3df8cc403039,"",%progbits
 275 0000 789C6D90 		.ascii	"x\234m\220\317KBA\020\307\277\263\373\236\276\254\240"
 275      CF4B4241 
 275      10C7BFB3 
 275      FB9EBEAC 
 275      A0
 276 0011 6B74E99C 		.ascii	"kt\351\234\320R\375\013\022\010\006\201/\250.\241O\321"
 276      D052FD0B 
 276      12080681 
 276      2FA82EA1 
 276      4FD1
 277 0023 47DA1335 		.ascii	"G\332\0235\241\223Z\376\001\036\245\204\350\024\005"
 277      A1935AFE 
 277      011EA584 
 277      E81405
 278 0032 D5BF10DD 		.ascii	"\325\277\020\335\015:\326\311{\320\261[\330\354\373"
 278      0D3AD6C9 
 278      7BD0B15B 
 278      D8ECFB
 279 0041 61102EEC 		.ascii	"a\020.\354\314\354\314|\276;\273\002\002\377\3272\357"
 279      CCECCC7C 
 279      BE3BBB02 
 279      02FFD732 
 279      EF
 280 0052 3B02B6D9 		.ascii	";\002\266\331\223\004\211\376+\320\265\004\221\016@"
 280      930489FE 
 280      2BD0B504 
 280      910E40
 281 0061 680B6A1F 		.ascii	"h\013j\037\220\337\373$\236\307\223\311\343\360\372"
 281      90DFFB24 
 281      9EC793C9 
 281      E3F0FA
 282 0070 76483F22 		.ascii	"vH?\"!\250J\220p\011\006\0332\331\210\030\033\031\327"
 282      21A84A90 
 282      7009061B 
ARM GAS  /tmp/ccYbVqKw.s 			page 22


 282      32D98818 
 282      1B19D7
 283 0083 C6D24786 		.ascii	"\306\322G\206L\364:\235\376*\340\370\"6[\255\274\307"
 283      4CF43A9D 
 283      FE2AE0F8 
 283      22365BAD 
 283      BCC7
 284 0095 45F67284 		.ascii	"E\366r\204\363\217\301\367J\216nX\240D2\2115\026\274"
 284      F38FC1F7 
 284      4A8E6E58 
 284      A0443289 
 284      3516BC
 285 00a8 C225B964 		.ascii	"\302%\271d\224H\354\2637\375\333\363\024\315\314\314"
 285      9448ECB3 
 285      37FDDBF3 
 285      14CDCCCC 
 286 00b8 61041849 		.ascii	"a\004\030I\334w\226\\\212\005H\234%4\202\020\241\031"
 286      DC77965C 
 286      8A05489C 
 286      25348210 
 286      A119
 287 00ca 881922D6 		.ascii	"\210\031\"\326lD\374!_2bb%=\305\010\027\017\323T\\C"
 287      6C44FC21 
 287      5F326262 
 287      253DC508 
 287      170FD354 
 288 00e0 9274D16F 		.ascii	"\222t\321o\376\234V,.\352\324K:\310\350\373z\334<\027"
 288      FE9C562C 
 288      2EEAD44B 
 288      3AC8E8FB 
 288      7ADC3C17 
 289 00f4 05892898 		.ascii	"\005\211(\230\017FX\340wh\265\305p\004\031z#\364\301"
 289      0F4658E0 
 289      7768B5C5 
 289      7004197A 
 289      23F4C1
 290 0107 07B030F0 		.ascii	"\007\2600\360\206\356\370]\005\272\321\262\371\231\374"
 290      86EEF85D 
 290      05BAD1B2 
 290      F999FC
 291 0116 977AF094 		.ascii	"\227z\360\224*{\325\242r\274\302\231*\024[\312)\273"
 291      2A7BD5A2 
 291      72BCC299 
 291      2A145BCA 
 291      29BB
 292 0128 79D76BA8 		.ascii	"y\327k\250f\375\364\344XqP\316UT\315\2537\033*k\357"
 292      66FDF4E4 
 292      587150CE 
 292      5554CDAB 
 292      371B2A6B 
 293 013d 6C6DAA4C 		.ascii	"lm\252L&\245\262\273\351\326\206j\324\334\243J\245\260"
 293      26A5B2BB 
 293      E9D6866A 
 293      D4DCA34A 
 293      A5B0
 294 014f EEE0176B 		.ascii	"\356\340\027k\330i\365"
 294      D869F5
ARM GAS  /tmp/ccYbVqKw.s 			page 23


 295              		.text
 296              		.section	.gnu.lto_spi_lld_unselect.51ec3df8cc403039,"",%progbits
 297 0000 789C6D90 		.ascii	"x\234m\220\317KBA\020\307\277\263\373\236\276\254\240"
 297      CF4B4241 
 297      10C7BFB3 
 297      FB9EBEAC 
 297      A0
 298 0011 6B74E99C 		.ascii	"kt\351\234\320R\375\013\022\010\006\201\006\325%\364"
 298      D052FD0B 
 298      12080681 
 298      06D525F4 
 299 0021 3DD147DA 		.ascii	"=\321G\332\0235\241\223Z\376\001\236\355\020\035\213"
 299      1335A193 
 299      5AFE019E 
 299      ED101D8B 
 300 0031 7E5C3B46 		.ascii	"~\\;Fw\203.\035:y/\374\007\202l\366\3750\010\027vfv"
 300      77832E1D 
 300      3A792FFC 
 300      07826CF6 
 300      FD300817 
 301 0048 663EDF9D 		.ascii	"f>\337\235]\001\201\377k\231\367\015\001\333\354I\202"
 301      5D0181FF 
 301      6B99F70D 
 301      01DBEC49 
 301      82
 302 0059 44FF15E8 		.ascii	"D\377\025\350Z\202H\007 \264\005\265\017\310\357}\024"
 302      5A824807 
 302      20B405B5 
 302      0FC8EF7D 
 302      14
 303 006a CFA3C9E4 		.ascii	"\317\243\311\344\341\375\352\356\213~DBP\225 \341\022"
 303      E1FDEAEE 
 303      8B7E4442 
 303      509520E1 
 303      12
 304 007b 0C3664B2 		.ascii	"\0146d\262\021162\256\215\245\217\014\231\350u:\375"
 304      11313632 
 304      AE8DA58F 
 304      0C99E875 
 304      3AFD
 305 008d 55C0F645 		.ascii	"U\300\366Erl\265\362\036\027\331\313!\316?\236\276W"
 305      726CB5F2 
 305      1E17D9CB 
 305      21CE3F9E 
 305      BE57
 306 009f F274CD02 		.ascii	"\362t\315\002%\222I\254\261\340%\006\344\222Q\"\261"
 306      259249AC 
 306      B1E02506 
 306      E4925122 
 306      B1
 307 00b0 CFDEF46F 		.ascii	"\317\336\364o/P433\207\021`$q\333Yr)\026 q\226\320\010"
 307      2F503433 
 307      33871160 
 307      2471DB59 
 307      72291620 
 308 00c8 42846620 		.ascii	"B\204f f\210X\263\021\361\207\214e\304\304Jz\212!.\356"
 308      668858B3 
ARM GAS  /tmp/ccYbVqKw.s 			page 24


 308      11F1878C 
 308      65C4C44A 
 308      7A8A212E 
 309 00dd A7A9B886 		.ascii	"\247\251\270\206$\351\242\337\3749\255X\\\324\251\227"
 309      24E9A2DF 
 309      FC39AD58 
 309      5CD4A997 
 310 00ed 7490D1F7 		.ascii	"t\220\321\367\365\270y.\012\022Q0\037\214\260\300\357"
 310      F5B8792E 
 310      0A125130 
 310      1F8CB0C0 
 310      EF
 311 00fe D06A8BE1 		.ascii	"\320j\213\341\0102\364F\350\203\017`a\340\015\335\321"
 311      0832F446 
 311      E8830F60 
 311      61E00DDD 
 311      D1
 312 010f 5805BAD1 		.ascii	"X\005\272\321\312\3613\371/\365\340)U\366\252Ee{\316"
 312      CAF133F9 
 312      2FF5E029 
 312      55F6AA45 
 312      657BCE
 313 0122 99728A2D 		.ascii	"\231r\212-e\227\335\202\3535T\263~zr\2548(\347+\252"
 313      6597DD82 
 313      EB3554B3 
 313      7E7A72AC 
 313      3828E72B 
 314 0137 E6D59B0D 		.ascii	"\346\325\233\015\225\315\355lm\252L&\245\262\273\351"
 314      95CDED6C 
 314      6DAA4C26 
 314      A5B2BBE9 
 315 0147 D6866AD4 		.ascii	"\326\206j\324\334\243J\305Y\267\361\013\273#j\277"
 315      DCA34AC5 
 315      59B7F10B 
 315      BB236ABF 
 316              		.text
 317              		.section	.gnu.lto_spi_lld_ignore.51ec3df8cc403039,"",%progbits
 318 0000 789C8D93 		.ascii	"x\234\215\223\301k\023Q\020\306g\336\356v\263f\203K"
 318      C16B1351 
 318      10C667DE 
 318      EE76B366 
 318      834B
 319 0012 4B83DE4A 		.ascii	"K\203\336J\275Y\310\263\372/\024J\241\005\245\021\264"
 319      BD59C8B3 
 319      FA2F144A 
 319      A105A511 
 319      B4
 320 0023 17499392 		.ascii	"\027I\223\222,fMI\322\322\342\241\233\032\204\202\207"
 320      2C664D49 
 320      D2D2E2A1 
 320      9B1A8482 
 320      87
 321 0034 5ABCA887 		.ascii	"Z\274\250\2076\204\326\342E\024\017\012\036\202\247"
 321      3684D6E2 
 321      45140F0A 
 321      1E82A7
 322 0043 80287893 		.ascii	"\200(x\223\234\202'O\342Y\012\353\274\335\315\206\266"
ARM GAS  /tmp/ccYbVqKw.s 			page 25


 322      9C82274F 
 322      E2590AEB 
 322      BCDDCD86 
 322      B6
 323 0054 6B360F32 		.ascii	"k6\0172\357e\347\375f\276\3716a\300\340\354\272L\237"
 323      EF65E7FD 
 323      66BEF936 
 323      61C0E0EC 
 323      BA4C9F
 324 0067 1F32C012 		.ascii	"\0372\300\022\355(\001\262\335o\000\265\030C\024\007"
 324      ED2801B2 
 324      DD6F00B5 
 324      18431407 
 325 0077 40D862B8 		.ascii	"@\330b\270u\027\305U6\011\015\333\336\353\0366\237H"
 325      7517C555 
 325      36090DDB 
 325      DEEB1E36 
 325      9F48
 326 0089 CF9FB5EA 		.ascii	"\317\237\265\352\007\366\211\343 \232Heg\021\262\010"
 326      07F689E3 
 326      209A4865 
 326      6711B208 
 327 0099 77E80B4E 		.ascii	"w\350\013N\270\033\223O\367\361\330\326\273\237\355"
 327      B81B934F 
 327      F7F1D8D6 
 327      BB9FED
 328 00a8 06DA7B76 		.ascii	"\006\332{v\355\217\343\\t\311[Q\344\033\326\352:\316"
 328      ED8FE35C 
 328      74C95B51 
 328      E41BD6EA 
 328      3ACE
 329 00ba A7A78FDF 		.ascii	"\247\247\217\337\237\340\316\225K\014-\004\011L\224"
 329      9FE0CE95 
 329      4B0C2D04 
 329      094C94
 330 00c9 640AB202 		.ascii	"d\012\262\002\031l\340$\250\364\0305z\002q\221\323E"
 330      196CE024 
 330      A8F41835 
 330      7A027191 
 330      D345
 331 00db 2E41B926 		.ascii	".A\271&\345\014\361xT\2041\021\306EH\212@K\201\272m"
 331      E50CF178 
 331      54843111 
 331      C645488A 
 331      404B81BA 
 332 00f0 EF4E8010 		.ascii	"\357N\200\020A+MQ\014~\033\231\330\245\257\260\335\371"
 332      412B4D51 
 332      0C7E1B99 
 332      D8A5AFB0 
 332      DDF9
 333 0102 40F366F0 		.ascii	"@\363f\360\020\025\310\2434\005W\251\374KxAJ\225<2\241"
 333      1015C8A3 
 333      340557A9 
 333      FC4B7841 
 333      4A953C32 
 334 0117 78C4D5B9 		.ascii	"x\304\325\271\214=\305\004-\365\000y\012^\333\206\211"
 334      8C3DC504 
ARM GAS  /tmp/ccYbVqKw.s 			page 26


 334      2DF50079 
 334      0A5EDB86 
 334      89
 335 0128 AA87C4A8 		.ascii	"\252\207\304\250\204@$\037\301>\362;h\242<\204\277v"
 335      8440241F 
 335      C13EF23B 
 335      68A23C84 
 335      BF76
 336 013a CC44CD42 		.ascii	"\314D\315B\346g?\317yIQ\255N\374\005\257\\\234\032\210"
 336      E6673FCF 
 336      794951AD 
 336      4EFC05AF 
 336      5C9C1A88 
 337 014e 72AA5FCE 		.ascii	"r\252_\316\273N\025\\\346K\273\251\017\205I>\246\272"
 337      BB4E155C 
 337      E64BBBA9 
 337      0F85493E 
 337      A6BA
 338 0160 423ABF7A 		.ascii	"B:\277zX\0365w^=|^9\020?\244<\305\357\243y}\216\217"
 338      581E3577 
 338      5E3D7C5E 
 338      39103FA4 
 338      3CC5EFA3 
 339 0178 823EF141 		.ascii	"\202>\361A\276\216\204\370\252\237\3635\036\351k\242"
 339      BE8E84F8 
 339      AA9FF335 
 339      1EE96BA2 
 340 0188 EFAB1429 		.ascii	"\357\253\024)\\\017\3635\341\373z\364__\365A\276\366"
 340      5C0FF335 
 340      E1FB7AF4 
 340      5F5FF541 
 340      BEF6
 341 019a E73506F9 		.ascii	"\3475\006\371\252\016\341\253\036\346\253\3412\235\343"
 341      AA0EE1AB 
 341      1EE6ABE1 
 341      329DE3
 342 01a9 57419F51 		.ascii	"WA\237Q\227\254\031\021\257Dp\217>\006F\215\021(.\001"
 342      97AC1911 
 342      AF44708F 
 342      3E06468D 
 342      11282E01 
 343 01bd 9E571159 		.ascii	"\236W\021Y\213pOF\273/c<\004\015\231\340\214\214$\201"
 343      8B704F46 
 343      BB2F633C 
 343      040D99E0 
 343      8C8C2481 
 344 01d1 C3C90875 		.ascii	"\303\311\010u#\011\360\035j\335\375\267\262\307\365"
 344      2309F01D 
 344      6ADDFDB7 
 344      B2C7F5
 345 01e0 569A7E1D 		.ascii	"V\232~\035\364\337\026\357t\206\027J\326\012\317\226"
 345      F4DF16EF 
 345      7486174A 
 345      D60ACF96 
 346 01f0 729B3CB7 		.ascii	"r\233<\267\262\316\263\005s\331,Ux\265\274\366\340>"
 346      B2CEB305 
 346      73D92C55 
ARM GAS  /tmp/ccYbVqKw.s 			page 27


 346      78B5BCF6 
 346      E03E
 347 0202 A7432153 		.ascii	"\247C!S\344\253\245r\265\302\027\323\0137\256\363\371"
 347      E4ABA572 
 347      B5C217D3 
 347      0B37AEF3 
 347      F9
 348 0213 F919BE78 		.ascii	"\371\031\276xsn}\232WV\315{\305b.\225\005-\267fY\233"
 348      736E7D9A 
 348      5756CD7B 
 348      C5622E95 
 348      052DB766 
 349 0229 E58DD435 		.ascii	"\345\215\3245\357T\335HM\377\003\340\255\016C"
 349      EF54DD48 
 349      4DFF03E0 
 349      AD0E43
 350              		.text
 351              		.section	.gnu.lto_spi_lld_exchange.51ec3df8cc403039,"",%progbits
 352 0000 789C9593 		.ascii	"x\234\225\223\317k\023Q\020\307g\336\356&1i6\013\015"
 352      CF6B1351 
 352      10C767DE 
 352      EE263169 
 352      360B0D
 353 0013 2D091E4A 		.ascii	"-\011\036J\275Y\350\303\366_(\224BE\241Q\324\213\344"
 353      BD59E8C3 
 353      F65F2894 
 353      4245A151 
 353      D48BE4
 354 0026 47DD2CA6 		.ascii	"G\335,\246\246$i\321S75\207\036\024J\361R\0251\210 "
 354      A62469D1 
 354      53373587 
 354      1E144AF1 
 354      52153188 
 355 003b 5E448516 		.ascii	"^D\205\026o\301\203\010\242\3405(\004D\350I<z\020\326"
 355      6FC18308 
 355      A2E03528 
 355      0444E849 
 355      3C7A10D6 
 356 004f 99DDFCC0 		.ascii	"\231\335\374\300tM\342\203\314\333\367v>\363\276\363"
 356      744DE283 
 356      CCDBF776 
 356      3EF3BEF3 
 357 005f 7D1B0102 		.ascii	"}\033\001\002\372G\202~c\032\300E\232Q\001\024\273\237"
 357      FA47827E 
 357      631AC045 
 357      9A510114 
 357      BB9F
 358 0071 00AA2181 		.ascii	"\000\252!\201\310\017\200\260%p\3532r\252\230\206\272"
 358      C80F80B0 
 358      2570EB32 
 358      72AA9886 
 358      BA
 359 0082 6DEFB5BE 		.ascii	"m\357\265\276\277\272\243\354\337k\324\036\333\277\035"
 359      BFBAA3EC 
 359      DF6BD41E 
 359      DBBF1D
 360 0091 07D1422A 		.ascii	"\007\321B*\273\210\220E\270D\013\234r'\241\376}\216"
ARM GAS  /tmp/ccYbVqKw.s 			page 28


 360      BB889045 
 360      B8440B9C 
 360      7227A1FE 
 360      7D8E
 361 00a3 C7361E7D 		.ascii	"\3076\036}{_G{\317\256\376t\234\230K\236\033F\276\020"
 361      7B5F477B 
 361      CFAEFE74 
 361      9C984B9E 
 361      1B46BE10 
 362 00b7 8D96E33C 		.ascii	"\215\226\343<\334\177w\370\005\357\236:)p\015A\001\013"
 362      DC7F77F8 
 362      05EF9E3A 
 362      29700D41 
 362      010B
 363 00c9 159582AA 		.ascii	"\025\225\202\252\321\022\003\220\306:NC\210\026\"L\333"
 363      D1120390 
 363      C63A4E43 
 363      8816224C 
 363      DB
 364 00da 10E110E5 		.ascii	"\020\341\020\345,\235\263b\364B1(\353\011e\215\363\273"
 364      2C9DB362 
 364      F4423128 
 364      EB09658D 
 364      F3BB
 365 00ec 3887090E 		.ascii	"8\207\011\016\223\034\022\034\222\034hhP\263\355\335"
 365      931C121C 
 365      921C6868 
 365      50B3EDDD 
 366 00fc 29606134 		.ascii	")`a4R\024\331\214\013(xV>\302v\363\027y\220\306\247"
 366      5214D98C 
 366      0B287856 
 366      3EC276F3 
 366      177990C6 
 367 0111 A88189CA 		.ascii	"\250\201\211\312\014\234\246\203\036\300}R\257\231("
 367      0C9CA683 
 367      1EC07D52 
 367      AF9928
 368 0120 B88B80AB 		.ascii	"\270\213\200\253=\203\235.\010\272\322\001\324\031x"
 368      3D839D2E 
 368      08BAD201 
 368      D41978
 369 012f 6E1B1606 		.ascii	"n\033\026\006=$D%\030Q\332\010\366\220\037\335C\002"
 369      3D244425 
 369      1851DA08 
 369      F6901FDD 
 369      4302
 370 0141 264DB4F5 		.ascii	"&M\264\365v\311\333\341\0225\202Nx5\302T\225k\004\333"
 370      76C9DBE1 
 370      1235824E 
 370      7835C254 
 370      956B04DB 
 371 0155 35BC8B36 		.ascii	"5\274\2136Y\0061\037v^\217\215\204)m,\344\236\336|\326"
 371      5906311F 
 371      765E8F8D 
 371      84296D2C 
 371      E49EDE7C 
 372 016a C14C0CBB 		.ascii	"\301L\014\273MF\374\233T\273\212o\277\351*\216\020\304"
ARM GAS  /tmp/ccYbVqKw.s 			page 29


 372      4D46FC9B 
 372      54BB8A6F 
 372      BFE92A8E 
 372      10C4
 373 017c 496087E0 		.ascii	"I`\207\340?\224km\011\021O\302QOBt\220\317\001\037\237"
 373      3F946B6D 
 373      09114FC2 
 373      514F4274 
 373      90CF011F 
 374 0191 F5633E47 		.ascii	"\365c>G\207\372l\230\030\033\254V\367\363\331h\373|"
 374      87FA6C98 
 374      181BAC56 
 374      F7F3D968 
 374      FB7C
 375 01a3 F04F9FF5 		.ascii	"\360O\237\365A>\037t\233\034\037\344s\320\317\3478A"
 375      413E1F74 
 375      9B1C1FE4 
 375      73D0CFE7 
 375      3841
 376 01b5 A3F9ACFB 		.ascii	"\243\371\254\373\371\034w\231\346QO\302\204KV\215!W"
 376      F91C7799 
 376      E6514FC2 
 376      844B568D 
 376      2157
 377 01c7 D4276392 		.ascii	"\324'c\222@W\006\036W1\264\026\341\236\214\235\303\256"
 377      4057061E 
 377      5731B416 
 377      E19E8C9D 
 377      C3AE
 378 01d9 8C840FEA 		.ascii	"\214\204\017\352\323A\237\214$\201\243\311\360u#\011"
 378      D3419F8C 
 378      2481A3C9 
 378      F0752309 
 379 01e9 F019AAAD 		.ascii	"\360\031\252\255\257/U\217\353\214\024}-\364\337\347"
 379      AF2F558F 
 379      EB8C147D 
 379      2DF4DFE7 
 380 01f9 EB5E90F9 		.ascii	"\353^\220\371\342\332\252\314\026s\267dnuSf\363V\306"
 380      E2DAAACC 
 380      1673B764 
 380      6E755366 
 380      F356C6
 381 020c 2A9665A5 		.ascii	"*\226e\245\264q\343\272\244\207|\272 \327\213\245JY"
 381      B471E3BA 
 381      A4877CBA 
 381      20D78BA5 
 381      4A59
 382 021e AEA4CECE 		.ascii	"\256\244\316\316\317\311\345\345\005\271r~i\363\214"
 382      CFC9E5E5 
 382      05B9727E 
 382      69F38C
 383 022d 2CAF5B57 		.ascii	",\257[W\013\205\334l\026\202\245\233\231\215k\263s\301"
 383      0B85DC6C 
 383      1682A59B 
 383      998D6BB3 
 383      73C1
 384 023f 8A3BCFFF 		.ascii	"\212;\317\377\001\333\314\024\030"
ARM GAS  /tmp/ccYbVqKw.s 			page 30


 384      01DBCC14 
 384      18
 385              		.text
 386              		.section	.gnu.lto_spi_lld_send.51ec3df8cc403039,"",%progbits
 387 0000 789C8D94 		.ascii	"x\234\215\224\317k\023A\024\307\337\233\335\355f\315"
 387      CF6B1341 
 387      14C7DF9B 
 387      DDED66CD 
 388 0010 36B6A1A5 		.ascii	"6\266\241\245\321S\351\321B\006\177\375\007\005)TP\032"
 388      D153E9D1 
 388      42067FFD 
 388      07052954 
 388      501A
 389 0022 A17A91FC 		.ascii	"\241z\221\374\250\311b\326\224\374(-\036\272\321\034"
 389      A8C962D6 
 389      94FC282D 
 389      1EBAD11C 
 390 0032 3C7828A5 		.ascii	"<x(\245\007\177\0344\210\027/\036<yj\024\225\200V\360"
 390      077F1C34 
 390      88172F1E 
 390      3C796A14 
 390      958056F0 
 391 0046 2639850A 		.ascii	"&9\205\012\322\223\010\336DX\337\354n6\230\256\331\014"
 391      D29308DE 
 391      4458DFEC 
 391      6E3698AE 
 391      D90C
 392 0058 E4CD66E6 		.ascii	"\344\315f\346}\336\373\316w6a\300`p\234\240\317/\031"
 392      7DDEFBCE 
 392      773661C0 
 392      60709CA0 
 392      CF2F19
 393 006b 60856694 		.ascii	"`\205f\224\000\331\366g\200z\204!\212\007@\330b\270"
 393      00D9F667 
 393      807A8421 
 393      8A0740D8 
 393      62B8
 394 007d 7515452A 		.ascii	"u\025E*\233\203\246e\355t\337\357\335\227\036\356\266"
 394      9B83A665 
 394      ED74DFEF 
 394      DD971EEE 
 394      B6
 395 008e 1A4FAD3F 		.ascii	"\032O\255?\266\215h \225\275\200\220EX\241/8\353LL\376"
 395      B68D6820 
 395      95BD8090 
 395      4558A12F 
 395      38EB4C4C 
 396 00a3 B78FCBB6 		.ascii	"\267\217\313\266v\277\267\233h\355X\365\237\266}\334"
 396      76BFB79B 
 396      68ED58F5 
 396      9FB67DDC 
 397 00b3 212F8791 		.ascii	"!/\207\221/Y\253k\333\237\236|x\367\006\037\274\222"
 397      2F59AB6B 
 397      DB9F9E7C 
 397      78F7061F 
 397      BC92
 398 00c5 4F323411 		.ascii	"O24\021$0P\222)\310\012\244\261\211s\240\3222j\264\002"
ARM GAS  /tmp/ccYbVqKw.s 			page 31


 398      24305092 
 398      29C80AA4 
 398      B18973A0 
 398      D2326AB4 
 399 00da 51B1A78B 		.ascii	"Q\261\247\213\275qZc1JxF\011\223b/.\302\224\010\323"
 399      BD715A63 
 399      314A7846 
 399      0993622F 
 399      2EC29408 
 400 00ef 22CC8890 		.ascii	"\"\314\210\220\020\201\206\002\015\313\332\236\005\241"
 400      10818602 
 400      0DCBDA9E 
 400      05A1
 401 00fd 87468AA2 		.ascii	"\207F\212\242\360\340\01221K\373p\247\363\225\216\236"
 401      F0E00A32 
 401      314BFB70 
 401      A7F3958E 
 401      9E
 402 010e C6E7A840 		.ascii	"\306\347\250@\036\245y8E\215\036\303#\022\255\344\221"
 402      1EA57938 
 402      458D1EC3 
 402      2312ADE4 
 402      91
 403 011f 09F1638E 		.ascii	"\011\361c\216\344\014\366\304\023t\255\007\310\363\360"
 403      E40CF6C4 
 403      1374AD07 
 403      C8F3F0
 404 012e C29A3050 		.ascii	"\302\2320Pu\221\010\225\020\210\344!\330G~\370M\224"
 404      75910895 
 404      1088E421 
 404      D8477EF8 
 404      4D94
 405 0140 DBF0DB8A 		.ascii	"\333\360\333\212\030\250\231^\336>\274]t7E\265\006\361"
 405      18A8995E 
 405      DE3EBC5D 
 405      743745B5 
 405      06F1
 406 0152 C7DC7251 		.ascii	"\307\334rQj \312\251^9\367\252\251\202\303|<\334\323"
 406      6A20CAA9 
 406      5E39F7AA 
 406      A982C37C 
 406      3CDCD3
 407 0165 47C2240F 		.ascii	"G\302$\017S\035!\235{\007zO\212\346\234W\017>\257\354"
 407      531D219D 
 407      7B077A4F 
 407      8AE69C57 
 407      0F3EAFEC 
 408 0179 8B1F519E 		.ascii	"\213\037Q\236\342\365\321\334>\355~\237\3500_\307\002"
 408      E2F5D1DC 
 408      3EED7E9F 
 408      E8305FC7 
 408      02
 409 018a 7CD58FF8 		.ascii	"|\325\217\370\032\015\3655\226\307\361\341j\365 3c\236"
 409      1A0DF535 
 409      96C7F1E1 
 409      6AF52033 
 409      639E
ARM GAS  /tmp/ccYbVqKw.s 			page 32


 410 019c 9907FF35 		.ascii	"\231\007\3775S\037f\3467\377\220\223\303\314T}\305w"
 410      531F66E6 
 410      37FF9093 
 410      C3CC547D 
 410      C577
 411 01ae 5FFB8AE3 		.ascii	"_\373\212\343\004\211$\260\"!>\353A>\307\035\246\323"
 411      048924B0 
 411      22213EEB 
 411      413EC71D 
 411      A6D3
 412 01c0 EE4B9872 		.ascii	"\356K\230r\310\372D\310\025\015\310\230&\320\221\201"
 412      C8FA44C8 
 412      150DC898 
 412      26D09181 
 413 01d0 475584D6 		.ascii	"GU\204\326\"\334\225q\330\2271\023\200\006\234`@F\202"
 413      22DC9571 
 413      D8973113 
 413      80069C60 
 413      404682
 414 01e3 C0D16404 		.ascii	"\300\321d\004\272\221\000\370\002\365.\375\235\270\\"
 414      BA9100F8 
 414      02F52EFD 
 414      9DB85C
 415 01f2 6FA4E86D 		.ascii	"o\244\350m\241\337\272\270\356\005^(\231\253<[\312m"
 415      A1DFBAB8 
 415      EE055E28 
 415      99AB3C5B 
 415      CA6D
 416 0204 F2DCEA3A 		.ascii	"\362\334\352:\317\026\214\214Q\252\360j\271v\353&\247"
 416      CF168C8C 
 416      51AAF06A 
 416      B976EB26 
 416      A7
 417 0215 8742BAC8 		.ascii	"\207B\272\310\327J\345j\205/\247.\236=\303\227\226\026"
 417      D74AE56A 
 417      852FA72E 
 417      9E3DC397 
 417      9616
 418 0227 F8F2A5C5 		.ascii	"\370\362\245\305\365\323\274\262f\\/\026s\311,h\271"
 418      F5D3BCB2 
 418      665C2F16 
 418      73C92C68 
 418      B9
 419 0238 9A696E96 		.ascii	"\232in\2267\222\347\324\352F\246v#y\376/O\251\024\021"
 419      3792E7D4 
 419      EA46A676 
 419      2379FE2F 
 419      4FA91411 
 420              		.text
 421              		.section	.gnu.lto_spi_lld_receive.51ec3df8cc403039,"",%progbits
 422 0000 789C9593 		.ascii	"x\234\225\223\317k\023A\024\307\337\233\335M\266I\223"
 422      CF6B1341 
 422      14C7DF9B 
 422      DD4DB649 
 422      93
 423 0011 94D0D2E8 		.ascii	"\224\320\322\350\251\324\233\205\014*\350?P\220BE\241"
 423      A9D49B85 
ARM GAS  /tmp/ccYbVqKw.s 			page 33


 423      0C2AE83F 
 423      50904245 
 423      A1
 424 0022 11AA17C9 		.ascii	"\021\252\027\311\217\272Y\314\232\222\037\245\305C7"
 424      8FBA59CC 
 424      9A921FA5 
 424      C54337
 425 0031 1A3C7928 		.ascii	"\032<y(\305\213?\016\006)\024/\036DP\020\014\236\002"
 425      C58B3F0E 
 425      0629142F 
 425      1E445010 
 425      0C9E02
 426 0044 45C16B4E 		.ascii	"E\301kN9\211\247Tz,\205\365\315\356fC\3235\211\003\373"
 426      3989A754 
 426      7A2C85F5 
 426      CDEE6643 
 426      D3358903 
 427 0059 6667789F 		.ascii	"fgx\2377\337\367\235]\006\014\006\3079z\216d\200U\232"
 427      37DFF79D 
 427      5D060C06 
 427      C7397A8E 
 427      6480559A 
 428 006d 5102643B 		.ascii	"Q\002d;?\000j*C\024/\200\260\315p\373\016\212T6\017"
 428      3F006A2A 
 428      43142F80 
 428      B0CD70FB 
 428      0E8A5436 
 429 0082 0DD3DCED 		.ascii	"\015\323\334\355\354u\237I/\2367\353o\314\023\313B\324"
 429      EC759F49 
 429      2F9E37EB 
 429      6FCC13CB 
 429      42D4
 430 0094 91CA5E47 		.ascii	"\221\312^G\310\"\254\322\002\347\354\211\311\247\317"
 430      C822ACD2 
 430      02E7EC89 
 430      C9A7CF
 431 00a3 71D8E6F1 		.ascii	"q\330\346\361\257V\003\315]\263\366\307\262b6ys\024"
 431      AF5603CD 
 431      5DB3F6C7 
 431      B2623679 
 431      7314
 432 00b5 F99E353B 		.ascii	"\371\2365;\226u\362\361\351\327/\370\372\302y\206\006"
 432      9675F2F1 
 432      E9D72FF8 
 432      FAC27986 
 432      06
 433 00c6 82043A4A 		.ascii	"\202\004:J2\005Y\241%\006 \215\015\234\007\225\026,"
 433      320559A1 
 433      2506208D 
 433      0D9C0795 
 433      162C
 434 00d8 44DB1016 		.ascii	"D\333\020\026!\"\262\242\"+F\011o)!.\266\247E\230\021"
 434      2122B2A2 
 434      222B4609 
 434      6F29212E 
 434      B6A74598 
 435 00ed 61568484 		.ascii	"aV\204\204\0104\024\250\233\346\316\034\01094R\024\205"
ARM GAS  /tmp/ccYbVqKw.s 			page 34


 435      083414A8 
 435      9BE6CE1C 
 435      08393452 
 435      1485
 436 00ff 05B79189 		.ascii	"\005\267\221\211Y\372\016\217\333\237\250\3634\356\241"
 436      59FA0E8F 
 436      DB9FA8F3 
 436      34EEA1
 437 010e 021A4A0B 		.ascii	"\002\032J\013p\221\312\277\202\227\244Y\321\220\011"
 437      7091CABF 
 437      8297A459 
 437      D19009
 438 011d ED015B71 		.ascii	"\355\001[q\006{\332\011\272\333\003\344\005xgN\351\030"
 438      067BDA09 
 438      BADB03E4 
 438      0578674E 
 438      E918
 439 012f 7410954A 		.ascii	"t\020\225J\010Dr\021\354#]\357\220\200F\023m}[rvD\211"
 439      08447211 
 439      EC235DEF 
 439      90804613 
 439      6D7D5B72 
 440 0146 3A41134E 		.ascii	":A\023N\215\020U\0255\202n\015\347z5!\203\230\203Vw"
 440      8D105515 
 440      35826E0D 
 440      E77A3521 
 440      83988356 
 441 015b 722C4C72 		.ascii	"r,Lr1\325>\275\375\273\207i\030\262\233\014\3737){\212"
 441      31D53EBD 
 441      FDBB8769 
 441      18B29B0C 
 441      FB37297B 
 442 0170 9F7CF614 		.ascii	"\237|\366\024\207\011\022I`\252\360\037\312\025WB\330"
 442      87091249 
 442      60AAF01F 
 442      CA155742 
 442      D8
 443 0181 91B07FE8 		.ascii	"\221\260\177\350I\210\014\3639\340\343s\364\214\317"
 443      49880CF3 
 443      39E0E373 
 443      F48CCF
 444 0190 91913EC7 		.ascii	"\221\221>\307\036\301\261\251\3528i\270y\303\204G\375"
 444      1EC1B1A9 
 444      EA3869B8 
 444      79C38447 
 444      FD
 445 01a1 2C8FB996 		.ascii	",\217\271\226\037\376\323\362\3500\313\373\375\306\207"
 445      1FFED3F2 
 445      E830CBFB 
 445      FDC687
 446 01b0 591EF4C4 		.ascii	"Y\036\364\304\217)\257\347k\334f\332\373G\3369\3236"
 446      8F29AFE7 
 446      6BDC66DA 
 446      FB47DE39 
 446      D336
 447 01c2 599B1A71 		.ascii	"Y\233\032q%\003\327;C\240}\275xV\305\310Z\204;2Z}\031"
 447      2503D73B 
ARM GAS  /tmp/ccYbVqKw.s 			page 35


 447      43A07DBD 
 447      7856C5C8 
 447      5A843B32 
 448 01d9 B33EA84F 		.ascii	"\263>\250O\007\0032\022\004\216'\303\327\215\004\300"
 448      07033212 
 448      048E27C3 
 448      D78D04C0 
 449 01e9 4FA8750E 		.ascii	"O\250u\016>\310\016\327\033)\372:\350_\027w\272\310"
 449      3EC80ED7 
 449      1B29FA3A 
 449      E85F1777 
 449      BAC8
 450 01fb F345638D 		.ascii	"\363Ec\215g\213\271-\236[\333\340\331\274\236\321\213"
 450      678BB92D 
 450      9E5BDBE0 
 450      D9BC9ED1 
 450      8B
 451 020c 655E2955 		.ascii	"e^)U\037>\340\364\222O\027\370z\261T)\363\225\324\215"
 451      1F3EE0F4 
 451      924F17F8 
 451      7AB15429 
 451      F395D48D 
 452 0220 2B97F9F2 		.ascii	"+\227\371\362\362\"_\271\265\264q\211\227\327\365{\205"
 452      F2225FB9 
 452      B5B47189 
 452      97D7F57B 
 452      85
 453 0231 422E9985 		.ascii	"B.\231\205`i3S\275\237\274:\221\253\032\306Ve3y\355"
 453      60693353 
 453      BD9FBC3A 
 453      91AB1AC6 
 453      56653379 
 454 0246 2F84C714 		.ascii	"/\204\307\024\277"
 454      BF
 455              		.text
 456              		.section	.gnu.lto_spi_lld_polled_exchange.51ec3df8cc403039,"",%progbits
 457 0000 789C8591 		.ascii	"x\234\205\221\317K\002A\024\307\337\233\331m\325\242"
 457      CF4B0241 
 457      14C7DF9B 
 457      D96DD5A2 
 458 0010 73C7CE19 		.ascii	"s\307\316\031\015\345)\350\022\210 \030\004*\324)\374"
 458      0DE529E8 
 458      12882018 
 458      042AD429 
 458      FC
 459 0021 852E692B 		.ascii	"\205.i+jB'W\335\243\007\217Q\247.\035:\324\037\020A"
 459      6A422757 
 459      DDA3078F 
 459      51A72E1D 
 459      3AD41F10 
 460 0036 48501783 		.ascii	"HP\027\203\242\203x\352\224\207\240sd`ov\333%\202ha"
 460      A28378EA 
 460      9487A073 
 460      64606F76 
 460      DB258268 
 461 004b DE7BBC99 		.ascii	"\336{\274\231\357\347}g\207\001\203\337\337\032\255"
 461      EFE77D67 
ARM GAS  /tmp/ccYbVqKw.s 			page 36


 461      870183DF 
 461      DF1AAD
 462 005a 27048850 		.ascii	"'\004\210P\306)@\326\275\007h\372\030r\247\340L\355"
 462      C62940D6 
 462      BD0768FA 
 462      1872A7E0 
 462      4CED
 463 006c DC029801 		.ascii	"\334\002\230\001\305\322\300\234Q\235\376\272\202(3"
 463      C5D2C09C 
 463      519DFEBA 
 463      822833
 464 007b 20341857 		.ascii	" 4\030W\025ll\243\215\273`\327\317\223\311\371\343h"
 464      156C6CA3 
 464      8DBB60D7 
 464      CF93C9F9 
 464      E368
 465 008d 30F77915 		.ascii	"0\367y\025\231fXB\340\240#(T\241J\025j2\370d\360\313"
 465      99665842 
 465      E0A02328 
 465      54A14A15 
 465      6A32F864 
 466 00a3 10A0206D 		.ascii	"\020\240 m\251`\231fw\036 c\223\022\024ib\222\366,\215"
 466      A9609966 
 466      771E2063 
 466      93121469 
 466      6292F62C 
 467 00b8 F7A1357C 		.ascii	"\367\2415|\377\350h)<!H\036y\020\026\010z\014G\250#"
 467      FFE86829 
 467      3C21481E 
 467      79101608 
 467      7A0C47A8 
 468 00cd CF23DBA2 		.ascii	"\317#\333\242\254\330\016\322\350^\215Do\355St5j^\236"
 468      ACD80ED2 
 468      E85E8D44 
 468      6FED5374 
 468      356A5E9E 
 469 00e1 E8432FEA 		.ascii	"\350C/\352t\202pfZMsUG\325\341L\021Wr\340\233\343\024"
 469      74827066 
 469      5A4D7355 
 469      47D5E14C 
 469      115772E0 
 470 00f8 24741A49 		.ascii	"$t\032I\344@w&/\275\341\341\270\263\350r5\033\204\177"
 470      E4407726 
 470      2FBDE1E1 
 470      B8B3E872 
 470      351B847F 
 471 010c 629867A7 		.ascii	"b\230g\247}\331~\361\354\370H)\217\331c\356\340f\324"
 471      7DD97EF1 
 471      ECF84829 
 471      8FD963EE 
 471      E066D4
 472 011f 0C795B76 		.ascii	"\014y[v\377\347+%\250O\317\200I\272\202\375;z\303\301"
 472      FFE72B25 
 472      A84FCF80 
 472      49BA82FD 
 472      3B7AC3C1 
 473 0133 B8137405 		.ascii	"\270\023t\005\376\177,\240g\241\365\332\236uU\001\022"
ARM GAS  /tmp/ccYbVqKw.s 			page 37


 473      FE7F2CA0 
 473      67A1F5DA 
 473      9E755501 
 473      12
 474 0144 023C8067 		.ascii	"\002<\200g)\340\016C\032\"m\207E\301(\345D\306\310\036"
 474      29E00E43 
 474      1A226D87 
 474      45C128E5 
 474      44C6C81E 
 475 0158 886CAE2E 		.ascii	"\210l\256.2\005=\255\033UQ\253\354\357\355\012*\012"
 475      32053DAD 
 475      1B5551AB 
 475      ECEFED0A 
 475      2A0A
 476 016a A9A2281B 		.ascii	"\251\242(\033\225ZU\304\023\033\241\025\021\213\205"
 476      955A55C4 
 476      131BA115 
 476      118B85
 477 0179 457C335A 		.ascii	"E|3Z_\026\325\262\276S,f\2272\360\005\005\337~\311"
 477      5F16D5B2 
 477      BE532C66 
 477      9732F005 
 477      05DF7EC9 
 478              		.text
 479              		.section	.gnu.lto_.symbol_nodes.51ec3df8cc403039,"",%progbits
 480 0000 789C4DCC 		.ascii	"x\234M\314\273.Da\024\305\361\265\327>\2379\3563.\215"
 480      BB2E4461 
 480      14C5F1B5 
 480      D73E9F39 
 480      EE332E8D 
 481 0014 48743A9D 		.ascii	"Ht:\235\027\362\006\336`\035\316\340\214\353\004\241"
 481      17F206DE 
 481      601DCEE0 
 481      8CEB04A1 
 482 0024 41A3A1D7 		.ascii	"A\243\241\327j\234dt\012O\340\001tZ\301a&\276o7\377"
 482      6A9C6474 
 482      0A4FE001 
 482      745AC161 
 482      26BE6F37 
 483 0039 FC92954D 		.ascii	"\374\222\225M\020\233\206\341\261\244\200\376\013 ]"
 483      109B86E1 
 483      B1A480FE 
 483      0B205D
 484 0048 F536B84D 		.ascii	"\3656\270MY\302K\212#^W\306.\345#\336T\026\012Z&\017"
 484      59C24B8A 
 484      235E57C6 
 484      2EE523DE 
 484      54160A5A 
 485 005e DF862084 		.ascii	"\337\206 \204\023\022\002w\250,n\270K\205\204{\324X"
 485      13120277 
 485      A82C6EB8 
 485      4B85847B 
 485      D458
 486 0070 C28A6A25 		.ascii	"\302\212j%\354Qy\362\177\213\336\374\347>5\236\214\016"
 486      EC5179F2 
 486      7F8BDEFC 
 486      E73E359E 
ARM GAS  /tmp/ccYbVqKw.s 			page 38


 486      8C0E
 487 0082 A8898487 		.ascii	"\250\211\204\207\324d\302#j*\322N\251\351!\213\302\354"
 487      D464C223 
 487      6A2AD24E 
 487      A9E9218B 
 487      C2EC
 488 0094 8C9A893A 		.ascii	"\214\232\211:\246f\243\372T;\352\234\352\374\313\321"
 488      A666A3FA 
 488      543BEA9C 
 488      EAFCCBD1 
 489 00a4 41FDB0EE 		.ascii	"A\375\260\356\326\344n\325m\016\365\305\373Jf\370x\375"
 489      D6E46ED5 
 489      6D0EF5C5 
 489      FB4A66F8 
 489      78FD
 490 00b6 5C729FC7 		.ascii	"\\r\237\307\355\333\227yk\001\345\375_\352&\371\"\352"
 490      EDDB9779 
 490      6B01E5FD 
 490      5FEA26F9 
 490      22EA
 491 00c8 C7E5DF94 		.ascii	"\307\345\337\224\203g\367\234x\032\254\341\007\355#"
 491      8367F79C 
 491      781AACE1 
 491      07ED23
 492 00d7 6962     		.ascii	"ib"
 493              		.text
 494              		.section	.gnu.lto_.refs.51ec3df8cc403039,"",%progbits
 495 0000 789C2585 		.ascii	"x\234%\205\001\012\300 \014\304\356\322V7\224\355)\376"
 495      010AC020 
 495      0CC4EED2 
 495      563794ED 
 495      29FE
 496 0012 FF770A26 		.ascii	"\377w\012&\204 \264ty\303I\371H\273\271\242S\030\371"
 496      8420B474 
 496      79C349F9 
 496      48BBB9A2 
 496      5318F9
 497 0025 391F4CD2 		.ascii	"9\037L\322\037\323?\251\015\033\211\000\364"
 497      1FD33FA9 
 497      0D1B8900 
 497      F4
 498              		.text
 499              		.section	.gnu.lto_.decls.51ec3df8cc403039,"",%progbits
 500 0000 789CBD5C 		.ascii	"x\234\275\\\013t\024E\272\356\356\231\311\203\304\200"
 500      0B741445 
 500      BAEEEE99 
 500      C983C480 
 501 0010 B8EBE2AE 		.ascii	"\270\353\342\256\347\220}]\271\353J^\254\342\356^!&"
 501      E7907D5D 
 501      B9EB4A5E 
 501      ACE2EE5E 
 501      2126
 502 0022 51B81724 		.ascii	"Q\270\027$g\022\327\335{\316\335\261I\006\2225\257\235"
 502      6712D7DD 
 502      7BCEDDB1 
 502      49069235 
 502      AF9D
ARM GAS  /tmp/ccYbVqKw.s 			page 39


 503 0034 9960BCE7 		.ascii	"\231`\274\347\236\263M\202\201\005\305\360~\207`\004"
 503      9EB34D82 
 503      8105C5F0 
 503      7E876004 
 504 0044 54449087 		.ascii	"TD\220\207\010\212\014*\257d\015\001\224\360\022\002"
 504      088A0C2A 
 504      AF640D01 
 504      94F01202 
 505 0054 A820A8E1 		.ascii	"\250 \250\341M\226\000\271\177\375]=S]\351\236\351\316"
 505      4D9600B9 
 505      7FFD5D3D 
 505      535DE99E 
 505      E9CE
 506 0066 BA3BE754 		.ascii	"\272;\347TuOw\325W\337\377\250\277\252\253zF\022$!5"
 506      754F77D5 
 506      57DFFFA8 
 506      BFAAAB7A 
 506      46122421 
 507 007b 5610BAE1 		.ascii	"V\020\272\341s\337\037\005a_\037AH\022\004\341\021H"
 507      73DF1F05 
 507      615F1F41 
 507      481204E1 
 507      1148
 508 008d 70595806 		.ascii	"pYX\006\351eH+!\275\005)\010\351$\244\004I\300O\177"
 508      E965482B 
 508      21BD0529 
 508      08E924A4 
 508      0449C04F 
 509 00a2 487DE1FC 		.ascii	"H}\341\374nH?\2024\020\322O!\335\007\351~H)\2202 \015"
 509      6E483F82 
 509      3410D24F 
 509      21DD07E9 
 509      7E482990 
 510 00b9 83341AD2 		.ascii	"\2034\032\322S\220dH\177\202T\006)\000i\002\244\311"
 510      53906448 
 510      7F825406 
 510      29006902 
 510      A4C9
 511 00cb 909C8035 		.ascii	"\220\234\2005\015\216/Bz\011\322l\332\206\366!\355\270"
 511      0D8E2F42 
 511      7A09D26C 
 511      DA86F621 
 511      EDB8
 512 00dd 28AFB952 		.ascii	"(\257\271R\230\3333\264\234\203\226\231G\361E\370~\027"
 512      98DB33B4 
 512      9C839699 
 512      47F145F8 
 512      7E17
 513 00ef 874178FE 		.ascii	"\207Ax\376\204b\264C\2013\220\272D\265,i\177\017\244"
 513      8462B443 
 513      813390BA 
 513      44B52C69 
 513      7F0FA4
 514 0102 4F216D80 		.ascii	"O!m\200\364g\251g;\333\251\016\026\303\371I\250t\002"
 514      F467A967 
 514      3BDBA90E 
 514      16C3F949 
ARM GAS  /tmp/ccYbVqKw.s 			page 40


 514      A87402
 515 0115 CECFC271 		.ascii	"\316\317\302q\011|\257\207\264\024R\023\\k\220T}\355"
 515      097CAF87 
 515      B4145213 
 515      5C6B9054 
 515      7DED
 516 0127 233A9454 		.ascii	"#:\224T\2355\302\361\036(\273\\R\365Y\016GP\267\340"
 516      9D35C2F1 
 516      1E28BB5C 
 516      52F5590E 
 516      4750B7E0 
 517 013b 82E39770 		.ascii	"\202\343\227p\375\033H7 \335\"\270\220v\303\275\275"
 517      FD1B4837 
 517      20DD22B8 
 517      9076C3BD 
 517      BD
 518 014c 9076421A 		.ascii	"\220vB\032 \252\262\337\315\310\267\202\352\220\210"
 518      20AAB2DF 
 518      CDC8B782 
 518      EA9088
 519 015b 780F6403 		.ascii	"x\017d\0038Y\211=b)_b\323D*7\341\274\032\356}Ku\324"
 519      3859893D 
 519      62295F62 
 519      D3442A37 
 519      E1BC1AEE 
 520 0173 4A8F3FE2 		.ascii	"J\217?\342\352\223\017\261'\251\327\005\251CRu\023\244"
 520      EA930FB1 
 520      27A9D705 
 520      A9435275 
 520      13A4
 521 0185 72ED1455 		.ascii	"r\355\024U}\020=\022]8\251o\2206\010\327\035T\016\""
 521      7D103D12 
 521      5D38A96F 
 521      903608D7 
 521      1D540E22 
 522 0199 5F2CA478 		.ascii	"_,\244x\312u \265;\261\027\261\3654jo\366C|h\000\265"
 522      CA7520B5 
 522      3BB117B1 
 522      F5346A6F 
 522      F6437C68 
 523 01af 03C12798 		.ascii	"\003\301'\230\304V;\251\275\366P{\023\035k6\271 \205"
 523      C4563BA9 
 523      BDF6507B 
 523      131D6B36 
 523      B92085
 524 01c2 7DF35949 		.ascii	"}\363YI/\247f\257]\242j\257\213\324NIT\277\032\317V"
 524      2FA766AF 
 524      5DA26AAF 
 524      8BD44E49 
 524      54BF1ACF 
 525 01d7 6A0BC27D 		.ascii	"j\013\302}?)G\355\360=1,\303\337\340\274\205\312\373"
 525      3F2947ED 
 525      F03D312C 
 525      C3DFE0BC 
 525      85CAFB
 526 01ea 53EABFC4 		.ascii	"S\352\277\304.}\251|?\2472\261\237\373\250\0367P\275"
 526      2E7DA97C 
ARM GAS  /tmp/ccYbVqKw.s 			page 41


 526      3FA732B1 
 526      9FFBA81E 
 526      3750BD
 527 01fd 119958EE 		.ascii	"\021\231X\356\204+\341v\011\312M\201t\031\322\275\220"
 527      842BE176 
 527      09CA4D81 
 527      7419D2BD 
 527      90
 528 020e 62283FC2 		.ascii	"b(?\302GkW\343\352\240\270\223i\337#M\376\273A\333\244"
 528      476B57E3 
 528      EAA0B893 
 528      69DF234D 
 528      FEBB41DB 
 529 0223 1F123989 		.ascii	"\037\0229\211\316\372\211j='\323\366\025\252\013\242"
 529      CEFA896A 
 529      3D27D3F6 
 529      15AA0BA2 
 530 0233 93AB90AE 		.ascii	"\223\253\220\256A\272\004\337\017C\272N9\020\035\264"
 530      41BA04DF 
 530      0F43BA4E 
 530      39101DB4 
 531 0243 41EA4F74 		.ascii	"A\352OtB\256C\222h\277\271\237\372\317\003\\\273)\377"
 531      42AE4392 
 531      68BFB99F 
 531      FACF035C 
 531      BB29FF
 532 0256 A4766F08 		.ascii	"\244vo\010j{)\264\3354\256]\022o\356\240~\250\371\275"
 532      6A7B29B4 
 532      DD34AE5D 
 532      126FEEA0 
 532      7EA8F9BD 
 533 026a D6D7F9FE 		.ascii	"\326\327\371\376\333!\205\3730\361\2358\352\013\304"
 533      DB2185FB 
 533      30F19D38 
 533      EA0BC4
 534 0279 072E93FB 		.ascii	"\007.\223\373\324\356\337P\235\307\32363h\274\372\015"
 534      D4EEDF50 
 534      9DC7D336 
 534      3368BCFA 
 534      0D
 535 028a 1C7F4B63 		.ascii	"\034\177Kc\325\213\034\217aR\270\317E\343\321\033\016"
 535      D58B1C8F 
 535      6152B8CF 
 535      45E3D11B 
 535      0E
 536 029b C32887C7 		.ascii	"\303(\207\307\340\370\237\220\036\2074\202\3430\372"
 536      E0F89F90 
 536      1E873482 
 536      E330FA
 537 02aa 5FA08BD1 		.ascii	"_\240\213\321\224G\036\034\363!=i\020\273\237\262\301"
 537      94471E1C 
 537      F3213D69 
 537      10BB9FB2 
 537      C1
 538 02bb 83E54038 		.ascii	"\203\345@8Y\345\361\024\345\361?p\364@\372\243\201M"
 538      59E5F114 
 538      E5F13F70 
ARM GAS  /tmp/ccYbVqKw.s 			page 42


 538      F440FAA3 
 538      814D
 539 02cd 641A1377 		.ascii	"d\032\023w\322\230\322%\364\354\203\304O\265\376\337"
 539      D298D225 
 539      F4EC83C4 
 539      4FB5FEDF 
 540 02dd 4A7D5CA6 		.ascii	"J}\\\246\375k\034d\3439\314\004a\252\242T+\015\265\312"
 540      FD6B1C64 
 540      E339CC04 
 540      61AAA254 
 540      2B0DB5CA 
 541 02f1 88DD4977 		.ascii	"\210\335Iw\012u\012|\222\347'\305\013S\310\345\366\345"
 541      0A750A7C 
 541      92E727C5 
 541      0B53C8E5 
 541      F6E5
 542 0303 CA008864 		.ascii	"\312\000\210d\277\027e\021.\305\341Ib<\202\376\\x\005"
 542      BF176511 
 542      2EC5E149 
 542      623C82FE 
 542      5C7805
 543 0316 8A427949 		.ascii	"\212ByI\026\033\305xh\200t)\243\217z\237|Hu\365\\;\353"
 543      161BC578 
 543      68807429 
 543      A38F7A9F 
 543      7C4875F5 
 544 032d 1643E84F 		.ascii	"\026C\350Ok\350\211\264\326\313\342\235x\206\\\024J"
 544      6BE889B4 
 544      D6CBE29D 
 544      78865C14 
 544      4A
 545 033e 114BD01A 		.ascii	"\021K\320\032\311Z\015'\255\261\202i'1>|\222@\231\230"
 545      C95A0D27 
 545      ADB18269 
 545      27313E7C 
 545      92409998 
 546 0352 D55B266A 		.ascii	"\325[&j%\364\215\031\327@\311\353\332\367\2369\353P"
 546      25F48D19 
 546      D740C9EB 
 546      DAF79E39 
 546      EB50
 547 0364 9438595C 		.ascii	"\2248Y\\\211\322\347\212\302/\204\327T\225|p\277\221"
 547      89D2E78A 
 547      C22F84D7 
 547      54957C70 
 547      BF91
 548 0376 2AAC4377 		.ascii	"*\254Cw\355\374\350-\261ZQ\340\306*\004\257\026E\240"
 548      EDFCE82D 
 548      B15A51E0 
 548      C62A04AF 
 548      1645A0
 549 0389 F9BAF80B 		.ascii	"\371\272\370\013\333P\033\2336\015E\226o\"\3206\016"
 549      DB501B9B 
 549      360D4596 
 549      6F22D036 
 549      0E
 550 039a 481663E2 		.ascii	"H\026c\342\365\266\202\357Z\001\202\006_IK\235d\216"
ARM GAS  /tmp/ccYbVqKw.s 			page 43


 550      F5B682EF 
 550      5A018206 
 550      5F494B9D 
 550      648E
 551 03ac 25FE855E 		.ascii	"%\376\205^!_b\205\177y\275X\241\026\235\362\371\352"
 551      215F6285 
 551      7F79BD58 
 551      A1169DF2 
 551      F9EA
 552 03be 01F39322 		.ascii	"\001\363\223\"xe]\373\372\351\237\244\241\324o\211\261"
 552      78655DFB 
 552      FAE99FA4 
 552      A1D46F89 
 552      B1
 553 03cf 20F54D4E 		.ascii	" \365MNj\013@\204\332\006\250\254VS\235=\270\261\266"
 553      6A0B4084 
 553      DA06A8AC 
 553      56539D3D 
 553      B8B1B6
 554 03e2 AFE254AF 		.ascii	"\257\342T\257\013:@\335\307!`\177\233\014\375\201\000"
 554      0B3A40DD 
 554      C721607F 
 554      9B0CFD81 
 554      00
 555 03f3 3AE3C3D7 		.ascii	":\343\303\327f\206\257\211L\321E\341\313\022syy\370"
 555      6686AF89 
 555      4CD145E1 
 555      CB127379 
 555      79F8
 556 0405 B283B9BC 		.ascii	"\262\203\271\2746|\331\3118v\250_\321n\245\323rX\024"
 556      367CD9C9 
 556      3876A85F 
 556      D16EA5D3 
 556      725814
 557 0418 59DC28FE 		.ascii	"Y\334(\376\034\362\267E\207a5]@\350/\314\300\200\300"
 557      1CF2B745 
 557      8761355D 
 557      40E82FCC 
 557      C080C0
 558 042b 3899E2D0 		.ascii	"8\231\342\320\324\224\3128\354\254\266\025b\015:\354"
 558      D494CA38 
 558      ECACB615 
 558      620D3AEC 
 559 043b 76B13F71 		.ascii	"v\261?qX\207^\343Q\201d\361CQ\202\374#\250\256\323\371"
 559      58875EE3 
 559      518164F1 
 559      435182FC 
 559      23A8AED3 
 560 0450 D5458944 		.ascii	"\325E\211D\347\344z\004\235\377Xh\000\326\301[G\353"
 560      E7E47A04 
 560      9DFF5868 
 560      00D6C15B 
 560      47EB
 561 0462 7FA0B407 		.ascii	"\177\240\264\007E\315\360/ \015R\327\310\306\2410\241"
 561      45CDF02F 
 561      200D52D7 
 561      C8C6A130 
ARM GAS  /tmp/ccYbVqKw.s 			page 44


 561      A1
 562 0473 A930299E 		.ascii	"\2510)\236\303\233S\277\364\036\245\341\003\321H)P@"
 562      C39B53BF 
 562      F41EA5E1 
 562      03D14829 
 562      5040
 563 0485 64C4D185 		.ascii	"d\304\321\205/U-\301\243G\305d\003\311uEe\261\031\354"
 563      2F552DC1 
 563      A347C564 
 563      03C97545 
 563      65B119EC 
 564 0499 11AD1429 		.ascii	"\021\255\024)\3671\257\232yGQ5\037[R\315\322\243\365"
 564      F731AF9A 
 564      79475135 
 564      1F5B52CD 
 564      D2A3F5
 565 04ac 3D45B95B 		.ascii	"=E\271[\230C\343\210\"\006d\361\221\357\233\206\310"
 565      9843E388 
 565      220664F1 
 565      91EF9B86 
 565      C8
 566 04bd 7DE2DD61 		.ascii	"}\342\335a\347&\027\202\200$\213O:B\355\230\007\241"
 566      E7261782 
 566      80248B4F 
 566      3A42ED98 
 566      07A1
 567 04cf E0AD85DF 		.ascii	"\340\255\205\337#D[\241\012\364\001\3165t\204\324\206"
 567      23445BA1 
 567      0AF401CE 
 567      357484D4 
 567      86
 568 04e0 CC487C8A 		.ascii	"\314H|\212m\032\311\331\343\236$4`;\037\207m\257\203"
 568      6D1AC9D9 
 568      E39E2434 
 568      603B1F87 
 568      6DAF83
 569 04f3 8B6EFBCD 		.ascii	"\213n\373\315F\0123\260S\273\244\201\3752\334!\226."
 569      460A33B0 
 569      53BBA481 
 569      FD32DC21 
 569      962E
 570 0505 BA9D8E01 		.ascii	"\272\235\216\001\3500v\207o\242w\007=\014\221\350\030"
 570      E8307687 
 570      6FA27707 
 570      3D0C91E8 
 570      18
 571 0516 6FEFF5CD 		.ascii	"o\357\365\315h\357c\321\355=\251&\270\251y1\322\307"
 571      68EF63D1 
 571      ED3DA926 
 571      B8A97931 
 571      D2C7
 572 0528 A1A2C6D2 		.ascii	"\241\242\306\322\250S\273c;\216:t\360\217TE\026\333"
 572      A853BB63 
 572      3B8E3A74 
 572      F08F5445 
 572      16DB
 573 053a 318AC4EA 		.ascii	"1\212\304\352\243wl|\370\204\004\355\276\304\0207\034"
ARM GAS  /tmp/ccYbVqKw.s 			page 45


 573      A3776C7C 
 573      F88404ED 
 573      BEC41037 
 573      1C
 574 054b 06835764 		.ascii	"\006\203Wdxm\360\232\372\336\303\250\305\3238x\3258"
 574      786DF09A 
 574      FADEC3A8 
 574      C5D33878 
 574      D538
 575 055d F9C12B96 		.ascii	"\371\301+\226\033\274\242\323\261Y\\\022\246c\243\307"
 575      1BBCA2D3 
 575      B1595C12 
 575      A663A3C7 
 576 056d 7AE74693 		.ascii	"z\347F\223j\332\353\027}+-P\202\223\034\262x\002\245"
 576      6ADAEB17 
 576      7D2B2D50 
 576      82931CB2 
 576      7802A5
 577 0580 986D1B30 		.ascii	"\230m\0330Yg\330-\315\211u\262\006\266\310\012X\234"
 577      5967D82D 
 577      CD8975B2 
 577      06B6C80A 
 577      589C
 578 0592 29BBE07B 		.ascii	")\273\340{,X\243m0=\263\367Y\260\327\254\200\3653g\326"
 578      2C58A36D 
 578      303DB3F7 
 578      59B0D7AC 
 578      80F53367 
 579 05a7 CA82ADB6 		.ascii	"\312\202\255\266\015\3062\233\030<\321\334$*3\023\357"
 579      0DC6329B 
 579      183CD1DC 
 579      242A3313 
 579      EF
 580 05b8 12662ACA 		.ascii	"\022f*\312D\245!\306\314\357\004\001\213(\021\213\310"
 580      44A521C6 
 580      CCEF0401 
 580      8B28118B 
 580      C8
 581 05c9 E265F12E 		.ascii	"\342e\361.}\317<0-\211\364Lr=z$\376\224\366LY<\211\302"
 581      7DCF3C30 
 581      2D89F44C 
 581      723D7A24 
 581      FE94F64C 
 582 05e1 BD85C291 		.ascii	"\275\205\302\221\272\275\011TJ\360\263\346\004ej\242"
 582      BABD0954 
 582      4AF0B3E6 
 582      04656AA2 
 583 05f1 362A0D7F 		.ascii	"6*\015\1775\002\361N>\244\2645K\311\352\345\350\274"
 583      3502F14E 
 583      3EA4B435 
 583      4BC9EAE5 
 583      E8BC
 584 0603 0F372F1E 		.ascii	"\0177/\036\2404l\327\302\203R\253\014b\332\352\247\265"
 584      A0346CD7 
 584      C28352AB 
 584      0C62DAEA 
 584      A7B5
ARM GAS  /tmp/ccYbVqKw.s 			page 46


 585 0615 85AB085A 		.ascii	"\205\253\010ZD\331\364K\354\277](\350z\247a \260\000"
 585      44D9F44B 
 585      ECBF5D28 
 585      E87AA761 
 585      20B000
 586 0628 B471EA4A 		.ascii	"\264q\352J5\020\334F\240\367z\004\002\007\027\010\034"
 586      3510DC46 
 586      A0F77A04 
 586      02071708 
 586      1C
 587 0639 FA9EED88 		.ascii	"\372\236\355\210\017\237tw;\004{\205%a\0276\330\031"
 587      0F9F7477 
 587      3B047B85 
 587      25611736 
 587      D819
 588 064b F63F1DC9 		.ascii	"\366?\035\311\250cI{\375\321k\322|%X\355\320T\321l\033"
 588      A863497B 
 588      FDD16BD2 
 588      7C2558ED 
 588      D054D16C 
 589 0660 B01F6714 		.ascii	"\260\037g\024I\330\327[\277aDW\245\226\305\253\342\217"
 589      49D8D75B 
 589      BF614457 
 589      A596C5AB 
 589      E28F
 590 0672 21BF0E39 		.ascii	"!\277\0169\323\300\001+\275n\200\211\324\320\205/\260"
 590      D3C0012B 
 590      BD6E8089 
 590      D4D0852F 
 590      B0
 591 0683 5DF8906D 		.ascii	"]\370\220m\260d\035\330%\026\3543+`\311\346\314\256"
 591      B0641DD8 
 591      2516EC33 
 591      2B60C9E6 
 591      CCAE
 592 0695 B060A76C 		.ascii	"\260`\247l\203\351\231]c\301\316X\001\033\024\311(:"
 592      83E9995D 
 592      63C1CE58 
 592      011B14C9 
 592      283A
 593 06a7 FB84E700 		.ascii	"\373\204\347\000\262\370\031\216\270\307\321Rg0\377"
 593      B2F8198E 
 593      B8C7D152 
 593      6730FF
 594 06b6 0AF3F398 		.ascii	"\012\363\363\230\177\203y\007\346\0271\257\225H>\005"
 594      7F837907 
 594      E61731AF 
 594      95483E05 
 595 06c6 F3A998BF 		.ascii	"\363\251\230\277 1\366\2150_\273>\363^\022\316\016\341"
 595      2031F68D 
 595      305FBB3E 
 595      F35E12CE 
 595      0EE1
 596 06d8 7CED3CD7 		.ascii	"|\355<\327\331\270\371\332a\023Q\011\373:\311|\276\306"
 596      D9B8F9DA 
 596      61135109 
 596      FB3AC97C 
ARM GAS  /tmp/ccYbVqKw.s 			page 47


 596      BEC6
 597 06ea DD93846B 		.ascii	"\335\223\204kN\273\3635\306\014\320\307\272f]9(\326"
 597      4EBBF335 
 597      C60CD0C7 
 597      BA665D39 
 597      28D6
 598 06fc D428AFA6 		.ascii	"\324(\257\246j\235\354\026\217h\324\311\314\006G\010"
 598      6A9DEC16 
 598      8F68D4C9 
 598      CC064708 
 599 070c 78871625 		.ascii	"x\207\026%\266>\255\201\325\270\354\202\361=V\263c\013"
 599      B63EAD81 
 599      D5B8EC82 
 599      F13D56B3 
 599      630B
 600 071e DA712FDA 		.ascii	"\332q/\332\250\015\363\231h\235\331\222\256\367Mv\361"
 600      A80DF399 
 600      689DD992 
 600      AEF74D76 
 600      F1
 601 072f 414E9DE8 		.ascii	"AN\235\3503x\341'\002!:\242\231\221\366\204\027?$a\206"
 601      3378E127 
 601      02213AA2 
 601      9991F684 
 601      173F2461 
 602 0744 8B7B60B2 		.ascii	"\213{`\262g\204`\375q\350\013\321f\314\015N\015);\344"
 602      678460FD 
 602      71E80BD1 
 602      66CC0D4E 
 602      0D293BE4 
 603 0758 73ED17CF 		.ascii	"s\355\027\317\005\007lQ\224~\262\270P\"S\346}\234\370"
 603      05076C51 
 603      947EB2B8 
 603      502253E6 
 603      7D9CF8
 604 076b 517124E1 		.ascii	"Qq$\341\010VY\"\351\307\270\366\005\035\355?\232\217"
 604      08565922 
 604      E9C7B8F6 
 604      051DED3F 
 604      9A8F
 605 077d C8E456F4 		.ascii	"\310\344V\364q\256\253vI\317\211\277J\313L\207\313x"
 605      71AEAB76 
 605      49CF89BF 
 605      4ACB4C87 
 605      CB78
 606 078f 675E10A3 		.ascii	"g^\020\243Q\351\335\303\307\355\235\030S\010.<\311\330"
 606      51E9DDC3 
 606      C7ED9D18 
 606      53082E3C 
 606      C9D8
 607 07a1 06D31B65 		.ascii	"\006\323\033e\326.\346Q\300\322\304{\215\266\266\265"
 607      D62EE651 
 607      C0D2C47B 
 607      8DB6B6B5 
 608 07b1 4222FEBD 		.ascii	"B\"\376\2752\206w\305\223\242\355\231\267$\254\261\""
 608      328677C5 
 608      93A2ED99 
ARM GAS  /tmp/ccYbVqKw.s 			page 48


 608      B724ACB1 
 608      22
 609 07c2 87697F24 		.ascii	"\207i\177$\206l\275w\363:E\371k\214"
 609      866CBD77 
 609      F33A45F9 
 609      6B8C
 610 07d0 36D9319D 		.ascii	"6\3311\235\245I\302\333\330\330*\336\031n]n}@u\206U"
 610      A549C2DB 
 610      D8D82ADE 
 610      196E5D6E 
 610      7D407586 
 611 07e5 969C6153 		.ascii	"\226\234aS\363<KO\201\0151Z\363\205\330|'6\277\266\207"
 611      F33C4B4F 
 611      810D315A 
 611      F385D87C 
 611      2736BFB6 
 612 07fa 2FDE38FB 		.ascii	"/\3368\373\210\332\374ZK\315\237\330;\333\310\027M\036"
 612      88DAFC5A 
 612      4BCD9FD8 
 612      3BDBC817 
 612      4D1E
 613 080c D4A9F56E 		.ascii	"\324\251\365n]\2760h)6\262\001\375\347\203X\336|\303"
 613      5DBE3068 
 613      2936B201 
 613      FDE78358 
 613      DE7CC3
 614 081f 12D8B6F0 		.ascii	"\022\330\266\360\273\316}\233c5\366\275r_\02038\354"
 614      BBCE7D9B 
 614      6335F6BD 
 614      725F1033 
 614      38EC
 615 0831 35B494C6 		.ascii	"5\264\224\306a\257mD\275\017_\332\213\035B\005;`\005"
 615      61AF6D44 
 615      BD0F5FDA 
 615      8B1D4205 
 615      3B6005
 616 0844 2C4260BF 		.ascii	",B`\277\302\202\265\331\006\3233\273\306\202\035\265"
 616      C282B5D9 
 616      06D333BB 
 616      C6821DB5 
 617 0854 0266F6D4 		.ascii	"\002f\366\324\003`\235,\330\011\333`zf7X\260\323V\300"
 617      03609D2C 
 617      D809DB60 
 617      7A663758 
 617      B0D356C0 
 618 0868 CC267300 		.ascii	"\314&s\000v\223\005;c\033L\317\3546\013v\336\012X\262"
 618      7693053B 
 618      631B4CCF 
 618      EC360B76 
 618      DE0A58B2 
 619 087c 39B3BAFD 		.ascii	"9\263\272\375\014X\207m0=\263\231,\330e+`F\2239\012"
 619      0C58876D 
 619      303DB399 
 619      2CD8652B 
 619      60469339 
 620 0891 369B05BB 		.ascii	"6\233\005\273n\033L\317l.\013\326e\005,\325\234\331"
 620      6E1B4CCF 
ARM GAS  /tmp/ccYbVqKw.s 			page 49


 620      6C2E0BD6 
 620      65052CD5 
 620      9CD9
 621 08a3 7C16ACDB 		.ascii	"|\026\254\3336\230\236\331B\026\254&\316\002\330Psf"
 621      36989ED9 
 621      4216AC26 
 621      CE02D850 
 621      7366
 622 08b5 8B59B0C9 		.ascii	"\213Y\260\311\266\301\364\314\326\262`\323\254\200\015"
 622      B6C1F4CC 
 622      D6B260D3 
 622      AC800D
 623 08c4 3767B68E 		.ascii	"7g\266\216\005\233n\033L\317l\003\0136\303\012\330\010"
 623      059B6E1B 
 623      4CCF6C03 
 623      0B36C30A 
 623      D808
 624 08d6 73666FB3 		.ascii	"sfo\263`\263m\203\351\231\275\303\202\315\263\002\226"
 624      60B36D83 
 624      E999BDC3 
 624      82CDB302 
 624      96
 625 08e7 6BCE6C0B 		.ascii	"k\316l\013\013\266\3206\230\236\331{,\330\022+`\277"
 625      0BB6D036 
 625      989ED97B 
 625      2CD8122B 
 625      60BF
 626 08f9 3767F63E 		.ascii	"7g\366>\013\266\3146\230\236Y+\013\266\334\012\330\323"
 626      0BB6CC36 
 626      989E592B 
 626      0BB6DC0A 
 626      D8D3
 627 090b 06CC421F 		.ascii	"\006\314B\037\263i\346\032\211\231\252\277\032\247M"
 627      B369E61A 
 627      8999AABF 
 627      1AA74D
 628 091a 706C8ED1 		.ascii	"pl\216\321B\030\343\2158\27332\235\334dj}\357\026:\316"
 628      4218E38D 
 628      38BB3332 
 628      9DDC646A 
 628      7DEF163A 
 629 092f AB73D575 		.ascii	"\253s\325uV\020#\014\200\013w1\023\337-\266\3018W\336"
 629      5610230C 
 629      800B7731 
 629      13DF2DB6 
 629      C13857DE 
 630 0943 C53F8D84 		.ascii	"\305?\215\204\366\265\203\246;\177\262\370\012>\240"
 630      F6B583A6 
 630      3B7FB2F8 
 630      0A3EA0
 631 0952 59DAB4EE 		.ascii	"Y\332\264\356a\242\016\326D\037X\341\037a\314=\261k"
 631      61A20ED6 
 631      441F58E1 
 631      1F61CC3D 
 631      B16B
 632 0964 316E6731 		.ascii	"1ng1\273\361Q6>\367~I'\356\227q\342\276'\316p\305\315"
 632      BBF15136 
ARM GAS  /tmp/ccYbVqKw.s 			page 50


 632      3EF77E49 
 632      27EE9771 
 632      E2BE27CE 
 633 097b 025057ED 		.ascii	"\002PW\355\352\373\021\350\032\002\355\3575\320\306"
 633      EAFB11E8 
 633      1A02EDEF 
 633      35D0C6
 634 098a A9F5EA06 		.ascii	"\251\365\352\006\364\337\021\350\010\007D7 C\037\374"
 634      F4DF11E8 
 634      08074437 
 634      20431FFC 
 635 099a CE3E4944 		.ascii	"\316>ID\334\326\374\016\313J\302\347\274\265\2146\013"
 635      DCD6FC0E 
 635      CB4AC2E7 
 635      BCB58C36 
 635      0B
 636 09ab CD2735D0 		.ascii	"\315'5\320\031\016\015\334\374\246\242\324\304X\327"
 636      190E0DDC 
 636      FCA6A2D4 
 636      C458D7
 637 09ba CE1ACD5E 		.ascii	"\316\032\315^\267Q;_\367\320\016Q\277=1\256\330\026"
 637      B7513B5F 
 637      F7D00E51 
 637      BF3D31AE 
 637      D816
 638 09cc 63102746 		.ascii	"c\020'Fp\220]1:41j\034D\214\233\337\201\030\223\342"
 638      70905D31 
 638      3A34316A 
 638      1C448C9B 
 638      DF811893 
 639 09e1 ED8A91CA 		.ascii	"\355\212\221\312\210\201\017\213\203\325\207EKK\372"
 639      88810F8B 
 639      83D58745 
 639      4B4BFA
 640 09f0 531CDC92 		.ascii	"S\034\334\222\376\341&1Y\275\034\355)M\011^o\322V\364"
 640      FEE12631 
 640      59BD1CED 
 640      294D095E 
 640      6FD256F4 
 641 0a04 D57741A6 		.ascii	"\325wA\246!wR\327fh\246x\263\325\025E\025l\346?\004"
 641      217752D7 
 641      6668A678 
 641      B3D51545 
 641      156CE63F 
 642 0a19 561D5C3F 		.ascii	"V\035\\?m\011%7\214\304\324E\377 \334\276f\273\213\011"
 642      6D092537 
 642      8CC4D445 
 642      FF20DCBE 
 642      66BB8B09 
 643 0a2d 2F9DA3CE 		.ascii	"/\235\243\3161\003\235\343\345\370\357d1\341\315\336"
 643      31039DE3 
 643      E5F8EF64 
 643      31E1CDDE 
 644 0a3d CA11FA48 		.ascii	"\312\021\372H\302F\336\307l=y\020\037\353\034lqA\"\264"
 644      C246DEC7 
 644      6C3D7910 
 644      1FEB1C6C 
ARM GAS  /tmp/ccYbVqKw.s 			page 51


 644      714122B4 
 645 0a51 CA7576C0 		.ascii	"\312uv\300n|4\237\347 \253\\\2339eXX\330\330\215U\026"
 645      6E7C349F 
 645      E720AB5C 
 645      9B396558 
 645      58D8D88D 
 646 0a67 3A7AAC72 		.ascii	":z\254r\265\336\243\256,\220[\026\0266j5\267P\027\257"
 646      B5DEA3AE 
 646      2C905B16 
 646      16366A35 
 646      B75017AF 
 647 0a7b 5E96240A 		.ascii	"^\226$\012\333[}\352L\030\346'\213\213\035d<]\342\320"
 647      DB5B7DEA 
 647      4C18E627 
 647      8B8B1D64 
 647      3C5DE2D0 
 648 0a8f 2D6F1EB2 		.ascii	"-o\036\262\255\373dV\367\301\256\346\305\"\341o\260"
 648      ADFB6456 
 648      F7C1AEE6 
 648      C522E16F 
 648      B0
 649 0aa0 16339C9D 		.ascii	"\0263\234\235\271\204\024\337~\317\036TO\003*\376\224"
 649      B98414DF 
 649      7ECF1E54 
 649      4F032AFE 
 649      94
 650 0ab1 89E2879B 		.ascii	"\211\342\207\233\341H\302%\254\322\330S\361\273\177"
 650      E148C225 
 650      ACD2D853 
 650      F1BB7F
 651 0ac0 A82ABED1 		.ascii	"\250*\276\321\222\342?5T|\243}\305S\274\203\341\245"
 651      92E23F35 
 651      547CA37D 
 651      C553BC83 
 651      E1A5
 652 0ad2 4298BAD8 		.ascii	"B\230\272\330\006K\216d\305F\306\212\313\321\212+\034"
 652      064B8E64 
 652      C546C68A 
 652      CBD18A2B 
 652      1C
 653 0ae3 646179A5 		.ascii	"day\245\336\2265}8[\3524GOM\237\223\225\340\254\026"
 653      DE96357D 
 653      385BEA34 
 653      474F4D9F 
 653      9395E0AC 
 654 0af8 7DFC9CCE 		.ascii	"}\374\234\316\343\331|\272\255oA\225\250\361f\266m\260"
 654      E3D97CBA 
 654      AD6F4195 
 654      A8F166B6 
 654      6DB0
 655 0b0a 641DD8D6 		.ascii	"d\035\330\326\351\006\313\301F\3573\211\354\214T\022"
 655      E906CBC1 
 655      46EF3389 
 655      EC8C5412 
 656 0b1a 9662BB6B 		.ascii	"\226b\273kxwY\264~\337dq\"\276*\265\306\202\277\300"
 656      787759B4 
 656      7EDF6471 
ARM GAS  /tmp/ccYbVqKw.s 			page 52


 656      22BE2AB5 
 656      C682BFC0 
 657 0b2e E0F245BC 		.ascii	"\340\362E\27423Q\363\333\303!\324\010\252\216\340-]"
 657      323351F3 
 657      DBC321D4 
 657      08AA8EE0 
 657      2D5D
 658 0b40 5FED1111 		.ascii	"_\355\021\021N\235a\237\344\341\242>\000\350\341n{w"
 658      4E9D619F 
 658      E4E1A23E 
 658      00E8E16E 
 658      7B77
 659 0b52 A7DA538C 		.ascii	"\247\332S\214\366j\324f2\274\276\2032}\325\207\037\021"
 659      F66AD466 
 659      32BCBE83 
 659      327DD587 
 659      1F11
 660 0b64 54CD308E 		.ascii	"T\3150\216\270\206q\304\267\320\021\327\241#n\300\374"
 660      B88671C4 
 660      B7D011D7 
 660      A1236EC0 
 660      FC
 661 0b75 6DD61DCD 		.ascii	"m\326\035\315F\370M\016ff~\321\266\334\311\234u\314"
 661      46F84D0E 
 661      66667ED1 
 661      B6DCC99C 
 661      75CC
 662 0b87 9A79936D 		.ascii	"\232y\223m\246\323\212\357\231/\206\220\240\376\353"
 662      A6D38AEF 
 662      992F8690 
 662      A0FEEB
 663 0b96 CDF4F94A 		.ascii	"\315\364\371J]\212\257N\260\213\250\367\346\213\323"
 663      5D8AAF4E 
 663      B08BA8F7 
 663      E68BD3
 664 0ba5 75B38117 		.ascii	"u\263\201\027\255\300\0157 h\364a\367^dq\251D\314\324"
 664      ADC00D37 
 664      2068F461 
 664      F75E6471 
 664      A944CCD4 
 665 0bb9 801B518D 		.ascii	"\200\033Q\215\230/\307\374u\314\317a\3765\346\337b~"
 665      982FC7FC 
 665      75CCCF61 
 665      FE35E6DF 
 665      627E
 666 0bcb 09F35B98 		.ascii	"\011\363[\230W\243Y'c>\027\363\245\230\277\206\371*"
 666      57A35927 
 666      633E17F3 
 666      A598BF86 
 666      F92A
 667 0bdd CC5763BE 		.ascii	"\314Wc\276\025\363m\321\034\200\216\002G\267\034\276"
 667      15F36DD1 
 667      1C808E02 
 667      47B71CBE 
 668 0bed F70D8CD5 		.ascii	"\367\015\214\325\013\320\375?N\340=o\231\304-\215\367"
 668      0BD0FD3F 
 668      4EE03D6F 
ARM GAS  /tmp/ccYbVqKw.s 			page 53


 668      99C42D8D 
 668      F7
 669 0bfe D8DA694F 		.ascii	"\330\332iO\260\260E\026a\027\243\353@K\2338KQv\247\252"
 669      B0B04516 
 669      6117A3EB 
 669      404B9B38 
 669      4B5176A7 
 670 0c13 FE2F8B6B 		.ascii	"\376/\213k\035\222\036Q\337c\"x#5\352g\021^S\324mR\204"
 670      1D921E51 
 670      DF632278 
 670      2335EA67 
 670      115E53D4 
 671 0c2a DE31FB59 		.ascii	"\3361\373YX'K\267\035\376?\365\325\315]\330\033\033"
 671      58274BB7 
 671      1DFE3FF5 
 671      D5CD5DD8 
 671      1B1B
 672 0c3c 13A36FBC 		.ascii	"\023\243o\274\351p\210\226\232\2700\027\274x\034\337"
 672      E9708896 
 672      9AB83017 
 672      BC781CDF 
 673 0c4c 556B8A1E 		.ascii	"Uk\212\036\342&\325\004\257\036\237M\235R\335D_\203"
 673      E226D504 
 673      AF1E9F4D 
 673      9D52DD44 
 673      5F83
 674 0c5e 149A7A37 		.ascii	"\024\232z7$\222\035\371\343\314\216\374z\333`\311:\260"
 674      24921DF9 
 674      E3CC8EFC 
 674      7ADB60C9 
 674      3AB0
 675 0c70 4E166C93 		.ascii	"N\026l\223\025\260\010\357[\335`\301\266\330\006\323"
 675      15B008EF 
 675      5BDD60C1 
 675      B6D806D3 
 676 0c80 33BBC982 		.ascii	"3\273\311\202m\265\002\026\341}\253\333,\330\207\266"
 676      6DB50216 
 676      E17DABDB 
 676      2CD887B6 
 677 0c90 C1F4CCEA 		.ascii	"\301\364\314\352N0`MV\300\"\274F2\223\005\333g\033L"
 677      4E30604D 
 677      56C022BC 
 677      46329305 
 677      DB671B4C 
 678 0ca4 CF6C360B 		.ascii	"\317l6\013v\330\012X\262\0013\243\017\333\011d\261\031"
 678      76D80A58 
 678      B20133A3 
 678      0FDB0964 
 678      B119
 679 0cb6 07A9BF61 		.ascii	"\007\251\277atj\301\274\025\363\375\230\177\202\371"
 679      746AC1BC 
 679      15F3FD98 
 679      7F82F9
 680 0cc5 41CC0F61 		.ascii	"A\314\017a~\004\363cV\006\262\235\354\010s\"\321B4\212"
 680      7E04F363 
 680      5606B29D 
 680      EC087322 
ARM GAS  /tmp/ccYbVqKw.s 			page 54


 680      D142348A 
 681 0cd9 B068D135 		.ascii	"\260h\3215\353\2633\342\254\032\305x\030o\210\372\216"
 681      EBB333E2 
 681      AC1AC578 
 681      186F88FA 
 681      8E
 682 0cea 73FBBC33 		.ascii	"s\373\2743{~K\302G\364\367\234O9\254\275\347\3749\037"
 682      7B7E4BC2 
 682      47F4F79C 
 682      4F39ACBD 
 682      E7FC391F 
 683 0cfe 4BAEB660 		.ascii	"K\256\266`,\371\334\322\364\372\272\305\351ZPd\265\023"
 683      2CF9DCD2 
 683      F4FABAC5 
 683      E95A5064 
 683      B513
 684 0d10 8A857B1E 		.ascii	"\212\205{\036Qc\341Y\214\205\257\337\0215\026\352q\010"
 684      5163E159 
 684      8C85AFDF 
 684      113516EA 
 684      7108
 685 0d22 BFF33CFF 		.ascii	"\277\363<\377\365{\221\377yK\261p\323^},\334\212\024"
 685      F57B91FF 
 685      794BB170 
 685      D35E7D2C 
 685      DC8A14
 686 0d35 CEF73A16 		.ascii	"\316\367:\026\276\263\227q\370\240m\260d\035\330\026"
 686      BEB39771 
 686      F8A06DB0 
 686      641DD816 
 687 0d45 166C8715 		.ascii	"\026l\207\025\260H\357\236\262`{l\203\351\231\275\317"
 687      B048EF9E 
 687      B2607B6C 
 687      83E999BD 
 687      CF
 688 0d56 82B55801 		.ascii	"\202\265X\001\213\364\356)\013v\3006X\262\221y\205\036"
 688      8BF4EE29 
 688      0B76C036 
 688      58B29179 
 688      851E
 689 0d68 DE01D31F 		.ascii	"\336\001\323\037\014\022\337`\327\357\300\374\"\346"
 689      0C12DF60 
 689      D7EFC0FC 
 689      22E6
 690 0d76 9731BF8A 		.ascii	"\2271\277\212\371u+!\341\014\033\022\332\220\360\347"
 690      F9752B21 
 690      E10C1B12 
 690      DA90F0E7 
 691 0d86 BD7DA084 		.ascii	"\275}\240\204\036}\3627\352\242>\367\326\001\321\207"
 691      1E7DF237 
 691      EAA23EF7 
 691      D601D187 
 692 0d96 19832E96 		.ascii	"\031\203.\226\301q\333\014\222Y\006\301\256\226\305"
 692      C171DB0C 
 692      925906C1 
 692      AE96C5
 693 0da5 F4671CEA 		.ascii	"\364g\034\352\352\363i\036\317h-0\322SJK\302\332\247"
ARM GAS  /tmp/ccYbVqKw.s 			page 55


 693      EAF3691E 
 693      CF682D30 
 693      D2534A4B 
 693      C2DAA7
 694 0db8 35B073B6 		.ascii	"5\260s\266\301\342t`u{\031\260+\266\301\314\336\012"
 694      C1E27460 
 694      757B19B0 
 694      2BB6C1CC 
 694      DE0A
 695 0dca FB027DE1 		.ascii	"\373\002}\341K\264\371\015\314oa\336\215\371D\247\356"
 695      4BB4F90D 
 695      CC6F61DE 
 695      8DF944A7 
 695      EE
 696 0ddb 81BB8B8B 		.ascii	"\201\273\213\213KZpdP\303QT\260\212kf\333v\326\266\323"
 696      4B5A7064 
 696      50C35154 
 696      B08A6B66 
 696      DB76D6B6 
 697 0df0 932C0C38 		.ascii	"\223,\0148\311\346\336\3255\353\004\035pT`x@\267\215"
 697      C9E6DED5 
 697      35EB041D 
 697      70546078 
 697      40B78D
 698 0e03 A8F79639 		.ascii	"\250\367\2269'\352u\357S/\264\202\027a\327~\261:EP\301"
 698      27EA75EF 
 698      532FB482 
 698      1761D77E 
 698      B13A4550 
 699 0e18 5EB10D96 		.ascii	"^\261\015\226,\230~\330\2377\311\342\016\334f\332\211"
 699      2C987ED8 
 699      9F37C9E2 
 699      0EDC66DA 
 699      89
 700 0e29 EFEBEDC6 		.ascii	"\357\353\355\306|>>\374|\204\226\331\201\371\011\314"
 700      7C3E3EFC 
 700      7C8496D9 
 700      81F909CC 
 701 0e39 9F77E2E3 		.ascii	"\237w\342\343\020\346\177\265b\261`\370\235\276^\376"
 701      10E67FB5 
 701      62B160F8 
 701      9DBE5EFE 
 702 0e49 DEE705A7 		.ascii	"\336\347\005\247\301\357}B_\350\212m\324\337\377\220"
 702      C1EF7D42 
 702      5FE88A6D 
 702      D4DFFF90 
 703 0e59 22D39C21 		.ascii	"\"\323\234!.\003\205z%x\241}\353\345\213\367/!\001F"
 703      2E03857A 
 703      2578A17D 
 703      EBE58BF7 
 703      2F210146 
 704 0e6d B9DDFD17 		.ascii	"\271\335\375\027QmK\022.'\351}\372gB\243\242\314T\332"
 704      516D4B12 
 704      2E27E97D 
 704      FA6742A3 
 704      A2CC54DA 
 705 0e81 BC23D4C6 		.ascii	"\274#\324\306\301\365\372\222\022/9\007\032\266E\245"
ARM GAS  /tmp/ccYbVqKw.s 			page 56


 705      C1F5FA92 
 705      122F3907 
 705      1AB645A5 
 706 0e91 A6D5E6EC 		.ascii	"\246\325\346\354L\254\013y\304\254(\025\2518\377&,'"
 706      4CAC0B79 
 706      C4AC2815 
 706      A938FF26 
 706      2C27
 707 0ea3 DA7957C9 		.ascii	"\332yW\311\035\200\272\021h%\235\005\353\234\272_\320"
 707      1D80BA11 
 707      68259D05 
 707      EB9CBA5F 
 707      D0
 708 0eb4 AA2205E7 		.ascii	"\252\"\005\3477%\326Ml\357\356\036\250I\263\240odid"
 708      3725D64D 
 708      6CEFEE1E 
 708      A849B3A0 
 708      6F646964 
 709 0ec8 71A6933C 		.ascii	"q\246\223<\365\315\265+\215,\316\216R1\2024syi\346\031"
 709      F5CDB52B 
 709      8D2CCE8E 
 709      52318234 
 709      737969E6 
 710 0edd 48D31EBC 		.ascii	"H\323\036\274\274\250y\242\010\315\336$\257\277[\367"
 710      BCA879A2 
 710      08CDDE24 
 710      AFBF5BF7 
 711 0eed 99C5D467 		.ascii	"\231\305\324g\302n!\011\0338=P^u\212\362\252\342\010"
 711      C26E2109 
 711      1B383D50 
 711      5E758AF2 
 711      AAE208
 712 0f00 F15AC4F3 		.ascii	"\361Z\304\363Z\322\223WC;\276\003\216Z\266\316\251\301"
 712      5AD29357 
 712      433BBE03 
 712      8E5AB6CE 
 712      A9C1
 713 0f12 80D36E63 		.ascii	"\200\323ncN\212\236\323R\236\3232CN\373\017\204,O~\272"
 713      4E8A9ED3 
 713      529ED332 
 713      434EFB0F 
 713      842C4F7E 
 714 0f27 26099F1A 		.ascii	"&\011\237\032[\276\273\220\263|cd\313\207H\275\250<"
 714      5BBEBB90 
 714      B37C6364 
 714      CB8748BD 
 714      A83C
 715 0f39 DF4F0CB1 		.ascii	"\337O\014\261j\344Y\275b\254\251\243*\253\245\3035Z"
 715      6AE459BD 
 715      62ACA9A3 
 715      2AABA5C3 
 715      355A
 716 0f4b A78D69DD 		.ascii	"\247\215i\335\342i\255\354\025\255\225<\255W\015i\221"
 716      E269ADEC 
 716      15AD953C 
 716      AD570D69 
 716      91
ARM GAS  /tmp/ccYbVqKw.s 			page 57


 717 0f5c D0AA53D6 		.ascii	"\320\252S\326\005cV3\370n\262\252W\254V\361\254\336"
 717      05635633 
 717      F86EB2AA 
 717      57AC56F1 
 717      ACDE
 718 0f6e 30647590 		.ascii	"0du\220g\325m\314j\016\317jM\257X\255\341Y\2555d5\367"
 718      67D56DCC 
 718      6A0ECF6A 
 718      4DAF58AD 
 718      E159AD35 
 719 0f85 D4EE5EF4 		.ascii	"\324\356^\364\301\015\021\342\266\365-\273}/\237\372"
 719      C10D11E2 
 719      B6F52DBB 
 719      7D2F9FFA 
 720 0f95 F51A5C27 		.ascii	"\365\032\\'\333\204\277I\376\260\037"
 720      DB84BF49 
 720      FEB01F
 721 0fa0 3FDF7071 		.ascii	"?\337pq[v.\375\226\235+>|\022\376\345\235n\274\220\204"
 721      5B762EFD 
 721      969D2B3E 
 721      7C12FEE5 
 721      9D6EBC90 
 722 0fb5 A67E466A 		.ascii	"\246~Fj\206\341\341\360\024q\342k\265\012\011y\254\272"
 722      86E1E1F0 
 722      1471E26B 
 722      B50A0979 
 722      ACBA
 723 0fc7 D75B8A95 		.ascii	"\327[\212\225\357\022+\251\264\017c\003\346\32569\331"
 723      EF122BA9 
 723      B40F6303 
 723      E6D53639 
 723      D9
 724 0fd8 48A9B7D2 		.ascii	"H\251\267\322z\336J[\014\255Tw\2727V\012F\034])\255"
 724      7ADE4A5B 
 724      0CAD5477 
 724      BA37560A 
 724      461C5D29 
 725 0fed D0F7CC04 		.ascii	"\320\367\314\004\335W\365\345]N\227G\015u\331\323e\267"
 725      DD57F5E5 
 725      5D4E9747 
 725      0D75D9D3 
 725      65B7
 726 0fff 59       		.ascii	"Y"
 727 1000 D2E1364D 		.ascii	"\322\3416M\207\262\2705J5$\253V\013\316:}\310\271@\011"
 727      87B2B835 
 727      4A3524AB 
 727      560BCE3A 
 727      7DC8B940 
 728 1015 3A91B224 		.ascii	":\221\262$|\215\234\314\253f\206\033\334G\032\304\025"
 728      7C8D9CCC 
 728      AB66861B 
 728      DC471AC4 
 728      15
 729 1026 E94B512A 		.ascii	"\351KQ*\015c:Vp\306\351\324\251O\207L\266\2157\331\016"
 729      0D633A56 
 729      70C6E9D4 
 729      A94F874C 
ARM GAS  /tmp/ccYbVqKw.s 			page 58


 729      B68D37D9 
 730 103b 439375F6 		.ascii	"C\223u\366\312d-\2750\031g\243Nc\033\365\010\301\037"
 730      CA642DBD 
 730      301967A3 
 730      4E631BF5 
 730      08C11F
 731 104e 5BB2D126 		.ascii	"[\262\321&\336F\346\325\030\033)WI\265L\322\330\236"
 731      DE46E6D5 
 731      181B2957 
 731      49B54CD2 
 731      D89E
 732 1060 28B532CD 		.ascii	"(\2652\315C\330\307\274\246\367\033j\372\370\227\275"
 732      43D8C7BC 
 732      A6F71B6A 
 732      FAF897BD 
 733 1070 D1F4215B 		.ascii	"\321\364![\2326\354\015\317\337i\250\351Y|oh\263\244"
 733      9A36EC0D 
 733      CFDF69A8 
 733      E9597C6F 
 733      68B3A4
 734 1083 E9ADBCA6 		.ascii	"\351\255\274\246\315\253\261\232>A}Z\026\233\243\324"
 734      CDABB19A 
 734      3E417D5A 
 734      169BA3D4 
 735 1093 1A66AEE9 		.ascii	"\032f\256\3516^\323\307\0145}\340L\253H~e\254tw\377"
 735      365ED3C7 
 735      0C357DE0 
 735      4CAB487E 
 735      65AC7477 
 736 10a8 85577557 		.ascii	"\205WuW\204\307\366S\021u\335e0\315\227\2049\306\312"
 736      84C7F653 
 736      1175DD65 
 736      30CD9784 
 736      39C6CA
 737 10bb 7D9757EE 		.ascii	"}\227W\356IK\312\375\273<H\373\211\325j\004f\252\351"
 737      494BCAFD 
 737      BB3C48FB 
 737      89D56A04 
 737      66AAE9
 738 10ce 7E6215A2 		.ascii	"~b\025\242\203z\252V6\266\347\016\322\256\231\327\242"
 738      837AAA56 
 738      36B6E70E 
 738      D2AE99D7 
 738      A2
 739 10df 727ED153 		.ascii	"r~\321Sk\355u\355m\253n\374v\376:e\222\372 b\335C\317"
 739      6BED75ED 
 739      6DAB6EFC 
 739      76FE3A65 
 739      92FA2062 
 740 10f6 F35AEB90 		.ascii	"\363Z\353\220\022x-\235\271\223\237d\252E\2771drd\313"
 740      12782D9D 
 740      B9939F64 
 740      AA45BF31 
 740      647264CB 
 741 110a C5471628 		.ascii	"\305G\026(\037\030\332/\002\221\016=\021n\275\206\354"
 741      1F18DA2F 
 741      02910E3D 
ARM GAS  /tmp/ccYbVqKw.s 			page 59


 741      116EBD86 
 741      EC
 742 111b 7199D5BC 		.ascii	"q\231\325\274\030~*\013I\261\322\320\334\027M\004\271"
 742      187E2A0B 
 742      49B1D2D0 
 742      DC174D04 
 742      B9
 743 112c 6C28C8BA 		.ascii	"l(\310\272\351\2379C\202h\363\251\333&\020W\015!\346"
 743      E99F3943 
 743      8268F3A9 
 743      DB261057 
 743      0D21E6
 744 113f 9ED95765 		.ascii	"\236\331We\254\2138a\262\372\277-\312D\361\317\314\362"
 744      AC8B3861 
 744      B2FABF2D 
 744      CA44F1CF 
 744      CCF2
 745 1151 0CB3E4C2 		.ascii	"\014\263\344\302\376-Q\2473\016\032\177\201\374\375"
 745      FE2D51A7 
 745      330E1A7F 
 745      81FCFD
 746 1160 96D1472D 		.ascii	"\226\321G-@>\244\276z\256\235\211\346\317\263\327y\343"
 746      403EA4BE 
 746      7AAE9D89 
 746      E6CFB3D7 
 746      79E3
 747 1172 93550CFE 		.ascii	"\223U\014\376\311\330\310 \326\315\332\31571\254\027"
 747      C9D8C820 
 747      D6CDDACD 
 747      3731AC17 
 748 1182 CFDE74A3 		.ascii	"\317\336t\243}\343K\370\337\033\267\235\370\337\033"
 748      7DE34BF8 
 748      DF1BB79D 
 748      F8DF1B
 749 1191 FDF586E0 		.ascii	"\375\365\206\340\034\206\264k\306i\222\313\374\267\234"
 749      1C86B46B 
 749      C66992CB 
 749      FCB79C
 750 11a0 3DEF450E 		.ascii	"=\357E\016\317\313\372\033\373C\255\313\300\037\202"
 750      CFCBFA1B 
 750      FB43ADCB 
 750      C01F82
 751 11af 4BEA5FB8 		.ascii	"K\352_\270GYV\035\354\356\036f\243kLq\031\230\211\343"
 751      4759561D 
 751      ECEE1E66 
 751      A36B4C71 
 751      199889E3 
 752 11c3 B1DE84C7 		.ascii	"\261\336\204\307T=\217\237\010\313\224\366V\230\227"
 752      543D8F9F 
 752      08CB94F6 
 752      569897
 753 11d2 EEB97751 		.ascii	"\356\271wQ5Y\266P:\273\305n\207\366_7\037\205P(\027"
 753      3559B650 
 753      3ABBC56E 
 753      87F65F37 
 753      1F855028 
 754 11e7 FD3FDBE0 		.ascii	"\375?\333\340jJ\030\220\200\005\367\007O\354\232=@i"
ARM GAS  /tmp/ccYbVqKw.s 			page 60


 754      6A4A1890 
 754      8005F707 
 754      4FEC9A3D 
 754      4069
 755 11f9 98A840E4 		.ascii	"\230\250@\344\351\026\265\000\330\304#q\241L\026\247"
 755      E916B500 
 755      D8C42371 
 755      A14C16A7 
 756 1209 EB812E90 		.ascii	"\353\201.\220\375\227\303\345{\252I\014SYi\377\341E"
 756      FD97C3E5 
 756      7BAA490C 
 756      535969FF 
 756      E145
 757 121b EC7932BC 		.ascii	"\354y2\274.\251$jPA\265;\260\345NG('\2133\\v\377\207"
 757      2EA9246A 
 757      5041B53B 
 757      B0E54E47 
 757      28278B33 
 758 1233 6BA62BFC 		.ascii	"k\246+\374\352tb|\370\204\375\377\215p)\362zq\017\025"
 758      EA74627C 
 758      F884FDFF 
 758      8D7029F2 
 758      7A710F15 
 759 1247 F6A4318B 		.ascii	"\366\2441\213\327!\030d\373\300\327\326*\312\363!\203"
 759      D7211864 
 759      FBC0D7D6 
 759      2ACAF321 
 759      83
 760 1258 A86AFC22 		.ascii	"\250j\374\"\252\032\347\204\261\270.p>B\027\230\353"
 760      AA1AE784 
 760      B1B82E70 
 760      3E421798 
 760      EB
 761 1269 E257B2DE 		.ascii	"\342W\262\336\335t\356\2317\264\225\254\211\223D\265"
 761      DD74EE99 
 761      37B495AC 
 761      899344B5 
 762 1279 3E38F85D 		.ascii	">8\370]\206C\344f2Dv\340\233\007\253\261\304<\227\331"
 762      8643E466 
 762      324476E0 
 762      9B07ABB1 
 762      C43C97D9 
 763 128d 1049DF23 		.ascii	"\020I\337#\247s\202\303\354\"\016\251\244S\344|\275"
 763      A77382C3 
 763      EC220EA9 
 763      A453E47C 
 763      BD
 764 129e BB86240A 		.ascii	"\273\206$\012\242DgM\226\341\271}\003\256\226\305\265"
 764      A244674D 
 764      96E1B97D 
 764      03AE96C5 
 764      B5
 765 12af 7E4BEFD3 		.ascii	"~K\357\323_\3077A\242\274\361\313\265o\343o\200,\326"
 765      5FC73741 
 765      A2BCF1CB 
 765      B56FE36F 
 765      802CD6
ARM GAS  /tmp/ccYbVqKw.s 			page 61


 766 12c2 94C503B8 		.ascii	"\224\305\003\270\340\312\325\246\375\240a\370\374$\365"
 766      E0CAD5A6 
 766      FDA061F8 
 766      FC24F5
 767 12d1 ED7E339F 		.ascii	"\355~3\237Yf\273\033\274l\322\015\264\361(\374w{\272"
 767      5966BB1B 
 767      BC6CD20D 
 767      B4F128FC 
 767      777BBA
 768 12e4 96876AE5 		.ascii	"\226\207j\345b)N\243\355\226_1i9\306\330\351;\"8\375"
 768      62294EA3 
 768      ED965F31 
 768      6939C6D8 
 768      E93B2238 
 769 12f9 72DEE983 		.ascii	"r\336\351\203\007\317i\263\372\232)\022\235\204H\302"
 769      07CF69B3 
 769      FA9A2912 
 769      9D8448C2 
 770 1309 066397C7 		.ascii	"\006c\227\307\307\215\2138\370\354\304\022+L]\036\247"
 770      C78D8B38 
 770      F8ECC412 
 770      2B4C5D1E 
 770      A7
 771 131a 2458AD4E 		.ascii	"$X\255NY\244.x\252\257\0036E\251\270R\267\340\251\353"
 771      59A42E78 
 771      AAAF0336 
 771      45A9B852 
 771      B7E0A9EB 
 772 132e 2B2BF8BE 		.ascii	"++\370\276\262R\337W\2146tC\336;%4\241 ;\303_\025\251"
 772      B252DF57 
 772      8C367443 
 772      DE3B2534 
 772      A1203BC3 
 773 1345 3BC3AB5D 		.ascii	";\303\253]$\350\267p\342F\007\302\225\036\027\2675\274"
 773      24E8B770 
 773      E24607C2 
 773      951E17B7 
 773      35BC
 774 1357 A00DB786 		.ascii	"\240\015\267\206\311u\301dx\025B\333\222K\332\330\255"
 774      C975C164 
 774      781542DB 
 774      924BDAD8 
 774      AD
 775 1368 6159FC16 		.ascii	"aY\374\026\337\033\"u\215\364\022\262\275\346\010=\266"
 775      DF1B2275 
 775      8DF412B2 
 775      BDE6083D 
 775      B6
 776 1379 39EBDB98 		.ascii	"9\353\333\230m\316#(\220\035\260d\035\330Z\026\354\224"
 776      6DCE2328 
 776      901DB064 
 776      1DD85A16 
 776      EC94
 777 138b 15B0085B 		.ascii	"\025\260\010[\303\353X\2603\266\301\364\3146\260`\347"
 777      C3EB58B0 
 777      33B6C1F4 
 777      CC36B060 
ARM GAS  /tmp/ccYbVqKw.s 			page 62


 777      E7
 778 139c AD8045D8 		.ascii	"\255\200E\330\032~\233\005\273b\033L\317\354\035\026"
 778      1A7E9B05 
 778      BB621B4C 
 778      CFEC1D16 
 779 13ac EC9615B0 		.ascii	"\354\226\025\260\010?\026\332\322\306l[\325~\317.\230"
 779      083F16DA 
 779      D2C66C5B 
 779      D57ECF2E 
 779      98
 780 13bd 9ED97B2C 		.ascii	"\236\331{,\263:+`\311\346:{\237\005[`\033\214a\006="
 780      B33A2B60 
 780      C9E63A7B 
 780      9F055B60 
 780      1B8C6106 
 781 13d2 A6F5A93A 		.ascii	"\246\365\251:9\024\263q\222\023\216\234\303\365\336"
 781      3914B371 
 781      92138E9C 
 781      C3F5DE
 782 13e1 208B3B69 		.ascii	" \213;i\344\014\307b\362\003\004\236\201\256\032=5\333"
 782      E40CC762 
 782      F203049E 
 782      81AE1A3D 
 782      35DB
 783 13f3 1F0471F6 		.ascii	"\037\004q\366\263\342\274aE\034\263W\225\001\354\023"
 783      B3E2BC61 
 783      451CB357 
 783      9501EC13 
 784 1403 166C836D 		.ascii	"\026l\203m0\275\325\016\262`\357Y\001\213\360C\334C"
 784      30BDD50E 
 784      B260EF59 
 784      018BF043 
 784      DC43
 785 1415 AC3F7D64 		.ascii	"\254?}d\033L\317\354\010\313\254\305\012\330ps\235\035"
 785      1B4CCFEC 
 785      08CBACC5 
 785      0AD87073 
 785      9D1D
 786 1427 63C10EDA 		.ascii	"c\301\016\332\006\323\373\323\361\247\010\026q\024I"
 786      06D3FBD3 
 786      F1A70816 
 786      711449
 787 1436 386EC533 		.ascii	"8n\3053\314~\207K\376\360\210%v\326\0121\263\237\316"
 787      CC7E874B 
 787      FEF08825 
 787      76D60A31 
 787      B39FCE
 788 1449 923F3C62 		.ascii	"\222?<b\301.\331\006\323\353\377\012\013v\323\012X\204"
 788      C12ED906 
 788      D3EBFF0A 
 788      0B76D30A 
 788      5884
 789 145b 9FCE5ED3 		.ascii	"\237\316^\323E\232\357\333\005\3233\353\324E\032+`O"
 789      459AEFDB 
 789      05D333EB 
 789      D4451A2B 
 789      604F
ARM GAS  /tmp/ccYbVqKw.s 			page 63


 790 146d 9BEBEC06 		.ascii	"\233\353\354\006\013\266\3206\230\3363n2\236\361\012"
 790      0BB6D036 
 790      98DE336E 
 790      329EF10A 
 791 147d 8F65E419 		.ascii	"\217e\344\031E\346\304n\263\304\336\264B\254\302\034"
 791      45E6C46E 
 791      B3C4DEB4 
 791      42ACC21C 
 792 148d ACEE08FB 		.ascii	"\254\356\010\373z\253m0\275\2243\377;,\345&+RV\231\023"
 792      7AAB6D30 
 792      BD9433FF 
 792      3B2CE526 
 792      2B525699 
 793 14a2 9BCD12DB 		.ascii	"\233\315\022\333n\205\230\"\232\243\315e\321v\331GK"
 793      6E859822 
 793      9AA3CD65 
 793      D176D947 
 793      4B
 794 14b3 164C3FEC 		.ascii	"\026L?\354LL\026\337r\341\017\012\\\344\365\212\365"
 794      4C4C16DF 
 794      72E10F0A 
 794      5CE4F58A 
 794      F5
 795 14c4 986FC47C 		.ascii	"\230o\304|\023\346\2331\177\027\363\255\230o\303|;\346"
 795      13E69B31 
 795      7F17F3AD 
 795      986FC37C 
 795      3BE6
 796 14d6 1F62BE03 		.ascii	"\037b\276\003\363\335\2307a\3767\314[0o\305|?\346\237"
 796      F3DD9837 
 796      61FE37CC 
 796      5B306FC5 
 796      7C3FE69F 
 797 14ea 607E10F3 		.ascii	"`~\020\363C\230\037\301\374\030\346\3071o\307\374\024"
 797      43981FC1 
 797      FC18E6C7 
 797      316FC7FC 
 797      14
 798 14fb E69F63FE 		.ascii	"\346\237c\376%\346g1?\207\371\327.\3465\020n:\277\332"
 798      25E66731 
 798      3F87F9D7 
 798      2EE63510 
 798      6E3ABFDA 
 799 150f 444B44EE 		.ascii	"DKD\356o]\306o\206D^&\3560\255u=\302\243\303\005\027"
 799      6F5DC66F 
 799      86445E26 
 799      EE30AD75 
 799      3DC2A3C3 
 800 1525 FF9CA8D4 		.ascii	"\377\234\250\324\006M\377\352O\026o\342\363Y\264\177"
 800      064DFFEA 
 800      4F166FE2 
 800      F359B47F 
 801 1535 E3E30890 		.ascii	"\343\343\010\220u\0363\002\227Li/\216@\373\262A\255"
 801      751E3302 
 801      974C692F 
 801      8E40FBB2 
 801      41AD
ARM GAS  /tmp/ccYbVqKw.s 			page 64


 802 1547 A0DDFF3A 		.ascii	"\240\335\377:\243\177\273\032\351\277\015\255\012\214"
 802      A37FBB1A 
 802      E9BF0DAD 
 802      0A8C
 803 1555 8F16132D 		.ascii	"\217\026\023-\377\263#\371v\003_'\252\226\214|$\262"
 803      FFB323F9 
 803      76035F27 
 803      AA968C7C 
 803      24B2
 804 1567 28B2381D 		.ascii	"(\2628\035\237\326\371\277ns\026\024\311\276\021)E\345"
 804      9FD6F9BF 
 804      6E731614 
 804      C9BE1129 
 804      45E5
 805 1579 A5DE9482 		.ascii	"\245\336\224\202\362\302\347R\012\275\023R\012\212\212"
 805      F2C2E752 
 805      0ABD1352 
 805      0A8A8A
 806 1588 C71697FB 		.ascii	"\307\026\227\373S\002\276\312\262gR\340\304\027H\251"
 806      5302BECA 
 806      B26752E0 
 806      C41748A9 
 807 1598 28F705FC 		.ascii	"(\367\005\374)\231\356\321Y\243\253\240diEq\211\327"
 807      2999EED1 
 807      59A3ABA0 
 807      64694571 
 807      89D7
 808 15aa E74F793C 		.ascii	"\347Oy<+\013\212\007\236\253\360\372\007\027\011\256"
 808      2B0B8A07 
 808      9EABF0FA 
 808      071709AE 
 809 15ba 52FF784F 		.ascii	"R\377xO \346\361'\236L\316\022~\226R\351\367\245\310"
 809      20E6F127 
 809      9E4CCE12 
 809      7E9652E9 
 809      F7A5C8
 810 15cd BED207CA 		.ascii	"\276\322\007\312\312\313\274\017x\345\261\305)\305e"
 810      CACBBC0F 
 810      78E5B1C5 
 810      29C565
 811 15dc 05259585 		.ascii	"\005%\225\205\336\024\177\240\260\270,\0005b\341\220"
 811      DE147FA0 
 811      B0B82C00 
 811      3562E190 
 812 15ec 91EE090C 		.ascii	"\221\356\011\014\211P\270T\006Be\336\024O\241w\234\\"
 812      8950B854 
 812      064265DE 
 812      144FA177 
 812      9C5C
 813 15fe 5912F068 		.ascii	"Y\022\360h\315\305{<\264zz4\011\212\344\222p\343\025"
 813      CDC57B3C 
 813      B47A7A34 
 813      098AE492 
 813      70E315
 814 1611 C550B90F 		.ascii	"\305P\271\017\034\374\0019\340\365\004\372\344\345\216"
 814      1CFC0139 
 814      E0F504FA 
ARM GAS  /tmp/ccYbVqKw.s 			page 65


 814      E4E58E
 815 1620 F43CF9C4 		.ascii	"\364<\371\304\310'F\346\307\221\323\274\3741\271\361"
 815      C82746E6 
 815      C791D3BC 
 815      FC31B9F1 
 816 1630 E4C49D93 		.ascii	"\344\304\235\223\231\375\007\274\233\231\225?\362w9"
 816      99FD07BC 
 816      9B99953F 
 816      F27739
 817 163f 89E4346B 		.ascii	"\211\3444k\314\350\334Q9\3719\331V\332T\325\226\227"
 817      CCE8DC51 
 817      39F939D9 
 817      56DA54D5 
 817      9697
 818 1651 3F3A233D 		.ascii	"?:#=e\324\250\354\024\000\230\220F\030xJJ\012\211\010"
 818      65D4A8EC 
 818      14009890 
 818      4618784A 
 818      4A0A8908 
 819 1665 7021DB57 		.ascii	"p!\333W<\301\353s!\231;\340V\201\\R2V.x\0064\351-+\364"
 819      3CC1EB73 
 819      21993BE0 
 819      56815C52 
 819      32562E78 
 820 167f 148CCDE9 		.ascii	"\024\214\315\351MK\217\347\216\0343!=\245B.\241M%\372"
 820      4D4B8FE7 
 820      8E1C3321 
 820      3DA5422E 
 820      A14D25FA 
 821 1693 03A5A0AB 		.ascii	"\003\245\240\253\361\025\305\345\236@\\%\325\\\037\217"
 821      F115C5E5 
 821      9E405C25 
 821      D55C1F8F 
 822 16a3 473B758D 		.ascii	"G;u\215\036\223\235\343\216\031\223\377\207\334\034"
 822      1E939DE3 
 822      8E1993FF 
 822      87DC1C
 823 16b2 77EC98BC 		.ascii	"w\354\230\274\334\234\234l\267+\367\311\334l\267c$\244"
 823      DC9C9C6C 
 823      B72BF7C9 
 823      DC6CB763 
 823      24A4
 824 16c4 31D96EF1 		.ascii	"1\331n\361)\254\230\366`\250\"9u\370\275\001WA\211W"
 824      29AC98F6 
 824      60A82239 
 824      75F8BD01 
 824      57418957 
 825 16d8 F689239C 		.ascii	"\366\211#\234\217\346\271\335\316QY\377\345vf>\346\036"
 825      8FE6B9DD 
 825      CE5159FF 
 825      E576663E 
 825      E61E
 826 16ea 45B2118E 		.ascii	"E\262\021\216G\335\356>\305\345\204aq!H\345\367\223"
 826      47DDEE3E 
 826      C5E58461 
 826      712148E5 
 826      F793
ARM GAS  /tmp/ccYbVqKw.s 			page 66


 827 16fc 53171CE4 		.ascii	"S\027\034\344BG\201/\215(!\253\274l\\\361\370\230\002"
 827      4247812F 
 827      8D2821AB 
 827      BC6C5CF1 
 827      F89802
 828 170f 3C0CB5E0 		.ascii	"<\014\265\340\220\2325\013\212\374\317\3715\217\210"
 828      909A350B 
 828      8AFCCFF9 
 828      358F88
 829 171e 0B14F9BC 		.ascii	"\013\024\371\2742\264\021_P\344Q\317\207\330\303*(\""
 829      32B4115F 
 829      50E451CF 
 829      87D8C32A 
 829      2822
 830 1730 BA8AA9F0 		.ascii	"\272\212\251\360\224y\253\002p\250\360y'\304\006*|D"
 830      9479AB02 
 830      70A8F079 
 830      27C4062A 
 830      7C44
 831 1742 69F8B5B8 		.ascii	"i\370\265\270<\026H\006\340\356\303\266\273MQA\271\317"
 831      3C164806 
 831      E0EEC3B6 
 831      BB4D5141 
 831      B9CF
 832 1754 0BF009E4 		.ascii	"\013\360\011\3442\361\335\202@\325\177\364\016\3053"
 832      32F1DD82 
 832      40D57FF4 
 832      0EC533
 833 1763 E1A15222 		.ascii	"\341\241R\"\260\317;\036z\015\261A\332\203\220\036\202"
 833      B0CF3B1E 
 833      7A0DB141 
 833      DA83901E 
 833      82
 834 1774 3414D2C3 		.ascii	"4\024\322\303\016\177z*\2444H\351\2202 \015\201\364"
 834      0E7F7A2A 
 834      A43448E9 
 834      9032200D 
 834      81F4
 835 1786 2B48502E 		.ascii	"+HP.\035\312\245C\271t(\227\001\3452\322$\337\020\311"
 835      1DCAA543 
 835      B9742897 
 835      01E532D2 
 835      24DF10C9 
 836 179a F72BC9F7 		.ascii	"\367+\311\367\240\344{H\362\015\225|\017;|i\251\220"
 836      A0E47B48 
 836      F20D957C 
 836      0F3B7C69 
 836      A990
 837 17ac D2A4121F 		.ascii	"\322\244\022\037\0342\\\025\036`\033K\024\363\254\327"
 837      1C325C15 
 837      1E601B4B 
 837      14F3ACD7 
 838 17bc 07C7F292 		.ascii	"\007\307\362\222B\257\217(J.\365\306\005hW\212%>1\024"
 838      42AF8F28 
 838      4A2EF5C6 
 838      0568578A 
 838      253E3114 
ARM GAS  /tmp/ccYbVqKw.s 			page 67


 839 17d0 F4AF7A07 		.ascii	"\364\257z\007\234AI\274\027\033(-/\364\342\367q%\362"
 839      9C4149BC 
 839      171B282D 
 839      2FF4E2F7 
 839      7125F2
 840 17e3 787F6CC0 		.ascii	"x\177l\300\347\035\347G\245\222\223\030_\341s\020=\342"
 840      E71DE747 
 840      A5929318 
 840      5FE17310 
 840      3DE2
 841 17f5 BC55C501 		.ascii	"\274U\305\001\320\2057\346\331@\371\330?U$x'x\313\002"
 841      D08537E6 
 841      D940F9D8 
 841      3F552478 
 841      2778CB02 
 842 1809 A5B21F7B 		.ascii	"\245\262\037{\303\263\344\304Q\341\251LRm\353\367\224"
 842      C3B3E4C4 
 842      51E1A94C 
 842      526DEBF7 
 842      94
 843 181a 401FF604 		.ascii	"@\037\366\004\372\206\254\255^\211\257\360<+\027\007"
 843      FA86ACAD 
 843      5E89AFF0 
 843      3C2B1707 
 844 182a 8ACBC6F7 		.ascii	"\212\313\306\367\325.\377\271\322[\011\255\367cJ\342"
 844      D52EFFB9 
 844      D25B09AD 
 844      F7634AE2 
 845 183a A53E151E 		.ascii	"\245>\025\036h\026O]x\012\027\274\025\320\357\240\262"
 845      68164F5D 
 845      780A17BC 
 845      15D0EFA0 
 845      B2
 846 184b ABB412EC 		.ascii	"\253\264\022\354\234a\313\201J\003U$\254\225\252\350"
 846      9C61CB81 
 846      4A035524 
 846      AC95AAE8 
 847 185b 702C7FB6 		.ascii	"p,\177\266\014\324\205H B)\372\025\360\203r\204i\037"
 847      0CD48548 
 847      204229FA 
 847      15F08372 
 847      84691F
 848 186e 22BD5C82 		.ascii	"\"\275\\\202n\005\027+\312\313K\036\262\325\036\025"
 848      6E05172B 
 848      CACB4B1E 
 848      B2D51E15 
 849 187e 06DAEC4F 		.ascii	"\006\332\354O}\037\264\351\365y\313\012@\332\030\365"
 849      7D1FB4E9 
 849      F579CB0A 
 849      40DA18F5 
 850 188e D26FA221 		.ascii	"\322o\242!\002\245\224\254\321y#\363 ~\244`\230\030"
 850      02A594AC 
 850      D17923F3 
 850      207EA460 
 850      9818
 851 18a0 372435AD 		.ascii	"7$5\255\252\200\270*\011y\371\320\275\262\275\343\034"
 851      AA80B82A 
ARM GAS  /tmp/ccYbVqKw.s 			page 68


 851      0979F9D0 
 851      BDB2BDE3 
 851      1C
 852 18b1 59EE3448 		.ascii	"Y\3564H\351R\236[\202\310\220\345\316\312u\307\270\177"
 852      E9529E5B 
 852      82C890E5 
 852      CECA75C7 
 852      B87F
 853 18c3 0F47774C 		.ascii	"\017GwL>\036bG\246\347e=\366\270\333\005\307\\\267\003"
 853      3E1E6247 
 853      A6E7653D 
 853      F6B8DB05 
 853      C75CB703 
 854 18d7 82D96376 		.ascii	"\202\331cvc\027\346\217\015\251\252R\211x\012Ke\"\\"
 854      6317E68F 
 854      0DA9AA52 
 854      89780A4B 
 854      65225C
 855 18ea F6E84C4F 		.ascii	"\366\350LO\036\270\214\\\252\261\221\262\334\316'\262"
 855      1EB88C5C 
 855      AAB191B2 
 855      DCCE27B2 
 856 18fa F3DD8EDC 		.ascii	"\363\335\216\334L\267st*\311\3222\335\216\307\200\214"
 856      4CB77374 
 856      2AC9D232 
 856      DD8EC780 
 856      8C
 857 190b 1F0B3A8B 		.ascii	"\037\013:\213\307\025\370b\212\375E\305\343\002\361"
 857      C715F862 
 857      8AFD45C5 
 857      E302F1
 858 191a 7E6FC9B8 		.ascii	"~o\311\270\342\262BoU\314\004oA\240\334\327?\204\356"
 858      E2B2426F 
 858      55CC046F 
 858      41A0DCD7 
 858      3F84EE
 859 192d 514B43FC 		.ascii	"QKC\374\203/\276*\222\007\252\342}Up$\036\033\037\320"
 859      832FBE2A 
 859      9207AAE2 
 859      7D557024 
 859      1E1B1FD0 
 860 1941 CEBE8380 		.ascii	"\316\276\203\200_ \374\220\236z\374^\337\0040Q\025\011"
 860      5F20FC90 
 860      9E7AFC5E 
 860      DF043051 
 860      1509
 861 1953 035E9FAF 		.ascii	"\003^\237\257\262\"\340\204[\025.\354\034\\)\037S\352"
 861      B222E084 
 861      5B152EEC 
 861      1C5C291F 
 861      53EA
 862 1965 AED0AD40 		.ascii	"\256\320\255@y\305\340\012\331\027\030\234\232\250]"
 862      79C5E00A 
 862      D917189C 
 862      9AA85D
 863 1974 2B2E2B0E 		.ascii	"+.+\016\334\021.\0007\023\331\342Ia\330\022\320B?\355"
 863      DC112E00 
ARM GAS  /tmp/ccYbVqKw.s 			page 69


 863      3713D9E2 
 863      4961D812 
 863      D0423FED 
 864 1988 6B65997A 		.ascii	"ke\231z!\035G\341\222\342\261)\343\013\012\270\321x"
 864      211D47E1 
 864      92E2B129 
 864      E30B0AB8 
 864      D178
 865 199a C8E0A183 		.ascii	"\310\340\241\203\207\260\0038\214\306$R\372\213\377"
 865      87B00338 
 865      8CC62452 
 865      FA8BFF
 866 19a9 17C40821 		.ascii	"\027\304\010!\027\217/\203\350$\226\205\260\275U0\305"
 866      178F2F83 
 866      E8249685 
 866      B0BD5530 
 866      C5
 867 19ba 281BEF75 		.ascii	"(\033\357u\005\252\306V\216s\371H\036&\005\035\255\257"
 867      05AAC656 
 867      8E73F948 
 867      1E26051D 
 867      ADAF
 868 19cc F6C5E72D 		.ascii	"\366\305\347-\360\302H\370\003\355{EyI\211\227\001\030"
 868      F0C248F8 
 868      03ED7B45 
 868      79498997 
 868      0118
 869 19de E7834863 		.ascii	"\347\203Hc\2577\302\320@\006\331\202\242\274\347\374"
 869      AF37C2D0 
 869      4006D982 
 869      A2BCE7FC 
 870 19ee 23E49240 		.ascii	"#\344\222@bAQ~Q\241\333\353\257,\365\216$\212\0323\366"
 870      6241517E 
 870      51A1DBEB 
 870      AF2CF58E 
 870      248A1A33 
 871 1a03 4F20F748 		.ascii	"O \367HP\233\313\363(t\276\244\220[\024\373}\236\300"
 871      509BCBF3 
 871      2874BEA4 
 871      905B14FB 
 871      7D9EC0
 872 1a16 9D70A27A 		.ascii	"\235p\242z]fIIy\001\204\261~\241+nP\231\354\367\272"
 872      5D664949 
 872      790184B1 
 872      7EA12B6E 
 872      5099ECF7 
 873 1a2b C8089E11 		.ascii	"\310\010\236\021[XYZ\372\\\240\252\277\207\367+\277"
 873      5B58595A 
 873      FA5CA0AA 
 873      BF87F72B 
 873      BF
 874 1a3c 7ACB173D 		.ascii	"z\313\027=\216\020\367)\367C\006\"\220#\351}\344H\271"
 874      8E10F729 
 874      F7430622 
 874      9023E97D 
 874      E448B9
 875 1a4f C7009ABF 		.ascii	"\307\000\232\277\274\354Nr)\037\3735\225\303\021\360"
ARM GAS  /tmp/ccYbVqKw.s 			page 70


 875      BCEC4E72 
 875      291FFB35 
 875      95C311F0 
 876 1a5f 55382072 		.ascii	"U8 r%\270\263\262\264\316\021\233;j\024\351\210N\222"
 876      25B8B3B2 
 876      B4CE119B 
 876      3B6A14E9 
 876      884E92
 877 1a72 39B246BA 		.ascii	"9\262F\272\3432G<\232\346\316\313\307\223t\355$\203"
 877      E332473C 
 877      9AE6CECB 
 877      C79374ED 
 877      2483
 878 1a84 9CC4BB73 		.ascii	"\234\304\273s\362r\334\277\313\311N\215\313\314\325"
 878      F272DCBF 
 878      CBC94E8D 
 878      CBCCD5
 879 1a93 0AE5AA85 		.ascii	"\012\345\252\205B\367\322b\011@\316\023nrL\247\307\014"
 879      42F7D262 
 879      0940CE13 
 879      6E724CA7 
 879      C70C
 880 1aa5 38864AA4 		.ascii	"8\206J\244\307\222\332x'\027K\204\356d\304\223\272\243"
 880      C792DA78 
 880      27174B84 
 880      EE64C493 
 880      BAA3
 881 1ab7 72C93552 		.ascii	"r\3115R;t\226\241\236i\345\206\304\023\004z7W+\247\335"
 881      3B7496A1 
 881      9E69E586 
 881      C413047A 
 881      37572BA7 
 882 1acc FD95F3D1 		.ascii	"\375\225\363\321\354,\220%/|\351AW^^\326\343\356> ,"
 882      EC2C9025 
 882      2F7CE941 
 882      575E5ED6 
 882      E3EE3E20 
 883 1ae1 0D3CFF0F 		.ascii	"\015<\377\017\320w5\021"
 883      D0773511 
 884              		.text
 885              		.section	.gnu.lto_.symtab.51ec3df8cc403039,"",%progbits
 886 0000 7370695F 		.ascii	"spi_lld_init\000\000\000\000\000\000\000\000\000\000"
 886      6C6C645F 
 886      696E6974 
 886      00000000 
 886      00000000 
 887 0016 00001F02 		.ascii	"\000\000\037\002\000\000SPID3\000\000\000\000\000\000"
 887      00005350 
 887      49443300 
 887      00000000 
 887      00
 888 0027 00000000 		.ascii	"\000\000\000\000\000\000\213\002\000\000spi_lld_sta"
 888      00008B02 
 888      00007370 
 888      695F6C6C 
 888      645F7374 
 889 003c 72740000 		.ascii	"rt\000\000\000\000\000\000\000\000\000\000\000\000#"
ARM GAS  /tmp/ccYbVqKw.s 			page 71


 889      00000000 
 889      00000000 
 889      000023
 890 004b 02000073 		.ascii	"\002\000\000spi_lld_stop\000\000\000\000\000\000\000"
 890      70695F6C 
 890      6C645F73 
 890      746F7000 
 890      00000000 
 891 0061 00000000 		.ascii	"\000\000\000\000\000'\002\000\000spi_lld_select\000"
 891      00270200 
 891      00737069 
 891      5F6C6C64 
 891      5F73656C 
 892 0079 00000000 		.ascii	"\000\000\000\000\000\000\000\000\000\000\000+\002\000"
 892      00000000 
 892      0000002B 
 892      0200
 893 0087 00737069 		.ascii	"\000spi_lld_unselect\000\000\000\000\000\000\000\000"
 893      5F6C6C64 
 893      5F756E73 
 893      656C6563 
 893      74000000 
 894 00a0 00000000 		.ascii	"\000\000\000\000/\002\000\000spi_lld_ignore\000\000"
 894      2F020000 
 894      7370695F 
 894      6C6C645F 
 894      69676E6F 
 895 00b8 00000000 		.ascii	"\000\000\000\000\000\000\000\000\000\0003\002\000\000"
 895      00000000 
 895      00003302 
 895      0000
 896 00c6 7370695F 		.ascii	"spi_lld_exchange\000\000\000\000\000\000\000\000\000"
 896      6C6C645F 
 896      65786368 
 896      616E6765 
 896      00000000 
 897 00df 0000003F 		.ascii	"\000\000\000?\002\000\000spi_lld_send\000\000\000\000"
 897      02000073 
 897      70695F6C 
 897      6C645F73 
 897      656E6400 
 898 00f6 00000000 		.ascii	"\000\000\000\000\000\000\000\000M\002\000\000spi_ll"
 898      00000000 
 898      4D020000 
 898      7370695F 
 898      6C6C
 899 0108 645F7265 		.ascii	"d_receive\000\000\000\000\000\000\000\000\000\000\000"
 899      63656976 
 899      65000000 
 899      00000000 
 899      00000000 
 900 011c 00570200 		.ascii	"\000W\002\000\000spi_lld_polled_exchange\000\000\000"
 900      00737069 
 900      5F6C6C64 
 900      5F706F6C 
 900      6C65645F 
 901 013b 00000000 		.ascii	"\000\000\000\000\000\000\000\000\000a\002\000\000_s"
ARM GAS  /tmp/ccYbVqKw.s 			page 72


 901      00000000 
 901      00610200 
 901      005F73
 902 014a 746D3332 		.ascii	"tm32_dma_streams\000\000\002\000\000\000\000\000\000"
 902      5F646D61 
 902      5F737472 
 902      65616D73 
 902      00000200 
 903 0163 0000008F 		.ascii	"\000\000\000\217\002\000\000chSysHalt\000\000\002\000"
 903      02000063 
 903      68537973 
 903      48616C74 
 903      00000200 
 904 0177 00000000 		.ascii	"\000\000\000\000\000\000\000\000j\002\000\000chThdR"
 904      00000000 
 904      6A020000 
 904      63685468 
 904      6452
 905 0189 6573756D 		.ascii	"esumeI\000\000\002\000\000\000\000\000\000\000\000\000"
 905      65490000 
 905      02000000 
 905      00000000 
 905      0000
 906 019b 6E020000 		.ascii	"n\002\000\000spiObjectInit\000\000\002\000\000\000\000"
 906      7370694F 
 906      626A6563 
 906      74496E69 
 906      74000002 
 907 01b3 00000000 		.ascii	"\000\000\000\000\000t\002\000\000dmaStreamAllocate\000"
 907      00740200 
 907      00646D61 
 907      53747265 
 907      616D416C 
 908 01ce 00020000 		.ascii	"\000\002\000\000\000\000\000\000\000\000\000v\002\000"
 908      00000000 
 908      00000076 
 908      0200
 909 01dc 00646D61 		.ascii	"\000dmaStreamRelease\000\000\002\000\000\000\000\000"
 909      53747265 
 909      616D5265 
 909      6C656173 
 909      65000002 
 910 01f5 00000000 		.ascii	"\000\000\000\000\207\002\000\000"
 910      87020000 
 911              		.text
 912              		.section	.gnu.lto_.opts,"",%progbits
 913 0000 272D6D63 		.ascii	"'-mcpu=cortex-m4' '-mfloat-abi=hard' '-mfpu=fpv4-sp"
 913      70753D63 
 913      6F727465 
 913      782D6D34 
 913      2720272D 
 914 0033 2D643136 		.ascii	"-d16' '-mno-thumb-interwork' '-mthumb' '-O2' '-fomi"
 914      2720272D 
 914      6D6E6F2D 
 914      7468756D 
 914      622D696E 
 915 0066 742D6672 		.ascii	"t-frame-pointer' '-falign-functions=16' '-ffunction"
ARM GAS  /tmp/ccYbVqKw.s 			page 73


 915      616D652D 
 915      706F696E 
 915      74657227 
 915      20272D66 
 916 0099 2D736563 		.ascii	"-sections' '-fdata-sections' '-fno-common' '-flto' "
 916      74696F6E 
 916      73272027 
 916      2D666461 
 916      74612D73 
 917 00cc 272D6673 		.ascii	"'-fsingle-precision-constant'\000"
 917      696E676C 
 917      652D7072 
 917      65636973 
 917      696F6E2D 
 918              		.text
 919              		.section	.text.spi_lld_serve_tx_interrupt,"ax",%progbits
 920              		.align	2
 921              		.p2align 4,,15
 922              		.thumb
 923              		.thumb_func
 924              		.type	spi_lld_serve_tx_interrupt, %function
 925              	spi_lld_serve_tx_interrupt:
 926              		@ args = 0, pretend = 0, frame = 0
 927              		@ frame_needed = 0, uses_anonymous_args = 0
 928              		@ link register save eliminated.
 929 0000 11F00C0F 		tst	r1, #12
 930 0004 00D1     		bne	.L4
 931 0006 7047     		bx	lr
 932              	.L4:
 933 0008 0148     		ldr	r0, .L5
 934 000a FFF7FEBF 		b	chSysHalt
 935              	.L6:
 936 000e 00BF     		.align	2
 937              	.L5:
 938 0010 00000000 		.word	.LC0
 939              		.size	spi_lld_serve_tx_interrupt, .-spi_lld_serve_tx_interrupt
 940 0014 AFF30080 		.section	.text.spi_lld_serve_rx_interrupt,"ax",%progbits
 940      AFF30080 
 940      AFF30080 
 941              		.align	2
 942              		.p2align 4,,15
 943              		.thumb
 944              		.thumb_func
 945              		.type	spi_lld_serve_rx_interrupt, %function
 946              	spi_lld_serve_rx_interrupt:
 947              		@ args = 0, pretend = 0, frame = 0
 948              		@ frame_needed = 0, uses_anonymous_args = 0
 949 0000 11F00C0F 		tst	r1, #12
 950 0004 38B5     		push	{r3, r4, r5, lr}
 951 0006 0446     		mov	r4, r0
 952 0008 34D1     		bne	.L18
 953              	.L8:
 954 000a 606A     		ldr	r0, [r4, #36]
 955 000c 0268     		ldr	r2, [r0]
 956 000e 1368     		ldr	r3, [r2]
 957 0010 23F01F03 		bic	r3, r3, #31
 958 0014 1360     		str	r3, [r2]
ARM GAS  /tmp/ccYbVqKw.s 			page 74


 959              	.L10:
 960 0016 1368     		ldr	r3, [r2]
 961 0018 D907     		lsls	r1, r3, #31
 962 001a FCD4     		bmi	.L10
 963 001c 057A     		ldrb	r5, [r0, #8]	@ zero_extendqisi2
 964 001e 216A     		ldr	r1, [r4, #32]
 965 0020 4368     		ldr	r3, [r0, #4]
 966 0022 0A68     		ldr	r2, [r1]
 967 0024 3D20     		movs	r0, #61
 968 0026 A840     		lsls	r0, r0, r5
 969 0028 1860     		str	r0, [r3]
 970 002a 1368     		ldr	r3, [r2]
 971 002c 23F01F03 		bic	r3, r3, #31
 972 0030 1360     		str	r3, [r2]
 973              	.L12:
 974 0032 1368     		ldr	r3, [r2]
 975 0034 DB07     		lsls	r3, r3, #31
 976 0036 FCD4     		bmi	.L12
 977 0038 6368     		ldr	r3, [r4, #4]
 978 003a 087A     		ldrb	r0, [r1, #8]	@ zero_extendqisi2
 979 003c 4A68     		ldr	r2, [r1, #4]
 980 003e 1B68     		ldr	r3, [r3]
 981 0040 3D21     		movs	r1, #61
 982 0042 8140     		lsls	r1, r1, r0
 983 0044 1160     		str	r1, [r2]
 984 0046 93B1     		cbz	r3, .L13
 985 0048 0422     		movs	r2, #4
 986 004a 2270     		strb	r2, [r4]
 987 004c 2046     		mov	r0, r4
 988 004e 9847     		blx	r3
 989 0050 2378     		ldrb	r3, [r4]	@ zero_extendqisi2
 990 0052 042B     		cmp	r3, #4
 991 0054 0BD0     		beq	.L13
 992              	.L14:
 993 0056 2023     		movs	r3, #32
 994              	@ 546 "/home/cody/dev/chibios/trunk/os/ext/CMSIS/include/core_cmFunc.h" 1
 995 0058 83F31188 		MSR basepri, r3
 996              	@ 0 "" 2
 997              		.thumb
 998 005c 0021     		movs	r1, #0
 999 005e 04F10800 		add	r0, r4, #8
 1000 0062 FFF7FEFF 		bl	chThdResumeI
 1001 0066 0023     		movs	r3, #0
 1002              	@ 546 "/home/cody/dev/chibios/trunk/os/ext/CMSIS/include/core_cmFunc.h" 1
 1003 0068 83F31188 		MSR basepri, r3
 1004              	@ 0 "" 2
 1005              		.thumb
 1006 006c 38BD     		pop	{r3, r4, r5, pc}
 1007              	.L13:
 1008 006e 0223     		movs	r3, #2
 1009 0070 2370     		strb	r3, [r4]
 1010 0072 F0E7     		b	.L14
 1011              	.L18:
 1012 0074 0148     		ldr	r0, .L19
 1013 0076 FFF7FEFF 		bl	chSysHalt
 1014 007a C6E7     		b	.L8
 1015              	.L20:
ARM GAS  /tmp/ccYbVqKw.s 			page 75


 1016              		.align	2
 1017              	.L19:
 1018 007c 00000000 		.word	.LC0
 1019              		.size	spi_lld_serve_rx_interrupt, .-spi_lld_serve_rx_interrupt
 1020              		.section	.text.spi_lld_init,"ax",%progbits
 1021              		.align	2
 1022              		.p2align 4,,15
 1023              		.global	spi_lld_init
 1024              		.thumb
 1025              		.thumb_func
 1026              		.type	spi_lld_init, %function
 1027              	spi_lld_init:
 1028              		@ args = 0, pretend = 0, frame = 0
 1029              		@ frame_needed = 0, uses_anonymous_args = 0
 1030 0000 10B5     		push	{r4, lr}
 1031 0002 0A4C     		ldr	r4, .L22
 1032 0004 0A4B     		ldr	r3, .L22+4
 1033 0006 4FF6FF72 		movw	r2, #65535
 1034 000a 2046     		mov	r0, r4
 1035 000c 1A80     		strh	r2, [r3]	@ movhi
 1036 000e FFF7FEFF 		bl	spiObjectInit
 1037 0012 084B     		ldr	r3, .L22+8
 1038 0014 084A     		ldr	r2, .L22+12
 1039 0016 E261     		str	r2, [r4, #28]
 1040 0018 03F15400 		add	r0, r3, #84
 1041 001c 1621     		movs	r1, #22
 1042 001e 4622     		movs	r2, #70
 1043 0020 2362     		str	r3, [r4, #32]
 1044 0022 6062     		str	r0, [r4, #36]
 1045 0024 A162     		str	r1, [r4, #40]
 1046 0026 E262     		str	r2, [r4, #44]
 1047 0028 10BD     		pop	{r4, pc}
 1048              	.L23:
 1049 002a 00BF     		.align	2
 1050              	.L22:
 1051 002c 00000000 		.word	.LANCHOR1
 1052 0030 00000000 		.word	.LANCHOR0
 1053 0034 00000000 		.word	_stm32_dma_streams
 1054 0038 003C0040 		.word	1073757184
 1055              		.size	spi_lld_init, .-spi_lld_init
 1056 003c AFF30080 		.section	.text.spi_lld_start,"ax",%progbits
 1057              		.align	2
 1058              		.p2align 4,,15
 1059              		.global	spi_lld_start
 1060              		.thumb
 1061              		.thumb_func
 1062              		.type	spi_lld_start, %function
 1063              	spi_lld_start:
 1064              		@ args = 0, pretend = 0, frame = 0
 1065              		@ frame_needed = 0, uses_anonymous_args = 0
 1066 0000 0378     		ldrb	r3, [r0]	@ zero_extendqisi2
 1067 0002 012B     		cmp	r3, #1
 1068 0004 10B5     		push	{r4, lr}
 1069 0006 0446     		mov	r4, r0
 1070 0008 1DD0     		beq	.L30
 1071 000a C369     		ldr	r3, [r0, #28]
 1072              	.L25:
ARM GAS  /tmp/ccYbVqKw.s 			page 76


 1073 000c 6268     		ldr	r2, [r4, #4]
 1074 000e A06A     		ldr	r0, [r4, #40]
 1075 0010 5289     		ldrh	r2, [r2, #10]
 1076 0012 E16A     		ldr	r1, [r4, #44]
 1077 0014 20F4F040 		bic	r0, r0, #30720
 1078 0018 21F4F041 		bic	r1, r1, #30720
 1079 001c 12F4006F 		tst	r2, #2048
 1080 0020 1CBF     		itt	ne
 1081 0022 40F42050 		orrne	r0, r0, #10240
 1082 0026 41F42051 		orrne	r1, r1, #10240
 1083 002a A062     		str	r0, [r4, #40]
 1084 002c E162     		str	r1, [r4, #44]
 1085 002e 42F44172 		orr	r2, r2, #772
 1086 0032 0020     		movs	r0, #0
 1087 0034 0721     		movs	r1, #7
 1088 0036 1860     		str	r0, [r3]
 1089 0038 1A60     		str	r2, [r3]
 1090 003a 5960     		str	r1, [r3, #4]
 1091 003c 1A68     		ldr	r2, [r3]
 1092 003e 42F04002 		orr	r2, r2, #64
 1093 0042 1A60     		str	r2, [r3]
 1094 0044 10BD     		pop	{r4, pc}
 1095              	.L30:
 1096 0046 0F4B     		ldr	r3, .L33
 1097 0048 9842     		cmp	r0, r3
 1098 004a 09D0     		beq	.L32
 1099              	.L26:
 1100 004c 216A     		ldr	r1, [r4, #32]
 1101 004e 626A     		ldr	r2, [r4, #36]
 1102 0050 E369     		ldr	r3, [r4, #28]
 1103 0052 0868     		ldr	r0, [r1]
 1104 0054 1168     		ldr	r1, [r2]
 1105 0056 03F10C02 		add	r2, r3, #12
 1106 005a 8260     		str	r2, [r0, #8]
 1107 005c 8A60     		str	r2, [r1, #8]
 1108 005e D5E7     		b	.L25
 1109              	.L32:
 1110 0060 094A     		ldr	r2, .L33+4
 1111 0062 006A     		ldr	r0, [r0, #32]
 1112 0064 0521     		movs	r1, #5
 1113 0066 2346     		mov	r3, r4
 1114 0068 FFF7FEFF 		bl	dmaStreamAllocate
 1115 006c 074A     		ldr	r2, .L33+8
 1116 006e 606A     		ldr	r0, [r4, #36]
 1117 0070 2346     		mov	r3, r4
 1118 0072 0521     		movs	r1, #5
 1119 0074 FFF7FEFF 		bl	dmaStreamAllocate
 1120 0078 054B     		ldr	r3, .L33+12
 1121 007a 1A6C     		ldr	r2, [r3, #64]
 1122 007c 42F40042 		orr	r2, r2, #32768
 1123 0080 1A64     		str	r2, [r3, #64]
 1124 0082 E3E7     		b	.L26
 1125              	.L34:
 1126              		.align	2
 1127              	.L33:
 1128 0084 00000000 		.word	.LANCHOR1
 1129 0088 00000000 		.word	spi_lld_serve_rx_interrupt
ARM GAS  /tmp/ccYbVqKw.s 			page 77


 1130 008c 00000000 		.word	spi_lld_serve_tx_interrupt
 1131 0090 00380240 		.word	1073887232
 1132              		.size	spi_lld_start, .-spi_lld_start
 1133 0094 AFF30080 		.section	.text.spi_lld_stop,"ax",%progbits
 1133      AFF30080 
 1133      AFF30080 
 1134              		.align	2
 1135              		.p2align 4,,15
 1136              		.global	spi_lld_stop
 1137              		.thumb
 1138              		.thumb_func
 1139              		.type	spi_lld_stop, %function
 1140              	spi_lld_stop:
 1141              		@ args = 0, pretend = 0, frame = 0
 1142              		@ frame_needed = 0, uses_anonymous_args = 0
 1143 0000 0378     		ldrb	r3, [r0]	@ zero_extendqisi2
 1144 0002 022B     		cmp	r3, #2
 1145 0004 10B5     		push	{r4, lr}
 1146 0006 0446     		mov	r4, r0
 1147 0008 00D0     		beq	.L39
 1148              	.L35:
 1149 000a 10BD     		pop	{r4, pc}
 1150              	.L39:
 1151 000c C369     		ldr	r3, [r0, #28]
 1152 000e 006A     		ldr	r0, [r0, #32]
 1153 0010 0022     		movs	r2, #0
 1154 0012 1A60     		str	r2, [r3]
 1155 0014 5A60     		str	r2, [r3, #4]
 1156 0016 FFF7FEFF 		bl	dmaStreamRelease
 1157 001a 606A     		ldr	r0, [r4, #36]
 1158 001c FFF7FEFF 		bl	dmaStreamRelease
 1159 0020 044B     		ldr	r3, .L40
 1160 0022 9C42     		cmp	r4, r3
 1161 0024 F1D1     		bne	.L35
 1162 0026 044B     		ldr	r3, .L40+4
 1163 0028 1A6C     		ldr	r2, [r3, #64]
 1164 002a 22F40042 		bic	r2, r2, #32768
 1165 002e 1A64     		str	r2, [r3, #64]
 1166 0030 EBE7     		b	.L35
 1167              	.L41:
 1168 0032 00BF     		.align	2
 1169              	.L40:
 1170 0034 00000000 		.word	.LANCHOR1
 1171 0038 00380240 		.word	1073887232
 1172              		.size	spi_lld_stop, .-spi_lld_stop
 1173 003c AFF30080 		.section	.text.spi_lld_select,"ax",%progbits
 1174              		.align	2
 1175              		.p2align 4,,15
 1176              		.global	spi_lld_select
 1177              		.thumb
 1178              		.thumb_func
 1179              		.type	spi_lld_select, %function
 1180              	spi_lld_select:
 1181              		@ args = 0, pretend = 0, frame = 0
 1182              		@ frame_needed = 0, uses_anonymous_args = 0
 1183              		@ link register save eliminated.
 1184 0000 4368     		ldr	r3, [r0, #4]
ARM GAS  /tmp/ccYbVqKw.s 			page 78


 1185 0002 1A89     		ldrh	r2, [r3, #8]
 1186 0004 5B68     		ldr	r3, [r3, #4]
 1187 0006 0121     		movs	r1, #1
 1188 0008 01FA02F2 		lsl	r2, r1, r2
 1189 000c 92B2     		uxth	r2, r2
 1190 000e 5A83     		strh	r2, [r3, #26]	@ movhi
 1191 0010 7047     		bx	lr
 1192              		.size	spi_lld_select, .-spi_lld_select
 1193 0012 00BFAFF3 		.section	.text.spi_lld_unselect,"ax",%progbits
 1193      0080AFF3 
 1193      0080AFF3 
 1193      0080
 1194              		.align	2
 1195              		.p2align 4,,15
 1196              		.global	spi_lld_unselect
 1197              		.thumb
 1198              		.thumb_func
 1199              		.type	spi_lld_unselect, %function
 1200              	spi_lld_unselect:
 1201              		@ args = 0, pretend = 0, frame = 0
 1202              		@ frame_needed = 0, uses_anonymous_args = 0
 1203              		@ link register save eliminated.
 1204 0000 4368     		ldr	r3, [r0, #4]
 1205 0002 1A89     		ldrh	r2, [r3, #8]
 1206 0004 5B68     		ldr	r3, [r3, #4]
 1207 0006 0121     		movs	r1, #1
 1208 0008 01FA02F2 		lsl	r2, r1, r2
 1209 000c 92B2     		uxth	r2, r2
 1210 000e 1A83     		strh	r2, [r3, #24]	@ movhi
 1211 0010 7047     		bx	lr
 1212              		.size	spi_lld_unselect, .-spi_lld_unselect
 1213 0012 00BFAFF3 		.section	.text.spi_lld_ignore,"ax",%progbits
 1213      0080AFF3 
 1213      0080AFF3 
 1213      0080
 1214              		.align	2
 1215              		.p2align 4,,15
 1216              		.global	spi_lld_ignore
 1217              		.thumb
 1218              		.thumb_func
 1219              		.type	spi_lld_ignore, %function
 1220              	spi_lld_ignore:
 1221              		@ args = 0, pretend = 0, frame = 0
 1222              		@ frame_needed = 0, uses_anonymous_args = 0
 1223              		@ link register save eliminated.
 1224 0000 026A     		ldr	r2, [r0, #32]
 1225 0002 436A     		ldr	r3, [r0, #36]
 1226 0004 1268     		ldr	r2, [r2]
 1227 0006 1B68     		ldr	r3, [r3]
 1228 0008 70B4     		push	{r4, r5, r6}
 1229 000a 856A     		ldr	r5, [r0, #40]
 1230 000c 094E     		ldr	r6, .L45
 1231 000e C06A     		ldr	r0, [r0, #44]
 1232 0010 094C     		ldr	r4, .L45+4
 1233 0012 D660     		str	r6, [r2, #12]
 1234 0014 5160     		str	r1, [r2, #4]
 1235 0016 1560     		str	r5, [r2]
ARM GAS  /tmp/ccYbVqKw.s 			page 79


 1236 0018 DC60     		str	r4, [r3, #12]
 1237 001a 5960     		str	r1, [r3, #4]
 1238 001c 1860     		str	r0, [r3]
 1239 001e 1168     		ldr	r1, [r2]
 1240 0020 41F00101 		orr	r1, r1, #1
 1241 0024 1160     		str	r1, [r2]
 1242 0026 1A68     		ldr	r2, [r3]
 1243 0028 42F00102 		orr	r2, r2, #1
 1244 002c 1A60     		str	r2, [r3]
 1245 002e 70BC     		pop	{r4, r5, r6}
 1246 0030 7047     		bx	lr
 1247              	.L46:
 1248 0032 00BF     		.align	2
 1249              	.L45:
 1250 0034 00000000 		.word	.LANCHOR2
 1251 0038 00000000 		.word	.LANCHOR0
 1252              		.size	spi_lld_ignore, .-spi_lld_ignore
 1253 003c AFF30080 		.section	.text.spi_lld_exchange,"ax",%progbits
 1254              		.align	2
 1255              		.p2align 4,,15
 1256              		.global	spi_lld_exchange
 1257              		.thumb
 1258              		.thumb_func
 1259              		.type	spi_lld_exchange, %function
 1260              	spi_lld_exchange:
 1261              		@ args = 0, pretend = 0, frame = 0
 1262              		@ frame_needed = 0, uses_anonymous_args = 0
 1263              		@ link register save eliminated.
 1264 0000 F0B4     		push	{r4, r5, r6, r7}
 1265 0002 046A     		ldr	r4, [r0, #32]
 1266 0004 476A     		ldr	r7, [r0, #36]
 1267 0006 866A     		ldr	r6, [r0, #40]
 1268 0008 C56A     		ldr	r5, [r0, #44]
 1269 000a 2468     		ldr	r4, [r4]
 1270 000c 3868     		ldr	r0, [r7]
 1271 000e E360     		str	r3, [r4, #12]
 1272 0010 46F48066 		orr	r6, r6, #1024
 1273 0014 45F48065 		orr	r5, r5, #1024
 1274 0018 6160     		str	r1, [r4, #4]
 1275 001a 2660     		str	r6, [r4]
 1276 001c C260     		str	r2, [r0, #12]
 1277 001e 4160     		str	r1, [r0, #4]
 1278 0020 0560     		str	r5, [r0]
 1279 0022 2368     		ldr	r3, [r4]
 1280 0024 43F00103 		orr	r3, r3, #1
 1281 0028 2360     		str	r3, [r4]
 1282 002a 0368     		ldr	r3, [r0]
 1283 002c 43F00103 		orr	r3, r3, #1
 1284 0030 0360     		str	r3, [r0]
 1285 0032 F0BC     		pop	{r4, r5, r6, r7}
 1286 0034 7047     		bx	lr
 1287              		.size	spi_lld_exchange, .-spi_lld_exchange
 1288 0036 00BFAFF3 		.section	.text.spi_lld_send,"ax",%progbits
 1288      0080AFF3 
 1288      0080
 1289              		.align	2
 1290              		.p2align 4,,15
ARM GAS  /tmp/ccYbVqKw.s 			page 80


 1291              		.global	spi_lld_send
 1292              		.thumb
 1293              		.thumb_func
 1294              		.type	spi_lld_send, %function
 1295              	spi_lld_send:
 1296              		@ args = 0, pretend = 0, frame = 0
 1297              		@ frame_needed = 0, uses_anonymous_args = 0
 1298              		@ link register save eliminated.
 1299 0000 70B4     		push	{r4, r5, r6}
 1300 0002 436A     		ldr	r3, [r0, #36]
 1301 0004 046A     		ldr	r4, [r0, #32]
 1302 0006 C56A     		ldr	r5, [r0, #44]
 1303 0008 2468     		ldr	r4, [r4]
 1304 000a 1B68     		ldr	r3, [r3]
 1305 000c 806A     		ldr	r0, [r0, #40]
 1306 000e 094E     		ldr	r6, .L49
 1307 0010 E660     		str	r6, [r4, #12]
 1308 0012 45F48065 		orr	r5, r5, #1024
 1309 0016 6160     		str	r1, [r4, #4]
 1310 0018 2060     		str	r0, [r4]
 1311 001a DA60     		str	r2, [r3, #12]
 1312 001c 5960     		str	r1, [r3, #4]
 1313 001e 1D60     		str	r5, [r3]
 1314 0020 2268     		ldr	r2, [r4]
 1315 0022 42F00102 		orr	r2, r2, #1
 1316 0026 2260     		str	r2, [r4]
 1317 0028 1A68     		ldr	r2, [r3]
 1318 002a 42F00102 		orr	r2, r2, #1
 1319 002e 1A60     		str	r2, [r3]
 1320 0030 70BC     		pop	{r4, r5, r6}
 1321 0032 7047     		bx	lr
 1322              	.L50:
 1323              		.align	2
 1324              	.L49:
 1325 0034 00000000 		.word	.LANCHOR2
 1326              		.size	spi_lld_send, .-spi_lld_send
 1327 0038 AFF30080 		.section	.text.spi_lld_receive,"ax",%progbits
 1327      AFF30080 
 1328              		.align	2
 1329              		.p2align 4,,15
 1330              		.global	spi_lld_receive
 1331              		.thumb
 1332              		.thumb_func
 1333              		.type	spi_lld_receive, %function
 1334              	spi_lld_receive:
 1335              		@ args = 0, pretend = 0, frame = 0
 1336              		@ frame_needed = 0, uses_anonymous_args = 0
 1337              		@ link register save eliminated.
 1338 0000 70B4     		push	{r4, r5, r6}
 1339 0002 436A     		ldr	r3, [r0, #36]
 1340 0004 046A     		ldr	r4, [r0, #32]
 1341 0006 866A     		ldr	r6, [r0, #40]
 1342 0008 2468     		ldr	r4, [r4]
 1343 000a 1B68     		ldr	r3, [r3]
 1344 000c C06A     		ldr	r0, [r0, #44]
 1345 000e 094D     		ldr	r5, .L52
 1346 0010 E260     		str	r2, [r4, #12]
ARM GAS  /tmp/ccYbVqKw.s 			page 81


 1347 0012 46F48066 		orr	r6, r6, #1024
 1348 0016 6160     		str	r1, [r4, #4]
 1349 0018 2660     		str	r6, [r4]
 1350 001a DD60     		str	r5, [r3, #12]
 1351 001c 5960     		str	r1, [r3, #4]
 1352 001e 1860     		str	r0, [r3]
 1353 0020 2268     		ldr	r2, [r4]
 1354 0022 42F00102 		orr	r2, r2, #1
 1355 0026 2260     		str	r2, [r4]
 1356 0028 1A68     		ldr	r2, [r3]
 1357 002a 42F00102 		orr	r2, r2, #1
 1358 002e 1A60     		str	r2, [r3]
 1359 0030 70BC     		pop	{r4, r5, r6}
 1360 0032 7047     		bx	lr
 1361              	.L53:
 1362              		.align	2
 1363              	.L52:
 1364 0034 00000000 		.word	.LANCHOR0
 1365              		.size	spi_lld_receive, .-spi_lld_receive
 1366 0038 AFF30080 		.section	.text.spi_lld_polled_exchange,"ax",%progbits
 1366      AFF30080 
 1367              		.align	2
 1368              		.p2align 4,,15
 1369              		.global	spi_lld_polled_exchange
 1370              		.thumb
 1371              		.thumb_func
 1372              		.type	spi_lld_polled_exchange, %function
 1373              	spi_lld_polled_exchange:
 1374              		@ args = 0, pretend = 0, frame = 0
 1375              		@ frame_needed = 0, uses_anonymous_args = 0
 1376              		@ link register save eliminated.
 1377 0000 C269     		ldr	r2, [r0, #28]
 1378 0002 D160     		str	r1, [r2, #12]
 1379              	.L56:
 1380 0004 9368     		ldr	r3, [r2, #8]
 1381 0006 DB07     		lsls	r3, r3, #31
 1382 0008 FCD5     		bpl	.L56
 1383 000a D068     		ldr	r0, [r2, #12]
 1384 000c 80B2     		uxth	r0, r0
 1385 000e 7047     		bx	lr
 1386              		.size	spi_lld_polled_exchange, .-spi_lld_polled_exchange
 1387              		.global	SPID3
 1388              		.section	.bss.dummytx,"aw",%nobits
 1389              		.align	1
 1390              		.set	.LANCHOR0,. + 0
 1391              		.type	dummytx, %object
 1392              		.size	dummytx, 2
 1393              	dummytx:
 1394 0000 0000     		.space	2
 1395              		.section	.bss.SPID3,"aw",%nobits
 1396              		.align	2
 1397              		.set	.LANCHOR1,. + 0
 1398              		.type	SPID3, %object
 1399              		.size	SPID3, 48
 1400              	SPID3:
 1401 0000 00000000 		.space	48
 1401      00000000 
ARM GAS  /tmp/ccYbVqKw.s 			page 82


 1401      00000000 
 1401      00000000 
 1401      00000000 
 1402              		.section	.rodata.str1.4,"aMS",%progbits,1
 1403              		.align	2
 1404              	.LC0:
 1405 0000 444D4120 		.ascii	"DMA failure\000"
 1405      6661696C 
 1405      75726500 
 1406              		.section	.bss.dummyrx,"aw",%nobits
 1407              		.align	1
 1408              		.set	.LANCHOR2,. + 0
 1409              		.type	dummyrx, %object
 1410              		.size	dummyrx, 2
 1411              	dummyrx:
 1412 0000 0000     		.space	2
 1413              		.comm	__gnu_lto_v1,1,1
 1414              		.ident	"GCC: (GNU Tools for ARM Embedded Processors) 4.8.4 20140526 (release) [ARM/embedded-4_8-br
ARM GAS  /tmp/ccYbVqKw.s 			page 83


DEFINED SYMBOLS
                            *ABS*:0000000000000000 spi_lld.c
     /tmp/ccYbVqKw.s:920    .text.spi_lld_serve_tx_interrupt:0000000000000000 $t
     /tmp/ccYbVqKw.s:925    .text.spi_lld_serve_tx_interrupt:0000000000000000 spi_lld_serve_tx_interrupt
     /tmp/ccYbVqKw.s:938    .text.spi_lld_serve_tx_interrupt:0000000000000010 $d
     /tmp/ccYbVqKw.s:941    .text.spi_lld_serve_rx_interrupt:0000000000000000 $t
     /tmp/ccYbVqKw.s:946    .text.spi_lld_serve_rx_interrupt:0000000000000000 spi_lld_serve_rx_interrupt
     /tmp/ccYbVqKw.s:1018   .text.spi_lld_serve_rx_interrupt:000000000000007c $d
     /tmp/ccYbVqKw.s:1021   .text.spi_lld_init:0000000000000000 $t
     /tmp/ccYbVqKw.s:1027   .text.spi_lld_init:0000000000000000 spi_lld_init
     /tmp/ccYbVqKw.s:1051   .text.spi_lld_init:000000000000002c $d
     /tmp/ccYbVqKw.s:1057   .text.spi_lld_start:0000000000000000 $t
     /tmp/ccYbVqKw.s:1063   .text.spi_lld_start:0000000000000000 spi_lld_start
     /tmp/ccYbVqKw.s:1128   .text.spi_lld_start:0000000000000084 $d
     /tmp/ccYbVqKw.s:1134   .text.spi_lld_stop:0000000000000000 $t
     /tmp/ccYbVqKw.s:1140   .text.spi_lld_stop:0000000000000000 spi_lld_stop
     /tmp/ccYbVqKw.s:1170   .text.spi_lld_stop:0000000000000034 $d
     /tmp/ccYbVqKw.s:1174   .text.spi_lld_select:0000000000000000 $t
     /tmp/ccYbVqKw.s:1180   .text.spi_lld_select:0000000000000000 spi_lld_select
     /tmp/ccYbVqKw.s:1194   .text.spi_lld_unselect:0000000000000000 $t
     /tmp/ccYbVqKw.s:1200   .text.spi_lld_unselect:0000000000000000 spi_lld_unselect
     /tmp/ccYbVqKw.s:1214   .text.spi_lld_ignore:0000000000000000 $t
     /tmp/ccYbVqKw.s:1220   .text.spi_lld_ignore:0000000000000000 spi_lld_ignore
     /tmp/ccYbVqKw.s:1250   .text.spi_lld_ignore:0000000000000034 $d
     /tmp/ccYbVqKw.s:1254   .text.spi_lld_exchange:0000000000000000 $t
     /tmp/ccYbVqKw.s:1260   .text.spi_lld_exchange:0000000000000000 spi_lld_exchange
     /tmp/ccYbVqKw.s:1289   .text.spi_lld_send:0000000000000000 $t
     /tmp/ccYbVqKw.s:1295   .text.spi_lld_send:0000000000000000 spi_lld_send
     /tmp/ccYbVqKw.s:1325   .text.spi_lld_send:0000000000000034 $d
     /tmp/ccYbVqKw.s:1328   .text.spi_lld_receive:0000000000000000 $t
     /tmp/ccYbVqKw.s:1334   .text.spi_lld_receive:0000000000000000 spi_lld_receive
     /tmp/ccYbVqKw.s:1364   .text.spi_lld_receive:0000000000000034 $d
     /tmp/ccYbVqKw.s:1367   .text.spi_lld_polled_exchange:0000000000000000 $t
     /tmp/ccYbVqKw.s:1373   .text.spi_lld_polled_exchange:0000000000000000 spi_lld_polled_exchange
     /tmp/ccYbVqKw.s:1400   .bss.SPID3:0000000000000000 SPID3
     /tmp/ccYbVqKw.s:1389   .bss.dummytx:0000000000000000 $d
     /tmp/ccYbVqKw.s:1393   .bss.dummytx:0000000000000000 dummytx
     /tmp/ccYbVqKw.s:1396   .bss.SPID3:0000000000000000 $d
     /tmp/ccYbVqKw.s:1403   .rodata.str1.4:0000000000000000 $d
     /tmp/ccYbVqKw.s:1407   .bss.dummyrx:0000000000000000 $d
     /tmp/ccYbVqKw.s:1411   .bss.dummyrx:0000000000000000 dummyrx
                            *COM*:0000000000000001 __gnu_lto_v1
     /tmp/ccYbVqKw.s:940    .text.spi_lld_serve_tx_interrupt:0000000000000014 $t
     /tmp/ccYbVqKw.s:1056   .text.spi_lld_init:000000000000003c $t
     /tmp/ccYbVqKw.s:1133   .text.spi_lld_start:0000000000000094 $t
     /tmp/ccYbVqKw.s:1173   .text.spi_lld_stop:000000000000003c $t
     /tmp/ccYbVqKw.s:1253   .text.spi_lld_ignore:000000000000003c $t
     /tmp/ccYbVqKw.s:1327   .text.spi_lld_send:0000000000000038 $t
     /tmp/ccYbVqKw.s:1366   .text.spi_lld_receive:0000000000000038 $t

UNDEFINED SYMBOLS
chSysHalt
chThdResumeI
spiObjectInit
_stm32_dma_streams
dmaStreamAllocate
dmaStreamRelease
ARM GAS  /tmp/ccYbVqKw.s 			page 84


