ARM GAS  /tmp/ccCrNG5U.s 			page 1


   1              		.syntax unified
   2              		.cpu cortex-m4
   3              		.eabi_attribute 27, 3
   4              		.eabi_attribute 28, 1
   5              		.fpu fpv4-sp-d16
   6              		.eabi_attribute 20, 1
   7              		.eabi_attribute 21, 1
   8              		.eabi_attribute 23, 3
   9              		.eabi_attribute 24, 1
  10              		.eabi_attribute 25, 1
  11              		.eabi_attribute 26, 1
  12              		.eabi_attribute 30, 2
  13              		.eabi_attribute 34, 1
  14              		.eabi_attribute 18, 4
  15              		.thumb
  16              		.file	"st.c"
  17              		.section	.gnu.lto_.jmpfuncs.3828b6dab81e7934,"",%progbits
  18 0000 789C6362 		.ascii	"x\234cb`b\300\006x\2414+\020322103\26200\000\000\002"
  18      6062C006 
  18      78A1342B 
  18      10333232 
  18      313033B2 
  19 0019 6D0023   		.ascii	"m\000#"
  20              		.text
  21              		.section	.gnu.lto_.inline.3828b6dab81e7934,"",%progbits
  22 0000 789C6362 		.ascii	"x\234cb`b\300\006R\2414+\003\003\013\017#X\021\333\002"
  22      6062C006 
  22      52A1342B 
  22      03030B0F 
  22      235811DB 
  23 0015 79B05A46 		.ascii	"y\260ZF.\020\301\300\306\012\024f\373\240\007\027gb"
  23      2E10C1C0 
  23      C60A1466 
  23      FBA00717 
  23      6762
  24 0027 6061060A 		.ascii	"`a\006\0121]\340\207\0131c\012\261`\0121\000\000\232"
  24      315DE087 
  24      0B31630A 
  24      B1600A31 
  24      00009A
  25 003a 48086D   		.ascii	"H\010m"
  26              		.text
  27              		.section	.gnu.lto_.pureconst.3828b6dab81e7934,"",%progbits
  28 0000 789C6362 		.ascii	"x\234cb`b\340f\200\000V\006\011F)&)f)\026)\000\004\027"
  28      6062E066 
  28      80005606 
  28      09462926 
  28      29662916 
  29 0018 009F     		.ascii	"\000\237"
  30              		.text
  31              		.section	.gnu.lto_stInit.3828b6dab81e7934,"",%progbits
  32 0000 789C6362 		.ascii	"x\234cb`b@\007\222@\\\003\304\372@\314\310\314\300\310"
  32      60624007 
  32      92405C03 
  32      C4FA40CC 
  32      C8CCC0C8 
  33 0014 34E11C03 		.ascii	"4\341\034\003C#\007\023##\210\301\300\310P\317\304X"
ARM GAS  /tmp/ccCrNG5U.s 			page 2


  33      43230713 
  33      232388C1 
  33      C0C850CF 
  33      C458
  34 0026 1FC90856 		.ascii	"\037\311\010V\273\236\351\300\203\377\377\327M86u\017"
  34      BB9EE9C0 
  34      83FFFFD7 
  34      4D383675 
  34      0F
  35 0037 E30C2666 		.ascii	"\343\014&f\240\010+CKC\303\004\005\006\206d\260\212"
  35      A0082B43 
  35      4B43C304 
  35      05068664 
  35      B08A
  36 0049 102009D2 		.ascii	"\020 \011\322\026\312\310\004\242\231\31734?\350:\314"
  36      16CAC804 
  36      A299CF33 
  36      343FE83A 
  36      CC
  37 005a 9EC8B890 		.ascii	"\236\310\270\220\221\025(]\315\360\253\241\243A \223"
  37      9115285D 
  37      CDF0ABA1 
  37      A3412093 
  38 006a 11A81C62 		.ascii	"\021\250\034bb&\210\276\310\320\370\240[\031\246\010"
  38      622688BE 
  38      C8D0F8A0 
  38      5B19A608 
  39 007a 02428012 		.ascii	"\002B\200\022@\023@\356\325\325\317\310\317M\325O\316"
  39      401340EE 
  39      D5D5CFC8 
  39      CF4DD54F 
  39      CE
  40 008b 4FA9D44F 		.ascii	"O\251\324OI-\323O\316\310L\312\314/\326/)*\315\313\326"
  40      492DD34F 
  40      CEC84CCA 
  40      CC2FD62F 
  40      292ACDCB 
  41 00a0 07323212 		.ascii	"\00722\022s\364\213\213\222\365\213K\364\222\031\000"
  41      73F48B8B 
  41      92F58B4B 
  41      F4921900 
  42 00b0 B55E328C 		.ascii	"\265^2\214"
  43              		.text
  44              		.section	.gnu.lto_stStartAlarm.3828b6dab81e7934,"",%progbits
  45 0000 789C6362 		.ascii	"x\234cb`b@\007\222@\\\313\310\300P\014\244\031\231\031"
  45      60624007 
  45      92405CCB 
  45      C8C0500C 
  45      A4199919 
  46 0014 1899269C 		.ascii	"\030\231&\234c`h\344`bd\0041\030\030\031\352\231\030"
  46      636068E4 
  46      60626404 
  46      31181819 
  46      EA9918
  47 0027 EB2319C1 		.ascii	"\353#\031\301j\3273\035x\360\377\377\272K\307\226\276"
  47      6AD7331D 
  47      78F0FFFF 
ARM GAS  /tmp/ccCrNG5U.s 			page 3


  47      BA4BC796 
  47      BE
  48 0038 619CC5C4 		.ascii	"a\234\305\304\316\304\230\013\026gehih\230\240\300\300"
  48      CEC4980B 
  48      16676568 
  48      696898A0 
  48      C0C0
  49 004a 900CE686 		.ascii	"\220\014\346\206\000I\220\336PF&\020\315|\226\341\320"
  49      004990DE 
  49      50462610 
  49      CD7C96E1 
  49      D0
  50 005b E939B3CE 		.ascii	"\3519\263\3167\261\303\325A\030\007N_\273\310\312\300"
  50      37B1C3D5 
  50      4118074E 
  50      5FBBC8CA 
  50      C0
  51 006c 90C8B890 		.ascii	"\220\310\270\220\221\025\250\025\254W\227aMCK\343\203"
  51      9115A815 
  51      AC579761 
  51      4D434BE3 
  51      83
  52 007d 8B3FA7E8 		.ascii	"\213?\247\350d22h3\254\002\362\032\3543\031\031g3\314"
  52      64323268 
  52      33AC02F2 
  52      1AEC3319 
  52      196733CC 
  53 0091 6A9CD020 		.ascii	"j\234\320 \220\311\310\024\301\230\311\310\334\000\004"
  53      90C9C814 
  53      C198C9C8 
  53      DC0004
  54 00a0 2C0C6026 		.ascii	",\014`&\330eI \335\211\214\213\201&\201EY \236\203\212"
  54      D8654920 
  54      DD898C8B 
  54      81268145 
  54      59209E83 
  55 00b5 A4035DC2 		.ascii	"\244\003]\302\000t\306\216\037\313\0172'2.\002\212!"
  55      0074C68E 
  55      1FCB0F32 
  55      27322E02 
  55      8A21
  56 00c7 8C662068 		.ascii	"\214f h4#\212\321`A\220a3V\221c\030\023\252a\240\010"
  56      34238AD1 
  56      60419061 
  56      33569163 
  56      1813AA61 
  57 00dd B9C8D0F8 		.ascii	"\271\310\320\370\341\321V\026H@\300@\010\320Z`\350\201"
  57      E1D15616 
  57      4840C040 
  57      08D05A60 
  57      E881
  58 00ef E475F533 		.ascii	"\344u\3653\362sS\365\223\363S*\365SR\313\364\22332\223"
  58      F27353F5 
  58      93F3532A 
  58      F55352CB 
  58      F4933332 
  59 0104 32F38BF5 		.ascii	"2\363\213\365K\212J\363\262\365\201\214\214\304\034"
ARM GAS  /tmp/ccCrNG5U.s 			page 4


  59      4B8A4AF3 
  59      B2F5818C 
  59      8CC41C
  60 0113 FDE2A264 		.ascii	"\375\342\242d\375\342\022\275d\006gbT\027\344\027\225"
  60      FDE212BD 
  60      64066762 
  60      5417E417 
  60      95
  61 0124 14EB0787 		.ascii	"\024\353\007\207\370\032\033\351\373\370\270\350\207"
  61      F81A1BE9 
  61      FBF8B8E8 
  61      87
  62 0131 78FA9619 		.ascii	"x\372\226\031\002\365\307\347\344\244\350e0\000\000"
  62      02F5C7E7 
  62      E4A4E865 
  62      300000
  63 0140 A0D0896F 		.ascii	"\240\320\211o"
  64              		.text
  65              		.section	.gnu.lto_stStopAlarm.3828b6dab81e7934,"",%progbits
  66 0000 789C6362 		.ascii	"x\234cb`b@\007\222@|\024\210\213\201\230\221\231\201"
  66      60624007 
  66      92407C14 
  66      888B8198 
  66      919981
  67 0013 9169C239 		.ascii	"\221i\3029\006\206F\016&FF\020\203\201\221\241\236\211"
  67      0686460E 
  67      26464610 
  67      838191A1 
  67      9E89
  68 0025 B13E9211 		.ascii	"\261>\222\021\254v=\323\201\007\377\377\257\373\327"
  68      AC763DD3 
  68      8107FFFF 
  68      AFFBD7
  69 0034 36E70CE3 		.ascii	"6\347\014\343\034&\026\240\010+CKC\303\004\005\006\206"
  69      1C2616A0 
  69      082B434B 
  69      43C30405 
  69      0686
  70 0046 64B08A10 		.ascii	"d\260\212\020 \011\322\026\312\310\004\242\231\3172"
  70      2009D216 
  70      CAC804A2 
  70      99CF32
  71 0055 1CDA3167 		.ascii	"\034\3321g\326\335G\254pu\020\306\201\323O\017\2622"
  71      D6DD47AC 
  71      707510C6 
  71      81D34F0F 
  71      B232
  72 0067 3024322E 		.ascii	"0$2.dd\005j\005\353\325fX\325\320\322\370\340\342\313"
  72      6464056A 
  72      05EBD566 
  72      58D5D0D2 
  72      F8E0E2CB 
  73 007b A9F2998C 		.ascii	"\251\362\231\214\014\263\031f5Nh\020\310dd\214`\314"
  73      0CB31966 
  73      354E6810 
  73      C864648C 
  73      60CC
ARM GAS  /tmp/ccCrNG5U.s 			page 5


  74 008d 64646A00 		.ascii	"ddj\000\002\026\0060\023\354\222$\220\226D\306\305@"
  74      02160630 
  74      13EC9224 
  74      909644C6 
  74      C540
  75 009f ED6051B0 		.ascii	"\355`Q\260\340E\206\306\017\207v\262@L\205\201\020\240"
  75      E04586C6 
  75      0F8776B2 
  75      404C8581 
  75      10A0
  76 00b1 E940A780 		.ascii	"\351@\247\200\264\351\352g\344\347\246\352'\347\247"
  76      B4E9EA67 
  76      E4E7A6EA 
  76      27E7A7
  77 00c0 54EAA7A4 		.ascii	"T\352\247\244\226\351'gd&e\346\027\353\227\024\225\346"
  77      96E92767 
  77      642665E6 
  77      17EB9714 
  77      95E6
  78 00d2 65EB0319 		.ascii	"e\353\003\031\031\2119\372\305E\311\372\305%z\311\014"
  78      198939FA 
  78      C545C9FA 
  78      C5257AC9 
  78      0C
  79 00e3 CEC4A82E 		.ascii	"\316\304\250.\310/*)\326\017\016\36156\322\367\361q"
  79      C82F2A29 
  79      D60F0EF1 
  79      3536D2F7 
  79      F171
  80 00f5 D10FF1F4 		.ascii	"\321\017\361\364-3\004\352\217\317\311I\321\313`\000"
  80      2D3304EA 
  80      8FCFC949 
  80      D1CB6000 
  81 0105 004A0860 		.ascii	"\000J\010`\007"
  81      07
  82              		.text
  83              		.section	.gnu.lto_stSetAlarm.3828b6dab81e7934,"",%progbits
  84 0000 789C6362 		.ascii	"x\234cb`b@\007\222@\374\030\210\213\201\230\221\231"
  84      60624007 
  84      9240FC18 
  84      888B8198 
  84      9199
  85 0012 819169C2 		.ascii	"\201\221i\3029\006\206F\016&FF\020\203\201\221\241\236"
  85      39068646 
  85      0E264646 
  85      10838191 
  85      A19E
  86 0024 89B13E92 		.ascii	"\211\261>\222\021\254v=\323\201\007\377\377\257\333"
  86      11AC763D 
  86      D38107FF 
  86      FFAFDB
  87 0033 777CC919 		.ascii	"w|\311\031\306yL\254L\214\271`qV\206\226\206\206\011"
  87      C6794CAC 
  87      4C8CB960 
  87      71568696 
  87      868609
  88 0046 0A0C0CC9 		.ascii	"\012\014\014\311`n\010\220\004\351\015ed\002\321\314"
ARM GAS  /tmp/ccCrNG5U.s 			page 6


  88      606E0890 
  88      04E90D65 
  88      6402D1CC 
  89 0056 67190E9D 		.ascii	"g\031\016\235\2363\353y\023;\\\035\204q\340\364\327"
  89      9E33EB79 
  89      133B5C1D 
  89      8471E0F4 
  89      D7
  90 0067 8DAC0C0C 		.ascii	"\215\254\014\014\211\214\013\031Y\201Z\301zu\031\326"
  90      898C0B19 
  90      59815AC1 
  90      7A7519D6 
  91 0077 34B4343E 		.ascii	"4\2644>\270\270s\232N&#\2036\303* \257\301>\223\221"
  91      B8B8739A 
  91      4E262383 
  91      36C32A20 
  91      AFC13E93 
  92 008c 7136C3AC 		.ascii	"q6\303\254\306\011\015\002\231\214L\021\214\231\214"
  92      C6090D02 
  92      998C4C11 
  92      8C998C
  93 009b CC0D40C0 		.ascii	"\314\015@\300\302\000f\202]\226\004\322\235\310\270"
  93      C2006682 
  93      5D9604D2 
  93      9DC8B8
  94 00aa 18681258 		.ascii	"\030h\022X\224\005\3429\250H:\320%\014\027\031\032?"
  94      9405E239 
  94      A8483AD0 
  94      250C1719 
  94      1A3F
  95 00bc 1CDACB02 		.ascii	"\034\332\313\002\261\016\006B\200\326\002\335\010\012"
  95      B10E0642 
  95      80D602DD 
  95      080A
  96 00ca 165DFD8C 		.ascii	"\026]\375\214\374\334T\375\344\374\224J\375\224\324"
  96      FCDC54FD 
  96      E4FC944A 
  96      FD94D4
  97 00d9 32FDE48C 		.ascii	"2\375\344\214\314\244\314\374b\375\222\242\322\274l"
  97      CCA4CCFC 
  97      62FD92A2 
  97      D2BC6C
  98 00e8 7D202323 		.ascii	"} ##1G\277\270(Y\277\270D/\231\301\231\030\325\005\371"
  98      3147BFB8 
  98      2859BFB8 
  98      442F99C1 
  98      9918D505 
  99 00fd 4525C5FA 		.ascii	"E%\305\372\301!\276\306F\372>>.\372!\236\276e\206@\375"
  99      C121BEC6 
  99      46FA3E3E 
  99      2EFA219E 
  99      BE658640 
 100 0112 F1393929 		.ascii	"\36199)z\031\014\000`\004eG"
 100      7A190C00 
 100      60046547 
 101              		.text
 102              		.section	.gnu.lto_stGetAlarm.3828b6dab81e7934,"",%progbits
ARM GAS  /tmp/ccCrNG5U.s 			page 7


 103 0000 789C6362 		.ascii	"x\234cb`b@\007\222@\374\030\210\213\201\230\221\231"
 103      60624007 
 103      9240FC18 
 103      888B8198 
 103      9199
 104 0012 819169C2 		.ascii	"\201\221i\3029\006\206F\016&FF\020\203\201\221\241\236"
 104      39068646 
 104      0E264646 
 104      10838191 
 104      A19E
 105 0024 89B13E92 		.ascii	"\211\261>\222\021\254v=\323\201\007\377\377\257\373"
 105      11AC763D 
 105      D38107FF 
 105      FFAFFB
 106 0033 D73EEF0C 		.ascii	"\327>\357\014\343\012&\026f\206L\2608+CKC\303\004\005"
 106      E30A2616 
 106      66864CB0 
 106      382B434B 
 106      43C30405 
 107 0047 06866430 		.ascii	"\006\206d07\004H\202\364\20622\201h\346\263\014\207"
 107      37044882 
 107      F4863232 
 107      8168E6B3 
 107      0C87
 108 0059 EECC99F5 		.ascii	"\356\314\231\365\325\010\256\014\3028p\362(\3205\211"
 108      D508AE0C 
 108      C23870F2 
 108      28D03589 
 109 0069 8C0B1959 		.ascii	"\214\013\031Y\201\032\301:\323\031\231u\031\3264\264"
 109      811AC13A 
 109      D3199975 
 109      19D634B4 
 110 0079 343EB8B8 		.ascii	"4>\270\270r\272T&#\2436\303* \257a2c&#\323l\206Y\215"
 110      72BA5426 
 110      23A336C3 
 110      2A20AF61 
 110      32632623 
 111 0092 131A0432 		.ascii	"\023\032\0042\031\231#\200\\\226\006 `a\0003\301nK\002"
 111      19992380 
 111      5C960620 
 111      60610033 
 111      C16E4B02 
 112 00a6 9990C8B8 		.ascii	"\231\220\310\270\030h\032X\224\025\342=\250\010\003"
 112      18681A58 
 112      9415E23D 
 112      A80803
 113 00b5 C34586C6 		.ascii	"\303E\206\306\017\233.\362@\354\003Z\004\221\016\001"
 113      0F9B2EF2 
 113      40EC035A 
 113      04910E01 
 114 00c5 5A0C7423 		.ascii	"Z\014t#(Xt\3653\362sS\365\223\363S*\365SR\313\364\223"
 114      285874F5 
 114      33F27353 
 114      F593F353 
 114      2AF55352 
 115 00dc 33329332 		.ascii	"32\2232\363\213\365K\212J\363\262\365\201\214\214\304"
 115      F38BF54B 
ARM GAS  /tmp/ccCrNG5U.s 			page 8


 115      8A4AF3B2 
 115      F5818C8C 
 115      C4
 116 00ed 1CFDE2A2 		.ascii	"\034\375\342\242d\375\342\022\275d\006gbT\027\344\027"
 116      64FDE212 
 116      BD640667 
 116      625417E4 
 116      17
 117 00fe 9514EB07 		.ascii	"\225\024\353\007\207\370\032\033\351\373\370\270\350"
 117      87F81A1B 
 117      E9FBF8B8 
 117      E8
 118 010b 8778FA96 		.ascii	"\207x\372\226\031\002\365\307\347\344\244\350e0\000"
 118      1902F5C7 
 118      E7E4A4E8 
 118      653000
 119 011a 00C1E664 		.ascii	"\000\301\346d\332"
 119      DA
 120              		.text
 121              		.section	.gnu.lto_.symbol_nodes.3828b6dab81e7934,"",%progbits
 122 0000 789C4DC7 		.ascii	"x\234M\307\261\021\2000\014\003@I!\2232\210\014\241"
 122      B1118030 
 122      0C034049 
 122      21933288 
 122      0CA1
 123 0012 A0640246 		.ascii	"\240d\002Fb\006&!)\340\016\177\367\2020\343\243N\003"
 123      62062621 
 123      29E00E7F 
 123      F78230E3 
 123      A34E03
 124 0025 C705D8E7 		.ascii	"\307\005\330\347N\205\314\324EV\352*\227\324&O\177\271"
 124      4E85CCD4 
 124      4556EA2A 
 124      97D4264F 
 124      7FB9
 125 0037 C9F56D04 		.ascii	"\311\365m\004\013*\332\375\020\003\365,\035\347"
 125      0B2ADAFD 
 125      1003F52C 
 125      1DE7
 126              		.text
 127              		.section	.gnu.lto_.refs.3828b6dab81e7934,"",%progbits
 128 0000 789C6362 		.ascii	"x\234cb`b`d\200\002\000\000F\000\006"
 128      60626064 
 128      80020000 
 128      460006
 129              		.text
 130              		.section	.gnu.lto_.decls.3828b6dab81e7934,"",%progbits
 131 0000 789CB597 		.ascii	"x\234\265\227\177l\024E\024\307gv\217\332\243M-$\022"
 131      7F6C1445 
 131      14C76776 
 131      8FDAA34D 
 131      2D2412
 132 0013 8C7F5012 		.ascii	"\214\177P\0220\206\004\026\2121\032\023\004\257\010"
 132      30860416 
 132      8A311A13 
 132      04AF08
 133 0022 2414C9B6 		.ascii	"$\024\311\266$$\376q.\275\303^l\357\232\273-\332\377"
ARM GAS  /tmp/ccCrNG5U.s 			page 9


 133      2424FE71 
 133      2EBDC35E 
 133      6CEF9ABB 
 133      2DDAFF
 134 0035 A62D18C5 		.ascii	"\246-\030\3054)E\264*\301\343W\241\011D\004R-\002=~"
 134      342945B4 
 134      2AC1E357 
 134      A1094404 
 134      522D023D 
 135 004a 141A5014 		.ascii	"\024\032P\024*\"4\206\023%\250\304P\243(\030\312\371"
 135      2A223486 
 135      1325A8C4 
 135      50A32818 
 135      CAF9
 136 005c 6676F76E 		.ascii	"fv\367nv;\013{\0307y\217\271\351{\237\371\276\331\331"
 136      763B0B7B 
 136      1837798F 
 136      B9E97B9F 
 136      F9BED9D9 
 137 0070 DD878424 		.ascii	"\335\207\204$\364:F(\003\327\263\245\010\255\224\020"
 137      F43A4628 
 137      03D7B3A5 
 137      08AD9410 
 138 0080 2A4008CD 		.ascii	"*@\010\315A\271\213\376\336\014\326\005\326\003\326"
 138      41B98BFE 
 138      DE0CD605 
 138      D603D6
 139 008f 0B7608EC 		.ascii	"\013v\010\354\010\032}\3218@\240c`[\3149\311\234\027"
 139      081A7DD1 
 139      3840A063 
 139      605BCC39 
 139      C99C17
 140 00a2 C553E618 		.ascii	"\305S\346\030\260\343`\375`\003`\267\300|`2\3305\260"
 140      B0E360FD 
 140      600360B7 
 140      C07C6032 
 140      D835B0
 141 00b5 F3608326 		.ascii	"\363`\203&\207\306\337\006\003\311h\237\203\325c\346"
 141      87C6DF06 
 141      03C9689F 
 141      83D563E6 
 142 00c5 1CE73898 		.ascii	"\034\3478\230\313\245\177\037\021h\350\275\207\006l"
 142      CBA57F1F 
 142      1168E8BD 
 142      87066C
 143 00d4 6A90CC38 		.ascii	"j\220\3148:A\347>w0\350~\320}\352\366\300\241\261><"
 143      3A41E73E 
 143      7730E87E 
 143      D07DEAF6 
 143      C0A1B13E 
 144 00e9 5AC724B4 		.ascii	"Z\307$\264\211$\323\3515W\366<J\222-\251L\34694\001"
 144      8924D3E9 
 144      3557F63C 
 144      4A922DA9 
 144      4CE63934 
 145 00fe 6D207025 		.ascii	"m p%\337 \004\353\032\236\363\010Z\2165\\\342GelP\354"
 145      DF2004EB 
ARM GAS  /tmp/ccCrNG5U.s 			page 10


 145      1A9EF308 
 145      5A8E355C 
 145      E247656C 
 146 0114 67708434 		.ascii	"gp\2044\274\005O0G\313d\003'\241\231\030MC\335\220\337"
 146      BC054F30 
 146      47CB6403 
 146      27A19918 
 146      4D43DD90 
 147 0129 4EC895C7 		.ascii	"N\310\225\307\004\225#\3648\332N\027 ;\211\314\360\024"
 147      049523F4 
 147      38DA4E17 
 147      203B89CC 
 147      F014
 148 013b B0194FE2 		.ascii	"\260\031O\342C4\274\025KN\235\351\341\324\271\023\305"
 148      4334BC15 
 148      4B4E9DE9 
 148      E1D4B913 
 148      C5
 149 014c EDCDE94C 		.ascii	"\355\315\351Lf\222w\221;L\2212\333\007\344Go\022\322"
 149      66927791 
 149      3B4C9132 
 149      DB07E447 
 149      6F12D2
 150 015f 4213170E 		.ascii	"B\023\027\016\224 a\326T\264\015\344\247G>\031\224\010"
 150      942061D6 
 150      54B40DE4 
 150      A7473E19 
 150      9408
 151 0171 29D47037 		.ascii	")\324p7\366C\356k\030`\333\3604S\220w\316\372\265\375"
 151      F643EE6B 
 151      1860DBF0 
 151      34539077 
 151      CEFAB5FD 
 152 0185 47700BE8 		.ascii	"Gp\013\350\324\360.F\352\302\017\212\352{\373\3403L"
 152      D4F02E46 
 152      EAC20F8A 
 152      EA7BFBE0 
 152      334C
 153 0197 D2C70CF4 		.ascii	"\322\307\014\364\223\003\244\341\207\374\366]\204\337"
 153      9303A4E1 
 153      87FCF65D 
 153      84DF
 154 01a5 5600A5B1 		.ascii	"V\000\245\261?\233\003\372\364=\214\376\347\360\334"
 154      3F9B03FA 
 154      F43D8CFE 
 154      E7F0DC
 155 01b4 C96087E3 		.ascii	"\311`\207\343\206C\360\024\264\225\220\216\364\366_"
 155      8643F014 
 155      B495908E 
 155      F4F65F
 156 01c3 7F96DF27 		.ascii	"\177\226\337')\237\265\325wXX\027\034\011\321^\030Q"
 156      299FB5D5 
 156      77585817 
 156      1C09D15E 
 156      1851
 157 01d5 B973D446 		.ascii	"\271s\324F\326\224\342\354A\352r\036\244\275\302\203"
 157      D694E2EC 
ARM GAS  /tmp/ccCrNG5U.s 			page 11


 157      41EA721E 
 157      A4BDC283 
 158 01e5 74D73A48 		.ascii	"t\327:H\306)\226P\263d\227&>\246=N\372\247B\372\341"
 158      C6299650 
 158      B3649726 
 158      3EA63D4E 
 158      FAA742FA 
 159 01fa 9359FA0E 		.ascii	"\223Y\372\016Fo\223D\205\223\277C\013\215j4\274\037"
 159      466F9344 
 159      8593BF43 
 159      0B8D6A34 
 159      BC1F
 160 020c 401AEE7D 		.ascii	"@\032\356}\240\232{\235\252\016\010UeN\266\271=\344"
 160      A09A7B9D 
 160      AA0E0855 
 160      654EB6B9 
 160      3DE4
 161 021e 94EEF600 		.ascii	"\224\356\366\000\035\026<\345\235\342\335j!{w\022\277"
 161      1D163CE5 
 161      9DE2DD6A 
 161      217B7712 
 161      BF
 162 022f 2556C387 		.ascii	"%V\303\207\\\3121y}\002\231\355\351\367\326\337h\306"
 162      5CCA3179 
 162      7D0299ED 
 162      E9F7D6DF 
 162      68C6
 163 0241 EB5A9303 		.ascii	"\353Z\223\003d\230\236!\353\006]\033\265\244\0019j\207"
 163      64989E21 
 163      EB065D1B 
 163      B5A40139 
 163      6A87
 164 0253 14A1B5B9 		.ascii	"\024\241\265\271\207\311\310u+\354\030.\262\262\330"
 164      87C9C875 
 164      2BEC182E 
 164      B2B2D8
 165 0262 23D87ACF 		.ascii	"#\330z\317GP\303\273\361TO\207~\034j\247{[F\327?\236"
 165      4750C3BB 
 165      F1544F87 
 165      7E1C6AA7 
 165      7B5B46D7 
 166 0278 DB58822D 		.ascii	"\333X\202-\\)[\223\017\333\345\036\246\341\023x\\N$"
 166      5C295B93 
 166      0FDBE51E 
 166      A6E11378 
 166      5C4E24
 167 028b C99656EC 		.ascii	"\311\226V\354~\313N\032\207\305\232\316\016r\317\"\037"
 167      7ECB4E1A 
 167      87C59ACE 
 167      0E72CF22 
 167      1F
 168 029c 85C6A375 		.ascii	"\205\306\243u\246\222l\351\244\300\312y\031e_?\027."
 168      A6926CE9 
 168      A4C0CA79 
 168      19655F3F 
 168      172E
 169 02ae DC7C8ABD 		.ascii	"\334|\212\275~\006\360x\270#\007d\373\035\271/\206."
ARM GAS  /tmp/ccCrNG5U.s 			page 12


 169      7E06F078 
 169      B8230764 
 169      FB1DB92F 
 169      862E
 170 02c0 7A1A528D 		.ascii	"z\032R\215$\006%\251\221K\305\304g\314#\301\0156\257"
 170      240625A9 
 170      914BC5C4 
 170      67CC23C1 
 170      0D36AF
 171 02d3 C9284956 		.ascii	"\311(IV\267\2462\2276\302\021>\212\215\215\225\320\011"
 171      B7A63297 
 171      36C2113E 
 171      8A8D8D95 
 171      D009
 172 02e5 2681E68A 		.ascii	"&\201\346\212\266\"[\276\265\027%~\007\257}\250\270"
 172      B6225BBE 
 172      B517257E 
 172      07AF7DA8 
 172      B8
 173 02f6 5DB360A7 		.ascii	"]\263`\247\362\206\225\331`\035<\354\214\027X\241\273"
 173      F28695D9 
 173      601D3CEC 
 173      8C1758A1 
 173      BB
 174 0307 B27778D8 		.ascii	"\262wx\330`\3360\273\262wy\330w^`\245\356\312:y\330"
 174      60DE30BB 
 174      B27779D8 
 174      775E60A5 
 174      EECA3A79 
 175 031c 50DE30BB 		.ascii	"P\3360\273\262\017x\330e/\260\211\356\3126\362\260\253"
 175      B20F78D8 
 175      652FB089 
 175      EECA36F2 
 175      B0AB
 176 032e 79C3ECCA 		.ascii	"y\303\354\3126\361\260\353^`e\356\312\366\360\260\341"
 176      36F1B0EB 
 176      5E6065EE 
 176      CAF6F0B0 
 176      E1
 177 033f BC617665 		.ascii	"\274ave{y\330\237^`O\270+\333\317\303n\345\015\263+"
 177      7B79D89F 
 177      5E604FB8 
 177      2BDBCFC3 
 177      6EE50DB3 
 178 0354 EBE16177 		.ascii	"\353\341aw\274\300f\272)kN}\366\022e\365\303\313OB\304"
 178      BCC066BA 
 178      296B4E7D 
 178      F61265F5 
 178      C3CB4F42 
 179 0369 E760D9DF 		.ascii	"\347`\331\337\222\"\230]\331\001^\331j'M\244l\256;\354"
 179      9222985D 
 179      D9015ED9 
 179      6A274DA4 
 179      6CAE3BEC 
 180 037d 200F7BCB 		.ascii	" \017{\313\013l\241\373\0158\314\303\332\362\206\331"
 180      0B6CA1FB 
 180      0D38CCC3 
ARM GAS  /tmp/ccCrNG5U.s 			page 13


 180      DAF286D9 
 181 038d 957DCDC3 		.ascii	"\225}\315\303:\274\300\226\272+;\307\3036\344\015\343"
 181      3ABCC096 
 181      BA2B3BC7 
 181      C336E40D 
 181      E3
 182 039e 9535A7BE 		.ascii	"\2255\247\276\201\273i~\361\222s\035_\306\271\366W\230"
 182      81BB697E 
 182      F192731D 
 182      5FC6B9F6 
 182      5798
 183 03b0 2D6C976B 		.ascii	"-l\227k\230\206o\346\375a\374\313\345\303\310\377\317"
 183      98866FE6 
 183      FD61FCCB 
 183      E5C3C8FF 
 183      CF
 184 03c1 28170565 		.ascii	"(\027\005e\177\350,\333&\302\034.\027\354\241\350\342"
 184      7FE82CDB 
 184      26C21C2E 
 184      17ECA1E8 
 184      E2
 185 03d2 BF7E1AFE 		.ascii	"\277~\032\376\202\265\023_\342\311\340\277b\376,\363"
 185      82B5135F 
 185      E2C9E0BF 
 185      62FE2CF3 
 186 03e2 83CC9F67 		.ascii	"\203\314\237g\376\002\363\027\231\037b\376{\346/3\377"
 186      FE02F317 
 186      991F62FE 
 186      7BE62F33 
 186      FF
 187 03f3 03F33F32 		.ascii	"\003\363?2\177\225\371k\314\377\302\374u\346\177c\376"
 187      7F95F96B 
 187      CCFFC2FC 
 187      75E67F63 
 187      FE
 188 0404 06F3BF33 		.ascii	"\006\363\2773\377\007\370\354\345h\227\006\\\356/\325"
 188      FF07F8EC 
 188      E5689706 
 188      5CEE2FD5 
 189 0414 7E2BD72E 		.ascii	"~+\327.\321N-5\014\235\332\231\243\270\243\225\030\235"
 189      D14E2D35 
 189      0C9DDA99 
 189      A3B8A395 
 189      189D
 190 0426 5AB2D0EA 		.ascii	"Z\262\320\352v\223>a\267;\030vt\273\267=v\273\027\311"
 190      76933E61 
 190      B73B1876 
 190      74BBB73D 
 190      76BB17C9 
 191 043a D289D966 		.ascii	"\322\211\331f\367\266\263\331\375gt\027\231\032N\015"
 191      F7B6B3D9 
 191      FD677417 
 191      991A4E0D 
 192 044a 9F325AF0 		.ascii	"\2372Z\360\217R\245V\007\271\317!K\334\342\2178\371"
 192      8F52A556 
 192      07B9CF21 
 192      4BDCE28F 
ARM GAS  /tmp/ccCrNG5U.s 			page 14


 192      38F9
 193 045c 7785FCCE 		.ascii	"w\205\374\316\323\034\337(\273_\\v\237\263l\"=@\331"
 193      D31CDF28 
 193      BB5F5C76 
 193      9FB36C22 
 193      3D40D9
 194 046f 34C926AB 		.ascii	"4\311&\253Y\022\311:{z\243\331\343\367\221\311f\363"
 194      5912C93A 
 194      7B7AA3D9 
 194      E3F791C9 
 194      66F3
 195 0481 2EA16FC5 		.ascii	".\241o\305\225;\333\365\325.\302\314\025\327\330WD\323"
 195      953BDBF5 
 195      D52EC2CC 
 195      15D7D857 
 195      44D3
 196 0493 95DA587D 		.ascii	"\225\332X}X\251\211\205\232\224Px\225RS\033Y\021\211"
 196      58A98985 
 196      9A945078 
 196      9552531B 
 196      591189
 197 04a6 25143DDE 		.ascii	"%\024=\336\030}U\201A\255V\247$\3425JB\237Q\203\012"
 197      187D5581 
 197      41AD56A7 
 197      24E2354A 
 197      429F5183 
 198 04bb 12FAA268 		.ascii	"\022\372\242hD/X\260dYY\000=}\277\334\270\256D\2425"
 198      442F58B0 
 198      64595900 
 198      3D7DBFDC 
 198      B8AE44A2 
 199 04d0 758D2108 		.ascii	"u\215!\010\252M4%\364\246\206pbF-\362\323q\244>\034"
 199      AA4D3425 
 199      F4A68670 
 199      62462DF2 
 199      D371A43E 
 200 04e5 D4A7288D 		.ascii	"\324\247(\215\211\270\242\305\353\247Gc\321\360\364"
 200      89B8A2C5 
 200      EBA74763 
 200      D1F0F4
 201 04f4 B0B62292 		.ascii	"\260\266\"\222MI\350\241HT\207\360\302F\370wvyP\177"
 201      4D49E8A1 
 201      485487F0 
 201      C246F877 
 201      7679507F 
 202 0508 F21ED1F5 		.ascii	"\362\036\321\365\032,\037\015+\301Px\245\326X\247\007"
 202      1A2C1F0D 
 202      2BC15078 
 202      A5D658A7 
 202      07
 203 0519 ADC5C606 		.ascii	"\255\305\306\006\203V~qB\257\322\265\270>\257\016\030"
 203      83567E71 
 203      42AFD2B5 
 203      B83EAF0E 
 203      18
 204 052a 3EAAA088 		.ascii	">\252\240\210\316\304\032\330\304X\030\207uk\270\300"
 204      CEC41AD8 
ARM GAS  /tmp/ccCrNG5U.s 			page 15


 204      C4581887 
 204      756BB8C0 
 205 053a 1C06BC6C 		.ascii	"\034\006\274lPC,\256'\224\252\352\312\331\345\312\342"
 205      50432CAE 
 205      2794AAEA 
 205      CAD9E5CA 
 205      E2
 206 054b C5154AF5 		.ascii	"\305\025J\365\242\312U\263\240\200`]]\010$\024\031\243"
 206      A2CA55B3 
 206      A080605D 
 206      5D082414 
 206      19A3
 207 055d 6004F6EE 		.ascii	"`\004\366\356\205\377\302\253\247UD\352\015\244\371"
 207      85FFC2AB 
 207      A75544EA 
 207      0DA4F9
 208 056c 23A8CB01 		.ascii	"#\250\313\001u\026X\271\257\2522\240\372*\026\315W\245"
 208      751658B9 
 208      AFAA32A0 
 208      FA2A16CD 
 208      57A5
 209 057e 2A559EBF 		.ascii	"*U\236\277@\035\023\010T\252\263\230/\367\005\002\363"
 209      401D1308 
 209      54AAB398 
 209      2FF70502 
 209      F3
 210 058f 5539B0A4 		.ascii	"U9\260\244Z^Z\025\220\347\251\252\254\006\3407$<_Q\255"
 210      5A5E5A15 
 210      90E7A9AA 
 210      AC06E037 
 210      243C5F51 
 211 05a4 CA1534B3 		.ascii	"\312\0254\263r\236*\275hd\315\206\370\345\352xSx\202"
 211      729E2ABD 
 211      6864CD86 
 211      F8E5EA78 
 211      537882
 212 05b7 EE5A50A3 		.ascii	"\356ZP\243\3731.;\025k0fJ\255\231\260n\237x\305\232"
 212      FB312E3B 
 212      156B3066 
 212      4AAD99B0 
 212      6E9F78C5 
 213 05cc F81783AD 		.ascii	"\370\027\203\255\363r"
 213      F372
 214              		.text
 215              		.section	.gnu.lto_.symtab.3828b6dab81e7934,"",%progbits
 216 0000 7374496E 		.ascii	"stInit\000\000\000\000\000\000\000\000\000\000\000\000"
 216      69740000 
 216      00000000 
 216      00000000 
 216      0000
 217 0012 A1000000 		.ascii	"\241\000\000\000stStartAlarm\000\000\000\000\000\000"
 217      73745374 
 217      61727441 
 217      6C61726D 
 217      00000000 
 218 0028 00000000 		.ascii	"\000\000\000\000\000\000\246\000\000\000stStopAlarm"
 218      0000A600 
ARM GAS  /tmp/ccCrNG5U.s 			page 16


 218      00007374 
 218      53746F70 
 218      416C6172 
 219 003d 00000000 		.ascii	"\000\000\000\000\000\000\000\000\000\000\000\000\266"
 219      00000000 
 219      00000000 
 219      B6
 220 004a 00000073 		.ascii	"\000\000\000stSetAlarm\000\000\000\000\000\000\000\000"
 220      74536574 
 220      416C6172 
 220      6D000000 
 220      00000000 
 221 005f 00000000 		.ascii	"\000\000\000\000\271\000\000\000stGetAlarm\000\000\000"
 221      B9000000 
 221      73744765 
 221      74416C61 
 221      726D0000 
 222 0074 00000000 		.ascii	"\000\000\000\000\000\000\000\000\000\275\000\000\000"
 222      00000000 
 222      00BD0000 
 222      00
 223 0081 73745F6C 		.ascii	"st_lld_init\000\000\002\000\000\000\000\000\000\000"
 223      6C645F69 
 223      6E697400 
 223      00020000 
 223      00000000 
 224 0096 0000C100 		.ascii	"\000\000\301\000\000\000"
 224      0000
 225              		.text
 226              		.section	.gnu.lto_.opts,"",%progbits
 227 0000 272D6D63 		.ascii	"'-mcpu=cortex-m4' '-mfloat-abi=hard' '-mfpu=fpv4-sp"
 227      70753D63 
 227      6F727465 
 227      782D6D34 
 227      2720272D 
 228 0033 2D643136 		.ascii	"-d16' '-mno-thumb-interwork' '-mthumb' '-O2' '-fomi"
 228      2720272D 
 228      6D6E6F2D 
 228      7468756D 
 228      622D696E 
 229 0066 742D6672 		.ascii	"t-frame-pointer' '-falign-functions=16' '-ffunction"
 229      616D652D 
 229      706F696E 
 229      74657227 
 229      20272D66 
 230 0099 2D736563 		.ascii	"-sections' '-fdata-sections' '-fno-common' '-flto' "
 230      74696F6E 
 230      73272027 
 230      2D666461 
 230      74612D73 
 231 00cc 272D6673 		.ascii	"'-fsingle-precision-constant'\000"
 231      696E676C 
 231      652D7072 
 231      65636973 
 231      696F6E2D 
 232              		.text
 233              		.section	.text.stInit,"ax",%progbits
ARM GAS  /tmp/ccCrNG5U.s 			page 17


 234              		.align	2
 235              		.p2align 4,,15
 236              		.global	stInit
 237              		.thumb
 238              		.thumb_func
 239              		.type	stInit, %function
 240              	stInit:
 241              		@ args = 0, pretend = 0, frame = 0
 242              		@ frame_needed = 0, uses_anonymous_args = 0
 243              		@ link register save eliminated.
 244 0000 FFF7FEBF 		b	st_lld_init
 245              		.size	stInit, .-stInit
 246 0004 AFF30080 		.section	.text.stStartAlarm,"ax",%progbits
 246      AFF30080 
 246      AFF30080 
 247              		.align	2
 248              		.p2align 4,,15
 249              		.global	stStartAlarm
 250              		.thumb
 251              		.thumb_func
 252              		.type	stStartAlarm, %function
 253              	stStartAlarm:
 254              		@ args = 0, pretend = 0, frame = 0
 255              		@ frame_needed = 0, uses_anonymous_args = 0
 256              		@ link register save eliminated.
 257 0000 4FF08043 		mov	r3, #1073741824
 258 0004 0021     		movs	r1, #0
 259 0006 0222     		movs	r2, #2
 260 0008 5863     		str	r0, [r3, #52]
 261 000a 1961     		str	r1, [r3, #16]
 262 000c DA60     		str	r2, [r3, #12]
 263 000e 7047     		bx	lr
 264              		.size	stStartAlarm, .-stStartAlarm
 265              		.section	.text.stStopAlarm,"ax",%progbits
 266              		.align	2
 267              		.p2align 4,,15
 268              		.global	stStopAlarm
 269              		.thumb
 270              		.thumb_func
 271              		.type	stStopAlarm, %function
 272              	stStopAlarm:
 273              		@ args = 0, pretend = 0, frame = 0
 274              		@ frame_needed = 0, uses_anonymous_args = 0
 275              		@ link register save eliminated.
 276 0000 4FF08043 		mov	r3, #1073741824
 277 0004 0022     		movs	r2, #0
 278 0006 DA60     		str	r2, [r3, #12]
 279 0008 7047     		bx	lr
 280              		.size	stStopAlarm, .-stStopAlarm
 281 000a 00BFAFF3 		.section	.text.stSetAlarm,"ax",%progbits
 281      0080
 282              		.align	2
 283              		.p2align 4,,15
 284              		.global	stSetAlarm
 285              		.thumb
 286              		.thumb_func
 287              		.type	stSetAlarm, %function
ARM GAS  /tmp/ccCrNG5U.s 			page 18


 288              	stSetAlarm:
 289              		@ args = 0, pretend = 0, frame = 0
 290              		@ frame_needed = 0, uses_anonymous_args = 0
 291              		@ link register save eliminated.
 292 0000 4FF08043 		mov	r3, #1073741824
 293 0004 5863     		str	r0, [r3, #52]
 294 0006 7047     		bx	lr
 295              		.size	stSetAlarm, .-stSetAlarm
 296 0008 AFF30080 		.section	.text.stGetAlarm,"ax",%progbits
 296      AFF30080 
 297              		.align	2
 298              		.p2align 4,,15
 299              		.global	stGetAlarm
 300              		.thumb
 301              		.thumb_func
 302              		.type	stGetAlarm, %function
 303              	stGetAlarm:
 304              		@ args = 0, pretend = 0, frame = 0
 305              		@ frame_needed = 0, uses_anonymous_args = 0
 306              		@ link register save eliminated.
 307 0000 4FF08043 		mov	r3, #1073741824
 308 0004 586B     		ldr	r0, [r3, #52]
 309 0006 7047     		bx	lr
 310              		.size	stGetAlarm, .-stGetAlarm
 311              		.comm	__gnu_lto_v1,1,1
 312 0008 AFF30080 		.ident	"GCC: (GNU Tools for ARM Embedded Processors) 4.8.4 20140526 (release) [ARM/embedded-4_8-br
 312      AFF30080 
ARM GAS  /tmp/ccCrNG5U.s 			page 19

