ARM GAS  /tmp/cch4md0g.s 			page 1


   1              		.syntax unified
   2              		.cpu cortex-m4
   3              		.eabi_attribute 27, 3
   4              		.eabi_attribute 28, 1
   5              		.fpu fpv4-sp-d16
   6              		.eabi_attribute 20, 1
   7              		.eabi_attribute 21, 1
   8              		.eabi_attribute 23, 3
   9              		.eabi_attribute 24, 1
  10              		.eabi_attribute 25, 1
  11              		.eabi_attribute 26, 1
  12              		.eabi_attribute 30, 2
  13              		.eabi_attribute 34, 1
  14              		.eabi_attribute 18, 4
  15              		.thumb
  16              		.file	"stm32_dma.c"
  17              		.section	.gnu.lto_.jmpfuncs.54e382a52e06511,"",%progbits
  18 0000 789C6DCF 		.ascii	"x\234m\3179\016\2000\014D\321I\302\276\205E\300M\323"
  18      390E8030 
  18      0C44D149 
  18      C2BE8545 
  18      C04DD3
  19 0013 72558E82 		.ascii	"rU\216\202A\210\337`\311\232WLa{y\375\315\371\346\252"
  19      4188DF60 
  19      C99A574C 
  19      617B79FD 
  19      CDF9E6AA 
  20 0027 D20A4172 		.ascii	"\322\012Ar\311\366.?\375C\312`\016\013X\302\012\326"
  20      C9F62E3F 
  20      FD43CA60 
  20      0E0B58C2 
  20      0AD6
  21 0039 B0812DEC 		.ascii	"\260\201-\354`\017\007\030\341\010'8\303E[\014v\275"
  21      600F0718 
  21      E1082738 
  21      C3455B0C 
  21      76BD
  22 004b D2F78485 		.ascii	"\322\367\204\205\267\330\235\275#]q6\013\367"
  22      B7D89DBD 
  22      235D7136 
  22      0BF7
  23              		.text
  24              		.section	.gnu.lto_.inline.54e382a52e06511,"",%progbits
  25 0000 789C8592 		.ascii	"x\234\205\2221R\3030\020E\377\256%\231$\216q\314`\247"
  25      3152C330 
  25      1045FFAE 
  25      2599248E 
  25      71CC60A7 
  26 0014 8178D224 		.ascii	"\201x\322$U\316\220\222\312C\311\015 7\201\012\235\200"
  26      55CE9092 
  26      CA43C90D 
  26      2037810A 
  26      9D80
  27 0026 494F4BC1 		.ascii	"IOK\301\244\247`h8\006t\224TLVVp\005\263*\276vVo\277"
  27      A4A76068 
  27      38067494 
  27      544C5656 
ARM GAS  /tmp/cch4md0g.s 			page 2


  27      7005B32A 
  28 003f B6F80CC6 		.ascii	"\266\370\014\306_\247L\342}\012\324/ \3137W\264\241"
  28      5FA74CE2 
  28      7D0AD42F 
  28      20CB3757 
  28      B4A1
  29 0051 D0E1EBDF 		.ascii	"\320\341\353\337\012\242I\324\206CgP\277?:\244\267\013"
  29      0AA249D4 
  29      86436750 
  29      BF3F3AA4 
  29      B70B
  30 0063 067DA445 		.ascii	"\006}\244E\324 MW60\333\331\032t\357\014w\032<\222\014"
  30      D4204D57 
  30      3630DBD9 
  30      1A74EF0C 
  30      771A3C92 
  31 0078 06EC5BDF 		.ascii	"\006\354[\337\022\234%\260\373Z\301mg\335Z\214\242\221"
  31      129C25B0 
  31      FB5AC16D 
  31      67DD5A8C 
  31      A291
  32 008a 56FEB3E9 		.ascii	"V\376\263\351[4\024\261\023\304\031\203r.@\371pG\377"
  32      5B3414B1 
  32      13C41983 
  32      722E40F9 
  32      7047FF
  33 009d 1056259C 		.ascii	"\020V%\234J\244\332\032G\252\305@%\206*1\322\326\310"
  33      4AA4DA1A 
  33      47AAC540 
  33      25862A31 
  33      D2D6C8
  34 00b0 548BB14A 		.ascii	"T\213\261J\344*q\254\255Q\250\026\023\225(U\342\004"
  34      E42A71AC 
  34      AD51A816 
  34      13952855 
  34      E204
  35 00c2 F9A7648F 		.ascii	"\371\247d\217\253\357\327\254G*\234O\211\272H^\230\345"
  35      ABEFD7AC 
  35      472A9C4F 
  35      89BA485E 
  35      98E5
  36 00d4 D3EE302C 		.ascii	"\323\3560,\341\223\310%\317u\210\234\201\315\345=x\370"
  36      E193C825 
  36      CF75889C 
  36      81CDE53D 
  36      78F8
  37 00e6 B646353F 		.ascii	"\266F5?\014\\\2323\377F}|M\324\376c\036I\341[\354\001"
  37      0C5C9A33 
  37      FF467D7C 
  37      4DD4FE63 
  37      1E49E15B 
  38 00fc 395F63F7 		.ascii	"9_c\367"
  39              		.text
  40              		.section	.gnu.lto_.pureconst.54e382a52e06511,"",%progbits
  41 0000 789C25C1 		.ascii	"x\234%\301Y\016@P\020\000\2601\261\257\017A\322+\270"
  41      590E4050 
  41      1000B031 
ARM GAS  /tmp/cch4md0g.s 			page 3


  41      B1AF0F41 
  41      D22BB8
  42 0013 FFFD7C68 		.ascii	"\377\375|h32\336\370]\241\222j\215V\2477\030Mf\213\325"
  42      3332DEF8 
  42      5DA1926A 
  42      8D56A737 
  42      184D668B 
  43 0028 A6D81D4E 		.ascii	"\246\330\035N\267\307\007G[\003O"
  43      B7C70747 
  43      5B034F
  44              		.text
  45              		.section	.gnu.lto_dmaStreamAllocate.part.0.54e382a52e06511,"",%progbits
  46 0000 789C9554 		.ascii	"x\234\225TOHTa\020\237\371\276\367\275\367\366\377\346"
  46      4F485461 
  46      109FF9BE 
  46      F7BDF7F6 
  46      FFE6
  47 0012 29E9625E 		.ascii	")\351b^\003_iW\017]\004\017\321\301\025*\010y\256\242"
  47      035F6957 
  47      0F5D040F 
  47      D1C1152A 
  47      0879AEA2 
  48 0026 8BBD5676 		.ascii	"\213\275Vv\2670:\370\251{\210\360 \035\"2*\017\021\004"
  48      B7303AF8 
  48      A97B88F0 
  48      201D2232 
  48      2A0F1104 
  49 003a D1210823 		.ascii	"\321!\010#\202\354R\004\026\321\305:\224\020t\212\016"
  49      82EC5204 
  49      16D1C53A 
  49      9410748A 
  49      0E
  50 004b 4A1D12DC 		.ascii	"J\035\022\334f\336{\276]5\331\\\330\371\276of~3\277"
  50      66DE7BBE 
  50      5D35D95C 
  50      D8F9BE6F 
  50      667E33BF 
  51 005f FDCDB002 		.ascii	"\375\315\260\002\004\354\374\234\243\357\013\003\240"
  51      04ECFC9C 
  51      A3EF0B03 
  51      A0
  52 006c 4227C600 		.ascii	"B'\306\000\355\271wt\261Q\370\247@\311\347\224-\205"
  52      EDB97774 
  52      B151F8A7 
  52      40C9E794 
  52      2D85
  53 007e 31FB1A40 		.ascii	"1\373\032@\307U\325\002\2354\002\377\011%\314\371n\362"
  53      C755D502 
  53      9D3402FF 
  53      0925CCF9 
  53      6EF2
  54 0090 5ABFB2E4 		.ascii	"Z\277\262\3445\321\012\262-D\276\000\302\244-\244\241"
  54      35D10AB2 
  54      2D44BE00 
  54      C2A42DA4 
  54      A1
  55 00a1 4C0B27CF 		.ascii	"L\013'\317 \267\223\355\260\240\365\365\325\373\337"
ARM GAS  /tmp/cch4md0g.s 			page 4


  55      20B793ED 
  55      B0A0F5F5 
  55      D5FBDF
  56 00b0 9FB4EA7B 		.ascii	"\237\264\352{\323sz\263V\303\002\022\261^\204<\302i"
  56      D3737AB3 
  56      56C30212 
  56      B15E843C 
  56      C269
  57 00c2 7A609B7F 		.ascii	"z`\233\177\010c;\323\000\371\362\353\235\033\255o\353"
  57      08633BD3 
  57      00F9F2EB 
  57      9D1BAD6F 
  57      EB
  58 00d3 4829E0D4 		.ascii	"H)\340\324?\221\036\356\202~\374r\273\365\3326\350`"
  58      3F911EEE 
  58      827EFC72 
  58      BBF5DA36 
  58      E860
  59 00e5 B3A68F85 		.ascii	"\263\246\217\205^\255\325\236\375N\034D\364\020\005"
  59      5EADD59E 
  59      FD4E1C44 
  59      F41005
  60 00f4 14D09064 		.ascii	"\024\320\220d\244\301F\2611\331Xd\224M\306\214\221\261"
  60      A4C146B1 
  60      31D95864 
  60      944DC68C 
  60      91B1
  61 0106 E26C121C 		.ascii	"\342l\022\034H\022L\2448\220\346g\206\2362K7\233\212"
  61      48124CA4 
  61      3890E667 
  61      869E324B 
  61      379B8A
  62 0119 2BA86A3D 		.ascii	"+\250j=\327\346\342\002\266\3233\3573\316\221%\215s"
  62      D7E6E202 
  62      B6D333EF 
  62      33CE9125 
  62      8D73
  63 012b 9451B564 		.ascii	"\224Q\265d?\265\244c\031\246?\337\\;\344\342\003T0\202"
  63      3FB5A463 
  63      19A63FDF 
  63      5C3BE4E2 
  63      03543082 
  64 013f E2083CD4 		.ascii	"\342\010<\324\331\002\306\346\341\326\224\346[|\004"
  64      D902C6E6 
  64      E1D694E6 
  64      5B7C04
  65 014e 91F9277C 		.ascii	"\221\371'|\326\203\321o_\206Wg\267P\222Q\325)\312NF"
  65      D683D16F 
  65      5F865767 
  65      B7509251 
  65      D529CA4E 
  66 0163 B8141563 		.ascii	"\270\024\025c\\,\304a\204\233y.\267\200\006a9I\222\024"
  66      5C2CC461 
  66      849B792E 
  66      B7800661 
  66      39499214 
  67 0177 B54C50B5 		.ascii	"\265LP\2657\010\376wI\252\022T\356G\011\264\034\262"
ARM GAS  /tmp/cch4md0g.s 			page 5


  67      3708FE77 
  67      49AA1254 
  67      EE4709B4 
  67      1CB2
  68 0189 9199F2CB 		.ascii	"\221\231\362\313\340\276\211\231\004\365\211q\364\015"
  68      E0BE8999 
  68      04F58971 
  68      F40D
  69 0197 547F6014 		.ascii	"T\177`\024\361\335\215\223\314\021\001ZaRT\205\212F"
  69      F1DD8D93 
  69      CC11015A 
  69      61525485 
  69      8A46
  70 01a9 EDAD50CE 		.ascii	"\355\255P\316\364\236r\212\250{\035e\207\250\314\236"
  70      F49E728A 
  70      A87B1D65 
  70      87A8CC9E 
  71 01b9 285947FD 		.ascii	"(YG\375\2148\307Fx\366\3643\036E\2568\203\254n\016\356"
  71      8C38C746 
  71      78F6F433 
  71      1E45AE38 
  71      83AC6E0E 
  72 01ce 484E50B0 		.ascii	"HNP\260Qnn\025\310M\254\031\225\016\305M\370Y\213\213"
  72      516E6E15 
  72      C84DAC19 
  72      950EC54D 
  72      F8598B8B 
  73 01e2 6BEBA271 		.ascii	"k\353\242q0\272\257\271\246\354I\206\273\262\270\262"
  73      30BAAFB9 
  73      A6EC4986 
  73      BBB2B8B2 
  74 01f2 B6B18F02 		.ascii	"\266\261\217\002F\275\300\341p\002K\363w#\366I\216d"
  74      46BDC0E1 
  74      70024BF3 
  74      7723F649 
  74      8E64
  75 0204 1B87D08F 		.ascii	"\033\207\320\217&,)\177\235W\326\277E\211\251\246R\252"
  75      262C297F 
  75      9D57D6BF 
  75      4589A9A6 
  75      52AA
  76 0216 0629679E 		.ascii	"\006)g\236FcN\023\026\340=\250\300\001p\005\376\350"
  76      46634E13 
  76      16E03DA8 
  76      C0017005 
  76      FEE8
  77 0228 AB5CE040 		.ascii	"\253\\\340@>Z<J\312\024\260e\213\201\305\343\377@\377"
  77      3E5A3C4A 
  77      CA14B065 
  77      8B81C5E3 
  77      FF40FF
  78 023b 521CF3D9 		.ascii	"R\034\363\331}\202,\367\"\207\232\335H\205W\323\337"
  78      7D822CF7 
  78      22879ADD 
  78      488557D3 
  78      DF
  79 024c 19A4641E 		.ascii	"\031\244d\036~\2173Z\364\206\235|q\350\26234|\311\311"
ARM GAS  /tmp/cch4md0g.s 			page 6


  79      7E8F335A 
  79      F4869D7C 
  79      71E8B233 
  79      347CC9C9 
  80 0260 8F16060B 		.ascii	"\217\026\006\013\305\262S)]\2740\346\320e\324=\357\214"
  80      C5B25329 
  80      5DBC30E6 
  80      D065D43D 
  80      EF8C
  81 0272 174B95B2 		.ascii	"\027K\225\262\323\227;\331\325\031\330\236\343\023\023"
  81      D3973BD9 
  81      D519D89E 
  81      E31313
  82 0281 4EB9E275 		.ascii	"N\271\342uu\016\014ynG\036\324\270[r\275\026z\014\224"
  82      750E0C79 
  82      6E471ED4 
  82      B85B72BD 
  82      167A0C94 
  83 0295 2BA561D7 		.ascii	"+\245a\327+\017xny\254\343\330n\327\321\277\205@-\200"
  83      2B0F786E 
  83      79ACE3D8 
  83      6ED7D1BF 
  83      85402D80 
  84              		.text
  85              		.section	.gnu.lto_dmaStreamRelease.part.1.54e382a52e06511,"",%progbits
  86 0000 789C9550 		.ascii	"x\234\225P\261J\003A\020\235\331\275\013Z)vv\3016\220"
  86      B14A0341 
  86      109DD9BD 
  86      0B5A2976 
  86      76C13690 
  87 0014 85C46F10 		.ascii	"\205\304o\020,\004\301\023\264\012\227K0!\236\221\334"
  87      2C04C113 
  87      B40A974B 
  87      30219E91 
  87      DC
  88 0025 4562E59E 		.ascii	"Eb\345\236F\260H\021\304&\246\211\215\212\215\250\245"
  88      46B04811 
  88      C426A689 
  88      8D8A8DA8 
  88      A5
  89 0036 8DA6B18A 		.ascii	"\215\246\261\212`'V\301/\260\025\324sv\217\010FA\\\270"
  89      602756C1 
  89      2FB015D4 
  89      73768F08 
  89      46415CB8 
  90 004a 79B333F3 		.ascii	"y\2633\363\336\3339\006\014\206O\202\276;\004\250\022"
  90      DEDB3906 
  90      0C864F82 
  90      BE3B04A8 
  90      12
  91 005b A2096834 		.ascii	"\242\011h4\357)1\220id\310\025\006#\034Q%\200\260e0"
  91      EF293190 
  91      6964C815 
  91      06231C51 
  91      2580B065 
  92 0070 8E5BCBA8 		.ascii	"\216[\313\250\310|\012\216\244\334\357\357~\\M\312\316"
  92      C87C0A8E 
ARM GAS  /tmp/cch4md0g.s 			page 7


  92      A4DCEFEF 
  92      7E5C4DCA 
  92      CE
  93 0081 76537E84 		.ascii	"vS~\204!\026\221lf\021\034\204%\272`\\\0033\276\373"
  93      2116916C 
  93      66111C84 
  93      25BA605C 
  93      0333BEFB 
  94 0095 46CC9BD6 		.ascii	"F\314\233\326s\237\265\016n\353\035\371FT\232\343\014"
  94      739FB50E 
  94      6EEB1DF9 
  94      46549AE3 
  94      0C
  95 00a6 E67FE5BA 		.ascii	"\346\177\345\2728L\226\227\247rT\023\271\3469\177y\236"
  95      384C9697 
  95      A7725413 
  95      B9E6397F 
  95      799E
  96 00b8 33D90FC3 		.ascii	"3\331\017\303\327\343\006\232\010\232B\201\352&\324"
  96      D7E3069A 
  96      089A4281 
  96      EA26D4
  97 00c7 A56CC66D 		.ascii	"\245l\306m<\302)\272:\332\311\242\250V\266\320P\310"
  97      3CC229BA 
  97      3ADAC9A2 
  97      A856B6D0 
  97      50C8
  98 00d9 179169EC 		.ascii	"\027\221i\354A\367\351\361\270a\332xB\377k\0051\001"
  98      41F7E9F1 
  98      B861DA78 
  98      42FF6B05 
  98      3101
  99 00eb 67B21E8C 		.ascii	"g\262\036\214\027\321h\303a\320\224\224\231\312=&_\366"
  99      17D168C3 
  99      61D09494 
  99      99CA3D26 
  99      5FF6
 100 00fd A4A11F12 		.ascii	"\244\241\037\022\323\366\331\257\015z\260s\315\007\002"
 100      D3F6D9AF 
 100      0D7AB073 
 100      CD0702
 101 010c 8C34D410 		.ascii	"\2144\324\020\017\303\360}Lw\273\263Q\363\337\322\244"
 101      0FC3F07D 
 101      4C77BBB3 
 101      51F3DFD2 
 101      A4
 102 011d 16258BB4 		.ascii	"\026%\213\264\230z\355\003\004\375\366\205\021\311\015"
 102      987AED03 
 102      04FDF685 
 102      11C90D
 103 012c 8E85A89A 		.ascii	"\216\205\250\232jtF\024\312n^8\345\334\246\310\3457"
 103      6A744614 
 103      CA6E5E38 
 103      E5DCA6C8 
 103      E537
 104 013e 84532866 		.ascii	"\204S(f\213eO\370\225\352ZIPR\260W\305z\271\342{b\301"
 104      8B654FF8 
ARM GAS  /tmp/cch4md0g.s 			page 8


 104      95EA5A49 
 104      5052B057 
 104      C57AB9E2 
 105 0155 9A4BA7A2 		.ascii	"\232K\247\24283]\253\011\317w\323\251L\316\265\223\016"
 105      38335DAB 
 105      09CF77D3 
 105      A94CCEB5 
 105      930E
 106 0167 C4083C7F 		.ascii	"\304\010<\177}\202 \343\371\225\274\355z\031\252\224"
 106      7D8220E3 
 106      F995BCED 
 106      7A19AA94 
 107 0177 92E99FA5 		.ascii	"\222\351\237\245\324'\300\226\231\357"
 107      D427C096 
 107      99EF
 108              		.text
 109              		.section	.gnu.lto_Vector6C.54e382a52e06511,"",%progbits
 110 0000 789C9D91 		.ascii	"x\234\235\221\261kSA\030\300\277\357\356^\222\306\324"
 110      B16B5341 
 110      18C0BFEF 
 110      EE5E92C6 
 110      D4
 111 0011 86FE0545 		.ascii	"\206\376\005Ep\261\350A\352\032\307B\007\005i\012v\222"
 111      70B1E841 
 111      EA1AC742 
 111      0705690A 
 111      7692
 112 0023 9797B439 		.ascii	"\227\227\2649l\2144Q*\016\375^\223\202\335J\2476YZ\263"
 112      6C8C3451 
 112      2A0EFD5E 
 112      9382DD4A 
 112      A736595A 
 113 0038 89E0AA38 		.ascii	"\211\340\2528\030:\351P\213\233tJw\007\035\004+\205"
 113      183AE950 
 113      8B9B744A 
 113      77071D04 
 113      2B85
 114 004a F8DDBBBC 		.ascii	"\370\335\273\274P\005\027\017\336w\337\335}\357w\277"
 114      5005170F 
 114      DE77DFDD 
 114      7DEF77BF 
 115 005a BB1320E0 		.ascii	"\273\023 \340\357\226\343/\344\351;\334\243\007(\266"
 115      EF96E32F 
 115      E4E93BDC 
 115      A30728B6 
 116 006a 3FF1444A 		.ascii	"?\361DJ\010\331\311\003\245\325\217,PF\242r\323\012"
 116      08D9C903 
 116      A5D58F2C 
 116      5046A272 
 116      D30A
 117 007c D12680B0 		.ascii	"\321&\200\260.\244\302\365E\264\014\274\002\007D;\375"
 117      2EA4C2F5 
 117      45B40CBC 
 117      0207443B 
 117      FD
 118 008d CD17A7B8 		.ascii	"\315\027\247\270G\275\326>\235\017\006\210\006y\277"
 118      47BDD63E 
ARM GAS  /tmp/cch4md0g.s 			page 9


 118      9D0F0688 
 118      0679BF
 119 009c 398400E1 		.ascii	"9\204\000\341\036\017p*\352\204\372S\340\265\350\365"
 119      1E0F702A 
 119      EA84FA53 
 119      E0B5E8F5 
 120 00ac 0783F3F7 		.ascii	"\007\203\363\367\337N\3338\231\226`P*\360\361\200\241"
 120      DF4EDB38 
 120      99966050 
 120      2AF0F180 
 120      A1
 121 00bd 091EA824 		.ascii	"\011\036\250$\007\217\353<h\021mO\271\025\260Pn\005"
 121      078FEB3C 
 121      68116D4F 
 121      B915B050 
 121      6E05
 122 00cf 8E566801 		.ascii	"\216Vh\001\205\355\345\021\034\236\354v\317\204\217"
 122      85EDE511 
 122      1C9EEC76 
 122      CF848F
 123 00de 5DFE6919 		.ascii	"]\376i\031\3454\274\244\026\357\232\350@;$\242\273\006"
 123      E534BCA4 
 123      16EF9AE8 
 123      403B24A2 
 123      BB06
 124 00f0 93D62245 		.ascii	"\223\326\"E\275-R\221P*\322(b,t\004\315w\315\245\230"
 124      BD2D5291 
 124      502AD228 
 124      622C7404 
 124      CD77CDA5 
 125 0105 A01862AB 		.ascii	"\240\030b\253d>Z:\374\370\246{\206n1b\2074\341\350\370"
 125      643E5A3A 
 125      FCF8A67B 
 125      866E3162 
 125      8734E1E8 
 126 011a 6FB24333 		.ascii	"o\262C3\313\0226N\276\\\020LL\3035\203c\327\341\025"
 126      CB12364E 
 126      BE5C104C 
 126      4CC33583 
 126      63D7E115 
 127 012e CBD1A2C1 		.ascii	"\313\321\242\301\264\023\315\032\274\364\014~\321s\233"
 127      B413CD1A 
 127      BCF40C7E 
 127      D1739B
 128 013d 65AA11C1 		.ascii	"e\252\021\301\"3\020g\343\243\033,b\374\254\037\240"
 128      22331067 
 128      E3A31B2C 
 128      62FCAC1F 
 128      A0
 129 014e F5351C1F 		.ascii	"\3655\034\037\261m\331\330\305\273^@\011\235\274\264"
 129      B16DD9D8 
 129      C5BB5E40 
 129      099DBCB4 
 130 015e 123FBBDF 		.ascii	"\022?\273\337e\\\230\214$\274\241\304[\374O\0139\314"
 130      655C988C 
 130      24BCA1C4 
 130      5BFC4F0B 
ARM GAS  /tmp/cch4md0g.s 			page 10


 130      39CC
 131 0170 8E61B377 		.ascii	"\216a\263w\313\261\355\251\0236$\371\364\006/\307\032"
 131      CBB1EDA9 
 131      133624F9 
 131      F4062FC7 
 131      1A
 132 0181 2A7AAD63 		.ascii	"*z\255ch\366\367\312q\345h\243\211`xc\006\263\000\237"
 132      68F6F7CA 
 132      71E568A3 
 132      89607863 
 132      06B3009F 
 133 0195 21ECB7AF 		.ascii	"!\354\267\257\306E\256\025\270\200\001\366\330\263\272"
 133      C645AE15 
 133      B88001F6 
 133      D8B3BA
 134 01a4 52AB9675 		.ascii	"R\253\226uP+=\325\245\362\023\035TL\321\324\352\272"
 134      502B3DD5 
 134      A5F2131D 
 134      544CD1D4 
 134      EABA
 135 01b6 B1FAF8E1 		.ascii	"\261\372\370\341\003\315I\305_\321\217j\253\215\272"
 135      03CD49C5 
 135      5FD18F6A 
 135      AB8DBA
 136 01c5 9E2FDC9E 		.ascii	"\236/\334\236\311\2718{smM\327\033\325\231\334\375R"
 136      C9B9387B 
 136      736D4DD7 
 136      1BD599DC 
 136      FD52
 137 01d7 D5BF1180 		.ascii	"\325\277\021\200\267\264\342/\327\177\003$\323\256\356"
 137      B7B4E22F 
 137      D77F0324 
 137      D3AEEE
 138              		.text
 139              		.section	.gnu.lto_Vector70.54e382a52e06511,"",%progbits
 140 0000 789C9D52 		.ascii	"x\234\235RAk\023A\024~of6\335\215\211\015\376\202\""
 140      416B1341 
 140      147E6F66 
 140      36DD8D89 
 140      0DFE8222 
 141 0014 78B1E840 		.ascii	"x\261\350@\3525\036\013\036\364b\012\355I6\233\264\031"
 141      EA351E0B 
 141      1EF4620A 
 141      ED49369B 
 141      B419
 142 0026 6C8C3451 		.ascii	"l\2144Q*=t\326\215\240\267\"\010m\343\301\342\255j\274"
 142      2A3D74D6 
 142      8DA0B722 
 142      086DE3C1 
 142      E2AD6ABC 
 143 003a 2A2D3516 		.ascii	"*-5\026\004=\324\342A\220\236\322\273\207z\360\240\010"
 143      043DD4E2 
 143      41909ED2 
 143      BB877AF0 
 143      A008
 144 004c F1CD6E26 		.ascii	"\361\315n&T/\202\017\366\2757\363\275\367\315\367f\226"
 144      542F820F 
ARM GAS  /tmp/cch4md0g.s 			page 11


 144      F6BD37F3 
 144      BDF7CDF7 
 144      6696
 145 005e 0183BF2D 		.ascii	"\001\203\277-O\337\016m_\241\210\016 [\371\010\020\272"
 145      4FDF0E6D 
 145      5FA1880E 
 145      205BF908 
 145      10BA
 146 0070 8CF17601 		.ascii	"\214\361v\001tZ|\317\201\316p\024\311\266@4\011 ,3."
 146      745A7CCF 
 146      81CE7014 
 146      C9B64034 
 146      09202C33 
 147 0085 7079060D 		.ascii	"py\006\015\007\236\206\015\255\037\366\336m\036\342"
 147      079E860D 
 147      AD1FF6DE 
 147      6D1EE2
 148 0094 9AEEB69E 		.ascii	"\232\356\266\236\350_\375>\242B:\357\022B\2000M\013"
 148      E85FFD3E 
 148      A2423AEF 
 148      12428030 
 148      4D0B
 149 00a6 1C8B0313 		.ascii	"\034\213\003\023\177\012x\311\272\275~\377\361\347\243"
 149      7F0A78C9 
 149      BABD7EFF 
 149      F1E7A3
 150 00b5 C36D3C95 		.ascii	"\303m<\225\341\240\220\013\343\034\360q\203\230Sf\341"
 150      E1A0900B 
 150      E31CF071 
 150      83985366 
 150      E1
 151 00c6 92131E39 		.ascii	"\222\023\0369\207:\034hi\2752\226\300`\350\311\212\344"
 151      873A1C68 
 151      69BD3296 
 151      C060E8C9 
 151      8AE4
 152 00d8 8DB42964 		.ascii	"\215\264)d&\362=\330=\370\362\354-\363\361)5\315!\037"
 152      26F23DD8 
 152      3DF8F2EC 
 152      2DF3F129 
 152      35CD211F 
 153 00ec 874DDDA2 		.ascii	"\207M\335\242\363SmX\2470b\264\270\272\373@\213X\226"
 153      F3536D58 
 153      A73062B4 
 153      B8BAFB40 
 153      8B5896
 154 00ff 1B8B29A1 		.ascii	"\033\213)\241\225\265\007Q'\332A\333.\210\301\224y\251"
 154      95B50751 
 154      27DA41DB 
 154      2E88C194 
 154      79A9
 155 0111 04DB8A66 		.ascii	"\004\333\212f-\344\020j ^H\240\027\321\233G\322\202"
 155      2DE4106A 
 155      205E48A0 
 155      17D19B47 
 155      D282
 156 0123 29C28FF5 		.ascii	")\302\217\365\355~8\032I\240XN\250G\377)(QDL\246\377"
ARM GAS  /tmp/cch4md0g.s 			page 12


 156      ED7E381A 
 156      49A0584E 
 156      A847FF29 
 156      2851444C 
 157 0139 EEC16AE7 		.ascii	"\356\301j\347\307p&w\034\316*L\237\203\347\232lF\341"
 157      C7702677 
 157      1CCE2A4C 
 157      9F83E79A 
 157      6C46E1
 158 014c 09A20AB5 		.ascii	"\011\242\012\265\316)\314,\301O}\337d\331Z\314`(\263"
 158      CE29CC2C 
 158      C14F7DDF 
 158      64D95ACC 
 158      6028B3
 159 015f 60336F38 		.ascii	"`3o8g\011\355?\361\036Z_\303\354\220\333\224\245\217"
 159      6709ED3F 
 159      F11E5A5F 
 159      C3EC90DB 
 159      94A58F
 160 0172 3FD41472 		.ascii	"?\324\024rh\027\270\021\361\252\363\215\333B/\026\341"
 160      6817B811 
 160      F1AAF38D 
 160      DB422F16 
 160      E1
 161 0183 0C44BCC6 		.ascii	"\014D\274\306\377T\301\007\331>\334\353^L\270\315\324"
 161      FF54C107 
 161      D93EDCEB 
 161      5E4CB8CD 
 161      D4
 162 0194 AE711E5D 		.ascii	"\256q\036]\242\302\223V\206\210\037x\037\242\336V\305"
 162      A2C29356 
 162      86881F78 
 162      1FA2DE56 
 162      C5
 163 01a5 560E0F1A 		.ascii	"V\016\017\032\015\0067\2460\007\360\011\302\336\366"
 163      0D0637A6 
 163      3007F009 
 163      C2DEF6
 164 01b4 195B9458 		.ascii	"\031[\224X\221\012\210\300\214=)\253\365ZE\006\365\362"
 164      910A88C0 
 164      8C3D29AB 
 164      F55A4506 
 164      F5F2
 165 01c6 1D59AEDC 		.ascii	"\035Y\256\334\226AU\225T\275!\233\013\267n\\\227\224"
 165      96415595 
 165      54BD219B 
 165      0BB76E5C 
 165      9794
 166 01d8 54FD7979 		.ascii	"T\375yy\263\276\320l\310\253\305\313\023\371\304O^X"
 166      B3BED06C 
 166      C8ABC5CB 
 166      13F9C44F 
 166      5E58
 167 01ea 5C948D66 		.ascii	"\\\224\215fm\"\177\255\\\363\317\007\340\314\316\373"
 167      6D227FAD 
 167      5CF3CF07 
 167      E0CCCEFB 
ARM GAS  /tmp/cch4md0g.s 			page 13


 168 01fa 738DDFB0 		.ascii	"s\215\337\2606\2713"
 168      36B933
 169              		.text
 170              		.section	.gnu.lto_Vector74.54e382a52e06511,"",%progbits
 171 0000 789C9D52 		.ascii	"x\234\235R\317k\023A\024~of6\335\215\211\015\376\005"
 171      CF6B1341 
 171      147E6F66 
 171      36DD8D89 
 171      0DFE05
 172 0013 45F062D1 		.ascii	"E\360b\321\201\324k<\026<\350\305\024\332\223l6i\263"
 172      81D46B3C 
 172      163CE8C5 
 172      14DA936C 
 172      3669B3
 173 0026 D81869A2 		.ascii	"\330\030i\242Tz\350\254\233\202\336\212\007i\233\213"
 173      547AE8AC 
 173      9B82DE8A 
 173      07699B8B 
 174 0036 C59BF8E3 		.ascii	"\305\233\370\343 \004D)\261'=\324\342M\013\226\364\344"
 174      20044429 
 174      B1273DD4 
 174      E24D0B96 
 174      F4E4
 175 0048 C5433D08 		.ascii	"\305C=\010*B|\263\223\011\325\213\340\203}\357\315|"
 175      2A427CB3 
 175      9309D58B 
 175      E0837DEF 
 175      CD7C
 176 005a EF7DEF9B 		.ascii	"\357}\357\233\231e\300\340o\313\323\267E\333\227(\242"
 176      9965C0E0 
 176      6FCBD3B7 
 176      45DB9728 
 176      A2
 177 006b 03C856DF 		.ascii	"\003\310V\337\001D.c\274]\000\225\026\337r\2402\034"
 177      01442E63 
 177      BC5D0095 
 177      16DF72A0 
 177      321C
 178 007d 85D91688 		.ascii	"\205\331\026\210:\001\204e\306\005.\317\240\346\300"
 178      3A018465 
 178      C6052ECF 
 178      A0E6C0
 179 008c 93B0A9D4 		.ascii	"\223\260\251\324\275\336\312\363\003\\W\335\326\003"
 179      BDDECAF3 
 179      035C57DD 
 179      D603
 180 009a F5ABDF47 		.ascii	"\365\253\337G\014\221\346]@\010\020\246i\201cI`\342"
 180      0C91E65D 
 180      400810A6 
 180      69816349 
 180      60E2
 181 00ac 4F01CF58 		.ascii	"O\001\317X\267\327\357\277\372xx\260\217'2\034B\344"
 181      B7D7EFBF 
 181      FA7878B0 
 181      8F27321C 
 181      42E4
 182 00be 423B077C 		.ascii	"B;\007|\334$\346\224^\270\344\204G\316\241\016\007Z"
ARM GAS  /tmp/cch4md0g.s 			page 14


 182      DC24E694 
 182      5EB8E484 
 182      47CEA10E 
 182      075A
 183 00d0 4AAD8E19 		.ascii	"J\255\216\031\0304=Y\221\274\2266\205LG\276\003\333"
 183      18343D59 
 183      91BC9636 
 183      854C47BE 
 183      03DB
 184 00e2 7B6B9DD7 		.ascii	"{k\235\327\314\307\207\3244\207|\034\036\251\026\315"
 184      CCC787D4 
 184      34877C1C 
 184      1EA916CD 
 185 00f2 4FB56183 		.ascii	"O\265a\203\302\210\326\342\252\356]%\022Yn\"\246\204"
 185      C288D6E2 
 185      AAEE5D25 
 185      12596E22 
 185      A684
 186 0104 56D60EC4 		.ascii	"V\326\016\304O\343-\264\355\202\030t\231\2273\330\313"
 186      4FE32DB4 
 186      ED821874 
 186      999733D8 
 186      CB
 187 0115 78D6420E 		.ascii	"x\326B\016\241\032\342\005\003=\211?\337\227\026L\021"
 187      A11AE205 
 187      033D893F 
 187      DF97164C 
 187      11
 188 0126 7EA46FFB 		.ascii	"~\244o\373\355\341\210\201\0229\221\032\375\247 \243"
 188      EDE18881 
 188      1239911A 
 188      FDA720A3 
 189 0136 889874FF 		.ascii	"\210\230t\377\355\275\017\235\037\3033\271\343p:\304"
 189      EDBD0F9D 
 189      1FC333B9 
 189      E3703AC4 
 190 0146 F41978AC 		.ascii	"\364\031x\254\310fB<FT\221R\271\0203K\360S\335\321Y"
 190      C866423C 
 190      46549152 
 190      B910334B 
 190      F053DDD1 
 191 015b B6963068 		.ascii	"\266\2260h\312,\330\314\033\376\010%\264\351\033h}\211"
 191      CA2CD8CC 
 191      1BFE0825 
 191      B4E91B68 
 191      7D89
 192 016d B2436E5D 		.ascii	"\262Cn]\226>\372PS\310\241]\340Z\304\367\316Wn\013\275"
 192      963EFA50 
 192      53C8A15D 
 192      E05AC4F7 
 192      CE576E0B 
 193 0182 44843310 		.ascii	"D\2043\020\361\002\377S\005\037d\273\260\322=o\270\365"
 193      F102FF53 
 193      051F64BB 
 193      B0D23D6F 
 193      B8F5
 194 0194 A95DED3C 		.ascii	"\251]\355<\272\304\020\217[\031\"y\340]\210{\237*\266"
ARM GAS  /tmp/cch4md0g.s 			page 15


 194      BAC4108F 
 194      5B192279 
 194      E05D887B 
 194      9F2AB6
 195 01a7 72386834 		.ascii	"r8h4\030\334X\210t\345\357!\352\355\237\262E\306\212"
 195      18DC5888 
 195      74E5EF21 
 195      EAED9FB2 
 195      45C68A
 196 01ba 5440047A 		.ascii	"T@\004z\366\244\254\326k\025\031\324\313\267d\271rS"
 196      F6A4ACD6 
 196      6B1519D4 
 196      CBB764B9 
 196      7253
 197 01cc 06D5B014 		.ascii	"\006\325\260\024\326\033\262\271p\343\332UII\325\237"
 197      D61BB2B9 
 197      70E3DA55 
 197      4949D59F 
 198 01dc 97D7EB0B 		.ascii	"\227\327\353\013\315\206\274\\\2748\2217~\362\334\342"
 198      CD86BC5C 
 198      BC389137 
 198      7EF2DCE2 
 199 01ec A26C346B 		.ascii	"\242l4k\023\371+\345\232\1776\000gv\336\237k\374\006"
 199      13F92BE5 
 199      9A7F3600 
 199      6776DE9F 
 199      6BFC06
 200 01ff A7AEBA20 		.ascii	"\247\256\272 "
 201              		.text
 202              		.section	.gnu.lto_Vector78.54e382a52e06511,"",%progbits
 203 0000 789C9D52 		.ascii	"x\234\235RMh\023A\024~of6\335\215\211\015\010\236\213"
 203      4D681341 
 203      147E6F66 
 203      36DD8D89 
 203      0D089E8B 
 204 0014 17C1A203 		.ascii	"\027\301\242\003\251\327x,x\250\027S\260'\331l\322f"
 204      A9D7782C 
 204      78A81753 
 204      B027D96C 
 204      D266
 205 0026 B131D244 		.ascii	"\2611\322D\251x\350\254\233B\274\025/\376\344b\361&"
 205      A978E8AC 
 205      9B42BC15 
 205      2FFEE462 
 205      F126
 206 0038 FE5C9542 		.ascii	"\376\\\225B\032\013\202\036j\361&E!\275\013\326\203"
 206      1A0B821E 
 206      6AF12645 
 206      21BD0BD6 
 206      83
 207 0049 074558DF 		.ascii	"\007EX\337\354tB\365\"\370`\337{3\337{\337|of\0310\370"
 207      EC7442F5 
 207      22F860DF 
 207      7B33DF7B 
 207      DF7C6F66 
 208 0060 DB8AF4F5 		.ascii	"\333\212\364\365i\373\002Et\000\331\332{\200\310e\214"
 208      69FB0245 
ARM GAS  /tmp/cch4md0g.s 			page 16


 208      7400D9DA 
 208      7B80C865 
 208      8C
 209 0071 F74AA0B2 		.ascii	"\367J\240\262\342{\001T\216\2430\333\002Q'\200\260\302"
 209      E27B0154 
 209      8EA330DB 
 209      02512780 
 209      B0C2
 210 0083 B8C09539 		.ascii	"\270\300\2259\324\034x\002\326\225\272;|\263\261\207"
 210      D41C7802 
 210      D695BA3B 
 210      7CB3B187 
 211 0093 0FD4A0F3 		.ascii	"\017\324\240\363H\375J\022\304\020\351\274\363\010\001"
 211      48FD4A12 
 211      C410E9BC 
 211      F30801
 212 00a2 C2255AE0 		.ascii	"\302%Z\340D\032\230\370S\300\0136\030&\311\247\317\373"
 212      441A98F8 
 212      53C00B36 
 212      1826C9A7 
 212      CFFB
 213 00b4 7B5D3C96 		.ascii	"{]<\226\343\020\"\027\3329\340\343:1g\364\302%'<r\016"
 213      E3102217 
 213      DA39E0E3 
 213      3A3167F4 
 213      C225273C 
 214 00ca 7538D051 		.ascii	"u8\320Qjm\302\300\240\351\311\312\344\265\264Yd:\362"
 214      6A6DC2C0 
 214      A0E9C9CA 
 214      E4B5B459 
 214      643AF2
 215 00dd 6DD8DAFD 		.ascii	"m\330\332\375\330\177\315||LM\013\310'\341\211\352\320"
 215      D87FCD7C 
 215      7C4C4D0B 
 215      C827E189 
 215      EAD0
 216 00ef F9991E3C 		.ascii	"\371\231\036<\2440\246\265\270jpG\211T\226\233\212\251"
 216      A430A6B5 
 216      B86A7047 
 216      8954969B 
 216      8AA9
 217 0101 A095B50D 		.ascii	"\240\225\265\015\361\363\270\217\266]\020\203.\363\216"
 217      F1F3B88F 
 217      B65D1083 
 217      2EF38E
 218 0110 1B6C239E 		.ascii	"\033l#\236\267\220C\250\206x\311@\317\342\257\367\244"
 218      B79043A8 
 218      8678C940 
 218      CFE2AFF7 
 218      A4
 219 0121 0533841F 		.ascii	"\0053\204\037\352\333z\267?f\240TN\244\306\377)\310"
 219      EADB7AB7 
 219      3F66A054 
 219      4EA4C6FF 
 219      29C8
 220 0133 282226DD 		.ascii	"(\"&\335\177{\367\376\346\217\321L\356$\234\0121{\032"
 220      7F7BF7FE 
ARM GAS  /tmp/cch4md0g.s 			page 17


 220      E68FD14C 
 220      EE249C0A 
 220      317B1A
 221 0146 9E2AB2B9 		.ascii	"\236*\262\271\020\217\020U\244T!\304\334-\370\251\272"
 221      108F1055 
 221      A45421C4 
 221      DC2DF8A9 
 221      BA
 222 0157 3ACB3752 		.ascii	":\3137R\006M\231\007\233y\334\316YA\373O\274\205\316"
 222      064D9907 
 222      9B79DCCE 
 222      5941FB4F 
 222      BC85CE
 223 016a 97283FE2 		.ascii	"\227(?\342\326e\331\303\0175\213\034z%\256E\274\334"
 223      D665D9C3 
 223      0F358B1C 
 223      7A25AE45 
 223      BCDC
 224 017c FCC66DA1 		.ascii	"\374\306m\241\227\212p\016D\274\302\377Ta\323\035X\035"
 224      978A700E 
 224      44BCC2FF 
 224      5461D31D 
 224      581D
 225 018e 9C33DC7A 		.ascii	"\2343\334zjW;\217.1\304\243V\206H\037x\007\342aR\263"
 225      6A573B8F 
 225      2E31C4A3 
 225      5686481F 
 225      7807E261 
 226 01a4 95A383C6 		.ascii	"\225\243\203\306\203\203\033\013\261\000\360\001\242"
 226      83831B0B 
 226      B100F001 
 226      A2
 227 01b1 61F7A42D 		.ascii	"a\367\244-2V\246\002\"\320cO\313z\263Q\223A\263zSVk"
 227      3256A602 
 227      22D0634F 
 227      CB7AB351 
 227      9341B37A 
 228 01c8 3764500F 		.ascii	"7dP\017+a\263%\333K\327\257^\221\224\324\375Ey\255\271"
 228      2B61B325 
 228      DB4BD7AF 
 228      5E9194D4 
 228      FD4579AD 
 229 01dd D46EC98B 		.ascii	"\324n\311\213\345\231\251\242\361\323g\227\227e\253"
 229      E599A9A2 
 229      F1D36797 
 229      9765AB
 230 01ec DD982A5E 		.ascii	"\335\230*^\2566\3743\0018\363\213\376B\35370\242\271"
 230      AE36FC33 
 230      0138F38B 
 230      FE42EB37 
 230      30A2B9
 231 01ff F6       		.ascii	"\366"
 232              		.text
 233              		.section	.gnu.lto_Vector7C.54e382a52e06511,"",%progbits
 234 0000 789C9D91 		.ascii	"x\234\235\221\261kSA\030\300\277\357\356^\222\306\324"
 234      B16B5341 
 234      18C0BFEF 
ARM GAS  /tmp/cch4md0g.s 			page 18


 234      EE5E92C6 
 234      D4
 235 0011 06FA0F14 		.ascii	"\006\372\017\024\027\301\242\007\251k\034\013\016\026"
 235      17C1A207 
 235      A96B1C0B 
 235      0E16
 236 001f A429B493 		.ascii	"\244)\264\223\274\274\264\311ac\244\211\322\342\320"
 236      BCBCB4C9 
 236      6163A489 
 236      D2E2D0
 237 002e EF9914EA 		.ascii	"\357\231\024\352V\234\324,-N\006\301Uq\011\235t\250"
 237      569CD42C 
 237      2D4E06C1 
 237      5571099D 
 237      74A8
 238 0040 C54D3AA5 		.ascii	"\305M:\245\213Y\034\354 X)\304\357\336\345\205*\270"
 238      8B591CEC 
 238      205829C4 
 238      EFDEE585 
 238      2AB8
 239 0052 78F0BEFB 		.ascii	"x\360\276\373\356\356{\277\373\335\235\000\001\177\267"
 239      EEEE7BBF 
 239      FBDD9D00 
 239      017FB7
 240 0061 1C7F214F 		.ascii	"\034\177!O\317q\217\036\240\330\371\304\023)!d;\017"
 240      CF718F1E 
 240      A0D8F9C4 
 240      13292164 
 240      3B0F
 241 0073 94563FB2 		.ascii	"\224V?\262@\031\211\312M+D\233\000\302\246\220\0127"
 241      401989CA 
 241      4D2B449B 
 241      00C2A690 
 241      0A37
 242 0085 97D032F0 		.ascii	"\227\3202\360\022\354\021=\355m}=\306\347\324m\355\322"
 242      12EC113D 
 242      ED6D7D3D 
 242      C6E7D46D 
 242      EDD2
 243 0097 D9608068 		.ascii	"\331`\200h\220\367\273\211\020 ,\362\000\247\242N\250"
 243      90F7BB89 
 243      10202CF2 
 243      00A7A24E 
 243      A8
 244 00a8 3F05DE88 		.ascii	"?\005\336\210no08;\371~\334\301\311\264\004\203R\201"
 244      6E6F3038 
 244      3BF97EDC 
 244      C1C9B404 
 244      835281
 245 00bb 8F7B0C4D 		.ascii	"\217{\014M\360@%9x\\\347A\213hg\312\255\200\205r+p\264"
 245      F0402539 
 245      785CE741 
 245      8B6867CA 
 245      AD808572 
 246 00d2 420B286C 		.ascii	"B\013(l/\017`\377\350Y\377T\370\370\222\177*\243\234"
 246      2F0F60FF 
 246      E859FF54 
ARM GAS  /tmp/cch4md0g.s 			page 19


 246      F8F8927F 
 246      2AA39C
 247 00e5 860EB578 		.ascii	"\206\016\265x\327D\033^\204Dt\333`\322Z\244\250\373"
 247      D7441B5E 
 247      844474DB 
 247      60D25AA4 
 247      A8FB
 248 00f7 84542494 		.ascii	"\204T$\224\2124\212\030\013\035@\363}s%&(\206\330*\231"
 248      8A348A18 
 248      0B1D40F3 
 248      7D732526 
 248      2886D82A 
 249 010c 8F96F63F 		.ascii	"\217\226\366?\276\355\237\242[\214\330!M8:\376\233\354"
 249      BEED9FA2 
 249      5B8CD821 
 249      4D383AFE 
 249      9BEC
 250 011e D0CCB284 		.ascii	"\320\314\262\204\307G_\316\011&\246\341\212\301\261"
 250      C7475FCE 
 250      0926A6E1 
 250      8AC1B1
 251 012d ABF09AE5 		.ascii	"\253\360\232\345h\311`\332\211f\015^x\004\277h\333f"
 251      68C960DA 
 251      89660D5E 
 251      7804BF68 
 251      DB66
 252 013f 996A44B0 		.ascii	"\231jD\260\310\014\304\331\370\350\036\213\030?\353"
 252      C80CC4D9 
 252      F8E81E8B 
 252      183FEB
 253 014e 07687D0B 		.ascii	"\007h}\013\307Gl[6v\376\256\027PB;/\255\304\317\376"
 253      C7476C5B 
 253      3676FEAE 
 253      1750423B 
 253      2FADC4CF 
 254 0163 898C0B93 		.ascii	"\211\214\013\223\221\2047\224x\207\377i!\207\331!lu"
 254      91843794 
 254      7887FF69 
 254      2187D921 
 254      6C75
 255 0175 6F38B63D 		.ascii	"o8\266=u\302\206$\237\336\340\305XCE\257u\010\315\336"
 255      75C28624 
 255      9FDEE0C5 
 255      584345AF 
 255      7508CDDE 
 256 0189 AB725C39 		.ascii	"\253r\\9\332h\"\030\336\230\301,\300g\010{\235\313q"
 256      DA682218 
 256      DE98C12C 
 256      C067087B 
 256      9DCB71
 257 019c 916B052E 		.ascii	"\221k\005.`\200=\366\254\256\324\252\313:\250\2256t"
 257      60803DF6 
 257      ACAED4AA 
 257      CB3AA895 
 257      3674
 258 01ae 69F9A10E 		.ascii	"i\371\241\016*\246hju\335X{p\357\256\346\244\342\257"
 258      2AA6686A 
ARM GAS  /tmp/cch4md0g.s 			page 20


 258      75DD587B 
 258      70EFAEE6 
 258      A4E2AF
 259 01c1 EAFBB5B5 		.ascii	"\352\373\265\265F]\317\027n\315\344\\\234\275\276\276"
 259      465DCF17 
 259      6ECDE45C 
 259      9CBDBEBE 
 260 01d1 AEEB8DEA 		.ascii	"\256\353\215\352L\356N\251\352_\013\300[Y\365\313\365"
 260      4CEE4EA9 
 260      EA5F0BC0 
 260      5B59F5CB 
 260      F5
 261 01e2 DF6DD8B0 		.ascii	"\337m\330\260\261"
 261      B1
 262              		.text
 263              		.section	.gnu.lto_Vector80.54e382a52e06511,"",%progbits
 264 0000 789C9D52 		.ascii	"x\234\235R\317k\023A\024~of6\335\215\211\015\370\017"
 264      CF6B1341 
 264      147E6F66 
 264      36DD8D89 
 264      0DF80F
 265 0013 142F8245 		.ascii	"\024/\202E\007R\257\361X\360\240\027S\260'\331l\332"
 265      0752AFF1 
 265      58F0A017 
 265      53B027D9 
 265      6CDA
 266 0025 64B031A5 		.ascii	"d\2601\245\211R\351\241\263n\004\275\025Oj\024,\336"
 266      8952E9A1 
 266      B36E04BD 
 266      154F6A14 
 266      2CDE
 267 0037 C41F5745 		.ascii	"\304\037WE(\261 (\266\026o\322Sz\027[\013\"\212\260"
 267      28B12028 
 267      B6166FD2 
 267      537A175B 
 267      0B228AB0 
 268 004b BED9CD84 		.ascii	"\276\331\315\204\352E\360\301\276\367f\276\367\276\371"
 268      EA45F0C1 
 268      BEF766BE 
 268      F7BEF9
 269 005a DECC3260 		.ascii	"\336\3142`\360\267\025\351[\243\355s\024\321\001d+\037"
 269      F0B715E9 
 269      5BA3ED73 
 269      14D10164 
 269      2B1F
 270 006c 00429731 		.ascii	"\000B\2271\336-\201\316\212o\005\3209\216\"\335\026"
 270      DE2D81CE 
 270      8A6F05D0 
 270      398E22DD 
 270      16
 271 007d 88260184 		.ascii	"\210&\001\204e\306\005.O\243\341\300\243\260\252\365"
 271      65C6052E 
 271      4FA3E1C0 
 271      A3B0AAF5 
 272 008d EDFE9B2F 		.ascii	"\355\376\233/;xW\367:\017\365\2578FTH\347\235A\010\020"
 272      3B7857F7 
 272      3A0FF5AF 
ARM GAS  /tmp/cch4md0g.s 			page 21


 272      38465448 
 272      E79D4108 
 273 00a2 2ED002C7 		.ascii	".\320\002\307\222\300\304\237\002\236\263^?\216\357"
 273      92C0C49F 
 273      029EB35E 
 273      3F8EEF
 274 00b1 7FDFDBD9 		.ascii	"\177\337\333\331\300#9\016\012\2710\316\001\037W\211"
 274      C023390E 
 274      0AB930CE 
 274      011F5789 
 275 00c1 3963162E 		.ascii	"9c\026.9\341\221s\250\303\201\216\326+c)\014\206\236"
 275      39E19173 
 275      A8C3818E 
 275      D62B6329 
 275      0C869E
 276 00d4 AC4CDE48 		.ascii	"\254L\336H\233Bf\"\337\204\365\355O\273\257\231\217"
 276      9B426622 
 276      DF84F5ED 
 276      4FBBAF99 
 276      8F
 277 00e5 8FA8A986 		.ascii	"\217\250\251\206|\034\036\353\016\235\237\351\302=\012"
 277      7C1C1EEB 
 277      0E9D9FE9 
 277      C23D0A
 278 00f4 23468BAB 		.ascii	"#F\213\253{\267\264Hd\271\211\230\012ZY\233\020=\213"
 278      7BB7B448 
 278      64B98998 
 278      0A5A599B 
 278      103D8B
 279 0107 D6D0B60B 		.ascii	"\326\320\266\013b0e^&\305^E\263\026r\0105\020/\245\320"
 279      6230655E 
 279      26C55E45 
 279      B3167208 
 279      35102FA5 
 280 011c D3287E20 		.ascii	"\323(~ -\230!\374@\337\372\273\275\221\024J\344\204"
 280      2D9821FC 
 280      40DFFABB 
 280      BD91144A 
 280      E484
 281 012e 7AF49F82 		.ascii	"z\364\237\202RE\304d\372\257o\337\331\3771\234\311\035"
 281      5245C464 
 281      FAAF6FDF 
 281      D9FF319C 
 281      C91D
 282 0140 87E30AB3 		.ascii	"\207\343\012\263'\340\211&\233Vx\210\250B\255\013\012"
 282      27E08926 
 282      9B567888 
 282      A842AD0B 
 282      0A
 283 0151 734BF053 		.ascii	"sK\360S\3374Y\276\2210\030\312<\330\314s\354\234\025"
 283      DF3459BE 
 283      913018CA 
 283      3CD8CC73 
 283      EC9C15
 284 0164 B4FFC45B 		.ascii	"\264\377\304[\350|\016\363CnS\226=\370PS\310\241[\342"
 284      E87C0EF3 
 284      436E5396 
ARM GAS  /tmp/cch4md0g.s 			page 22


 284      3DF85053 
 284      C8A15BE2 
 285 0178 46C48BFD 		.ascii	"F\304\213\375\257\334\026z\211\010g \342%\376\247\012"
 285      AFDC167A 
 285      89086720 
 285      E225FEA7 
 285      0A
 286 0189 3EC8B6E0 		.ascii	">\310\266\340F\357t\312m\246v\215\363\350\022\025\036"
 286      46EF74CA 
 286      6DA6768D 
 286      F3E81215 
 286      1E
 287 019a B63244F2 		.ascii	"\2662D\362\300[\020\365\337\327l\345\360\240\321`pc"
 287      C05B10F5 
 287      DFD76CE5 
 287      F0A0D160 
 287      7063
 288 01ac 0A0B001F 		.ascii	"\012\013\000\037!\354o\034\263E\251\225\251\200\010"
 288      21EC6F1C 
 288      B345A995 
 288      A98008
 289 01bb CCD893B2 		.ascii	"\314\330\223\262\336l\314\310\240Y\275&\2533WePW\025"
 289      DE6CCCC8 
 289      A059BD26 
 289      AB335765 
 289      505715
 290 01ce D56CC9F6 		.ascii	"\325l\311\366\302\225\313\227$%u\177N\3167\027\332-"
 290      C295CB97 
 290      2425757F 
 290      4ECE3717 
 290      DA2D
 291 01e0 79BE7C76 		.ascii	"y\276|v\242\230\372\311S\213\213\262\325nL\024/V\033"
 291      A298FAC9 
 291      538B8BB2 
 291      D56E4C14 
 291      2F561B
 292 01f3 FEC9009C 		.ascii	"\376\311\000\234\3319\277\326\372\015\011\335\272\352"
 292      D939BFD6 
 292      FA0D09DD 
 292      BAEA
 293              		.text
 294              		.section	.gnu.lto_Vector84.54e382a52e06511,"",%progbits
 295 0000 789C9D52 		.ascii	"x\234\235R\317k\023A\024~of6\335\215\211\015\364\037"
 295      CF6B1341 
 295      147E6F66 
 295      36DD8D89 
 295      0DF41F
 296 0013 285E048B 		.ascii	"(^\004\213\016\244^\343\261\340\241\275\230B{\222\315"
 296      0EA45EE3 
 296      B1E0A1BD 
 296      98427B92 
 296      CD
 297 0024 A64D161B 		.ascii	"\246M\026\033#M\224\212\207\316\272)\350\255x\252\346"
 297      234D948A 
 297      87CEBA29 
 297      E8AD78AA 
 297      E6
ARM GAS  /tmp/cch4md0g.s 			page 23


 298 0035 508B0741 		.ascii	"P\213\007A\374q\026\245\304\236\364P\2137\351)\275k"
 298      FC7116A5 
 298      C49EF450 
 298      8B37E929 
 298      BD6B
 299 0047 A90751A3 		.ascii	"\251\007Q\243\020\337\354dB\365\"\370`\337{3\337{\337"
 299      10DFEC64 
 299      42F522F8 
 299      60DF7B33 
 299      DF7BDF
 300 005a 7C6F6619 		.ascii	"|of\0310\370\333\362\364m\323\366\014Et\000\331\372"
 300      30F8DBF2 
 300      F46DD3F6 
 300      0C457400 
 300      D9FA
 301 006c 7B80C865 		.ascii	"{\200\310e\214\267\013\240\322\342k\016T\206\2430\333"
 301      8CB70BA0 
 301      D2E26B0E 
 301      5486A330 
 301      DB
 302 007d 02512780 		.ascii	"\002Q'\200\260\312\270\300\325y\324\034x\012\266\224"
 302      B0CAB8C0 
 302      D579D41C 
 302      780AB694 
 303 008d BAD75DFB 		.ascii	"\272\327]\373v\200\367U\247\365P\375\352\367\021C\244"
 303      7680F755 
 303      A7F550FD 
 303      EAF71143 
 303      A4
 304 009e F32E2204 		.ascii	"\363.\"\004\010s\264\300\361$0\361\247\200\027\254\323"
 304      0873B4C0 
 304      F12430F1 
 304      A78017AC 
 304      D3
 305 00af EDF75FFF 		.ascii	"\355\367_\377<:8\304\261\014\207\020\271\320\316\001"
 305      3C3A38C4 
 305      B10C8710 
 305      B9D0CE01 
 306 00bf 1FB78839 		.ascii	"\037\267\2109\245\027.9\341\221s\250\303\201\226R\353"
 306      A5172E39 
 306      E19173A8 
 306      C3819652 
 306      EB
 307 00d0 E306064D 		.ascii	"\343\006\006MOV$\257\245\315\"\323\221\357\302\316\376"
 307      4F5624AF 
 307      A5CD22D3 
 307      91EFC2CE 
 307      FE
 308 00e1 46EF0DF3 		.ascii	"F\357\015\363\361\0215U\220O\300\023\325\242\363Smx"
 308      F1113555 
 308      904FC013 
 308      D5A2F353 
 308      6D78
 309 00f3 4061446B 		.ascii	"@aDkqU\347\256\022\211,7\021SB+k\027\342\347\3616\332"
 309      7155E7AE 
 309      12892C37 
 309      1153422B 
ARM GAS  /tmp/cch4md0g.s 			page 24


 309      6B17E2E7 
 310 010a 76410CBA 		.ascii	"vA\014\272\314\313\031\354U\274h!\207P\015\361\202\201"
 310      CCCB19EC 
 310      55BC6821 
 310      87500DF1 
 310      8281
 311 011c 9EC58F37 		.ascii	"\236\305\2177\245\005S\204\037\353\333yw4b\240DN\244"
 311      A5055384 
 311      1FEBDB79 
 311      773462A0 
 311      444EA4
 312 012f 46FF29C8 		.ascii	"F\377)\310(\"&\335\177{\377c\357\307p&w\002\316\204"
 312      282226DD 
 312      7F7BFF63 
 312      EFC77026 
 312      7702CE84 
 313 0143 983E0B4F 		.ascii	"\230>\013O\025\331|\210'\210*R*\027b\346\026\364\324"
 313      15D97C88 
 313      27882A52 
 313      2A1762E6 
 313      16F4D4
 314 0156 1D9D656B 		.ascii	"\035\235ek\011\203\246\314\202\315\274\224\235\263\204"
 314      0983A6CC 
 314      82CDBC94 
 314      9DB384
 315 0165 F69F780B 		.ascii	"\366\237x\013\255OQv\310\255\313\322\307\037j\0269\264"
 315      AD4F5176 
 315      C8ADCBD2 
 315      C71F6A16 
 315      39B4
 316 0177 0B5C8BF8 		.ascii	"\013\\\213\370\336\373\302m\241\227\210p\006\"^\342"
 316      DEFBC26D 
 316      A1978870 
 316      06225EE2 
 317 0187 7FAAE083 		.ascii	"\177\252\340\203l\017\326:\027\014\267\236\332\325\316"
 317      6C0FD63A 
 317      170CB79E 
 317      DAD5CE
 318 0196 A34B0CF1 		.ascii	"\243K\014\361\244\225!\222\007\336\203\270\373\271b"
 318      A4952192 
 318      07DE83B8 
 318      FBB962
 319 01a5 2B87078D 		.ascii	"+\207\007\215\006\203\033\013\221\256\374\003D\335\303"
 319      06831B0B 
 319      91AEFC03 
 319      44DDC3
 320 01b4 D3B6C858 		.ascii	"\323\266\310X\221\012\210@\217=%\253\365\332\202\014"
 320      910A8840 
 320      8F3D25AB 
 320      F5DA820C 
 321 01c4 EAE59BB2 		.ascii	"\352\345\233\262\274pC\006\325\260\024\326\033\262\271"
 321      BC704306 
 321      D5B014D6 
 321      1BB2B9
 322 01d3 7CFDEA15 		.ascii	"|\375\352\025II\325_\222\327\352\313\315\206\274T\234"
 322      4949D55F 
 322      92D7EACB 
ARM GAS  /tmp/cch4md0g.s 			page 25


 322      CD86BC54 
 322      9C
 323 01e4 9ECC1B3F 		.ascii	"\236\314\033?u~eE6\232\265\311\374\345r\315?\027\200"
 323      757E6545 
 323      369AB5C9 
 323      FCE572CD 
 323      3F1780
 324 01f7 B3B8E457 		.ascii	"\263\270\344W\032\277\001\010;\273X"
 324      1ABF0108 
 324      3BBB58
 325              		.text
 326              		.section	.gnu.lto_VectorFC.54e382a52e06511,"",%progbits
 327 0000 789C9D52 		.ascii	"x\234\235RAh\023A\024\375\177f6\331\215\211\315A<\027"
 327      41681341 
 327      14FD7F66 
 327      36D98D89 
 327      CD413C17 
 328 0014 6F5A7420 		.ascii	"oZt \365\032\217\005\017z1\005{\222\315\246m\006\033"
 328      F51A8F05 
 328      0F7A3105 
 328      7B92CDA6 
 328      6D061B
 329 0027 234D948A 		.ascii	"#M\224\212\207\316\272\021\364d\361\024\315\305\032"
 329      87CEBA11 
 329      F464F114 
 329      CDC51A
 330 0036 4FA2F6AA 		.ascii	"O\242\366\252\010%\004\004=\324\342M\212\207\364\356"
 330      08250404 
 330      3DD4E24D 
 330      8A87F4EE 
 331 0046 A1085E8A 		.ascii	"\241\010^\212\260\376\331\315\204\352E\360\303\376\377"
 331      B0FED9CD 
 331      84EA45F0 
 331      C3FEFF
 332 0055 67DEFF6F 		.ascii	"g\336\377o\336\237Y\006\014\376\266\022}\333\264}\231"
 332      DE9F5906 
 332      0CFEB612 
 332      7DDBB47D 
 332      99
 333 0066 223A806C 		.ascii	"\":\200l\3433@\3502\306{e\3209\361\263\010:\317Q\244"
 333      E33340E8 
 333      32C67B65 
 333      D039F1B3 
 333      083ACF51 
 334 007b DB02D124 		.ascii	"\333\002\321$\200\260\316\270\300\365\0054\034x\012"
 334      80B0CEB8 
 334      C0F50534 
 334      1C780A
 335 008a 36B57E3C 		.ascii	"6\265~<\372\020\357\343\023=\350<\323\277\342\030Q!"
 335      FA10EFE3 
 335      133DE83C 
 335      D3BFE218 
 335      5121
 336 009c 9D771121 		.ascii	"\235w\021!@\270J\013\234N\002\023\177\012\330b\203Q"
 336      40B84A0B 
 336      9C4E0213 
 336      7F0AD862 
ARM GAS  /tmp/cch4md0g.s 			page 26


 336      8351
 337 00ae 1C7F8B0F 		.ascii	"\034\177\213\017\366\273x\"\317A!\027\3069\340\343&"
 337      F6BB7822 
 337      CF412117 
 337      C639E0E3 
 337      26
 338 00bf 3167CCC2 		.ascii	"1g\314\302%'<r\016u8\320\321zc:\205\301\320\223U\310"
 338      25273C72 
 338      0E7538D0 
 338      D17A633A 
 338      85C1D093 
 339 00d5 1B69F3C8 		.ascii	"\033i\363\310L\344;0\334\373\372|\310|\354S\3232\362"
 339      4CE43B30 
 339      DCFBFA7C 
 339      C87CEC53 
 339      D332F2
 340 00e8 1978A93B 		.ascii	"\031x\251;t~\246\007O)d\215\026W\017\036j\221\310r\023"
 340      747EA607 
 340      4F29648D 
 340      16570F1E 
 340      6A91C872 
 341 00fd 3155B4B2 		.ascii	"1U\264\262v z\023m\243m\027\304`\312\274\223)\366>Z"
 341      76207A13 
 341      6DA36D17 
 341      C460CABC 
 341      9329F63E 
 342 0112 B29043A8 		.ascii	"\262\220C\250\201x9\205^G[/\244\0053\204\037\351\033"
 342      81783985 
 342      5E475B2F 
 342      A4053384 
 342      1FE91B
 343 0125 7E3AC8A6 		.ascii	"~:\310\246P\"'\324S\377\024\224*\"&\323\177o\257\333"
 343      502227D4 
 343      53FF1494 
 343      2A2226D3 
 343      7F6FAFDB 
 344 0139 3F9CCCE4 		.ascii	"?\234\314\344\316\300\031\205\271\263\360J\223-(<FT"
 344      CEC01985 
 344      B9B3F04A 
 344      932D283C 
 344      4654
 345 014b A1D64585 		.ascii	"\241\326E\205\371\273p\250\037\230\254\320H\030\014"
 345      F9BB70A8 
 345      1F98ACD0 
 345      48180C
 346 015a 65016CE6 		.ascii	"e\001l\346e\355\234U\264\377\304G\350|\017\013\023n"
 346      65ED9C55 
 346      B4FFC447 
 346      E87C0F0B 
 346      136E
 347 016c 53963BFA 		.ascii	"S\226;\372P\363\310\241W\346F\304\333\376\017n\013\275"
 347      50F3C8A1 
 347      57E646C4 
 347      DBFE0F6E 
 347      0BBD
 348 017e 44843316 		.ascii	"D\2043\026\361\016\377S\005\037g\273p\177p!\3456S\273"
 348      F10EFF53 
ARM GAS  /tmp/cch4md0g.s 			page 27


 348      051F67BB 
 348      707F7021 
 348      E53653BB 
 349 0192 C6797489 		.ascii	"\306yt\211\012\217[\031\"y\340]\210F\217\224\255\234"
 349      0A8F5B19 
 349      2279E05D 
 349      88468F94 
 349      AD9C
 350 01a4 1C34158C 		.ascii	"\0344\025\214oLa\021\340\013\204\243\356i[\224Z\205"
 350      6F4C6111 
 350      E00B84A3 
 350      EE695B94 
 350      5A85
 351 01b6 0A88C08C 		.ascii	"\012\210\300\214='\353\315\306\242\014\232\265;\262"
 351      3D27EBCD 
 351      C6A20C9A 
 351      B53BB2
 352 01c5 B6785B06 		.ascii	"\266x[\006uUU\315\226l\257\336\272q]RR\367W\344\315"
 352      755555CD 
 352      966CAFDE 
 352      BA715D52 
 352      52F757E4 
 353 01da E66ABB25 		.ascii	"\346j\273%\257T.\315\226R?w~mM\266\332\215\331\322\265"
 353      AF542ECD 
 353      96523F77 
 353      7E6D4DB6 
 353      DA8DD9D2 
 354 01ef 5AC33F17 		.ascii	"Z\303?\027\200\263\264\342/\267~\003n\305\271\227"
 354      80B3B4E2 
 354      2FB77E03 
 354      6EC5B997 
 355              		.text
 356              		.section	.gnu.lto_Vector120.54e382a52e06511,"",%progbits
 357 0000 789C9D91 		.ascii	"x\234\235\221\261kSA\030\300\277\357\356^\222\306\324"
 357      B16B5341 
 357      18C0BFEF 
 357      EE5E92C6 
 357      D4
 358 0011 66F00F28 		.ascii	"f\360\017(nZ\364 u\215c\301A\241\230\202\235\344\345"
 358      6E5AF420 
 358      758D63C1 
 358      41A19882 
 358      9DE4E5
 359 0024 A56D0E1B 		.ascii	"\245m\016\033#M\224\212C\277gR\250[\321E\315bqk\004"
 359      234D948A 
 359      43BF6752 
 359      A85BD145 
 359      CD62716B 
 360 0039 575B97D0 		.ascii	"W[\227\320\251\016\265\270I\247\350\354$\024$\024\342"
 360      A90EB5B8 
 360      49A7E8EC 
 360      24142414 
 360      E2
 361 004a 77EF72A5 		.ascii	"w\357r\245\012.\036\274\357\276\273\373\336\357~w'@"
 361      0A2E1EBC 
 361      EFBEBBFB 
 361      DEEF7E77 
ARM GAS  /tmp/cch4md0g.s 			page 28


 361      2740
 362 005c C0DFADC0 		.ascii	"\300\337\255\300_\314\323\267\270\307\000Pl~\346\211"
 362      5FCCD3B7 
 362      B8C70050 
 362      6C7EE689 
 363 006c 8C10B253 		.ascii	"\214\020\262S\004\312\252\343<PN\242r\323\012\321&\200"
 363      04CAAAE3 
 363      3C504EA2 
 363      72D30AD1 
 363      2680
 364 007e B026A4C2 		.ascii	"\260&\244\302\265y\264\014\274\010[D\317\373\353\333"
 364      B579B40C 
 364      BC085B44 
 364      CFFBEBDB 
 365 008e DFF115F5 		.ascii	"\337\361\025\365\332o\350d8D4\310\373\335@\210\020\356"
 365      DA6FE864 
 365      384434C8 
 365      FBDD4088 
 365      10EE
 366 00a0 F0002793 		.ascii	"\360\000'\223N\250?\005\336\213^\1778<yq\374m\027/d"
 366      4EA83F05 
 366      DE8B5E7F 
 366      383C7971 
 366      FC6D172F 
 367 00b5 2518940A 		.ascii	"%\030\224\012B\334bh\212\007*\315!\340\272\000\332D"
 367      42DC6268 
 367      8A072ACD 
 367      21E0BA00 
 367      DA44
 368 00c7 9B936E05 		.ascii	"\233\223n\005,\224[\211\243\025\232Ca{y\000{G/\273\003"
 368      2C945B89 
 368      A3159A43 
 368      617B7900 
 368      7B472FBB 
 369 00dc 11E25BFE 		.ascii	"\021\342[\376i\011\345\024lS\233wMu\340uLD\263\006\323"
 369      6909E514 
 369      6C539B77 
 369      4D75E075 
 369      4C44B306 
 370 00f1 D62243FB 		.ascii	"\326\"C\373\317H%B\231D\243\214^\350\000Z\037[\213\236"
 370      CF482542 
 370      9944A38C 
 370      5EE8005A 
 370      1F5B8B9E 
 371 0105 A01862AB 		.ascii	"\240\030b\253d1Y\332\373\364\241;@\267\230\260c\232"
 371      643159DA 
 371      FBF4A13B 
 371      40B798B0 
 371      639A
 372 0117 7074FC37 		.ascii	"pt\3747\331\241\231e\011O\217\276\236\021LM\301e\203"
 372      D9A19965 
 372      094F8FBE 
 372      9E114C4D 
 372      C16583
 373 012a 6357E01D 		.ascii	"cW\340\035\313\321\274\301\254\023\315\033<\367\004"
 373      CBD1BCC1 
 373      AC13CD1B 
ARM GAS  /tmp/cch4md0g.s 			page 29


 373      3CF704
 374 0139 06B461B3 		.ascii	"\006\264a\263\\-!Xd\016|6\236\361\302e\364\317\272\017"
 374      5C2D2158 
 374      640E7C36 
 374      9EF1C265 
 374      F4CFBA0F 
 375 014d ED1FF1F8 		.ascii	"\355\037\361\370)\333\226\215\235\275\3539\224\320)"
 375      29DB968D 
 375      9DBDEB39 
 375      94D029
 376 015c 4A2BF1AB 		.ascii	"J+\361\253\373S\372\302t\"\021\214$v\360?-\344(;\204"
 376      FB53FAC2 
 376      7422118C 
 376      2476F03F 
 376      2DE4283B 
 377 0171 F5DE75C7 		.ascii	"\365\336u\307\266\247N\331\220\346\323\033<\3575T\362"
 377      B6A74ED9 
 377      90E6D31B 
 377      3CEF3554 
 377      F2
 378 0182 5A87D0EA 		.ascii	"Z\207\320\352\357\030_y\272\321D4\2721\203y\200/\020"
 378      EF185F79 
 378      BAD14434 
 378      BA318379 
 378      802F10
 379 0195 F7772FF9 		.ascii	"\367w/\371\"\327J\\\300\000{\354\031]\255\327\026tT"
 379      22D74A5C 
 379      C0007BEC 
 379      195DADD7 
 379      167454
 380 01a8 AF3CD695 		.ascii	"\257<\326\225\205G:\252\232\262\2517ts\345\341\375{"
 380      85473AAA 
 380      9AB2A937 
 380      7473E5E1 
 380      FD7B
 381 01ba 9A936AB8 		.ascii	"\232\223j\270\254\037\324W\232\015}\273ts\272\340\342"
 381      AC1FD457 
 381      9A0D7DBB 
 381      7473BAE0 
 381      E2
 382 01cb CCB5D555 		.ascii	"\314\265\325U\335h\326\246\013w+\265\360j\004\301\342"
 382      DD68D6A6 
 382      0B772BB5 
 382      F06A04C1 
 382      E2
 383 01dc 72B8D4F8 		.ascii	"r\270\324\370\015\2774\257~"
 383      0DBF34AF 
 383      7E
 384              		.text
 385              		.section	.gnu.lto_Vector124.54e382a52e06511,"",%progbits
 386 0000 789C9D52 		.ascii	"x\234\235R\317k\023A\024~of6\335\215\211\315\301?\240"
 386      CF6B1341 
 386      147E6F66 
 386      36DD8D89 
 386      CDC13FA0 
 387 0014 78D3A203 		.ascii	"x\323\242\003\251\327x,x\250\027ShO\262\331\264\315"
 387      A9D7782C 
ARM GAS  /tmp/cch4md0g.s 			page 30


 387      78A81753 
 387      684FB2D9 
 387      B4CD
 388 0026 6063A489 		.ascii	"`c\244\211R\361\320\331n\204\366V<\331\306\203E\360"
 388      52F1D0D9 
 388      6E84F656 
 388      3CD9C683 
 388      45F0
 389 0038 20FE0085 		.ascii	" \376\000\205\242\0105\004\204z\250\305\233\324\036"
 389      A2083504 
 389      847AA8C5 
 389      9BD41E
 390 0047 A2670F22 		.ascii	"\242g\017\"\364R\204\370f7\023\252\027\301\007\373\336"
 390      F45284F8 
 390      663713AA 
 390      17C107FB 
 390      DE
 391 0058 9BF9DEFB 		.ascii	"\233\371\336\373\346{3\313\200\301\337\226\247o\233"
 391      E67B33CB 
 391      80C1DF96 
 391      A76F9B
 392 0067 B62F5344 		.ascii	"\266/SD\007\220\255}\004\010]\306x\253\000:-\016s\240"
 392      0790AD7D 
 392      04085DC6 
 392      78AB003A 
 392      2D0E73A0 
 393 007b 331C45B2 		.ascii	"3\034E\262-\020M\002\010K\214\013\\\232F\303\201\247"
 393      2D104D02 
 393      084B8C0B 
 393      5C9A46C3 
 393      81A7
 394 008d 6153EB7B 		.ascii	"aS\353{\335\367/\277\341\272n7\037\352_\275\036\242"
 394      DDF72FBF 
 394      E1BA6E37 
 394      1FEA5FBD 
 394      1EA2
 395 009f 423AEF12 		.ascii	"B:\357\022B\2000E\013\034\211\003\023\177\012x\301\332"
 395      42803045 
 395      0B1C8903 
 395      137F0A78 
 395      C1DA
 396 00b1 DD5EEFC1 		.ascii	"\335^\357\301\372\341\327\003<\225\341\240\220\013\343"
 396      FAE1D703 
 396      3C95E1A0 
 396      900BE3
 397 00c0 1CF07193 		.ascii	"\034\360q\223\230Sf\341\222\023\0369\207:\034hj\275"
 397      985366E1 
 397      92131E39 
 397      873A1C68 
 397      6ABD
 398 00d2 3692C060 		.ascii	"6\222\300`\350\311\212\344\215\264Id&\362]\350\354\177"
 398      E8C98AE4 
 398      8DB44964 
 398      26F25DE8 
 398      EC7F
 399 00e4 7ED5613E 		.ascii	"~\325a>>\242\2469\344\243\360D7\351\374T\0136(\014\031"
 399      3EA2A639 
ARM GAS  /tmp/cch4md0g.s 			page 31


 399      E4A3F044 
 399      37E9FC54 
 399      0B36280C 
 400 00f9 2DAEDE59 		.ascii	"-\256\336Y\325\"\226\345\306bJhe\355B\364<\332F\333"
 400      D52296E5 
 400      C6624A68 
 400      65ED42F4 
 400      3CDA46DB 
 401 010d 2E88C194 		.ascii	".\210\301\224y\251\004{\033\315Z\310!\324@\274\220@"
 401      79A9047B 
 401      1BCD5AC8 
 401      21D440BC 
 401      9040
 402 011f CFA2778F 		.ascii	"\317\242w\217\245\005S\204\037\353\353|\3701\224@\261"
 402      A5055384 
 402      1FEBEB7C 
 402      F8319440 
 402      B1
 403 0130 9C500FFF 		.ascii	"\234P\017\377SP\242\210\230L\377\362\376\375\255\243"
 403      5350A288 
 403      984CFFF2 
 403      FEFDADA3 
 404 0140 C14CEE28 		.ascii	"\301L\356(\234U\230>\007O5\331\264\302\023D\025j\235"
 404      9C55983E 
 404      074F35D9 
 404      B4C21344 
 404      156A9D
 405 0153 5398B903 		.ascii	"S\230\271\003Gz\305d\331j\314`(\263`3\317\263s\226\320"
 405      477AC564 
 405      D96ACC60 
 405      28B36033 
 405      CFB37396 
 406 0168 FE133BD0 		.ascii	"\376\023;\320\374\036f\007\334\246,}\374\241&\221C\253"
 406      FC1E6607 
 406      DCA62C7D 
 406      FCA12691 
 406      43AB
 407 017a C08D88D7 		.ascii	"\300\215\210\327[?\271-\364b\021N_\304\033\374O\025"
 407      5B3FB92D 
 407      F462114E 
 407      5FC41BFC 
 407      4F15
 408 018c BC9FEDC1 		.ascii	"\274\237\355\301\335\366\305\204\333L\355\032\347\321"
 408      DDF6C584 
 408      DB4CED1A 
 408      E7D1
 409 019a 252A3C69 		.ascii	"%*<ie\210\370\201\367 \352~Q\266rp\320p\320\2771\205"
 409      6588F881 
 409      F720EA7E 
 409      51B67270 
 409      D070D0BF 
 410 01b0 39804F10 		.ascii	"9\200O\020v\017\316\330\242\304\212T@\004f\354qY\251"
 410      760FCED8 
 410      A2C48A54 
 410      400466EC 
 410      7159A9
 411 01c3 55676450 		.ascii	"UgdP+\337\226\345\231[2\250\250\222\252\325ec\341\346"
ARM GAS  /tmp/cch4md0g.s 			page 32


 411      2BDF96E5 
 411      995B32A8 
 411      A892AAD5 
 411      6563E1E6 
 412 01d7 F56B9292 		.ascii	"\365k\222\222\212?/o\324\026\032uy\24581\226O\374\370"
 412      8A3F2F6F 
 412      D4161A75 
 412      79A53831 
 412      964FFCF8 
 413 01eb 85C54559 		.ascii	"\205\305EYoT\307\362W\313U\377|\000\316\354\274?W\377"
 413      6F54C7F2 
 413      57CB55FF 
 413      7C00CEEC 
 413      BC3F57FF 
 414 01ff 0D3390B9 		.ascii	"\0153\220\271\273"
 414      BB
 415              		.text
 416              		.section	.gnu.lto_Vector128.54e382a52e06511,"",%progbits
 417 0000 789C9D92 		.ascii	"x\234\235\222\317k\023A\024\307\337\233\231Mwcbs\350"
 417      CF6B1341 
 417      14C7DF9B 
 417      994D7763 
 417      6273E8
 418 0013 1F50BC69 		.ascii	"\037P\274i\321\201\324k\360V\360\240\027ShO\262\331"
 418      D181D46B 
 418      F056F0A0 
 418      1753684F 
 418      B2D9
 419 0025 B4CD6063 		.ascii	"\264\315`c\244\211R\361\320Y7\005\275\025O\325P\260"
 419      A48952F1 
 419      D0593705 
 419      BD154FD5 
 419      50B0
 420 0037 7810C41F 		.ascii	"x\020\304\037\177@d\0119\325C-\336\244\247\350\305\213"
 420      7F406409 
 420      39D5432D 
 420      DEA4A7E8 
 420      C58B
 421 0049 072F0529 		.ascii	"\007/\005)\332\370f7\023\324\213\340\203\274y\273\337"
 421      DAF86637 
 421      13D48BE0 
 421      83BC79BB 
 421      DF
 422 005a F7BEF399 		.ascii	"\367\276\363\231\3310`\360w\024\351\027\323\353\253"
 422      D93060F0 
 422      7714E917 
 422      D3EBAB
 423 0069 B4A203C8 		.ascii	"\264\242\003\310\266\336\003\204.c\274S\002\235\025"
 423      B6DE0384 
 423      2E63BC53 
 423      029D15
 424 0078 4705D039 		.ascii	"G\005\3209\216\"}-\020M\001\010\033\214\013\334XD\343"
 424      8E227D2D 
 424      104D0108 
 424      1B8C0BDC 
 424      5844E3
 425 008b 81676057 		.ascii	"\201g`W\353G\203\315\356g|\254{\355\247\372\307p\210"
ARM GAS  /tmp/cch4md0g.s 			page 33


 425      EB4783CD 
 425      EE677CAC 
 425      7BEDA7FA 
 425      C77088
 426 009e A890F6BB 		.ascii	"\250\220\366\273\214\020 ,\320\003N'\013\023\177\002"
 426      8C10202C 
 426      D0034E27 
 426      0B137F02 
 427 00ae BC61BDC1 		.ascii	"\274a\275\301p\370v\347\350\323\011N\3458(\344\302$"
 427      70F876E7 
 427      E8D3094E 
 427      E53828E4 
 427      C224
 428 00c0 077CDC25 		.ascii	"\007|\334%\347\214yp)\011\217\222C\023\016\264\265\336"
 428      E78C7970 
 428      29098F92 
 428      43130EB4 
 428      B5DE
 429 00d2 9A4E6530 		.ascii	"\232Ne0\366\024e\312\006m\036\231Y\371>\364\017\267"
 429      F61465CA 
 429      066D1E99 
 429      59F93EF4 
 429      0FB7
 430 00e4 E33EF3F1 		.ascii	"\343>\363\361\031\015\255 \237\201\027\272M\373g:\360"
 430      190DAD20 
 430      9F8117BA 
 430      4DFB673A 
 430      F0
 431 00f5 849609C3 		.ascii	"\204\226\011\303\342\352\275\207Z$Xn\002SA\213\265\017"
 431      E2EABD87 
 431      5A24586E 
 431      0253418B 
 431      B50F
 432 0107 D1EB2846 		.ascii	"\321\353(F;.\310\301\264y\205T\353F\313VrH5\022/\245"
 432      3B2EC8C1 
 432      B4798554 
 432      EB46CB56 
 432      72483512 
 433 011d D2ABE8CB 		.ascii	"\322\253\350\313si\305\014\351\277\315\365\337}\233"
 433      7369C50C 
 433      E9BFCDF5 
 433      DF7D9B
 434 012c 48A50427 		.ascii	"H\245\004'\324\223\377\004J\211\310\311\314\337?\374"
 434      D493FF04 
 434      4A89C8C9 
 434      CCDF3FFC 
 435 013c 18F7B935 		.ascii	"\030\367\2715wg\340\234\302\354yx\251)\026\025\236\""
 435      7767E09C 
 435      C2EC7978 
 435      A9291615 
 435      9E22
 436 014e AB50EB82 		.ascii	"\253P\353\202\302\334=8\326\017L\225\257'\016\3062\017"
 436      C2DC3D38 
 436      D60F4C95 
 436      AF270EC6 
 436      320F
 437 0160 B6F2B2F6 		.ascii	"\266\362\262\366\234\025\264\377\211=h\177\015\363c"
ARM GAS  /tmp/cch4md0g.s 			page 34


 437      9C15B4FF 
 437      893D687F 
 437      0DF363
 438 016f 6FD336EE 		.ascii	"o\3236\35621\217\034:%n \276\307\307c\010/\201pF\020"
 438      32318F1C 
 438      3A256E20 
 438      BEC7C763 
 438      082F8170 
 439 0185 5DFC4F0A 		.ascii	"]\374O\012>\252\016`\263w)\3656\247vM\362\350\022\025"
 439      3EAA0E60 
 439      B37729F5 
 439      36A7764D 
 439      F2E81215 
 440 0199 9EB61822 		.ascii	"\236\266\030\"\371\300\007\020\015~*\3339\336h2\030"
 440      F9C00710 
 440      0D7E2ADB 
 440      39DE6832 
 440      18
 441 01aa DD9842BA 		.ascii	"\335\230B\272\362\017\020\016N\316\332\2464\312\324"
 441      F20F100E 
 441      4ECEDAA6 
 441      34CAD4
 442 01b9 4006E6D8 		.ascii	"@\006\346\330s\262\326\250/\311\240Q\275+\253KwdPS\025"
 442      73B2D6A8 
 442      2FC9A051 
 442      BD2BAB4B 
 442      77645053 
 443 01ce D568CAD6 		.ascii	"\325h\312\326\332\355\2337$\0255\177U\336j\254\265\232"
 443      DAED9B37 
 443      2415357F 
 443      55DE6AAC 
 443      B59A
 444 01e0 F25AF9CA 		.ascii	"\362Z\371\312l1\315s\027\327\327e\263U\237-^\257\326"
 444      6C31CD73 
 444      17D7D765 
 444      B3559F2D 
 444      5EAFD6
 445 01f3 FD0B0138 		.ascii	"\375\013\0018\313\253\376J\363\027\336\224\272|"
 445      CBABFE4A 
 445      F317DE94 
 445      BA7C
 446              		.text
 447              		.section	.gnu.lto_Vector12C.54e382a52e06511,"",%progbits
 448 0000 789C9D52 		.ascii	"x\234\235RAh\023A\024\375\177f6\335M\023\233\213\236"
 448      41681341 
 448      14FD7F66 
 448      36DD4D13 
 448      9B8B9E
 449 0013 8B47830E 		.ascii	"\213G\203\016\244^\203\267\202\007{1\005{\222\315\246"
 449      A45E83B7 
 449      82077B31 
 449      057B92CD 
 449      A6
 450 0024 6D963646 		.ascii	"m\2266F\232(\225\036:\353F\250\267\342I\315A\213\227"
 450      9A28951E 
 450      3AEB46A8 
 450      B7E249CD 
ARM GAS  /tmp/cch4md0g.s 			page 35


 450      418B97
 451 0037 2255F126 		.ascii	"\"U\361&\024J\010\010\365P\2137)\036\242\202\275\010"
 451      144A0808 
 451      F5508B37 
 451      291EA282 
 451      BD08
 452 0049 7AE9A508 		.ascii	"z\351\245\010\361\317N&T/\202\037\366\377?\363\376\177"
 452      F1CF4E26 
 452      542F821F 
 452      F6FF3FF3 
 452      FE7F
 453 005b FFCDCC32 		.ascii	"\377\315\3142`\360\267\025\350\333\241\355)\212\350"
 453      60F0B715 
 453      E8DBA1ED 
 453      298AE8
 454 006a 00B2F5F7 		.ascii	"\000\262\365\367\000\221\313\030o\027A\245\305Q\016"
 454      0091CB18 
 454      6F1741A5 
 454      C5510E
 455 0079 5486A330 		.ascii	"T\206\2430\333\002Q'\200\260\312\270\300\325\031\324"
 455      DB025127 
 455      80B0CAB8 
 455      C0D519D4 
 456 0089 1C781636 		.ascii	"\034x\0266\224z\320{\373\365\013>R\235\326S\365\253"
 456      947AD07B 
 456      FBF50B3E 
 456      529DD653 
 456      F5AB
 457 009b DF470C91 		.ascii	"\337G\014\221\346]F\010\020\256\321\002\307\223\300"
 457      E65D4608 
 457      10AED102 
 457      C793C0
 458 00aa C49F025E 		.ascii	"\304\237\002^\261N\257\337\377\364\372\350\363&\236"
 458      B14EAFDF 
 458      FFF4FAE8 
 458      F3269E
 459 00b9 CE700891 		.ascii	"\316p\010\221\013\355\034\360q\203\230Sz\341\222\023"
 459      0BED1CF0 
 459      71839853 
 459      7AE19213 
 460 00c9 1E39873A 		.ascii	"\0369\207:\034h)\265>n`\320\364d%\362Z\33242\035\371"
 460      1C6829B5 
 460      3E6E60D0 
 460      F46425F2 
 460      5ADA3432 
 461 00df 1E740F3E 		.ascii	"\036t\017>~\3532\037\237Q\323<\362<<W-\232\237j\303"
 461      7EEB321F 
 461      9F51D33C 
 461      F23C3C57 
 461      2D9A9F6A 
 462 00f4 630A235A 		.ascii	"c\012#Z\213\253v\357+\221\310r\0231e\264\262\366 ~\031"
 462      8BAB76EF 
 462      2B91C872 
 462      133165B4 
 462      B2F6207E 
 463 0109 EFA06D17 		.ascii	"\357\240m\027\304\240\313\2743\006\333\216\347,\344"
 463      C4A0CBBC 
ARM GAS  /tmp/cch4md0g.s 			page 36


 463      3306DB8E 
 463      E72CE4
 464 0118 10AA215E 		.ascii	"\020\252!^4\320\213\370\307\226\264`\212\360\023}\335"
 464      34D08BF8 
 464      C796B460 
 464      8AF0137D 
 464      DD
 465 0129 773F470C 		.ascii	"w?G\014\224\310\211\324\330?\005\031E\304\244\373\357"
 465      94C889D4 
 465      D83F0519 
 465      45C4A4FB 
 465      EF
 466 013a 1E3C3CEC 		.ascii	"\036<<\354rK\356\346\341\\\210\351\363\260\245\310f"
 466      724BEEE6 
 466      E15C88E9 
 466      F3B0A5C8 
 466      66
 467 014b 421C25AA 		.ascii	"B\034%\252H\251\\\210\231\0258Vk:\313\326\022\006M\231"
 467      48A95C88 
 467      99153856 
 467      6B3ACBD6 
 467      12064D99 
 468 015f 059B79A3 		.ascii	"\005\233y\243\366\234e\264\377\304.\264\276G\331!\267"
 468      F69C65B4 
 468      FFC42EB4 
 468      BE47D921 
 468      B7
 469 0170 2E4B9F7C 		.ascii	".K\237|\250i\344\320.r-\342\315\341\361P\204\227\210"
 469      A869E4D0 
 469      2E722DE2 
 469      CDE1F150 
 469      849788
 470 0183 700622B6 		.ascii	"p\006\"\266\361?U\360A\266\017\367:\227\014\267>\265"
 470      F13F55F0 
 470      41B60FF7 
 470      3A970CB7 
 470      3EB5
 471 0195 AB9D4797 		.ascii	"\253\235G\227\030\342)+C$\017\274\017q\357\311\202\255"
 471      18E2292B 
 471      43240FBC 
 471      0F71EFC9 
 471      82AD
 472 01a7 1C0E1A0B 		.ascii	"\034\016\032\013\0067\026b\016\340\003D\275\315\274"
 472      06371662 
 472      0EE00344 
 472      BDCDBC
 473 01b6 2D3256A2 		.ascii	"-2V\242\002\"\320\307\236\224\325zmV\006\365\312\035"
 473      0222D0C7 
 473      9E94D57A 
 473      6D5606F5 
 473      CA1D
 474 01c8 5999BD2D 		.ascii	"Y\231\275-\203jX\016\353\015\331\\\272ucARR\365\027"
 474      836A580E 
 474      EB0DD95C 
 474      BA756341 
 474      5252F517 
 475 01dc E5CDFA52 		.ascii	"\345\315\372R\263!\257\226\256L\024\214\237\274\270"
ARM GAS  /tmp/cch4md0g.s 			page 37


 475      B321AF96 
 475      AE4C148C 
 475      9FBCB8
 476 01eb BC2C1BCD 		.ascii	"\274,\033\315\332D\341z\245\346_\010\300\231[\364\347"
 476      DA44E17A 
 476      A5E65F08 
 476      C0995BF4 
 476      E7
 477 01fc 1BBF0159 		.ascii	"\033\277\001Y\003\272h"
 477      03BA68
 478              		.text
 479              		.section	.gnu.lto_Vector130.54e382a52e06511,"",%progbits
 480 0000 789C9D91 		.ascii	"x\234\235\2211H[A\030\200\377\377\356^\022\323X\263"
 480      31485B41 
 480      1880FFFF 
 480      EE5E12D3 
 480      58B3
 481 0012 74978E06 		.ascii	"t\227\216\006{\020\273\206nB\007\0051B\235\312\313\213"
 481      7B10BB86 
 481      6E420705 
 481      31429DCA 
 481      CB8B
 482 0024 9A43638A 		.ascii	"\232Cc\212I\213\245\203\367L\004\335\304\251m\226J\267"
 482      498BA583 
 482      F74C04DD 
 482      C4A96D96 
 482      4AB7
 483 0036 52E85428 		.ascii	"R\350T(\270\204L*\250\270\025\247\264si&\241\004!\376"
 483      B8844C2A 
 483      A8B815A7 
 483      B4736926 
 483      A10421FE 
 484 004a F72E17DA 		.ascii	"\367.\027\332B\227\036\274\377\376\273\373\337w\337"
 484      42971EBC 
 484      FFFEBBFB 
 484      DF77DF
 485 0059 DD3160F0 		.ascii	"\3351`\360w\313\322\027\322\364,\365\350\001\262\375"
 485      77CBD217 
 485      D2F42CF5 
 485      E801B2FD 
 486 0069 739A4830 		.ascii	"s\232H0\306\2339\320Iq\235\006\235\342(\354\264@4\011"
 486      C69B39D0 
 486      49719D06 
 486      9DE228EC 
 486      B4403409 
 487 007d 206C312E 		.ascii	" l1.pk\021\015\003\357\303\241\326\007\235\235\237\337"
 487      706B110D 
 487      03EFC3A1 
 487      D6079D9D 
 487      9FDF
 488 008f F18D6E35 		.ascii	"\361\215n5\336\351\233~\037Q!\355\367\030!@xB\003\034"
 488      DEE99B7E 
 488      1F5121ED 
 488      F7182140 
 488      7842031C 
 489 00a3 8F3A26FE 		.ascii	"\217:&\376\024\370\304Z\235~\377\346\363\365\267S\274"
 489      14F8C45A 
ARM GAS  /tmp/cch4md0g.s 			page 38


 489      9D7EFFE6 
 489      F3F5B753 
 489      BC
 490 00b4 97E4A090 		.ascii	"\227\344\240\220\013\360\361\220\2401\032\2108\005\217"
 490      0BF0F190 
 490      A0311A88 
 490      38058F
 491 00c3 EA3C6868 		.ascii	"\352<hh\275?nW\300@\251\345)\032\241\005d\246\347g\320"
 491      BD3F6E57 
 491      C040A9E5 
 491      291AA105 
 491      64A6E767 
 492 00d8 BE7ADDED 		.ascii	"\276z\335\3551\037\337\323O+\3103\360A7h\327X\023\336"
 492      311FDFD3 
 492      4F2BC833 
 492      F0413768 
 492      D75813DE 
 493 00ec 865AEB39 		.ascii	"\206Z\3539\205qc\221\320\307{ZDB\211H\243\200N\350\014"
 493      85716391 
 493      D0C77B5A 
 493      44428948 
 493      A3804EE8 
 494 0101 EA47F565 		.ascii	"\352G\365eG\020\0041U<\027-\265O\276t{h\027#v\250\307"
 494      47100431 
 494      553C172D 
 494      B54FBE74 
 494      7B681723 
 495 0118 2C1DFF4D 		.ascii	",\035\377M\266hb\031\302\366\325\327n\233;|,\003\023"
 495      B6686219 
 495      C2F6D5D7 
 495      6E9B3B7C 
 495      2C0313
 496 012b 0A4726E1 		.ascii	"\012G&\341#\311\351E\205I+\232Vx\347\025\364\364\256"
 496      23C9E945 
 496      85492B9A 
 496      5678E715 
 496      F4F4AE
 497 013e C952E588 		.ascii	"\311R\345\210`\220)p\331h\312\011\027\320=\35314~\204"
 497      60902970 
 497      D968CA09 
 497      17D03DEB 
 497      31347E84 
 498 0152 A343B629 		.ascii	"\243C\266)\033\371\375\256\027\220C3\307\215\304\257"
 498      1BF9FDAE 
 498      17904333 
 498      C78DC4AF 
 499 0162 6E6F2811 		.ascii	"no(\021\217$\274\201\304\021\376\247\005\037d\027\260"
 499      8F24BC81 
 499      C411FEA7 
 499      051F6417 
 499      B0
 500 0173 D37A64D9 		.ascii	"\323zd\331\346\3241\023\342tz\205w\235\206\210^\353"
 500      E6D43113 
 500      E2747A85 
 500      779D8688 
 500      5EEB
 501 0185 02EA9D93 		.ascii	"\002\352\235\223UW9\334h,\030\334\230\3024\300%\204"
ARM GAS  /tmp/cch4md0g.s 			page 39


 501      555739DC 
 501      682C18DC 
 501      98C234C0 
 501      2584
 502 0197 9DD38C2B 		.ascii	"\235\323\214+\262-O\005\0040\307\236\226\245JyI\006"
 502      B22D4F05 
 502      0430C79E 
 502      96A54A79 
 502      4906
 503 01a9 95E24B59 		.ascii	"\225\342KY\\z!\203\222*\250JU\3266\236\257\257JJJ\376"
 503      5C7A2183 
 503      922AA84A 
 503      55D6369E 
 503      AFAF4A4A 
 504 01bf 9A7C56D9 		.ascii	"\232|V\331\250U\345|~f*k\343\364\303\315MY\255\225\247"
 504      A855E57C 
 504      7E662A6B 
 504      E3F4C3CD 
 504      4D59AD95 
 505 01d4 B24F8B65 		.ascii	"\262O\213e\377A\000\336\362\232\277R\275\005\223\204"
 505      FF4100DE 
 505      F29ABF52 
 505      BD059384 
 506 01e4 B105     		.ascii	"\261\005"
 507              		.text
 508              		.section	.gnu.lto_Vector150.54e382a52e06511,"",%progbits
 509 0000 789C9D52 		.ascii	"x\234\235RAh\023A\024\375\177f6\335\215\211\315\305"
 509      41681341 
 509      14FD7F66 
 509      36DD8D89 
 509      CDC5
 510 0012 7BF168D0 		.ascii	"{\361h\320\201\324k\360V\360\240\027S\260'\331l\332"
 510      81D46BF0 
 510      56F0A017 
 510      53B027D9 
 510      6CDA
 511 0024 666863A4 		.ascii	"fhc\244\211R\361\320Y7\202\336\212'5\036,\336D\353U"
 511      8952F1D0 
 511      593782DE 
 511      8A27351E 
 511      2CDE44EB 
 512 0039 08941010 		.ascii	"\010\224\020\020\352\241\026o\322S\364j\016^\252\020"
 512      EAA1166F 
 512      D253F46A 
 512      0E5EAA10 
 513 0049 84F5CF6E 		.ascii	"\204\365\317n&T/\202\037\366\377?\363\376\177\377\315"
 513      26542F82 
 513      1FF6FF3F 
 513      F3FE7FFF 
 513      CD
 514 005a CC3260F0 		.ascii	"\3142`\360\267\225\350\333\243\355\253\024\321\001d"
 514      B795E8DB 
 514      A3EDAB14 
 514      D10164
 515 0069 DB1F0142 		.ascii	"\333\037\001B\2271\336-\203\316\212\343\002\350\034"
 515      9731DE2D 
 515      83CE8AE3 
ARM GAS  /tmp/cch4md0g.s 			page 40


 515      02E81C
 516 0078 47916E0B 		.ascii	"G\221n\013D\223\000\302\026\343\002\267\226\320p\340"
 516      449300C2 
 516      16E302B7 
 516      96D070E0 
 517 0088 59D8D1FA 		.ascii	"Y\330\321\372\361\360\375\217\257\370T\367;/\364\257"
 517      F1F0FD8F 
 517      AFF854F7 
 517      3B2FF4AF 
 518 0098 38465448 		.ascii	"8FTH\363.#\004\010\327i\201sI`\342O\001oY\177\030\307"
 518      F32E2304 
 518      08D76981 
 518      734960E2 
 518      4F016F59 
 519 00af CF7BC75F 		.ascii	"\317{\307_Fx&\307A!\027\3069\340\343\0161g\314\302%"
 519      467826C7 
 519      412117C6 
 519      39E0E30E 
 519      3167CCC2 
 520 00c4 273C720E 		.ascii	"'<r\016u8\320\321z{.\205\301\320\223U\310\033i\213\310"
 520      7538D0D1 
 520      7A7B2E85 
 520      C1D09355 
 520      C81B698B 
 521 00d9 4CE40730 		.ascii	"L\344\00708\372\374s\300||IM\253\310\213\360Jwh~\246"
 521      38FAFC73 
 521      C07C7C49 
 521      4DABC88B 
 521      F04A7768 
 522 00ef 0BCF28CC 		.ascii	"\013\317(\314\030-\256\336\177\244E\"\313M\304T\321"
 522      182DAEDE 
 522      7FA44522 
 522      CB4DC454 
 522      D1
 523 0100 CA3A8068 		.ascii	"\312:\200h7\332C\333.\210\301\224y\231\024\353E+\026"
 523      37DA43DB 
 523      2E88C194 
 523      799914EB 
 523      452B16
 524 0113 72083510 		.ascii	"r\0105\020/\247\320\233(\336\225\026\314\020~\242o\360"
 524      2FA7D09B 
 524      28DE9516 
 524      CC107EA2 
 524      6FF0
 525 0125 E1FB4C0A 		.ascii	"\341\373L\012%rB=\373OA\251\"b2\375\367\217\236\214"
 525      2572423D 
 525      FB4F41A9 
 525      226232FD 
 525      F78F9E8C 
 526 0139 07DC92BB 		.ascii	"\007\334\222\273E8\2470{\036^k\262%\205\247\210*\324"
 526      4538A730 
 526      7B1E5E6B 
 526      B22585A7 
 526      882AD4
 527 014c BAA03077 		.ascii	"\272\2400w\017\306\372\241\311\362\215\204\301P\346"
 527      0FC6FAA1 
 527      C9F28D84 
ARM GAS  /tmp/cch4md0g.s 			page 41


 527      C150E6
 528 015b C1665EDE 		.ascii	"\301f^\336\236\263\212\366\237\330\207\316(\314O\271"
 528      9EB38AF6 
 528      9FD887CE 
 528      28CC4FB9 
 529 016b 4D59F6E4 		.ascii	"MY\366\344C-\"\207n\231\033\021\357\306\343\251\010"
 529      432D2287 
 529      6E991B11 
 529      EFC6E3A9 
 529      08
 530 017c 2F11E14C 		.ascii	"/\021\341LD\364\360?U\360Iv\010\017\372\227Rnsj\327"
 530      44F4F03F 
 530      55F04976 
 530      080FFA97 
 530      526E736A 
 531 0191 388F2E51 		.ascii	"8\217.Q\341i+C$\017|\010\321\360\333\232\255\234\016"
 531      E1692B43 
 531      240F7C08 
 531      D1F0DB9A 
 531      AD9C0E
 532 01a4 9A0D2637 		.ascii	"\232\015&7\246\260\000\360\011\302\341\250h\213R\253"
 532      A6B000F0 
 532      09C2E1A8 
 532      688B52AB 
 533 01b4 50011198 		.ascii	"P\001\021\230c/\310z\263\261,\203f\355\256\254-\337"
 533      632FC87A 
 533      B3B12C83 
 533      66EDAEAC 
 533      2DDF
 534 01c6 91415D55 		.ascii	"\221A]UU\263%\333\033\267o\256IJ\352\376\272\274\325"
 534      55B325DB 
 534      1BB76FAE 
 534      494AEAFE 
 534      BABCD5
 535 01d9 DC68B7E4 		.ascii	"\334h\267\344\265\312\225\371R\352\027.nn\312V\2731"
 535      B5CA95F9 
 535      52EA172E 
 535      6E6ECA56 
 535      BB31
 536 01eb 5FBA516B 		.ascii	"_\272Qk\370\027\002pV\326\375\325\326o@\303\273F"
 536      F8170270 
 536      56D6FDD5 
 536      D66F40C3 
 536      BB46
 537              		.text
 538              		.section	.gnu.lto_Vector154.54e382a52e06511,"",%progbits
 539 0000 789C9D52 		.ascii	"x\234\235R=L\024A\024~of\366\330=\357\340*kb)\301I\016"
 539      3D4C1441 
 539      147E6F66 
 539      F6D83DEF 
 539      E02A6B62 
 540 0018 DB8B1D89 		.ascii	"\333\213\035\211\2056\034\011Tdo\017\270\215\254g\270"
 540      85361C09 
 540      54646F0F 
 540      B88DAC67 
 540      B8
 541 0029 D3602C98 		.ascii	"\323`,\230u\217\004\013\011\261B\257\201\26301\3764"
ARM GAS  /tmp/cch4md0g.s 			page 42


 541      758F040B 
 541      09B142AF 
 541      81B33031 
 541      FE34
 542 003b 7618BC40 		.ascii	"v\030\274@\203\005\022;CuZ[\330\220\0305Y\337\354\336"
 542      8305123B 
 542      43755A5B 
 542      D8901835 
 542      59DFECDE 
 543 004f 5CD0C6C4 		.ascii	"\\\320\306\304\227\354{o\346{\357{\337\314,\003\006"
 543      97EC7B6F 
 543      E67BEF7B 
 543      DFCC2C03 
 543      06
 544 0060 7F5B91BE 		.ascii	"\177[\221\276=\332\276N\021-@\266\371\001 \264\031\343"
 544      3DDABE4E 
 544      112D40B6 
 544      F90120B4 
 544      19E3
 545 0072 ED12A8AC 		.ascii	"\355\022\250\2548-\200\312q\024\351\266@\324\011 \254"
 545      382D80CA 
 545      7114E9B6 
 545      40D40920 
 545      AC
 546 0083 322E7075 		.ascii	"2.pu\0265\007^\200\035\245\036\365\326\342/\370Xu[\333"
 546      1635075E 
 546      801DA51E 
 546      F5D6E22F 
 546      F858755B 
 547 0098 EA571C23 		.ascii	"\352W\034#\372H\363\256\"x\0103\264\300\321$0\361\247"
 547      FA48F3AE 
 547      22780833 
 547      B4C0D124 
 547      30F1A7
 548 00ab 80D7ACDB 		.ascii	"\200\327\254\333\213\343\267\357N?o\340\371\034\007"
 548      8BE3B7EF 
 548      4E3F6FE0 
 548      F91C07
 549 00ba 1FB9D0CE 		.ascii	"\037\271\320\316\002\027w\2109\243\02769\341\220\263"
 549      02177788 
 549      39A31736 
 549      39E190B3 
 550 00ca A8C38296 		.ascii	"\250\303\202\226R\233\243)\014\232\236\254L^K\233F\246"
 550      529BA329 
 550      0C9A9EAC 
 550      4C5E4B9B 
 550      46A6
 551 00dc 233F82FD 		.ascii	"#?\202\375\223\255\316\001s\361)5-\"\037\203\347\252"
 551      93ADCE01 
 551      73F12935 
 551      2D221F83 
 551      E7AA
 552 00ee 45F3336D 		.ascii	"E\3633mxBaHk\261\325\341\003%\022Yv\"\246\202F\326\021"
 552      78426148 
 552      6BB1D5E1 
 552      03251259 
 552      7622A682 
ARM GAS  /tmp/cch4md0g.s 			page 43


 553 0105 44AFA23D 		.ascii	"D\257\242=4\355\202\030t\231SH\261\335h\301@\026\241"
 553      34ED8218 
 553      74995348 
 553      B1DD68C1 
 553      4016A1
 554 0118 1AE2A514 		.ascii	"\032\342\245\024z\031={#\015\230!\374L\337\376\373o"
 554      7A193D7B 
 554      230D9821 
 554      FC4CDFFE 
 554      FB6F
 555 012a 432994C8 		.ascii	"C)\224\310\011\325\310?\005\245\212\210I\367\337?\371"
 555      09D5C83F 
 555      05A58A88 
 555      49F7DF3F 
 555      F9
 556 013b D439E086 		.ascii	"\3249\340\206\334\036\203\213>f\307\341\205\"\233\365"
 556      DC1E838B 
 556      3E66C7E1 
 556      85229BF5 
 557 014b F11C5185 		.ascii	"\361\034Q\205J\025|\314\335\203\037j]g\371 a\320\224"
 557      4A157CCC 
 557      DD831F6A 
 557      5D67F920 
 557      61D094
 558 015e 79309933 		.ascii	"y0\2313l\316YA\363O\034B\353k\230\037p\353\262\354\331"
 558      6CCE5941 
 558      F34F1C42 
 558      EB6B981F 
 558      70EBB2EC 
 559 0173 879A460E 		.ascii	"\207\232F\016\355\022\327\"\276w~\016D8\211\010\253"
 559      ED12D722 
 559      BE777E0E 
 559      44388908 
 559      AB
 560 0184 2F6217FF 		.ascii	"/b\027\377S\005\357g\307\260\326\275\222r\353S\333\332"
 560      5305EF67 
 560      C7B0D6BD 
 560      9272EB53 
 560      DBDA
 561 0196 3974893E 		.ascii	"9t\211>\016\033\031\"y\340c\210z\017\003S9\0304\342"
 561      0E1B1922 
 561      79E06388 
 561      7A0F0353 
 561      391834E2 
 562 01aa F56FCC47 		.ascii	"\365o\314G\272\362\217\020\3666\306MQje* \002}\354I"
 562      BAF28F10 
 562      F636C64D 
 562      516A652A 
 562      20027DEC 
 563 01bf 59AB07F3 		.ascii	"Y\253\007\363\322\253W\357\312\352\374\035\351\325\374"
 563      D2AB57EF 
 563      CAEAFC1D 
 563      E9D5FC
 564 01ce 8A5F6FC8 		.ascii	"\212_o\310\346\362\355\2337$%5wI\336\252/7\033r\252"
 564      E6F2ED9B 
 564      37242535 
 564      7749DEAA 
ARM GAS  /tmp/cch4md0g.s 			page 44


 564      2F371B72 
 565 01e3 7C6DA298 		.ascii	"|m\242\230\372\311\313++\262\321\014&\212s\325\300\275"
 565      FAC9CB2B 
 565      2BB2D10C 
 565      268A73D5 
 565      C0BD
 566 01f5 E481B5B0 		.ascii	"\344\201\265\260\344.6~\003\214\263\271 "
 566      E42E367E 
 566      038CB3B9 
 566      20
 567              		.text
 568              		.section	.gnu.lto_Vector158.54e382a52e06511,"",%progbits
 569 0000 789C9D52 		.ascii	"x\234\235RAh\023A\024\375\177f6\335\215\211\311\251"
 569      41681341 
 569      14FD7F66 
 569      36DD8D89 
 569      C9A9
 570 0012 E7E2D152 		.ascii	"\347\342\321R\007R\257\301[\301\203^\232\202=\225\315"
 570      0752AFC1 
 570      5BC1835E 
 570      9A823D95 
 570      CD
 571 0023 A66D16BB 		.ascii	"\246m\026\273F\232(\025\017\235u#\324[\361\244\346\322"
 571      469A2815 
 571      0F9D7523 
 571      D45BF1A4 
 571      E6D2
 572 0035 D243A155 		.ascii	"\322C\241Us\022\002\205\022Z\204z\250E\274H\361\020"
 572      73120285 
 572      125A847A 
 572      A845BC48 
 572      F110
 573 0047 F1EAC14B 		.ascii	"\361\352\301K/*\304?\273\231P\275\010~\330\377\377\314"
 573      2F2AC43F 
 573      BB9950BD 
 573      087ED8FF 
 573      FFCC
 574 0059 FBFFFD37 		.ascii	"\373\377\37573\313\200\301\337V\240o\237\266oRD\013"
 574      33CB80C1 
 574      DF56A06F 
 574      9FB66F52 
 574      440B
 575 006b 90ADBF07 		.ascii	"\220\255\277\007\010m\306x\253\010*-\316\362\2402\034"
 575      086DC678 
 575      AB082A2D 
 575      CEF2A032 
 575      1C
 576 007c 45B22D10 		.ascii	"E\262-\020u\002\010\253\214\013\\\235E\315\201\227`"
 576      750208AB 
 576      8C0B5C9D 
 576      45CD8197 
 576      60
 577 008d 53A9A7BD 		.ascii	"S\251\247\275\267\333_\361\271\35267\324\257~\037\321"
 577      B7DB5FF1 
 577      B9EA3637 
 577      D4AF7E1F 
 577      D1
ARM GAS  /tmp/cch4md0g.s 			page 45


 578 009e 479A771D 		.ascii	"G\232w\035\301C\270E\013\034\213\003\023\177\012h\263"
 578      C143B845 
 578      0B1C8B03 
 578      137F0A68 
 578      B3
 579 00af 6EAFDFFF 		.ascii	"n\257\337\377\374\361\354K\007G3\034|\344B;\013\\\334"
 579      FCF1EC4B 
 579      0747331C 
 579      7CE4423B 
 579      0B5CDC
 580 00c2 24E6945E 		.ascii	"$\346\224^\330\344\204C\316\242\016\013\232J\255\217"
 580      D8E48443 
 580      CEA20E0B 
 580      9A4AAD8F 
 581 00d2 2530687A 		.ascii	"%0hz\262\022y-m\006\231\216\374\030\016N?\355\0342\027"
 581      B212792D 
 581      6D06998E 
 581      FC180E4E 
 581      3FED1C32 
 582 00e7 B7A86911 		.ascii	"\267\250i\021\3718\354\250&\315O\265\340\005\205\021"
 582      F938ECA8 
 582      26CD4FB5 
 582      E0058511 
 583 00f7 ADC55647 		.ascii	"\255\305VGO\224\210e\331\261\2302\032Y\307\020\275\216"
 583      4F948865 
 583      D9B19832 
 583      1A59C710 
 583      BD8E
 584 0109 F6D1B40B 		.ascii	"\366\321\264\013b\320e\316h\202\355E\013\006\262\010"
 584      62D065CE 
 584      6882ED45 
 584      0B06B208 
 585 0119 D5102F26 		.ascii	"\325\020/&\320\253\250\375F\0320E\370\271\276\203w\337"
 585      D0ABA8FD 
 585      461A3045 
 585      F8B9BE83 
 585      77DF
 586 012b 47122896 		.ascii	"G\022(\226\023\252\334?\005%\212\210I\367?:}\266{\310"
 586      13AADC3F 
 586      05258A88 
 586      49F73F3A 
 586      7DB67BC8 
 587 013f 0DB93D0E 		.ascii	"\015\271=\016\227}LO\300KE6\353\343\005\242\012\225"
 587      977D4C4F 
 587      C04B4536 
 587      EBE305A2 
 587      0A95
 588 0151 CAFB9879 		.ascii	"\312\373\230y\010?\324\232\316\262A\314\240)\263`2'"
 588      083FD49A 
 588      CEB241CC 
 588      A029B360 
 588      3227
 589 0163 67CE5946 		.ascii	"g\316YF\363O\034A\363[\230\035r\353\262\364\371\207"
 589      F34F1C41 
 589      F35B981D 
 589      72EBB2F4 
 589      F987
ARM GAS  /tmp/cch4md0g.s 			page 46


 590 0175 9A410EAD 		.ascii	"\232A\016\255\"\327\":\273?\207\"\234X\2045\020\261"
 590      22D7223A 
 590      BB3F8722 
 590      9C588435 
 590      10B1
 591 0187 87FFA982 		.ascii	"\207\377\251\202\017\262\023x\334\275\226p\353S\333"
 591      0FB21378 
 591      DCBD9670 
 591      EB53DB
 592 0196 DA397489 		.ascii	"\3329t\211>^42D\374\300'\020\365\332\201\251\034\016"
 592      3E5E3432 
 592      44FCC027 
 592      10F5DA81 
 592      A91C0E
 593 01a9 CA79831B 		.ascii	"\312y\203\033\3631\017\360\001\302^g\302\024%V\242\002"
 593      F3310FF0 
 593      01C25E67 
 593      C2142556 
 593      A202
 594 01bb 22D0C79E 		.ascii	"\"\320\307\236\222\325Z0/\275Z\345\201\254\314\337\227"
 594      92D55A30 
 594      2FBD5AE5 
 594      81ACCCDF 
 594      97
 595 01cc 5ED52FFB 		.ascii	"^\325/\373\265\272l,\337\273s[RRu\227\344\335\332r\243"
 595      B5BA6C2C 
 595      DFBB735B 
 595      52527597 
 595      E4DDDA72 
 596 01e1 2EA74B37 		.ascii	".\247K7&\013\211\237\272\272\262\"\353\215`\2620W\011"
 596      260B899F 
 596      BABAB222 
 596      EB8D60B2 
 596      305709
 597 01f4 DC2B1E58 		.ascii	"\334+\036X\013K\356b\3757\265\330\271\244"
 597      0B4BEE62 
 597      FD37B5D8 
 597      B9A4
 598              		.text
 599              		.section	.gnu.lto_dmaInit.54e382a52e06511,"",%progbits
 600 0000 789C9591 		.ascii	"x\234\225\221\301k\023A\024\306\337\233\331I71u[\004"
 600      C16B1341 
 600      14C6DF9B 
 600      D9493731 
 600      755B04
 601 0013 C15BF12A 		.ascii	"\301[\361*u\241\365\352\265\240P<\230\200\342\241\244"
 601      75A1F5EA 
 601      B5A0503C 
 601      9880E2A1 
 601      A4
 602 0024 9BD22CBA 		.ascii	"\233\322,\272F\232TZ<t6M\241\336\026\274\004\275X\274"
 602      469A545A 
 602      3C74364D 
 602      A1DE16BC 
 602      04BD58BC 
 603 0038 88082285 		.ascii	"\210\010\"\205\270\240`-\036*\264\242xi\2754\"\3707"
 603      B8A0602D 
ARM GAS  /tmp/cch4md0g.s 			page 47


 603      1E2AB4A2 
 603      7869BD34 
 603      22F837
 604 004b 140BAE6F 		.ascii	"\024\013\256ovv\267T\013\332\007\331y3\231\357\367\276"
 604      7676B754 
 604      0BDA07D9 
 604      793399EF 
 604      F7BE
 605 005d 798F0183 		.ascii	"y\217\001\203?\343\"\375f9\300eZ1\007\310\202\217\000"
 605      3FE322FD 
 605      6639C065 
 605      5A3107C8 
 605      828F00
 606 0070 BEC9D0D0 		.ascii	"\276\311\320\320\011\327\311;\323`\374\375\007\000Y"
 606      09D7C93B 
 606      D360FCFD 
 606      070059
 607 007f 109B06C8 		.ascii	"\020\233\006\310\242@T\347\200\260\300\270!p\341:*\034"
 607      A24054E7 
 607      80B0C0B8 
 607      2170E13A 
 607      2A1C
 608 0091 9E851529 		.ascii	"\236\205\025)\203\336\322\352\3533\362q+\220\277\242"
 608      83DED2EA 
 608      EB33F271 
 608      2B90BFA2 
 609 00a1 085DA4C2 		.ascii	"\010]\244\302\227\020\034\204k\264\301\241xa\306a'/"
 609      97101C84 
 609      6BB4C1A1 
 609      7861C661 
 609      272F
 610 00b3 D85A2F8A 		.ascii	"\330Z/\212\336\354\274\374\266\213\247\373\021*\270"
 610      DEECBCFC 
 610      B68BA7FB 
 610      112AB8
 611 00c2 4234012E 		.ascii	"B4\001.r3\331P\010h\023\177(\335;q\325\022}\311U\031"
 611      7233D950 
 611      0868137F 
 611      28DD3B71 
 611      D5127DC9 
 612 00d8 192D7C0B 		.ascii	"\031-|\013Z\341\366\352wV\301'(\340\021<\364\245\034"
 612      5AE1F6EA 
 612      7756C127 
 612      28E0113C 
 612      F4A51C
 613 00eb 70D1B807 		.ascii	"p\321\270\007?\345\262\312\204\027\253\224\011\001i"
 613      3FE5B2CA 
 613      8417AB94 
 613      090169
 614 00fa 96B92923 		.ascii	"\226\271)#\007z\251\302|\355t\277p\215\231Fq\016\236"
 614      077AA9C2 
 614      7CED74BF 
 614      708D9946 
 614      710E9E
 615 010d 29756E18 		.ascii	")un\030\236\313@\312\011\027\373\024<P\207\246\202w"
 615      9ECB40CA 
 615      0917FB14 
ARM GAS  /tmp/cch4md0g.s 			page 48


 615      3C5087A6 
 615      8277
 616 011f 5496F710 		.ascii	"T\226\367\020\023d>\346M\307{\025\223i\002[\260\036"
 616      13643EE6 
 616      4DC77B15 
 616      9369025B 
 616      B01E
 617 0131 7E3AA5C9 		.ascii	"~:\245\311\012\333\366\345\003\022\024\210G\313\011"
 617      0ADBF6E5 
 617      03121488 
 617      47CB09
 618 0140 2AA6F4B9 		.ascii	"*\246\364\271D\205\231\311\202\026\267\302\260\273\317"
 618      448599C9 
 618      8216B7C2 
 618      B0BBCF
 619 014f 0FE41437 		.ascii	"\017\344\0247\\,*c\024e\027\373\263W\237\314^my\310"
 619      5C2C2A63 
 619      146517FB 
 619      B3579FCC 
 619      5E6D79C8 
 620 0163 128CF597 		.ascii	"\022\214\365\2271\226\225(\352\022\213\313\213o\273"
 620      31969528 
 620      EA128BCB 
 620      8B6FBB
 621 0172 57D2B79B 		.ascii	"W\322\267\233tW\375\011\251\242L\375\242\371\363\015"
 621      7457FD09 
 621      A9A24CFD 
 621      A2F9F30D 
 622 0182 68FFF0FB 		.ascii	"h\377\360\373\322k\372\216\225\215t\007\364\011\000"
 622      D26BFA8E 
 622      958D7407 
 622      F40900
 623 0191 7BCA89C2 		.ascii	"{\312\211\302\367\362J*\364\224\326\303\275\356>\036"
 623      F7F24A2A 
 623      F494D6C3 
 623      BDEE3E1E 
 624 01a1 6A8295F5 		.ascii	"j\202\225\365`@\011\007\345\332}i\304\266\006\023\243"
 624      60400907 
 624      E5DA7D69 
 624      C4B60613 
 624      A3
 625 01b2 FCA01711 		.ascii	"\374\240\027\021\205\2254\263\363\352\330$\343hR\370"
 625      859534B3 
 625      F3EAD824 
 625      E36852F8 
 626 01c2 4FD2C67F 		.ascii	"O\322\306\177z\332>>\351\010O\237\301\357\355\016kN"
 626      7ADA3E3E 
 626      E9084F9F 
 626      C1EFED0E 
 626      6B4E
 627 01d4 1A259ADC 		.ascii	"\032%\232\334\246\241f6f\327\352\336\224\355\324\253"
 627      A6A16636 
 627      66D7EADE 
 627      94EDD4AB 
 628 01e4 F37675EA 		.ascii	"\363vu\352\256\355\324\334I\267\336\260\2333\263\267"
 628      AEEDD4DC 
 628      49B7DEB0 
ARM GAS  /tmp/cch4md0g.s 			page 49


 628      9B33B3B7 
 629 01f4 6FDA94D4 		.ascii	"o\332\224\324*\267\354;\365\231f\303\276Z\032\037\035"
 629      2AB7EC3B 
 629      F59966C3 
 629      BE5A1A1F 
 629      1D
 630 0205 D1DFB10B 		.ascii	"\321\337\261\013ssv\243\351\215\216LT\275\312y\007\320"
 630      737376A3 
 630      E98D8E4C 
 630      54BDCA79 
 630      07D0
 631 0217 FD0DCF2A 		.ascii	"\375\015\317*\364\023"
 631      F413
 632              		.text
 633              		.section	.gnu.lto_dmaStreamAllocate.54e382a52e06511,"",%progbits
 634 0000 789CA554 		.ascii	"x\234\245TMHTQ\024>\347\276\337\371\363o\224q\026\212"
 634      4D485451 
 634      143EE7BE 
 634      DFF9F36F 
 634      9471168A 
 635 0014 B86951F9 		.ascii	"\270iQ\371J\333\264k%\270h\021)\024\0042\216\242\203"
 635      4ADBB46B 
 635      25B86811 
 635      29140432 
 635      8EA283
 636 0027 3D279C29 		.ascii	"='\234)\214\026\276q\206p)\021E\005\241\224\233(Z\005"
 636      8C16BE71 
 636      86702911 
 636      4505A194 
 636      9B285A05 
 637 003b 4A49629B 		.ascii	"JIb\233\310~\010Z\244\233\244E\013\015\013$\010\013"
 637      C87E085A 
 637      A49BA445 
 637      0B0D0B24 
 637      080B
 638 004d A773EE9B 		.ascii	"\247s\356\233\367\006s\026\202\027\336w\357\373\356"
 638      F7067316 
 638      8217DE77 
 638      EFFBEE
 639 005c F9FBCEBD 		.ascii	"\371\373\316\275\\\001\002\376\037I\372Ni\000#4c\000"
 639      5C0102FE 
 639      1F49FA4E 
 639      69002334 
 639      6300
 640 006e 504CBD07 		.ascii	"PL\275\007\310\231B\230/\232\301\011*\237,p\302\212"
 640      C8994298 
 640      2F9AC109 
 640      2A9F2C70 
 640      C28A
 641 0080 50270FD1 		.ascii	"P'\017\321\237\306\030VQs\2154\241K\332\220\264\216"
 641      9FC61856 
 641      51738D34 
 641      A14BDA90 
 641      B48E
 642 0092 864B1B68 		.ascii	"\206K\033h\362\002MD\236\001a\\(\252\246\033&\216\237"
 642      F2024D44 
 642      9E01615C 
ARM GAS  /tmp/cch4md0g.s 			page 50


 642      28AAA61B 
 642      268E9F
 643 00a5 474E2A5A 		.ascii	"GN*Za\306qn\254\315\256/+wn.\026\246\235\277\305\"b"
 643      61C6716E 
 643      ACCDAE2F 
 643      2B776E2E 
 643      16A69DBF 
 644 00bc 0AA9C02E 		.ascii	"\012\251\300.\204$\3029\372\301\0269\011uw\305\256\357"
 644      8424C239 
 644      FAC11639 
 644      097577C5 
 644      AEEF
 645 00ce E297FBB7 		.ascii	"\342\227\373\267\342o\246'\246\234\035r\225\236\027"
 645      E26FA627 
 645      A69C1D72 
 645      959E17
 646 00dd 2A7ADA58 		.ascii	"*z\332Xv}*\026\327\212\305\267[\317\276\256`\254\031"
 646      767D2A16 
 646      D78AC5B7 
 646      5BCFBEAE 
 646      60AC19
 647 00f0 21858ACA 		.ascii	"!\205\212\312\240\243\215h\320J5\011\264\000C\220\000"
 647      A0A38D68 
 647      D04A3509 
 647      B4004390 
 647      00
 648 0101 4290C019 		.ascii	"B\220\300\031l\2050\377D\310JT\023(\265D? :\312t=C\003"
 648      6C8530FF 
 648      44C84A54 
 648      1328B544 
 648      3F203ACA 
 649 0119 438CA191 		.ascii	"C\214\241\221!\316\320D\246\\\201\006\005\307\231j\001"
 649      21CED044 
 649      A65C8106 
 649      05C7996A 
 649      01
 650 012a AE8E4637 		.ascii	"\256\216F7\341\253\020\364\240\240Iy\007\023\253s\353"
 650      E1AB10F4 
 650      A0A04979 
 650      0713AB73 
 650      EB
 651 013b 7FD404CE 		.ascii	"\177\324\004\316\242\006\203h\034\206GNM\012\365{p\227"
 651      A2068368 
 651      1C86474E 
 651      4D0AF57B 
 651      7097
 652 014d 241883A8 		.ascii	"$\030\203\250\263\024S\326\337\347k!\267\315\3746z^"
 652      B31453D6 
 652      DFE76B21 
 652      B7CDFC36 
 652      7A5E
 653 015f 26393299 		.ascii	"&92\231\177\242xT\200\3354\344\315\222\3717\337<H\333"
 653      7FA27854 
 653      80DD34E4 
 653      CD92F937 
 653      DF3C48DB 
 654 0173 92ECF298 		.ascii	"\222\354\362\230\020\245\3139\2348p\015\266\235I^\005"
ARM GAS  /tmp/cch4md0g.s 			page 51


 654      10A5CB39 
 654      9C38700D 
 654      B69D495E 
 654      05
 655 0184 DDD6719C 		.ascii	"\335\326q\234\240\2376\377\334\317\020\226\201B\000"
 655      A09F36FF 
 655      DCCF1096 
 655      814200
 656 0193 AFA1F03D 		.ascii	"\257\241\360=\027\361iv\330ub=\250@\301`\251\313s\033"
 656      17F16976 
 656      D875623D 
 656      A840C160 
 656      A9CB731B 
 657 01a7 5B9A6BC8 		.ascii	"[\232k\310:i\334&\343\320Qx\314\3533)\014\373uD\374"
 657      3A69DC26 
 657      E3D05178 
 657      CCEB3329 
 657      0CFB7544 
 658 01bc 3AAA6C32 		.ascii	":\252l2w\353\250\222\361\006K\355\340\206`\211\211H"
 658      77EBA892 
 658      F1064BED 
 658      E0866089 
 658      8948
 659 01ce 3DCB9F2B 		.ascii	"=\313\237+\305\257>@|Qb\252\245\370\371\374\313\205"
 659      C5AF3E40 
 659      7C5162AA 
 659      A5F8F9FC 
 659      CB85
 660 01e0 239ED05A 		.ascii	"#\236\320ZO\177\271\221\373\351\"9\272\215\314o,\234"
 660      4F7FB991 
 660      FBE92239 
 660      BA8DCC6F 
 660      2C9C
 661 01f2 F4624589 		.ascii	"\364bE\211\225}+\262\365\356\206F+4T\205%\205\032\272"
 661      957D2BB2 
 661      F5EE8646 
 661      2B345485 
 661      25851ABA 
 662 0206 B4FA7BF3 		.ascii	"\264\372{\363\260gW\317\222\0139\312Y\343^\036\031\261"
 662      B06757CF 
 662      920B39CA 
 662      59E35E1E 
 662      19B1
 663 0218 CEF939E9 		.ascii	"\316\3719\351\2502\177]I\223R>\315y\3774\033(\200LD"
 663      A8327F5D 
 663      4993523E 
 663      CD79FF34 
 663      1B28804C 
 664 022d 8D42B9B9 		.ascii	"\215B\271\271\324U\356\344\376\303R$\257H\315=uR\272"
 664      D455EEE4 
 664      FEC35224 
 664      AF48CD3D 
 664      7552BA
 665 0240 55561AF3 		.ascii	"UV\032\363\224:;\312\036\251\261\012RuO\352\334\017"
 665      943A3BCA 
 665      1EA9B10A 
 665      52754FEA 
ARM GAS  /tmp/cch4md0g.s 			page 52


 665      DC0F
 666 0252 5F6AE381 		.ascii	"_j\343\201\244\306)\200'U\034Hj\334+\322`\251\037\340"
 666      A4C62980 
 666      27551C48 
 666      6ADC2BD2 
 666      60A91FE0 
 667 0266 BAE9E550 		.ascii	"\272\351\345P\375\013\020M\372\227T\037\304&\272\252"
 667      FD0B104D 
 667      FA97541F 
 667      C426BAAA 
 668 0276 29ACF7FC 		.ascii	")\254\367\374L~\003>\322\243\311\333\322l\005\2203)"
 668      4C7E033E 
 668      D2A3C9DB 
 668      D26C0590 
 668      3329
 669 0288 F4A23DFC 		.ascii	"\364\242=\374\205\024\310@~3\220\014\271\326Nk(m\017"
 669      8514C840 
 669      7E33900C 
 669      B9D64E6B 
 669      286D0F
 670 029b 58C974FF 		.ascii	"X\311t\377U\253\177\340\212\225\034J\365\245\322\031"
 670      55AB7FE0 
 670      8A951C4A 
 670      F5A5D219 
 671 02ab 2B3B7A79 		.ascii	"+;zyd\330\242\305P\342\242u)=\232\315Xg\273Ow\264\273"
 671      64D8A2C5 
 671      50E2A275 
 671      293D9ACD 
 671      5867BB4F 
 672 02c2 D879626C 		.ascii	"\330ybl\314\312d\355\216\366\336~;\321\226\204:\232"
 672      CCCA64ED 
 672      8EF6DE7E 
 672      3BD19684 
 672      3A9A
 673 02d4 7A33D9D1 		.ascii	"z3\331\321\201\204\235\351\265\023\231\341\266c{\251"
 673      81849DE9 
 673      B51399E1 
 673      B6637BA9 
 674 02e4 E3FF0075 		.ascii	"\343\377\000u\212R\222"
 674      8A5292
 675              		.text
 676              		.section	.gnu.lto_dmaStreamRelease.54e382a52e06511,"",%progbits
 677 0000 789C9552 		.ascii	"x\234\225RMh\023Q\020\236yo7\377mR\013\036\245\364\322"
 677      4D681351 
 677      109E796F 
 677      37FF6D52 
 677      0B1EA5F4 
 678 0015 83D285D6 		.ascii	"\203\322\205\326\233\367BEO\266\240 \2044-\351R\267"
 678      9BF74245 
 678      4FB6A020 
 678      84342DE9 
 678      52B7
 679 0027 916E2C15 		.ascii	"\221n,\025\017}i\"\344\220C\025\017\321^\254A\021A\304"
 679      0F7D6922 
 679      E4904315 
 679      0FD15EAC 
 679      411141C4 
ARM GAS  /tmp/cch4md0g.s 			page 53


 680 003b 9E048B96 		.ascii	"\236\004\213\226\322\203\227Z\204\236z\012\210\364V"
 680      D283975A 
 680      849E7A0A 
 680      88F456
 681 004a 3C8A48D7 		.ascii	"<\212H\327\231\267\3315\232\"\372 3\233o\346\373\346"
 681      99B7D935 
 681      9A22FA20 
 681      339B6FE6 
 681      FBE6
 682 005c 9BDD2740 		.ascii	"\233\335'@\300\237\347\"\375\276I\200y\312\030\005\024"
 682      C09FE722 
 682      FDBE4980 
 682      79CA1805 
 682      14
 683 006d AB1F01CA 		.ascii	"\253\037\001\3121!dm\010T\302\340\230\222h\370\260!"
 683      3121646D 
 683      0854C2E0 
 683      989268F8 
 683      B021
 684 007f CC7D8BE0 		.ascii	"\314}\213\340\310\346\031\202M\2140\214\021D\316\200"
 684      C8E61982 
 684      4D8C308C 
 684      1144CE80 
 685 008f B02CA461 		.ascii	"\260,\244aFp\371\032\262\266\030\204u\245\356\267\356"
 685      4670F91A 
 685      B2B61884 
 685      75A5EEB7 
 685      EE
 686 00a0 36EBE71E 		.ascii	"6\353\347\036>\330\252>V?<\017\321F\3621\216\220G\270"
 686      3ED8AA3E 
 686      563F3C0F 
 686      D146F231 
 686      8E9047B8 
 687 00b4 4A7F7040 		.ascii	"J\177p@'a\374n\314\347\252\215\347+q\315\223\232v\375"
 687      2761FC6E 
 687      CCE7AA8D 
 687      E72B71CD 
 687      939A76FD 
 688 00c8 449A83BF 		.ascii	"D\232\203\277x\257\304V\313\363\352\336\227\317k\330"
 688      78AFC456 
 688      CBF3EADE 
 688      97CF6BD8 
 689 00d8 10A7253A 		.ascii	"\020\247%:\210\006\330(M\012\020\345\247\030\005#\316"
 689      8806D828 
 689      4D0A10E5 
 689      A7180523 
 689      CE
 690 00e9 21C121C9 		.ascii	"!\301!\311\205\024\344p\035\007\241\207r\223r\232\301"
 690      8514E470 
 690      1D07A187 
 690      7293729A 
 690      C1
 691 00fa 0C873E0E 		.ascii	"\014\207>\016\375\034\350\230PUju\000\330\005\235\011"
 691      FD1CE898 
 691      50556A75 
 691      00D8059D 
 691      09
ARM GAS  /tmp/cch4md0g.s 			page 54


 692 010b 8ABCFA24 		.ascii	"\212\274\372$\012\316r\027V\016\336<\251_\310\341S4"
 692      0ACE7217 
 692      560EDE3C 
 692      A95FC8E1 
 692      5334
 693 011d A180C659 		.ascii	"\241\200\306Yx\24126\232k\360\210\314F\012(\331tT;\235"
 693      78A13236 
 693      9A6BF088 
 693      CC460A28 
 693      D974543B 
 694 0132 0A5D13ED 		.ascii	"\012]\023\355\250\262\201\001\313$\"\300\036\030>\000"
 694      A8B28101 
 694      CB2422C0 
 694      1E183E00 
 695 0142 7007BEAB 		.ascii	"p\007\276\253\032\353\304\362\350\223\250\311\306\270"
 695      1AEBC4F2 
 695      E893A8C9 
 695      C6B8
 696 0150 661E349A 		.ascii	"f\0364\232\365K\0015\372\367\201\3309\360(\034\030+"
 696      F54B0135 
 696      FAF781D8 
 696      39F0281C 
 696      182B
 697 0162 70C72E54 		.ascii	"p\307.T^\312\000\2123\315@.\352\366\315\312\273\260"
 697      5ECA008A 
 697      33CD402E 
 697      EAF6CDCA 
 697      BBB0
 698 0174 3D51688F 		.ascii	"=Qh\217\3564\235$\\\203\343\001\222\"\017e\305n\022"
 698      EE349D24 
 698      5C83E301 
 698      92220F65 
 698      C56E12
 699 0187 E10249FF 		.ascii	"\341\002I\377S\261x2\364Ry\033\216\355\321B\251N\241"
 699      53B17832 
 699      F452791B 
 699      8EEDD142 
 699      A94EA1
 700 019a 7F5121A2 		.ascii	"\177Q!\242/Ty\277s/\032\210\245\011\346\036\360\270"
 700      2F5479BF 
 700      732F1A88 
 700      A509E61E 
 700      F0B8
 701 01ac FD03EC1C 		.ascii	"\375\003\354\034\226{\302\232.t\236I\224P\033\242O\270"
 701      967BC29A 
 701      2E749E49 
 701      94501BA2 
 701      4FB8
 702 01be 7DD07856 		.ascii	"}\320xV7\203\306\014\277\321j\231\246\246\374w\252%"
 702      3783C60C 
 702      BFD16A99 
 702      A6A6FC77 
 702      AA25
 703 01d0 7BD5D79A 		.ascii	"{\325\327\2322\264\203\336\366\273\025'\355\323G\002"
 703      32B483DE 
 703      F6BB1527 
 703      EDD34702 
ARM GAS  /tmp/cch4md0g.s 			page 55


 704 01e0 BE05CF3B 		.ascii	"\276\005\317;N\353\352v{\257\377\323%\251\300\246\321"
 704      4EEBEA76 
 704      7BAFFFD3 
 704      25A9C0A6 
 704      D1
 705 01f1 BE6AB4ED 		.ascii	"\276j\264\355a\307\266\375\301\266\352Xv\255\333\177"
 705      61C7B6FD 
 705      C1B6EA58 
 705      76ADDB7F 
 706 0201 C2BA26EC 		.ascii	"\302\272&\354[r\017*\261\256k\226\316\267\247\332\230"
 706      5B720F2A 
 706      B1AE6B96 
 706      CEB7A7DA 
 706      98
 707 0212 09BA237A 		.ascii	"\011\272#z\352'(\267\326^\207\027\323?\023t\257\250"
 707      EA2728B7 
 707      D65E8717 
 707      D33F1374 
 707      AFA8
 708 0224 C894316B 		.ascii	"\310\2241k\266\350\314X\371\342\364mkzf\321\312\317"
 708      B6E8CC58 
 708      F9E2F46D 
 708      6B7A66D1 
 708      CACF
 709 0236 DA5376D1 		.ascii	"\332Sv\321\265J\013\267\346\347,z\230\315\335\260n\026"
 709      B54A0BB7 
 709      E6E72C7A 
 709      98CDDDB0 
 709      6E16
 710 0248 174AAE75 		.ascii	"\027J\256ue\342\362\350\210\037\307\316/-Yn\311\031"
 710      65E2F2E8 
 710      881FC7CE 
 710      2F2D596E 
 710      C919
 711 025a 1DC94E3B 		.ascii	"\035\311N;\271\341<\234\242\224uK\01339\307\315:9wn"
 711      B9E13C9C 
 711      A294754B 
 711      0B3339C7 
 711      CD3A3977 
 712 026f 78A41B1A 		.ascii	"x\244\033\032\375\011O\312\013u"
 712      FD094FCA 
 712      0B75
 713              		.text
 714              		.section	.gnu.lto_.symbol_nodes.54e382a52e06511,"",%progbits
 715 0000 789C4DCF 		.ascii	"x\234M\317\313.\203Q\024\305\361}\326\371\276\336\357"
 715      CB2E8351 
 715      14C5F17D 
 715      D6F9BEDE 
 715      EF
 716 0011 687D22F1 		.ascii	"h}\"\361\250\253nUmQ\212\010a\300\233hb`\300\300\013"
 716      A8AB6E55 
 716      6D518A08 
 716      61C09B68 
 716      6260C0C0 
 717 0026 103AF30A 		.ascii	"\020:\363\012J\223\275\243\373\314~\347\177\326\340"
 717      4A93BDA3 
 717      FBCC7EE7 
ARM GAS  /tmp/cch4md0g.s 			page 56


 717      7FD6E0
 718 0035 40202388 		.ascii	"@ #\210\036\\\203\"\343\027\021\362\266\037p\003\006"
 718      1E5C8322 
 718      E31711F2 
 718      B61F7003 
 718      06
 719 0046 C71D10C6 		.ascii	"\307\035\020\306\273~H\267!\011#v\301\270\274\305\036"
 719      BB7E48B7 
 719      21092376 
 719      C1B8BCC5 
 719      1E
 720 0057 9838EE83 		.ascii	"\2308\356\203\251c\017\3149\036\200y\307>Xp<\004\213"
 720      A9630FCC 
 720      391E8079 
 720      C73E5870 
 720      3C048B
 721 006a 8E03B0E4 		.ascii	"\216\003\260\3448\004\313\216#\260\342x\004V\035\217"
 721      3804CB8E 
 721      23B0E278 
 721      04561D8F 
 722 007a C19AE309 		.ascii	"\301\232\343\011Xw\034\203\015\307S\260\351x\006\266"
 722      58771C83 
 722      0DC753B0 
 722      E97806B6 
 723 008a DCB7BB08 		.ascii	"\334\267\273\010\213o\247\277\001)\005\023p\305\275"
 723      8B6FA7BF 
 723      01290513 
 723      70C5BD
 724 0099 3D075797 		.ascii	"=\007W\227\014\227\340\232\262\333\015\341\002l/u\005"
 724      0C97E09A 
 724      B2DB0DE1 
 724      026C2F75 
 724      05
 725 00aa 76FE1565 		.ascii	"v\376\025e]\246\317\257\233\021\231|~\314C\002y\373"
 725      5DA6CFAF 
 725      9B11997C 
 725      7ECC4302 
 725      79FB
 726 00bc F90A31C9 		.ascii	"\371\0121\311\344\241\367\275\225$2yZ\324\324\230*s"
 726      E4A1F7BD 
 726      95243279 
 726      5AD4D498 
 726      2A73
 727 00ce C69C326F 		.ascii	"\306\2342o\333\274n\013V\013Z\213\306\242\262d,)\313"
 727      DBBC6E0B 
 727      560B5A8B 
 727      C6A2B264 
 727      2C29CB
 728 00e1 B62DEBB6 		.ascii	"\266-\353\266b\265\242\265j\254*k\306\232\262n\333\272"
 728      62B5A2B5 
 728      6AAC2A6B 
 728      C69AB26E 
 728      DBBA
 729 00f3 6E1B561B 		.ascii	"n\033V\033Z\233\306\246\262el)\333\"\367\303Y\026;\033"
 729      5A9BC6A6 
 729      B2656C29 
 729      DB22F7C3 
ARM GAS  /tmp/cch4md0g.s 			page 57


 729      59163B1B 
 730 0107 327D9F87 		.ascii	"2}\237\207\330\011\3628\230e\362\007\243?\312\023"
 730      D809F238 
 730      9865F207 
 730      A33FCA13 
 731              		.text
 732              		.section	.gnu.lto_.refs.54e382a52e06511,"",%progbits
 733 0000 789C25C6 		.ascii	"x\234%\306\011\016\2000\014\003A7)\367\015\001\336\312"
 733      090E8030 
 733      0C034137 
 733      29F70D01 
 733      DECA
 734 0012 EF298B57 		.ascii	"\357)\213W\032\331dz\364\317L.\267\214\025\326\330`"
 734      1AD9647A 
 734      F4CF4C2E 
 734      B78C15D6 
 734      D860
 735 0024 8B1DF638 		.ascii	"\213\035\3668\340\210\023\316\270\340\212\033\356\237"
 735      E08813CE 
 735      B8E08A1B 
 735      EE9F
 736 0032 7EA4D099 		.ascii	"~\244\320\231<_\212\344\245\260\273\274\320\013\227"
 736      3C5F8AE4 
 736      A5B0BBBC 
 736      D00B97
 737 0041 770276   		.ascii	"w\002v"
 738              		.text
 739              		.section	.gnu.lto_.decls.54e382a52e06511,"",%progbits
 740 0000 789CBD5A 		.ascii	"x\234\275Z{p\024E\032\357\236\335dw\223\000\001J\004"
 740      7B701445 
 740      1AEF9EDD 
 740      64779300 
 740      014A04
 741 0013 CB3A7296 		.ascii	"\313:r\226\336\303S6\020\300\234/\010\341YE\274\324"
 741      DEC35336 
 741      10C09C2F 
 741      08E15945 
 741      BCD4
 742 0025 061F7575 		.ascii	"\006\037uuU\313\230l\310\226I\0267\013\205\1779$ \250"
 742      55CB986C 
 742      C8964916 
 742      370B857F 
 742      392420A8 
 743 0039 28111088 		.ascii	"(\021\020\210\020 \"'\236\017\020\016\302\233\005\037"
 743      10202227 
 743      9E0F100E 
 743      C29B051F 
 744 0049 41519E0A 		.ascii	"AQ\236\012\026\012\344<\274SD\210`0\212\262\367u\317"
 744      160AE43C 
 744      BC534488 
 744      60308AB2 
 744      F775CF
 745 005c B37B6766 		.ascii	"\263{gfg).[\365\365\364\356\364\367\373\375\272\373"
 745      67292E5B 
 745      F5F5F4EE 
 745      F4F7FBFD 
 745      BAFB
ARM GAS  /tmp/cch4md0g.s 			page 58


 746 006e EB996F7A 		.ascii	"\353\231ozV@\002\272#\033\241\004|&\347#tk\006B\375"
 746      564002BA 
 746      231BA104 
 746      7C26E723 
 746      746B0642 
 747 0083 1042F783 		.ascii	"\020B\367\203a\260\026$\177\372\203\255\003;\013v\036"
 747      61B01624 
 747      7FFA83AD 
 747      033B0B76 
 747      1E
 748 0094 EC225827 		.ascii	"\354\"X'X\027\330\025\260\253\244=8\270\301<`Y`=\300"
 748      5817D815 
 748      B0ABA43D 
 748      38B8C13C 
 748      6059603D 
 749 00a9 72C1FA82 		.ascii	"r\301\372\202\365\003\033\000v3\330@\260[\300\374`\303"
 749      F5031B00 
 749      7633D840 
 749      B05BC0FC 
 749      60C3
 750 00bb C0EE06BB 		.ascii	"\300\356\006\273\027\314\005\030#\341X\002\366\027\214"
 750      17CC0518 
 750      23E15802 
 750      F6178C
 751 00ca 980FE1EE 		.ascii	"\230\017\341\356\0136\002\254'X\016\230\007l\007\330"
 751      0B3602AC 
 751      27580E98 
 751      076C07D8 
 752 00da 6145AB1B 		.ascii	"aE\253\033\354m\260\020|\331\014\307M`\357\200\355\004"
 752      EC6DB010 
 752      7CD90CC7 
 752      4D60EF80 
 752      ED04
 753 00ec AB84DFA6 		.ascii	"\253\204\337\246`\271?Up\034\016\226\011\365\355`{\301"
 753      60B93F55 
 753      701C0E96 
 753      09F5ED60 
 753      7BC1
 754 00fe 0E811D05 		.ascii	"\016\201\035\005\373\030\354$\230\240p\022}\004\227"
 754      FB18EC24 
 754      98A07012 
 754      7D0497
 755 010d 68FA371C 		.ascii	"h\3727\034\377\013\366\025+\215\216\211G\3413j#\334"
 755      FF0BF615 
 755      2B8D8E89 
 755      47E1336A 
 755      23DC
 756 011f 61F07B1D 		.ascii	"a\360{\035\313\372f+\307\263\212\336\022\256\217d\\"
 756      CBFA662B 
 756      C7B38ADE 
 756      12AE8F64 
 756      5C
 757 0130 7B83ADE1 		.ascii	"{\203\255\341p\336R\372M\360\336\000\237\255J?F\301"
 757      70DE52FA 
 757      4DF0DE00 
 757      9FAD4A3F 
 757      46C1
ARM GAS  /tmp/cch4md0g.s 			page 59


 758 0142 B1086C9B 		.ascii	"\261\010l\233\242\361e\322\037\250_P\307\002\352\233"
 758      A2F165D2 
 758      1FA85F50 
 758      C702EA9B 
 759 0152 C0C6814D 		.ascii	"\300\306\201M\300r\237\010\307\335\212\216\221\034\377"
 759      C0729F08 
 759      C7DD8A8E 
 759      911CFF
 760 0161 C534F809 		.ascii	"\3054\370\011>\257\301\011\377E\033\376\316n\340\357"
 760      3EAFC109 
 760      FF451BFE 
 760      CE6EE0EF 
 761 0171 B4E1EFEA 		.ascii	"\264\341\357\352\006\376.\033\376+\327y\3767B\275\225"
 761      06FE2E1B 
 761      FE2BD779 
 761      FE3742BD 
 761      95
 762 0182 E3BF62C3 		.ascii	"\343\277b\303\177\365:\367\337\214\377\252\015?\271"
 762      7FF53AF7 
 762      DF8CFFAA 
 762      0D3FB9
 763 0191 7EFCBFF9 		.ascii	"~\374\277\3711\266\346ww\003\277\333\206\337\223\006"
 763      31B6E677 
 763      7703BFDB 
 763      86DF9306 
 764 01a1 FFB5AE7F 		.ascii	"\377\265\256\177\217\015\177\326u\356\277\031\177\226"
 764      8F0D7FD6 
 764      75EEBF19 
 764      7F96
 765 01af 0D7F8F6E 		.ascii	"\015\177\217n\340\357a\303\237\333\015\374\2716\374"
 765      E0EF61C3 
 765      9FDB0DFC 
 765      B936FC
 766 01be 7DAFF3FC 		.ascii	"}\257\363\374\233\305__\033\376~\335\020\377\375l\370"
 766      9BC55F5F 
 766      1BFE7EDD 
 766      10FFFD6C 
 766      F8
 767 01cf 077403FF 		.ascii	"\007t\003\377\000\033\376\233\273\201\377f\033~\222"
 767      001BFE9B 
 767      BB81FF66 
 767      1B7E92
 768 01de 17F5517C 		.ascii	"\027\365Q|U\376\035\212\236\035X\317kJ\341\270\023\353"
 768      55FE1D8A 
 768      9E1D58CF 
 768      6B4AE1B8 
 768      13EB
 769 01f0 B90DAF43 		.ascii	"\271\015\257C\325\230\201\364\374f\234\022\213\255\012"
 769      D59881F4 
 769      FC669C12 
 769      8BAD0A
 770 01ff 37E122F9 		.ascii	"7\341\"\371\226\232k\361ZH~v\203\322\177U\013\311\255"
 770      969A6BF1 
 770      5A487E76 
 770      83D27F55 
 770      0BC9AD
 771 0212 B0A26F0A 		.ascii	"\260\242o\012\326s,U\037\257C\03535\007\332\005\266"
ARM GAS  /tmp/cch4md0g.s 			page 60


 771      D6732C55 
 771      1FAF431D 
 771      333507DA 
 771      05B6
 772 0224 5EF1FF1C 		.ascii	"^\361\377\034\351\3432[\031\033\302Ir\256LE\327\037"
 772      E9E3325B 
 772      191BC249 
 772      72AE4C45 
 772      D71F
 773 0236 C1FE0476 		.ascii	"\301\376\004v\007\330\355&\032\375\312|\0315\232\351"
 773      07D8ED26 
 773      1AFDCA7C 
 773      19359AE9 
 774 0246 DB0DF5FB 		.ascii	"\333\015\365\373\260\256\323\250)\016\366-\222\307\342"
 774      B0AED3A8 
 774      290EF62D 
 774      92C7E2
 775 0255 A4A26BB6 		.ascii	"\244\242k\26626\004\237\344\245$_\023\024M\005\234\206"
 775      3236049F 
 775      E4A5245F 
 775      13144D05 
 775      9C86
 776 0267 6CF48C24 		.ascii	"l\364\214$\325K\253\236\222\306\357\353\331\017\275"
 776      D54BAB9E 
 776      92C6EFEB 
 776      D90FBD
 777 0276 28C107BE 		.ascii	"(\301\007\276H8&\342\373o@\217`\021\367\364\241<Z\311"
 777      483826E2 
 777      FB6F408F 
 777      6011F7F4 
 777      A13C5AC9 
 778 028a F1516908 		.ascii	"\361Qi\010\211\370e\334\217\326\\\024\030~\030\221\255"
 778      89F865DC 
 778      8FD65C14 
 778      187E1891 
 778      AD
 779 029b D67D68AE 		.ascii	"\326}h\256\216\210L\021nC\257HRc\373{_\266\013\222\344"
 779      8E884C11 
 779      6E43AF48 
 779      5263FB7B 
 779      5FB60B92 
 780 02b0 15F11AEC 		.ascii	"\025\361\032\354\003\337\337ct;z\015\370\033\301\377"
 780      03DFDF63 
 780      743B7A0D 
 780      F81BC1FF 
 781 02c0 2694FC71 		.ascii	"&\224\374q\216|\372_\373]\024\3715\212\\\215A\341Z|"
 781      8E7CFA5F 
 781      FB5D14F9 
 781      358A5C8D 
 781      41E15A7C 
 782 02d4 BB822362 		.ascii	"\273\202#b\217\317\210K\277\253\015\010\030=\255T\310"
 782      8FCF884B 
 782      BFAB0D08 
 782      183DAD54 
 782      C8
 783 02e5 83452F74 		.ascii	"\203E/t\015\315E\374\240K\363\261\323:\347\273\006\\"
 783      0DCD45FC 
ARM GAS  /tmp/cch4md0g.s 			page 61


 783      A04BF3B1 
 783      D33AE7BB 
 783      065C
 784 02f7 0F232EE2 		.ascii	"\017#.\342\026\234\015jwaV.3E\362\320[M\313[\000`t5"
 784      169C0D6A 
 784      7761562E 
 784      3345F2D0 
 784      5B4DCB5B 
 785 030f 8AE6CE0D 		.ascii	"\212\346\316\015D+\244x{\373\366\003\037Mij\214\317"
 785      442BA478 
 785      7BFBF603 
 785      1F4D696A 
 785      8CCF
 786 0321 92128927 		.ascii	"\222\022\211'\0213\377^4\207\320\266\317\226f\342\307"
 786      1133FF5E 
 786      3487D0B6 
 786      CF9666E2 
 786      C7
 787 0332 B51E7855 		.ascii	"\265\036xUJ\254\366\200L\227 \342\267\261\027\264/\022"
 787      4AACF680 
 787      4C9720E2 
 787      B7B117B4 
 787      2F12
 788 0344 7012B5C2 		.ascii	"p\022\265\302O\032\250C!\327\325\0326\037\037\342\264"
 788      4F1AA843 
 788      21D7D51A 
 788      361F1FE2 
 788      B4
 789 0355 9E8D3366 		.ascii	"\236\2153f(\372\240\027\250Z\020k\010\207\311*D\216"
 789      28FAA017 
 789      A85A106B 
 789      0887C92A 
 789      448E
 790 0367 6188DBCE 		.ascii	"a\210\333\316\024@8(\016yV\255E\334\212oC\251Z\221v"
 790      14403828 
 790      0E7956AD 
 790      45DC8A6F 
 790      43A95A91 
 791 037c 5B711F65 		.ascii	"[q\037e,\345!\210w\036\310\221\334\362\357\310b\006"
 791      2CE52188 
 791      771EC891 
 791      DCF2EFC8 
 791      6206
 792 038e E0F35B04 		.ascii	"\340\363[\004b\353\343?>\337<@Z\265\027\233\365\306"
 792      62EBE33F 
 792      3EDF3C40 
 792      5AB5179B 
 792      F5C6
 793 03a0 480B6B5B 		.ascii	"H\013k[\341\355\257\367\245\363\310\017\0054\264w\002"
 793      E1EDAFF7 
 793      A5F3C80F 
 793      0534B477 
 793      02
 794 03b1 97808E09 		.ascii	"\227\200\216\011l\260\244\204!\362\342\274\374\215\007"
 794      6CB0A484 
 794      21F2E2BC 
 794      FC8D07
ARM GAS  /tmp/cch4md0g.s 			page 62


 795 03c0 A9FC786A 		.ascii	"\251\374xj\371\263\032\342\255\007\027Q\371t96\330."
 795      F9B31AE2 
 795      AD071751 
 795      F9743936 
 795      D82E
 796 03d2 4711FF1D 		.ascii	"G\021\377\035F\324\311\202\021\3207\264'D\202\031\222"
 796      46D4C982 
 796      11D037B4 
 796      27448219 
 796      92
 797 03e3 52655613 		.ascii	"ReV\023+k\313\301\234FQ\304\357\320\025\177.m\260<\006"
 797      2B6BCBC1 
 797      9C4651C4 
 797      EFD0157F 
 797      2E6DB03C 
 798 03f8 6C9B11EC 		.ascii	"l\233\021\354{'`^ke;\214`\235i\203\261\312v\031\301"
 798      7B27605E 
 798      6B653B8C 
 798      609D6983 
 798      B1CA7619 
 799 040d 7E760296 		.ascii	"~v\002\226k\255\354\220\021,\2216X\236Y\224\240\244"
 799      6BADEC90 
 799      112C9136 
 799      589E5994 
 799      A0A4
 800 041f 2013F11E 		.ascii	" \023\361\036\032\005{\361o\241|\217\226m\264\374\200"
 800      1A057BF1 
 800      6FA17C8F 
 800      966DB4FC 
 800      80
 801 0430 96FB69F9 		.ascii	"\226\373i\3711\224\332\307\352z\260\003\026\215\362"
 801      3194DAC7 
 801      EA7AB003 
 801      168DF2
 802 043f 1150830B 		.ascii	"\021P\203\013+k\361\032\"F\252\207+\357\251\325xa\203"
 802      2B6BF11A 
 802      2246AA87 
 802      2BEFA9D5 
 802      786183
 803 0452 B42F9FBB 		.ascii	"\264/\237\273\304\222\361\260Rp\330\250\340\231\264"
 803      C492F1B0 
 803      5270D8A8 
 803      E099B4
 804 0461 15E41915 		.ascii	"\025\344\031\025\304\257\034X~\243\324\036\307\312\235"
 804      C4AF1C58 
 804      7EA3D41E 
 804      C7CA9D
 805 0470 AD7D8DD4 		.ascii	"\255}\215\324\177\251\276\224\222\257\265p\317<v\003"
 805      7FA9BE94 
 805      92AFB570 
 805      CF3C7603 
 806 0480 59A99FD0 		.ascii	"Y\251\237\320\031\233\357b\027\277s\230\323\337\357"
 806      199BEF62 
 806      17BF7398 
 806      D3DFEF
 807 048f 916F90C7 		.ascii	"\221o\220\307)\320\022\027\177\207\304\334\035\022\263"
 807      29D01217 
ARM GAS  /tmp/cch4md0g.s 			page 63


 807      7F87C4DC 
 807      1D12B3
 808 049e 2B18FBF4 		.ascii	"+\030\373\364J\202\275\344\247l+\240\026~\330\030\211"
 808      4A82BDE4 
 808      A76C2BA0 
 808      167ED818 
 808      89
 809 04af 29161499 		.ascii	")\026\024\231\270\266\323\013\361\245zii\276:\022k\323"
 809      B8B6D30B 
 809      F1A57A69 
 809      69BE3A12 
 809      6BD3
 810 04c1 46F43213 		.ascii	"F\3642\023\321x0{\375d\025lC\332`\271I\321/\307\375"
 810      D178307B 
 810      FD64156C 
 810      43DA60B9 
 810      49D12FC7 
 811 04d6 361AF7DB 		.ascii	"6\032\367\333i|\037\242\345QZ~N\313\223\306\210\027"
 811      697C1FA2 
 811      E5515A7E 
 811      4ECB93C6 
 811      8817
 812 04e8 D0D6A449 		.ascii	"\320\326\244I\220o'\006T\375\276\203\234\342Z\305\361"
 812      906F2706 
 812      54FDBE83 
 812      9CE25AC5 
 812      F1
 813 04f9 263D8EB5 		.ascii	"&=\216\265$n\215<\353\332\367\026\271\015\223\311\010"
 813      246E8D3C 
 813      EBDAF716 
 813      B90D93C9 
 813      08
 814 050a E8234EE7 		.ascii	"\350#N\347\255h\265$- \231\304\253xq\2034^\306\026\320"
 814      AD68B524 
 814      2D2099C4 
 814      AB787183 
 814      345EC616 
 815 051f 57B4DD3A 		.ascii	"W\264\335:<\320\342\326@\025\310\316\361M\247^\201{"
 815      3CD0E2D6 
 815      4015C8CE 
 815      F14DA75E 
 815      817B
 816 0531 8AA0A682 		.ascii	"\212\240\246\202\347R\270R\241\212k\353\251WeW9{\352"
 816      E752B852 
 816      A18A6BEB 
 816      A9576557 
 816      397BEA
 817 0544 4CE1AAF4 		.ascii	"L\341\252\364\351wh\015q\336\270b{\013\2262\325\214"
 817      E977680D 
 817      71DEB862 
 817      7B0B9632 
 817      D58C
 818 0556 84716466 		.ascii	"\204qdf]\031\265/\261`\234\0219\211\212w\234\236\347"
 818      5D19B52F 
 818      B1609C11 
 818      39898A77 
 818      9C9EE7
ARM GAS  /tmp/cch4md0g.s 			page 64


 819 0569 6D9CD99E 		.ascii	"m\234\331\236H\014t\236A\177\253d6\372\340\302\345\234"
 819      480C749E 
 819      417FAB64 
 819      36FAE0C2 
 819      E59C
 820 057b 1B594526 		.ascii	"\033YE&$Xk%\027E#\355\317\202D&*\316%\213Z\325\036O"
 820      24586B25 
 820      174523ED 
 820      CF824426 
 820      2ACE258B 
 821 0593 B4EDC3D2 		.ascii	"\264\355\303\322\002\351\227D\302\205\234\313\272`\""
 821      02E99744 
 821      C2859CCB 
 821      BA6022
 822 05a2 6B81DB54 		.ascii	"k\201\333T\226\304\312:\317\313\3520\225u\344\303\034"
 822      96C4CA3A 
 822      CFCBEA30 
 822      9575E4C3 
 822      1C
 823 05b3 79A8642E 		.ascii	"y\250d.\001-s\204~\221G\277d\212\276x?\207\376\212#"
 823      012D7384 
 823      7E9147BF 
 823      648ABE78 
 823      3F87FE8A 
 824 05c8 F44E1EFD 		.ascii	"\364N\036\375\262)\372\011\036\375MG\350]<\372O\246"
 824      B229FA09 
 824      1EFD4D47 
 824      E85D3CFA 
 824      4FA6
 825 05da E82B0E70 		.ascii	"\350+\016p\350\233\035\241_\341\321\1771E\277\310\243"
 825      E89B1DA1 
 825      5FE1D17F 
 825      3145BFC8 
 825      A3
 826 05eb EF76847E 		.ascii	"\357v\204~\225GO\230\242o>\310\241\357s\204>S\340\320"
 826      95474F98 
 826      A26F3EC8 
 826      A1EF7384 
 826      3E53E0D0 
 827 05ff EB0533F4 		.ascii	"\353\0053\364\237y\364\303\216\320g\361\350\263M\321"
 827      9F79F4C3 
 827      8ED067F1 
 827      E8B34DD1 
 828 060f 771DE1D0 		.ascii	"w\035\341\320O8B\237\303\243\3175E_p\224C?\343\010\375"
 828      4F38429F 
 828      C3A3CF35 
 828      455F7094 
 828      433FE308 
 829 0624 191EFD59 		.ascii	"\031\036\375YS\364c<\372yG\350\317\361\350\317\233\242"
 829      53F4633C 
 829      FA7947E8 
 829      CFF1E8CF 
 829      9BA2
 830 0636 BF748C43 		.ascii	"\277t\214C\357r\204\336\310\243\277`\212~\212G\257\317"
 830      EF7284DE 
 830      C8A3BF60 
 830      8A7E8A47 
ARM GAS  /tmp/cch4md0g.s 			page 65


 830      AFCF
 831 0648 7082BE90 		.ascii	"p\202\276\220G_d\212\276\3418\207>\317\021\372b\036"
 831      475F648A 
 831      BEE13887 
 831      3ECF11FA 
 831      621E
 832 065a 7D8929FA 		.ascii	"}\211)\372e\036}\261#\364&\036\375%S\364m'8\364U\216"
 832      651E7DB1 
 832      23F4261E 
 832      FD2553F4 
 832      6D2738F4 
 833 0670 D097F3E8 		.ascii	"\320\227\363\350\315\246\350K\226\355\327n\014*\301"
 833      CDA6E84B 
 833      96EDD76E 
 833      0C2AC1
 834 067f 3F1C11AC 		.ascii	"?\034\021\254\344\011V\231\017\375)Y\376\312\221\334"
 834      E4095699 
 834      0FFD2959 
 834      FECA91DC 
 835 068f 7D87DC64 		.ascii	"}\207\334d\255n<\253\005nG\211\244\007\2512\023\343"
 835      AD6E3CAB 
 835      056E4789 
 835      A407A932 
 835      13E3
 836 06a1 F6134A4A 		.ascii	"\366\023JJT6d\230%*\322\247!%E\021\361\031\270\230\211"
 836      54366498 
 836      252AD2A7 
 836      21254511 
 836      F119B898 
 837 06b6 F86521ED 		.ascii	"\370e!\355\024E\304\377I\341j\231\242\210\370\353\024"
 837      1445C4FF 
 837      49E16A99 
 837      A288F8EB 
 837      14
 838 06c7 AE2D06D6 		.ascii	"\256-\006\326\255+V\312\256#Hr\363.\355\221\265\347"
 838      AD2B56CA 
 838      AE234872 
 838      F32EED91 
 838      B5E7
 839 06d9 083DB7A9 		.ascii	"\010=\267\251O\316m\014~f\271\315Z\323\311\3548m1\231"
 839      4FCE6D0C 
 839      7E66B9CD 
 839      5AD3C9EC 
 839      386D3199 
 840 06ed 3649C47A 		.ascii	"6I\304z\263\271\344&\347C\363\3119\312O\316:\373\311"
 840      B3B9E426 
 840      E743F3C9 
 840      39CA4FCE 
 840      3AFBC9
 841 0700 D102F539 		.ascii	"\321\002\3659iv.\326\"u\035\037\251\033\222;\327\336"
 841      69762ED6 
 841      22751D1F 
 841      A91B923B 
 841      D7DE
 842 0712 D8FEE3F9 		.ascii	"\330\376\343\371\216\001K7H\263\236\226\256&\236\304"
 842      8E014B37 
 842      48B39E96 
ARM GAS  /tmp/cch4md0g.s 			page 66


 842      AE269EC4 
 843 0722 CE3BB899 		.ascii	"\316;\270\231\357 \231m>X\271\016/\313\344\227\230\334"
 843      EF20996D 
 843      3E58B90E 
 843      2FCBE497 
 843      98DC
 844 0734 68ABA9B2 		.ascii	"h\253\251\262-\227:\376\326$\355\225\367\345\324Uz\326"
 844      2D973AFE 
 844      D624ED95 
 844      F7E5D455 
 844      7AD6
 845 0746 0262BB29 		.ascii	"\002b\273)\304\345\363]\0034\010\347}\333i\3267\256"
 845      C4E5F35D 
 845      033408E7 
 845      7DDB69D6 
 845      37AE
 846 0758 2FBF5A08 		.ascii	"/\277Z\010\331\315\012\271\005\265H\361C\355\333\237"
 846      D9CD0AB9 
 846      05B548F1 
 846      43EDDB9F 
 847 0768 FF61265E 		.ascii	"\377a&^(I\373$)\236H\340\201\275Q\243\262G\245n\341"
 847      2849FB24 
 847      299E48E0 
 847      81BD51A3 
 847      B247A56E 
 848 077d 8D346C20 		.ascii	"\2154l \2154>a\311\217\253\361\3466\234'\342\275\002"
 848      8D343E61 
 848      C98FABF1 
 848      E6369C27 
 848      E2BD02
 849 0790 D9F19AEF 		.ascii	"\331\361\232\3571\335\361\262\306 \302\336\023\270\035"
 849      31DDF1B2 
 849      C620C2DE 
 849      13B81D
 850 079f AF256D74 		.ascii	"\257%mt\307\213\374\236z\303\256\251m9\335\361R\237"
 850      C78BFC9E 
 850      7AC3AEA9 
 850      6D39DDF1 
 850      529F
 851 07b1 31565209 		.ascii	"1VR\011\304\367\2326\036\342\313\3464+xtU\257M\033."
 851      C4F79A36 
 851      1EE2CBE6 
 851      342B7874 
 851      55AF4D1B 
 852 07c6 CF4CAC3A 		.ascii	"\317L\254:\011z_E\374\276"
 852      097A5F45 
 852      FCBE
 853 07d0 401E40DB 		.ascii	"@\036@\333\004\272\331\"$?\026J\332\205@\302\212\373"
 853      04BAD922 
 853      243F164A 
 853      DA8540C2 
 853      8AFB
 854 07e2 1EA137AD 		.ascii	"\036\2417\255\321\315\004I\333\023\311\261\336\022\331"
 854      D1CD0449 
 854      DB13C9B1 
 854      DE12D9
 855 07f1 2FF834CC 		.ascii	"/\3704\314\034\237^Q\267\315\341J\254\315\2315\357G"
ARM GAS  /tmp/cch4md0g.s 			page 67


 855      1C9F5E51 
 855      B7CDE14A 
 855      ACCD9935 
 855      EF47
 856 0803 7AEC90B8 		.ascii	"z\354\220\270\221\216\304[\333\310Fc\275\004\2133\201"
 856      918EC45B 
 856      DBC84663 
 856      BD048B33 
 856      81
 857 0814 D547C338 		.ascii	"\325G\3038\017\225$\347\000\013\324q(\276\361\251f\254"
 857      0F9524E7 
 857      000BD471 
 857      28BEF1A9 
 857      66AC
 858 0826 01E9D107 		.ascii	"\001\351\321\007\353X\177\306\227rT\234\270\254\310"
 858      EB587FC6 
 858      9772549C 
 858      B8ACC8
 859 0835 D86E8B4D 		.ascii	"\330n\213M;\021\037VFL\037\011\376+d\254I#\220\214s"
 859      3B111F56 
 859      464C1F09 
 859      FE2B64AC 
 859      4923908C 
 860 084a 0484FF06 		.ascii	"\004\204\377\006\235\3614Kr\330\016E\033\245\271q)\003"
 860      9DF1344B 
 860      72D80E45 
 860      1BA5B971 
 860      2903
 861 085c 9EF18141 		.ascii	"\236\361\201A\213$\371\347RY\275\274\013@\316\221\255"
 861      8B24F9E7 
 861      5259BDBC 
 861      0B40CE91 
 861      AD
 862 086d B1C6F8D3 		.ascii	"\261\306\370\323\222\033\311{\002\3447\262Y5W\371\355"
 862      921BC97B 
 862      02E437B2 
 862      593557F9 
 862      ED
 863 087e A8F21BBD 		.ascii	"\250\362\033\2758\311[\005\206\257'\365\257\331Zt`;"
 863      38C95B05 
 863      86AF27F5 
 863      AFD95A74 
 863      603B
 864 0890 AEB5CEB8 		.ascii	"\256\265\316\2702Y.\314r\345h\\\202\035W\334\031W.\313"
 864      32592ECC 
 864      72E5685C 
 864      821D57DC 
 864      19572ECB 
 865 08a4 25B05C3D 		.ascii	"%\260\\=4.\227\035\327g\316\270\372\261\\.\226K\277"
 865      342E971D 
 865      D767CEB8 
 865      FAB15C2E 
 865      964BBF
 866 08b7 14B9EDB8 		.ascii	"\024\271\355\270:L\270\346\245\234/7\313\325K\343\312"
 866      3A4CB8E6 
 866      A59C2F37 
 866      CBD54BE3 
ARM GAS  /tmp/cch4md0g.s 			page 68


 866      CA
 867 08c8 B0E39ABB 		.ascii	"\260\343\232\273\307\021\0277_\031,W\256\306\225i\307"
 867      C7111737 
 867      5F192C57 
 867      AEC69569 
 867      C7
 868 08d9 B5CA1917 		.ascii	"\265\312\031\0277_\231,Wo\215\313c\307\265\305\031\027"
 868      375F992C 
 868      576F8DCB 
 868      63C7B5C5 
 868      1917
 869 08eb 375F1E96 		.ascii	"7_\036\226\313o\330\027\264[_\373Lbc_\252\371\362\262"
 869      CB6FD817 
 869      B45B5FFB 
 869      4C62635F 
 869      AAF9F2B2 
 870 08ff 5C851A97 		.ascii	"\\\205\032\227\317v}9\343\342\346\313\307r\375Y\343"
 870      CF767D39 
 870      E3E2E6CB 
 870      C772FD59 
 870      E3
 871 0910 CAB25D5F 		.ascii	"\312\262]_\316\270\270\371\312b\271\356\326\270\262"
 871      CEB8B8F9 
 871      CA62B9EE 
 871      D6B8B2
 872 091f 6DD79733 		.ascii	"m\327\2273.n\276\262Y\256{4\256\034\333\365e\3025/\345"
 872      2E6EBEB2 
 872      59AE7B34 
 872      AE1CDBF5 
 872      65C2352F 
 873 0934 7CE5B05C 		.ascii	"|\345\260\\\367j\\=l\327\327\007\216\270\270\371\352"
 873      F76A5C3D 
 873      6CD7D707 
 873      8EB8B8F9 
 873      EA
 874 0945 C1728DD6 		.ascii	"\301r\215\326\270z\332\256/g\\\334|\365d\271\306h\\"
 874      B87ADAAE 
 874      2F675CDC 
 874      7CF564B9 
 874      C6685C
 875 0958 BD6CD797 		.ascii	"\275l\327\2273.n\276z\261\\c\311\375L{\313\022\247\031"
 875      332E6EBE 
 875      7AB15C63 
 875      C9FD4C7B 
 875      CB12A719 
 876 096c C54E8BD7 		.ascii	"\305N\213\327&\334{\036\316\313\341\273\031\355UH\334"
 876      26DC7B1E 
 876      CECBE1BB 
 876      19ED5548 
 876      DC
 877 097d F2558888 		.ascii	"\362U\210\210?\245\333\363)^Wp\357\206H\352o\305\377"
 877      3FA5DBF3 
 877      295E5770 
 877      EF8648EA 
 877      6FC5FF
 878 0990 B5A0F19B 		.ascii	"\265\240\361\233\275\207\325\330\347\032\336\304t\036"
 878      BD87D5D8 
ARM GAS  /tmp/cch4md0g.s 			page 69


 878      E71ADEC4 
 878      741E
 879 099e 797F387D 		.ascii	"y\1778}\023\363\015\315n\023\346\331\255\015\016\335"
 879      13F30DCD 
 879      6E13E6D9 
 879      AD0D0EDD 
 880 09ae 01E6D3DB 		.ascii	"\001\346\323\333\246\3434\275=\227:\275\235\325\020"
 880      A6E334BD 
 880      3D973ABD 
 880      9DD510
 881 09bd 6F3EBE48 		.ascii	"o>\276HIG\337\241c\361.}\360:wm\351-\340\2558nx\253"
 881      4947DFA1 
 881      63F12E7D 
 881      F03A776D 
 881      E92DE0AD 
 882 09d5 F8AC17A7 		.ascii	"\370\254\027\247\011\226\307\200\2557\202-t\002f\363"
 882      0996C780 
 882      AD37822D 
 882      740266F3 
 883 09e5 26768311 		.ascii	"&v\203\021li\332`\254\262\177\032\301\226;\001\263y"
 883      6C69DA60 
 883      ACB27F1A 
 883      C1963B01 
 883      B379
 884 09f7 13BBD908 		.ascii	"\023\273\331\010\266&m0V\331\026#\330[N\300\372[(\203"
 884      B6266D30 
 884      56D91623 
 884      D85B4EC0 
 884      FA5B2883 
 885 0a0b 87956D32 		.ascii	"\207\225m2\230\234}\267\246\015\306*\333aT\266\307\011"
 885      989C7DB7 
 885      A60DC62A 
 885      DB6154B6 
 885      C709
 886 0a1d 589EF598 		.ascii	"X\236\365\230\3552\202}\2306\230A\031\254\230C\0177"
 886      ED32827D 
 886      98369841 
 886      19AC9843 
 886      0F37
 887 0a2f 8A4ACA4F 		.ascii	"\212J\312O\036%\345\016+-\223\036'\353]\351>#5\270\314"
 887      1E25E50E 
 887      2B2D931E 
 887      27EB5DE9 
 887      3E2335B8 
 888 0a44 9F91D4FD 		.ascii	"\237\221\324\375\027\001\035\345;\300\260*\325?X\217"
 888      17011DE5 
 888      3BC0B02A 
 888      D53F588F 
 889 0a54 C611E368 		.ascii	"\306\021\343h\234t2\032\371\326`\237\030\301\276J\033"
 889      9C74321A 
 889      F9D6609F 
 889      18C1BE4A 
 889      1B
 890 0a65 8C9DF463 		.ascii	"\214\235\364cF\260\357\234\200\025Z\207\343g\306p\354"
 890      46B0EF9C 
 890      80155A87 
 890      E367C670 
ARM GAS  /tmp/cch4md0g.s 			page 70


 890      EC
 891 0a76 4C1B8C55 		.ascii	"L\033\214Uv\302\250,\341\004l\244\365\230}a\004\233"
 891      76C2A82C 
 891      E1046CA4 
 891      F5987D61 
 891      049B
 892 0a88 E34B178C 		.ascii	"\343K\027\214\015\307S\017\023,\022g\002\232\317c\231"
 892      0DC7530F 
 892      132C1267 
 892      029ACF63 
 892      99
 893 0a99 45C6786B 		.ascii	"E\306xka\035FaMN\204\225Z\203]4\202\255N\033\214\035"
 893      611D4661 
 893      4D4E8495 
 893      5A835D34 
 893      82AD4E1B 
 894 0aaf FF1F8C60 		.ascii	"\377\037\214`o:\001{\304:2.3\027\252\264\301Xe]\314"
 894      6F3A017B 
 894      C43A322E 
 894      3317AAB4 
 894      C158655D 
 895 0ac4 85CA09D8 		.ascii	"\205\312\011\330d\3531\373\331\010\266?m062~1D\306\247"
 895      64EB31FB 
 895      D908B63F 
 895      6D303632 
 895      7E3144C6 
 896 0ad9 4E22A3CA 		.ascii	"N\"\243\312Z\330U\243\260\323N\204M\265\006k<a\000;"
 896      5AD855A3 
 896      B0D34E84 
 896      4DB5066B 
 896      3C61003B 
 897 0aed 933618DB 		.ascii	"\2236\030\333\313\005\177\325{\371\265\223^\316\260"
 897      CB057FD5 
 897      7BF9B593 
 897      5ECEB0
 898 0afc 16B6C828 		.ascii	"\026\266\310(\354\242\023a\312\246\224)\332b#ZW\372"
 898      ECA21361 
 898      CAA69429 
 898      DA62235A 
 898      57FA
 899 0b0e 6879C8F2 		.ascii	"hy\310\362cL\344D\374\035\335\273;O\367\356.\320\362"
 899      634CE444 
 899      FC1DDDBB 
 899      3B4FF7EE 
 899      2ED0F2
 900 0b21 7B5A5EA2 		.ascii	"{Z^\242e'-\177\244\345O\264\274B\313_i\231\240\345L"
 900      65272D7F 
 900      A4E54FB4 
 900      BC42CB5F 
 900      6999A0E5 
 901 0b36 172967D3 		.ascii	"\027)g\323r\016-\237\246\345\263\264|\216\226\363i\371"
 901      720E2D9F 
 901      A6E5B3B4 
 901      7C8E96F3 
 901      69F9
 902 0b48 022D17D2 		.ascii	"\002-\027\322\362EZ.\241e\023-\227\321\262\231\226+"
 902      F2455A2E 
ARM GAS  /tmp/cch4md0g.s 			page 71


 902      A165132D 
 902      97D1B299 
 902      962B
 903 0b5a 69D942CB 		.ascii	"i\331B\313\325\264\\C\313Wi\371\232\313\260\307\310"
 903      D5B45C43 
 903      CB5769F9 
 903      9ACBB0C7 
 903      C8
 904 0b6b 65CEDF58 		.ascii	"e\316\337X\214\022\351\367\353.\273\314Y\322\376\301"
 904      8C12E9F7 
 904      EB2EBBCC 
 904      59D2FEC1 
 905 0b7b 48921E65 		.ascii	"H\222\036eO\370\322A\262'\374\206\213d\315\015Y)\263"
 905      4FF8D241 
 905      B227FC86 
 905      8B64CD0D 
 905      5929B3
 906 0b8e 661683BE 		.ascii	"f\026\203\276#pqI\363q\371_\220\344\367\324I\363\347"
 906      23707149 
 906      F371F95F 
 906      90E4F7D4 
 906      49F3E7
 907 0ba1 078D4933 		.ascii	"\007\215I3\\\244\251\004\342\3534\317e\361\2760\376"
 907      5CA4A904 
 907      E2EB34CF 
 907      65F1BE30 
 907      FE
 908 0bb2 156F51DA 		.ascii	"\025oQ\332`y\014\330)#X\223\0230\233\244\271\303\010"
 908      60790CD8 
 908      29235893 
 908      13309BA4 
 908      B9C308
 909 0bc5 B6326D30 		.ascii	"\2662m0\333x\327\347@\304\353]$\336\337\246q\264\221"
 909      DB78D7E7 
 909      40C4EB5D 
 909      24DEDFA6 
 909      71B491
 910 0bd8 969B68D9 		.ascii	"\226\233h\331j\023SoX\010\241/V\\\311\317\220\262\327"
 910      6A13536F 
 910      5808A12F 
 910      565CC9CF 
 910      90B2D7
 911 0beb 1E7D3B35 		.ascii	"\036};5\311k\233\245\327\005\233?^o\267\3642\244\221"
 911      C96B9BA5 
 911      D7059B3F 
 911      5E6FB7F4 
 911      32A491
 912 0bfe C94FB996 		.ascii	"\311O\271\226^\207l\024\356\264\364Zo\243p\227\245\327"
 912      5E876C14 
 912      EEB4F45A 
 912      6FA37097 
 912      A5D7
 913 0c10 4E9B27DA 		.ascii	"N\233'\332\335\226^\337\332p\305u/t\253\177Z]\324/F"
 913      DD965EDF 
 913      DA70C575 
 913      2F74AB7F 
 913      5A5DD42F 
ARM GAS  /tmp/cch4md0g.s 			page 72


 914 0c25 6BEEAC8D 		.ascii	"k\356\254\215\324\206\356\014\211\217\206\375\341\332"
 914      D486EE0C 
 914      898F86FD 
 914      E1DA
 915 0c33 F2EA6915 		.ascii	"\362\352i\025!\177]\254\"\\\033\033T\205\274\323\340"
 915      217F5DAC 
 915      225C1B1B 
 915      5485BCD3 
 915      E0
 916 0c44 58302418 		.ascii	"X0$\030\313\034\367\300\203y\305h\250\215S\215X^\025"
 916      CB1CF7C0 
 916      8379C568 
 916      A88D538D 
 916      585E15
 917 0c57 AE0DF983 		.ascii	"\256\015\371\203\025\241JqZu,\030{bj\250\016@\262\202"
 917      15A14A71 
 917      5A752C18 
 917      7B626AA8 
 917      0E40B282 
 918 0c6b 411566AC 		.ascii	"A\025f\254\277*R\023\362\227G*\236\360W\204\246\373"
 918      BF2A5213 
 918      F297472A 
 918      9EF05784 
 918      A6FB
 919 0c7d C1E3D170 		.ascii	"\301\343\321p\244\316\037\213N\253}\314\017\225*\261"
 919      A4CE1F8B 
 919      4EAB7DCC 
 919      0F952AB1 
 920 0c8d DA3F3512 		.ascii	"\332?5\022\215\325\371\313&\225\024\014\221\313\261"
 920      8DD5F9CB 
 920      2695140C 
 920      91CBB1
 921 0c9c 4367CC00 		.ascii	"Cg\314\000M5\200PQ#\002bO\355K\270.z\235P\313QFpT$R"
 921      4D358050 
 921      51230262 
 921      4FED4BB8 
 921      2E7A9D50 
 922 0cb7 7D4F2AB0 		.ascii	"}O*\260\320\214\230\277\270\244lB\031\300\310\376\225"
 922      D08C98BF 
 922      B8A46C42 
 922      19C0C8FE 
 922      95
 923 0cc8 43F307CF 		.ascii	"C\363\007\317(\007]}F\227\024\005\313b\321\220X\023"
 923      28075D7D 
 923      46971405 
 923      CB62D190 
 923      5813
 924 0cda 9C04BD1F 		.ascii	"\234\004\275\037\035\252\024\212\003\356\007FO\012\270"
 924      1DAA148A 
 924      03EE0746 
 924      4F0AB8
 925 0ce9 4A8B02EE 		.ascii	"J\213\002\356\222|R\014.\012\270\306\026\0072\353hC"
 925      927C520C 
 925      2E0AB8C6 
 925      160732EB 
 925      6843
 926 0cfb 77B8B23C 		.ascii	"w\270\262<\352!\003T\030\214\371\344\241\202Zf\270\256"
ARM GAS  /tmp/cch4md0g.s 			page 73


 926      EA210354 
 926      188CF9E4 
 926      A1825A66 
 926      B8AE
 927 0d0d 2A5C19F3 		.ascii	"*\\\031\363\325\205\252+\303\265\025\241\031\231\323"
 927      D585AA2B 
 927      C3B515A1 
 927      1999D3
 928 0d1c 43E5B148 		.ascii	"C\345\261H\264\217\2468(\373\007c\375\341\213LZT]\035"
 928      B48FA638 
 928      28FB0763 
 928      FDE18B4C 
 928      5A545D1D 
 929 0d30 291763A1 		.ascii	")\027c\241AS\305hlP~&\234\250\213M\365N\215\206#\321"
 929      4153C568 
 929      6C507E26 
 929      9CA88B4D 
 929      F54E8D86 
 930 0d46 70EC0977 		.ascii	"p\354\011w\345\264\332\362\033\265\326\201PuH\254S\032"
 930      E5B4DAF2 
 930      1BB5D681 
 930      507548AC 
 930      531A
 931 0d58 0FF63E44 		.ascii	"\017\366>D\361\207\027+\225\273\362\325\312P\265R\250"
 931      F187172B 
 931      95BBF2D5 
 931      CA50B552 
 931      A8
 932 0d69 56D43685 		.ascii	"V\3246\205j\233B\265\315\330b\237\\\031<$_\253\015\325"
 932      6A9B42B5 
 932      CDD8629F 
 932      5C193C24 
 932      5FAB0DD5 
 933 0d7d 6A855A4D 		.ascii	"j\205ZMkW\240\265\033\246\3274\217a\205\036\320;\241"
 933      6B57A0B5 
 933      1BA6D734 
 933      8F61851E 
 933      D03BA1
 934 0d90 361CEB9D 		.ascii	"6\034\353\235\324\313\014\020.\326\344\362\375\031\341"
 934      D4CB0C10 
 934      2ED6E4F2 
 934      FD19E1
 935 0d9f 3C1ACA23 		.ascii	"<\032\312#55\221Z\177Q\240\244\270d\206\277vz\230Lb"
 935      3535915A 
 935      7F51A0A4 
 935      B86486BF 
 935      767A984C 
 936 0db4 2E398EA9 		.ascii	".9\216\251\025\037\255\016\311\"\356K\005\030\215)x"
 936      151FAD0E 
 936      C922EE4B 
 936      05188D29 
 936      78
 937 0dc5 0A507955 		.ascii	"\012PyUy$\032\012N\277\253\206\304D\220\234\013\206"
 937      79241A0A 
 937      4EBFAB86 
 937      C444909C 
 937      0B86
ARM GAS  /tmp/cch4md0g.s 			page 74


 938 0dd7 A38F0743 		.ascii	"\243\217\007CS\303\325\221)\323B\275\011\303\350p\235"
 938      53C3D591 
 938      29D342BD 
 938      09C3E870 
 938      9D
 939 0de8 4ED18BCC 		.ascii	"N\321\213\314'\211\345h\250\"\014\021\355%\337\311l"
 939      2789E568 
 939      A8220C11 
 939      ED25DFC9 
 939      6C
 940 0df9 F94885F6 		.ascii	"\371H\205\366\263\007\323$W\017\200\272 \314\362c}\202"
 940      B307D324 
 940      570F80BA 
 940      20CCF263 
 940      7D82
 941 0e0b 7C60D4DD 		.ascii	"|`\324\3354(\032\251\020c\342\240\344S\331\201\342b"
 941      34281AA9 
 941      1063E2A0 
 941      E453D981 
 941      E262
 942 0e1d 35423DA5 		.ascii	"5B=\245\023'\026\217\035\027p\223\302U<!\340-\032?j"
 942      1327168F 
 942      1D177093 
 942      C2553C21 
 942      E02D1A3F 
 943 0e32 70A06C12 		.ascii	"p\240l\022\255\014Q+\005\244\342\013\214)\033\023xh"
 943      AD0C512B 
 943      05A4E20B 
 943      8C291B13 
 943      7868
 944 0e44 CCE87C6F 		.ascii	"\314\350|oQ\251\332\250Tn\244\235\033\354!\000c\036"
 944      51A9DAA8 
 944      546EA49D 
 944      1BEC2100 
 944      631E
 945 0e56 0890E310 		.ascii	"\010\220\343\020\345X\000G\255\305\020\017\361\246g"
 945      E5580047 
 945      ADC5100F 
 945      F1A667
 946 0e65 4A690BED 		.ascii	"Ji\013\355L\201\217\370N,%\277\021o\255V \327\324vC"
 946      4C818FF8 
 946      4E2C25BF 
 946      116FAD56 
 946      20D7D476 
 947 0e7a 7D044139 		.ascii	"}\004A9[\252\266S\317\016s\217\032]\014})\323\177\032"
 947      5BAAB653 
 947      CF0E738F 
 947      1A5D0C7D 
 947      29D37F1A 
 948 0e8e 9E515656 		.ascii	"\236QVV<.\220\005\235\2350\244\214t5\233,Ve\014\334"
 948      3C2E9005 
 948      9D9D30A4 
 948      8C74359B 
 948      2C56650C 
 949 0ea3 13279405 		.ascii	"\023'\224\005\334\343\241\310\2308\001\326f\306xR\376"
 949      DCE3A1C8 
 949      983801D6 
ARM GAS  /tmp/cch4md0g.s 			page 75


 949      66C67852 
 949      FE
 950 0eb4 0FFD68A9 		.ascii	"\017\375h\251\355"
 950      ED
 951              		.text
 952              		.section	.gnu.lto_.symtab.54e382a52e06511,"",%progbits
 953 0000 56656374 		.ascii	"Vector6C\000\000\000\000\000\000\000\000\000\000\000"
 953      6F723643 
 953      00000000 
 953      00000000 
 953      000000
 954 0013 00EE0000 		.ascii	"\000\356\000\000\000Vector70\000\000\000\000\000\000"
 954      00566563 
 954      746F7237 
 954      30000000 
 954      000000
 955 0026 00000000 		.ascii	"\000\000\000\000\000\000\362\000\000\000Vector74\000"
 955      0000F200 
 955      00005665 
 955      63746F72 
 955      373400
 956 0039 00000000 		.ascii	"\000\000\000\000\000\000\000\000\000\000\000\365\000"
 956      00000000 
 956      000000F5 
 956      00
 957 0046 00005665 		.ascii	"\000\000Vector78\000\000\000\000\000\000\000\000\000"
 957      63746F72 
 957      37380000 
 957      00000000 
 957      000000
 958 0059 000000F8 		.ascii	"\000\000\000\370\000\000\000Vector7C\000\000\000\000"
 958      00000056 
 958      6563746F 
 958      72374300 
 958      000000
 959 006c 00000000 		.ascii	"\000\000\000\000\000\000\000\000\373\000\000\000Vec"
 959      00000000 
 959      FB000000 
 959      566563
 960 007b 746F7238 		.ascii	"tor80\000\000\000\000\000\000\000\000\000\000\000\000"
 960      30000000 
 960      00000000 
 960      00000000 
 960      00
 961 008c FE000000 		.ascii	"\376\000\000\000Vector84\000\000\000\000\000\000\000"
 961      56656374 
 961      6F723834 
 961      00000000 
 961      000000
 962 009f 00000000 		.ascii	"\000\000\000\000\000\001\001\000\000VectorFC\000\000"
 962      00010100 
 962      00566563 
 962      746F7246 
 962      430000
 963 00b2 00000000 		.ascii	"\000\000\000\000\000\000\000\000\000\000\004\001\000"
 963      00000000 
 963      00000401 
ARM GAS  /tmp/cch4md0g.s 			page 76


 963      00
 964 00bf 00566563 		.ascii	"\000Vector120\000\000\000\000\000\000\000\000\000\000"
 964      746F7231 
 964      32300000 
 964      00000000 
 964      00000000 
 965 00d3 00000701 		.ascii	"\000\000\007\001\000\000Vector124\000\000\000\000\000"
 965      00005665 
 965      63746F72 
 965      31323400 
 965      00000000 
 966 00e7 00000000 		.ascii	"\000\000\000\000\000\000\000\012\001\000\000Vector1"
 966      0000000A 
 966      01000056 
 966      6563746F 
 966      7231
 967 00f9 32380000 		.ascii	"28\000\000\000\000\000\000\000\000\000\000\000\000\015"
 967      00000000 
 967      00000000 
 967      00000D
 968 0108 01000056 		.ascii	"\001\000\000Vector12C\000\000\000\000\000\000\000\000"
 968      6563746F 
 968      72313243 
 968      00000000 
 968      00000000 
 969 011c 00000000 		.ascii	"\000\000\000\000\020\001\000\000Vector130\000\000\000"
 969      10010000 
 969      56656374 
 969      6F723133 
 969      30000000 
 970 0130 00000000 		.ascii	"\000\000\000\000\000\000\000\000\000\023\001\000\000"
 970      00000000 
 970      00130100 
 970      00
 971 013d 56656374 		.ascii	"Vector150\000\000\000\000\000\000\000\000\000\000\000"
 971      6F723135 
 971      30000000 
 971      00000000 
 971      00000000 
 972 0151 00160100 		.ascii	"\000\026\001\000\000Vector154\000\000\000\000\000\000"
 972      00566563 
 972      746F7231 
 972      35340000 
 972      00000000 
 973 0165 00000000 		.ascii	"\000\000\000\000\000\000\031\001\000\000Vector158\000"
 973      00001901 
 973      00005665 
 973      63746F72 
 973      31353800 
 974 0179 00000000 		.ascii	"\000\000\000\000\000\000\000\000\000\000\000\034\001"
 974      00000000 
 974      0000001C 
 974      01
 975 0186 0000646D 		.ascii	"\000\000dmaInit\000\000\000\000\000\000\000\000\000"
 975      61496E69 
 975      74000000 
 975      00000000 
ARM GAS  /tmp/cch4md0g.s 			page 77


 975      0000
 976 0198 0000001F 		.ascii	"\000\000\000\037\001\000\000_stm32_dma_streams\000\000"
 976      0100005F 
 976      73746D33 
 976      325F646D 
 976      615F7374 
 977 01b3 00000000 		.ascii	"\000\000\000\000\000\000\000\000\000\000O\001\000\000"
 977      00000000 
 977      00004F01 
 977      0000
 978 01c1 646D6153 		.ascii	"dmaStreamAllocate\000\000\000\000\000\000\000\000\000"
 978      74726561 
 978      6D416C6C 
 978      6F636174 
 978      65000000 
 979 01db 00000022 		.ascii	"\000\000\000\"\001\000\000dmaStreamRelease\000\000\000"
 979      01000064 
 979      6D615374 
 979      7265616D 
 979      52656C65 
 980 01f5 00000000 		.ascii	"\000\000\000\000\000\000\000\000\000/\001\000\000nv"
 980      00000000 
 980      002F0100 
 980      006E76
 981 0204 6963456E 		.ascii	"icEnableVector\000\000\002\000\000\000\000\000\000\000"
 981      61626C65 
 981      56656374 
 981      6F720000 
 981      02000000 
 982 021c 00003501 		.ascii	"\000\0005\001\000\000_port_irq_epilogue\000\000\002"
 982      00005F70 
 982      6F72745F 
 982      6972715F 
 982      6570696C 
 983 0237 00000000 		.ascii	"\000\000\000\000\000\000\000\000\000:\001\000\000nv"
 983      00000000 
 983      003A0100 
 983      006E76
 984 0246 69634469 		.ascii	"icDisableVector\000\000\002\000\000\000\000\000\000"
 984      7361626C 
 984      65566563 
 984      746F7200 
 984      00020000 
 985 025e 0000003C 		.ascii	"\000\000\000<\001\000\000"
 985      010000
 986              		.text
 987              		.section	.gnu.lto_.opts,"",%progbits
 988 0000 272D6D63 		.ascii	"'-mcpu=cortex-m4' '-mfloat-abi=hard' '-mfpu=fpv4-sp"
 988      70753D63 
 988      6F727465 
 988      782D6D34 
 988      2720272D 
 989 0033 2D643136 		.ascii	"-d16' '-mno-thumb-interwork' '-mthumb' '-O2' '-fomi"
 989      2720272D 
 989      6D6E6F2D 
 989      7468756D 
 989      622D696E 
ARM GAS  /tmp/cch4md0g.s 			page 78


 990 0066 742D6672 		.ascii	"t-frame-pointer' '-falign-functions=16' '-ffunction"
 990      616D652D 
 990      706F696E 
 990      74657227 
 990      20272D66 
 991 0099 2D736563 		.ascii	"-sections' '-fdata-sections' '-fno-common' '-flto' "
 991      74696F6E 
 991      73272027 
 991      2D666461 
 991      74612D73 
 992 00cc 272D6673 		.ascii	"'-fsingle-precision-constant'\000"
 992      696E676C 
 992      652D7072 
 992      65636973 
 992      696F6E2D 
 993              		.text
 994              		.section	.text.Vector6C,"ax",%progbits
 995              		.align	2
 996              		.p2align 4,,15
 997              		.global	Vector6C
 998              		.thumb
 999              		.thumb_func
 1000              		.type	Vector6C, %function
 1001              	Vector6C:
 1002              		@ args = 0, pretend = 0, frame = 0
 1003              		@ frame_needed = 0, uses_anonymous_args = 0
 1004 0000 08B5     		push	{r3, lr}
 1005 0002 074B     		ldr	r3, .L7
 1006 0004 074A     		ldr	r2, .L7+4
 1007 0006 1968     		ldr	r1, [r3]
 1008 0008 01F03D01 		and	r1, r1, #61
 1009 000c 9960     		str	r1, [r3, #8]
 1010 000e 1368     		ldr	r3, [r2]
 1011 0010 0BB1     		cbz	r3, .L2
 1012 0012 5068     		ldr	r0, [r2, #4]
 1013 0014 9847     		blx	r3
 1014              	.L2:
 1015 0016 BDE80840 		pop	{r3, lr}
 1016 001a FFF7FEBF 		b	_port_irq_epilogue
 1017              	.L8:
 1018 001e 00BF     		.align	2
 1019              	.L7:
 1020 0020 00600240 		.word	1073897472
 1021 0024 00000000 		.word	.LANCHOR0
 1022              		.size	Vector6C, .-Vector6C
 1023 0028 AFF30080 		.section	.text.Vector70,"ax",%progbits
 1023      AFF30080 
 1024              		.align	2
 1025              		.p2align 4,,15
 1026              		.global	Vector70
 1027              		.thumb
 1028              		.thumb_func
 1029              		.type	Vector70, %function
 1030              	Vector70:
 1031              		@ args = 0, pretend = 0, frame = 0
 1032              		@ frame_needed = 0, uses_anonymous_args = 0
 1033 0000 084B     		ldr	r3, .L14
ARM GAS  /tmp/cch4md0g.s 			page 79


 1034 0002 0948     		ldr	r0, .L14+4
 1035 0004 1968     		ldr	r1, [r3]
 1036 0006 8268     		ldr	r2, [r0, #8]
 1037 0008 8909     		lsrs	r1, r1, #6
 1038 000a 01F03D01 		and	r1, r1, #61
 1039 000e 10B5     		push	{r4, lr}
 1040 0010 8C01     		lsls	r4, r1, #6
 1041 0012 9C60     		str	r4, [r3, #8]
 1042 0014 0AB1     		cbz	r2, .L10
 1043 0016 C068     		ldr	r0, [r0, #12]
 1044 0018 9047     		blx	r2
 1045              	.L10:
 1046 001a BDE81040 		pop	{r4, lr}
 1047 001e FFF7FEBF 		b	_port_irq_epilogue
 1048              	.L15:
 1049 0022 00BF     		.align	2
 1050              	.L14:
 1051 0024 00600240 		.word	1073897472
 1052 0028 00000000 		.word	.LANCHOR0
 1053              		.size	Vector70, .-Vector70
 1054 002c AFF30080 		.section	.text.Vector74,"ax",%progbits
 1055              		.align	2
 1056              		.p2align 4,,15
 1057              		.global	Vector74
 1058              		.thumb
 1059              		.thumb_func
 1060              		.type	Vector74, %function
 1061              	Vector74:
 1062              		@ args = 0, pretend = 0, frame = 0
 1063              		@ frame_needed = 0, uses_anonymous_args = 0
 1064 0000 084B     		ldr	r3, .L21
 1065 0002 0948     		ldr	r0, .L21+4
 1066 0004 1968     		ldr	r1, [r3]
 1067 0006 0269     		ldr	r2, [r0, #16]
 1068 0008 090C     		lsrs	r1, r1, #16
 1069 000a 01F03D01 		and	r1, r1, #61
 1070 000e 10B5     		push	{r4, lr}
 1071 0010 0C04     		lsls	r4, r1, #16
 1072 0012 9C60     		str	r4, [r3, #8]
 1073 0014 0AB1     		cbz	r2, .L17
 1074 0016 4069     		ldr	r0, [r0, #20]
 1075 0018 9047     		blx	r2
 1076              	.L17:
 1077 001a BDE81040 		pop	{r4, lr}
 1078 001e FFF7FEBF 		b	_port_irq_epilogue
 1079              	.L22:
 1080 0022 00BF     		.align	2
 1081              	.L21:
 1082 0024 00600240 		.word	1073897472
 1083 0028 00000000 		.word	.LANCHOR0
 1084              		.size	Vector74, .-Vector74
 1085 002c AFF30080 		.section	.text.Vector78,"ax",%progbits
 1086              		.align	2
 1087              		.p2align 4,,15
 1088              		.global	Vector78
 1089              		.thumb
 1090              		.thumb_func
ARM GAS  /tmp/cch4md0g.s 			page 80


 1091              		.type	Vector78, %function
 1092              	Vector78:
 1093              		@ args = 0, pretend = 0, frame = 0
 1094              		@ frame_needed = 0, uses_anonymous_args = 0
 1095 0000 084B     		ldr	r3, .L28
 1096 0002 0948     		ldr	r0, .L28+4
 1097 0004 1968     		ldr	r1, [r3]
 1098 0006 8269     		ldr	r2, [r0, #24]
 1099 0008 890D     		lsrs	r1, r1, #22
 1100 000a 01F03D01 		and	r1, r1, #61
 1101 000e 10B5     		push	{r4, lr}
 1102 0010 8C05     		lsls	r4, r1, #22
 1103 0012 9C60     		str	r4, [r3, #8]
 1104 0014 0AB1     		cbz	r2, .L24
 1105 0016 C069     		ldr	r0, [r0, #28]
 1106 0018 9047     		blx	r2
 1107              	.L24:
 1108 001a BDE81040 		pop	{r4, lr}
 1109 001e FFF7FEBF 		b	_port_irq_epilogue
 1110              	.L29:
 1111 0022 00BF     		.align	2
 1112              	.L28:
 1113 0024 00600240 		.word	1073897472
 1114 0028 00000000 		.word	.LANCHOR0
 1115              		.size	Vector78, .-Vector78
 1116 002c AFF30080 		.section	.text.Vector7C,"ax",%progbits
 1117              		.align	2
 1118              		.p2align 4,,15
 1119              		.global	Vector7C
 1120              		.thumb
 1121              		.thumb_func
 1122              		.type	Vector7C, %function
 1123              	Vector7C:
 1124              		@ args = 0, pretend = 0, frame = 0
 1125              		@ frame_needed = 0, uses_anonymous_args = 0
 1126 0000 08B5     		push	{r3, lr}
 1127 0002 074B     		ldr	r3, .L35
 1128 0004 0748     		ldr	r0, .L35+4
 1129 0006 5968     		ldr	r1, [r3, #4]
 1130 0008 026A     		ldr	r2, [r0, #32]
 1131 000a 01F03D01 		and	r1, r1, #61
 1132 000e D960     		str	r1, [r3, #12]
 1133 0010 0AB1     		cbz	r2, .L31
 1134 0012 406A     		ldr	r0, [r0, #36]
 1135 0014 9047     		blx	r2
 1136              	.L31:
 1137 0016 BDE80840 		pop	{r3, lr}
 1138 001a FFF7FEBF 		b	_port_irq_epilogue
 1139              	.L36:
 1140 001e 00BF     		.align	2
 1141              	.L35:
 1142 0020 00600240 		.word	1073897472
 1143 0024 00000000 		.word	.LANCHOR0
 1144              		.size	Vector7C, .-Vector7C
 1145 0028 AFF30080 		.section	.text.Vector80,"ax",%progbits
 1145      AFF30080 
 1146              		.align	2
ARM GAS  /tmp/cch4md0g.s 			page 81


 1147              		.p2align 4,,15
 1148              		.global	Vector80
 1149              		.thumb
 1150              		.thumb_func
 1151              		.type	Vector80, %function
 1152              	Vector80:
 1153              		@ args = 0, pretend = 0, frame = 0
 1154              		@ frame_needed = 0, uses_anonymous_args = 0
 1155 0000 084B     		ldr	r3, .L42
 1156 0002 0948     		ldr	r0, .L42+4
 1157 0004 5968     		ldr	r1, [r3, #4]
 1158 0006 826A     		ldr	r2, [r0, #40]
 1159 0008 8909     		lsrs	r1, r1, #6
 1160 000a 01F03D01 		and	r1, r1, #61
 1161 000e 10B5     		push	{r4, lr}
 1162 0010 8C01     		lsls	r4, r1, #6
 1163 0012 DC60     		str	r4, [r3, #12]
 1164 0014 0AB1     		cbz	r2, .L38
 1165 0016 C06A     		ldr	r0, [r0, #44]
 1166 0018 9047     		blx	r2
 1167              	.L38:
 1168 001a BDE81040 		pop	{r4, lr}
 1169 001e FFF7FEBF 		b	_port_irq_epilogue
 1170              	.L43:
 1171 0022 00BF     		.align	2
 1172              	.L42:
 1173 0024 00600240 		.word	1073897472
 1174 0028 00000000 		.word	.LANCHOR0
 1175              		.size	Vector80, .-Vector80
 1176 002c AFF30080 		.section	.text.Vector84,"ax",%progbits
 1177              		.align	2
 1178              		.p2align 4,,15
 1179              		.global	Vector84
 1180              		.thumb
 1181              		.thumb_func
 1182              		.type	Vector84, %function
 1183              	Vector84:
 1184              		@ args = 0, pretend = 0, frame = 0
 1185              		@ frame_needed = 0, uses_anonymous_args = 0
 1186 0000 084B     		ldr	r3, .L49
 1187 0002 0948     		ldr	r0, .L49+4
 1188 0004 5968     		ldr	r1, [r3, #4]
 1189 0006 026B     		ldr	r2, [r0, #48]
 1190 0008 090C     		lsrs	r1, r1, #16
 1191 000a 01F03D01 		and	r1, r1, #61
 1192 000e 10B5     		push	{r4, lr}
 1193 0010 0C04     		lsls	r4, r1, #16
 1194 0012 DC60     		str	r4, [r3, #12]
 1195 0014 0AB1     		cbz	r2, .L45
 1196 0016 406B     		ldr	r0, [r0, #52]
 1197 0018 9047     		blx	r2
 1198              	.L45:
 1199 001a BDE81040 		pop	{r4, lr}
 1200 001e FFF7FEBF 		b	_port_irq_epilogue
 1201              	.L50:
 1202 0022 00BF     		.align	2
 1203              	.L49:
ARM GAS  /tmp/cch4md0g.s 			page 82


 1204 0024 00600240 		.word	1073897472
 1205 0028 00000000 		.word	.LANCHOR0
 1206              		.size	Vector84, .-Vector84
 1207 002c AFF30080 		.section	.text.VectorFC,"ax",%progbits
 1208              		.align	2
 1209              		.p2align 4,,15
 1210              		.global	VectorFC
 1211              		.thumb
 1212              		.thumb_func
 1213              		.type	VectorFC, %function
 1214              	VectorFC:
 1215              		@ args = 0, pretend = 0, frame = 0
 1216              		@ frame_needed = 0, uses_anonymous_args = 0
 1217 0000 084B     		ldr	r3, .L56
 1218 0002 0948     		ldr	r0, .L56+4
 1219 0004 5968     		ldr	r1, [r3, #4]
 1220 0006 826B     		ldr	r2, [r0, #56]
 1221 0008 890D     		lsrs	r1, r1, #22
 1222 000a 01F03D01 		and	r1, r1, #61
 1223 000e 10B5     		push	{r4, lr}
 1224 0010 8C05     		lsls	r4, r1, #22
 1225 0012 DC60     		str	r4, [r3, #12]
 1226 0014 0AB1     		cbz	r2, .L52
 1227 0016 C06B     		ldr	r0, [r0, #60]
 1228 0018 9047     		blx	r2
 1229              	.L52:
 1230 001a BDE81040 		pop	{r4, lr}
 1231 001e FFF7FEBF 		b	_port_irq_epilogue
 1232              	.L57:
 1233 0022 00BF     		.align	2
 1234              	.L56:
 1235 0024 00600240 		.word	1073897472
 1236 0028 00000000 		.word	.LANCHOR0
 1237              		.size	VectorFC, .-VectorFC
 1238 002c AFF30080 		.section	.text.Vector120,"ax",%progbits
 1239              		.align	2
 1240              		.p2align 4,,15
 1241              		.global	Vector120
 1242              		.thumb
 1243              		.thumb_func
 1244              		.type	Vector120, %function
 1245              	Vector120:
 1246              		@ args = 0, pretend = 0, frame = 0
 1247              		@ frame_needed = 0, uses_anonymous_args = 0
 1248 0000 08B5     		push	{r3, lr}
 1249 0002 074B     		ldr	r3, .L63
 1250 0004 0748     		ldr	r0, .L63+4
 1251 0006 1968     		ldr	r1, [r3]
 1252 0008 026C     		ldr	r2, [r0, #64]
 1253 000a 01F03D01 		and	r1, r1, #61
 1254 000e 9960     		str	r1, [r3, #8]
 1255 0010 0AB1     		cbz	r2, .L59
 1256 0012 406C     		ldr	r0, [r0, #68]
 1257 0014 9047     		blx	r2
 1258              	.L59:
 1259 0016 BDE80840 		pop	{r3, lr}
 1260 001a FFF7FEBF 		b	_port_irq_epilogue
ARM GAS  /tmp/cch4md0g.s 			page 83


 1261              	.L64:
 1262 001e 00BF     		.align	2
 1263              	.L63:
 1264 0020 00640240 		.word	1073898496
 1265 0024 00000000 		.word	.LANCHOR0
 1266              		.size	Vector120, .-Vector120
 1267 0028 AFF30080 		.section	.text.Vector124,"ax",%progbits
 1267      AFF30080 
 1268              		.align	2
 1269              		.p2align 4,,15
 1270              		.global	Vector124
 1271              		.thumb
 1272              		.thumb_func
 1273              		.type	Vector124, %function
 1274              	Vector124:
 1275              		@ args = 0, pretend = 0, frame = 0
 1276              		@ frame_needed = 0, uses_anonymous_args = 0
 1277 0000 084B     		ldr	r3, .L70
 1278 0002 0948     		ldr	r0, .L70+4
 1279 0004 1968     		ldr	r1, [r3]
 1280 0006 826C     		ldr	r2, [r0, #72]
 1281 0008 8909     		lsrs	r1, r1, #6
 1282 000a 01F03D01 		and	r1, r1, #61
 1283 000e 10B5     		push	{r4, lr}
 1284 0010 8C01     		lsls	r4, r1, #6
 1285 0012 9C60     		str	r4, [r3, #8]
 1286 0014 0AB1     		cbz	r2, .L66
 1287 0016 C06C     		ldr	r0, [r0, #76]
 1288 0018 9047     		blx	r2
 1289              	.L66:
 1290 001a BDE81040 		pop	{r4, lr}
 1291 001e FFF7FEBF 		b	_port_irq_epilogue
 1292              	.L71:
 1293 0022 00BF     		.align	2
 1294              	.L70:
 1295 0024 00640240 		.word	1073898496
 1296 0028 00000000 		.word	.LANCHOR0
 1297              		.size	Vector124, .-Vector124
 1298 002c AFF30080 		.section	.text.Vector128,"ax",%progbits
 1299              		.align	2
 1300              		.p2align 4,,15
 1301              		.global	Vector128
 1302              		.thumb
 1303              		.thumb_func
 1304              		.type	Vector128, %function
 1305              	Vector128:
 1306              		@ args = 0, pretend = 0, frame = 0
 1307              		@ frame_needed = 0, uses_anonymous_args = 0
 1308 0000 084B     		ldr	r3, .L77
 1309 0002 0948     		ldr	r0, .L77+4
 1310 0004 1968     		ldr	r1, [r3]
 1311 0006 026D     		ldr	r2, [r0, #80]
 1312 0008 090C     		lsrs	r1, r1, #16
 1313 000a 01F03D01 		and	r1, r1, #61
 1314 000e 10B5     		push	{r4, lr}
 1315 0010 0C04     		lsls	r4, r1, #16
 1316 0012 9C60     		str	r4, [r3, #8]
ARM GAS  /tmp/cch4md0g.s 			page 84


 1317 0014 0AB1     		cbz	r2, .L73
 1318 0016 406D     		ldr	r0, [r0, #84]
 1319 0018 9047     		blx	r2
 1320              	.L73:
 1321 001a BDE81040 		pop	{r4, lr}
 1322 001e FFF7FEBF 		b	_port_irq_epilogue
 1323              	.L78:
 1324 0022 00BF     		.align	2
 1325              	.L77:
 1326 0024 00640240 		.word	1073898496
 1327 0028 00000000 		.word	.LANCHOR0
 1328              		.size	Vector128, .-Vector128
 1329 002c AFF30080 		.section	.text.Vector12C,"ax",%progbits
 1330              		.align	2
 1331              		.p2align 4,,15
 1332              		.global	Vector12C
 1333              		.thumb
 1334              		.thumb_func
 1335              		.type	Vector12C, %function
 1336              	Vector12C:
 1337              		@ args = 0, pretend = 0, frame = 0
 1338              		@ frame_needed = 0, uses_anonymous_args = 0
 1339 0000 084B     		ldr	r3, .L84
 1340 0002 0948     		ldr	r0, .L84+4
 1341 0004 1968     		ldr	r1, [r3]
 1342 0006 826D     		ldr	r2, [r0, #88]
 1343 0008 890D     		lsrs	r1, r1, #22
 1344 000a 01F03D01 		and	r1, r1, #61
 1345 000e 10B5     		push	{r4, lr}
 1346 0010 8C05     		lsls	r4, r1, #22
 1347 0012 9C60     		str	r4, [r3, #8]
 1348 0014 0AB1     		cbz	r2, .L80
 1349 0016 C06D     		ldr	r0, [r0, #92]
 1350 0018 9047     		blx	r2
 1351              	.L80:
 1352 001a BDE81040 		pop	{r4, lr}
 1353 001e FFF7FEBF 		b	_port_irq_epilogue
 1354              	.L85:
 1355 0022 00BF     		.align	2
 1356              	.L84:
 1357 0024 00640240 		.word	1073898496
 1358 0028 00000000 		.word	.LANCHOR0
 1359              		.size	Vector12C, .-Vector12C
 1360 002c AFF30080 		.section	.text.Vector130,"ax",%progbits
 1361              		.align	2
 1362              		.p2align 4,,15
 1363              		.global	Vector130
 1364              		.thumb
 1365              		.thumb_func
 1366              		.type	Vector130, %function
 1367              	Vector130:
 1368              		@ args = 0, pretend = 0, frame = 0
 1369              		@ frame_needed = 0, uses_anonymous_args = 0
 1370 0000 08B5     		push	{r3, lr}
 1371 0002 074B     		ldr	r3, .L91
 1372 0004 0748     		ldr	r0, .L91+4
 1373 0006 5968     		ldr	r1, [r3, #4]
ARM GAS  /tmp/cch4md0g.s 			page 85


 1374 0008 026E     		ldr	r2, [r0, #96]
 1375 000a 01F03D01 		and	r1, r1, #61
 1376 000e D960     		str	r1, [r3, #12]
 1377 0010 0AB1     		cbz	r2, .L87
 1378 0012 406E     		ldr	r0, [r0, #100]
 1379 0014 9047     		blx	r2
 1380              	.L87:
 1381 0016 BDE80840 		pop	{r3, lr}
 1382 001a FFF7FEBF 		b	_port_irq_epilogue
 1383              	.L92:
 1384 001e 00BF     		.align	2
 1385              	.L91:
 1386 0020 00640240 		.word	1073898496
 1387 0024 00000000 		.word	.LANCHOR0
 1388              		.size	Vector130, .-Vector130
 1389 0028 AFF30080 		.section	.text.Vector150,"ax",%progbits
 1389      AFF30080 
 1390              		.align	2
 1391              		.p2align 4,,15
 1392              		.global	Vector150
 1393              		.thumb
 1394              		.thumb_func
 1395              		.type	Vector150, %function
 1396              	Vector150:
 1397              		@ args = 0, pretend = 0, frame = 0
 1398              		@ frame_needed = 0, uses_anonymous_args = 0
 1399 0000 084B     		ldr	r3, .L98
 1400 0002 0948     		ldr	r0, .L98+4
 1401 0004 5968     		ldr	r1, [r3, #4]
 1402 0006 826E     		ldr	r2, [r0, #104]
 1403 0008 8909     		lsrs	r1, r1, #6
 1404 000a 01F03D01 		and	r1, r1, #61
 1405 000e 10B5     		push	{r4, lr}
 1406 0010 8C01     		lsls	r4, r1, #6
 1407 0012 DC60     		str	r4, [r3, #12]
 1408 0014 0AB1     		cbz	r2, .L94
 1409 0016 C06E     		ldr	r0, [r0, #108]
 1410 0018 9047     		blx	r2
 1411              	.L94:
 1412 001a BDE81040 		pop	{r4, lr}
 1413 001e FFF7FEBF 		b	_port_irq_epilogue
 1414              	.L99:
 1415 0022 00BF     		.align	2
 1416              	.L98:
 1417 0024 00640240 		.word	1073898496
 1418 0028 00000000 		.word	.LANCHOR0
 1419              		.size	Vector150, .-Vector150
 1420 002c AFF30080 		.section	.text.Vector154,"ax",%progbits
 1421              		.align	2
 1422              		.p2align 4,,15
 1423              		.global	Vector154
 1424              		.thumb
 1425              		.thumb_func
 1426              		.type	Vector154, %function
 1427              	Vector154:
 1428              		@ args = 0, pretend = 0, frame = 0
 1429              		@ frame_needed = 0, uses_anonymous_args = 0
ARM GAS  /tmp/cch4md0g.s 			page 86


 1430 0000 084B     		ldr	r3, .L105
 1431 0002 0948     		ldr	r0, .L105+4
 1432 0004 5968     		ldr	r1, [r3, #4]
 1433 0006 026F     		ldr	r2, [r0, #112]
 1434 0008 090C     		lsrs	r1, r1, #16
 1435 000a 01F03D01 		and	r1, r1, #61
 1436 000e 10B5     		push	{r4, lr}
 1437 0010 0C04     		lsls	r4, r1, #16
 1438 0012 DC60     		str	r4, [r3, #12]
 1439 0014 0AB1     		cbz	r2, .L101
 1440 0016 406F     		ldr	r0, [r0, #116]
 1441 0018 9047     		blx	r2
 1442              	.L101:
 1443 001a BDE81040 		pop	{r4, lr}
 1444 001e FFF7FEBF 		b	_port_irq_epilogue
 1445              	.L106:
 1446 0022 00BF     		.align	2
 1447              	.L105:
 1448 0024 00640240 		.word	1073898496
 1449 0028 00000000 		.word	.LANCHOR0
 1450              		.size	Vector154, .-Vector154
 1451 002c AFF30080 		.section	.text.Vector158,"ax",%progbits
 1452              		.align	2
 1453              		.p2align 4,,15
 1454              		.global	Vector158
 1455              		.thumb
 1456              		.thumb_func
 1457              		.type	Vector158, %function
 1458              	Vector158:
 1459              		@ args = 0, pretend = 0, frame = 0
 1460              		@ frame_needed = 0, uses_anonymous_args = 0
 1461 0000 084B     		ldr	r3, .L112
 1462 0002 0948     		ldr	r0, .L112+4
 1463 0004 5968     		ldr	r1, [r3, #4]
 1464 0006 826F     		ldr	r2, [r0, #120]
 1465 0008 890D     		lsrs	r1, r1, #22
 1466 000a 01F03D01 		and	r1, r1, #61
 1467 000e 10B5     		push	{r4, lr}
 1468 0010 8C05     		lsls	r4, r1, #22
 1469 0012 DC60     		str	r4, [r3, #12]
 1470 0014 0AB1     		cbz	r2, .L108
 1471 0016 C06F     		ldr	r0, [r0, #124]
 1472 0018 9047     		blx	r2
 1473              	.L108:
 1474 001a BDE81040 		pop	{r4, lr}
 1475 001e FFF7FEBF 		b	_port_irq_epilogue
 1476              	.L113:
 1477 0022 00BF     		.align	2
 1478              	.L112:
 1479 0024 00640240 		.word	1073898496
 1480 0028 00000000 		.word	.LANCHOR0
 1481              		.size	Vector158, .-Vector158
 1482 002c AFF30080 		.section	.text.dmaInit,"ax",%progbits
 1483              		.align	2
 1484              		.p2align 4,,15
 1485              		.global	dmaInit
 1486              		.thumb
ARM GAS  /tmp/cch4md0g.s 			page 87


 1487              		.thumb_func
 1488              		.type	dmaInit, %function
 1489              	dmaInit:
 1490              		@ args = 0, pretend = 0, frame = 0
 1491              		@ frame_needed = 0, uses_anonymous_args = 0
 1492              		@ link register save eliminated.
 1493 0000 0C4B     		ldr	r3, .L118
 1494 0002 30B4     		push	{r4, r5}
 1495 0004 0022     		movs	r2, #0
 1496 0006 0C4D     		ldr	r5, .L118+4
 1497 0008 0C4C     		ldr	r4, .L118+8
 1498 000a 1A60     		str	r2, [r3]
 1499 000c 1146     		mov	r1, r2
 1500 000e 1346     		mov	r3, r2
 1501              	.L116:
 1502 0010 E858     		ldr	r0, [r5, r3]
 1503 0012 0C33     		adds	r3, r3, #12
 1504 0014 C02B     		cmp	r3, #192
 1505 0016 0160     		str	r1, [r0]
 1506 0018 A150     		str	r1, [r4, r2]
 1507 001a 02F10802 		add	r2, r2, #8
 1508 001e F7D1     		bne	.L116
 1509 0020 0749     		ldr	r1, .L118+12
 1510 0022 084A     		ldr	r2, .L118+16
 1511 0024 4FF0FF33 		mov	r3, #-1
 1512 0028 8B60     		str	r3, [r1, #8]
 1513 002a 30BC     		pop	{r4, r5}
 1514 002c CB60     		str	r3, [r1, #12]
 1515 002e 9360     		str	r3, [r2, #8]
 1516 0030 D360     		str	r3, [r2, #12]
 1517 0032 7047     		bx	lr
 1518              	.L119:
 1519              		.align	2
 1520              	.L118:
 1521 0034 00000000 		.word	.LANCHOR1
 1522 0038 00000000 		.word	.LANCHOR2
 1523 003c 00000000 		.word	.LANCHOR0
 1524 0040 00600240 		.word	1073897472
 1525 0044 00640240 		.word	1073898496
 1526              		.size	dmaInit, .-dmaInit
 1527 0048 AFF30080 		.section	.text.dmaStreamAllocate,"ax",%progbits
 1527      AFF30080 
 1528              		.align	2
 1529              		.p2align 4,,15
 1530              		.global	dmaStreamAllocate
 1531              		.thumb
 1532              		.thumb_func
 1533              		.type	dmaStreamAllocate, %function
 1534              	dmaStreamAllocate:
 1535              		@ args = 0, pretend = 0, frame = 0
 1536              		@ frame_needed = 0, uses_anonymous_args = 0
 1537 0000 2DE9F041 		push	{r4, r5, r6, r7, r8, lr}
 1538 0004 204E     		ldr	r6, .L135
 1539 0006 447A     		ldrb	r4, [r0, #9]	@ zero_extendqisi2
 1540 0008 3768     		ldr	r7, [r6]
 1541 000a 0125     		movs	r5, #1
 1542 000c 05FA04FC 		lsl	ip, r5, r4
ARM GAS  /tmp/cch4md0g.s 			page 88


 1543 0010 1CEA070F 		tst	ip, r7
 1544 0014 32D1     		bne	.L126
 1545 0016 1D4D     		ldr	r5, .L135+4
 1546 0018 4CEA0707 		orr	r7, ip, r7
 1547 001c 05EBC408 		add	r8, r5, r4, lsl #3
 1548 0020 17F0FF0F 		tst	r7, #255
 1549 0024 45F83420 		str	r2, [r5, r4, lsl #3]
 1550 0028 3760     		str	r7, [r6]
 1551 002a C8F80430 		str	r3, [r8, #4]
 1552 002e 04D0     		beq	.L122
 1553 0030 174B     		ldr	r3, .L135+8
 1554 0032 1C6B     		ldr	r4, [r3, #48]
 1555 0034 44F40014 		orr	r4, r4, #2097152
 1556 0038 1C63     		str	r4, [r3, #48]
 1557              	.L122:
 1558 003a 17F47F4F 		tst	r7, #65280
 1559 003e 17D1     		bne	.L134
 1560              	.L123:
 1561 0040 0468     		ldr	r4, [r0]
 1562 0042 2368     		ldr	r3, [r4]
 1563 0044 23F01F03 		bic	r3, r3, #31
 1564 0048 2360     		str	r3, [r4]
 1565              	.L125:
 1566 004a 2368     		ldr	r3, [r4]
 1567 004c 13F00105 		ands	r5, r3, #1
 1568 0050 FBD1     		bne	.L125
 1569 0052 067A     		ldrb	r6, [r0, #8]	@ zero_extendqisi2
 1570 0054 4368     		ldr	r3, [r0, #4]
 1571 0056 3D27     		movs	r7, #61
 1572 0058 B740     		lsls	r7, r7, r6
 1573 005a 2126     		movs	r6, #33
 1574 005c 1F60     		str	r7, [r3]
 1575 005e 2560     		str	r5, [r4]
 1576 0060 6661     		str	r6, [r4, #20]
 1577 0062 72B1     		cbz	r2, .L127
 1578 0064 807A     		ldrb	r0, [r0, #10]	@ zero_extendqisi2
 1579 0066 FFF7FEFF 		bl	nvicEnableVector
 1580 006a 2846     		mov	r0, r5
 1581 006c BDE8F081 		pop	{r4, r5, r6, r7, r8, pc}
 1582              	.L134:
 1583 0070 074B     		ldr	r3, .L135+8
 1584 0072 1C6B     		ldr	r4, [r3, #48]
 1585 0074 44F48004 		orr	r4, r4, #4194304
 1586 0078 1C63     		str	r4, [r3, #48]
 1587 007a E1E7     		b	.L123
 1588              	.L126:
 1589 007c 2846     		mov	r0, r5
 1590 007e BDE8F081 		pop	{r4, r5, r6, r7, r8, pc}
 1591              	.L127:
 1592 0082 1046     		mov	r0, r2
 1593 0084 BDE8F081 		pop	{r4, r5, r6, r7, r8, pc}
 1594              	.L136:
 1595              		.align	2
 1596              	.L135:
 1597 0088 00000000 		.word	.LANCHOR1
 1598 008c 00000000 		.word	.LANCHOR0
 1599 0090 00380240 		.word	1073887232
ARM GAS  /tmp/cch4md0g.s 			page 89


 1600              		.size	dmaStreamAllocate, .-dmaStreamAllocate
 1601 0094 AFF30080 		.section	.text.dmaStreamRelease,"ax",%progbits
 1601      AFF30080 
 1601      AFF30080 
 1602              		.align	2
 1603              		.p2align 4,,15
 1604              		.global	dmaStreamRelease
 1605              		.thumb
 1606              		.thumb_func
 1607              		.type	dmaStreamRelease, %function
 1608              	dmaStreamRelease:
 1609              		@ args = 0, pretend = 0, frame = 0
 1610              		@ frame_needed = 0, uses_anonymous_args = 0
 1611 0000 10B5     		push	{r4, lr}
 1612 0002 0446     		mov	r4, r0
 1613 0004 807A     		ldrb	r0, [r0, #10]	@ zero_extendqisi2
 1614 0006 FFF7FEFF 		bl	nvicDisableVector
 1615 000a 0D4A     		ldr	r2, .L140
 1616 000c 637A     		ldrb	r3, [r4, #9]	@ zero_extendqisi2
 1617 000e 1168     		ldr	r1, [r2]
 1618 0010 0120     		movs	r0, #1
 1619 0012 00FA03F3 		lsl	r3, r0, r3
 1620 0016 21EA0303 		bic	r3, r1, r3
 1621 001a 13F0FF0F 		tst	r3, #255
 1622 001e 1360     		str	r3, [r2]
 1623 0020 04D1     		bne	.L138
 1624 0022 084A     		ldr	r2, .L140+4
 1625 0024 116B     		ldr	r1, [r2, #48]
 1626 0026 21F40011 		bic	r1, r1, #2097152
 1627 002a 1163     		str	r1, [r2, #48]
 1628              	.L138:
 1629 002c 13F47F4F 		tst	r3, #65280
 1630 0030 04D1     		bne	.L137
 1631 0032 044B     		ldr	r3, .L140+4
 1632 0034 1A6B     		ldr	r2, [r3, #48]
 1633 0036 22F48002 		bic	r2, r2, #4194304
 1634 003a 1A63     		str	r2, [r3, #48]
 1635              	.L137:
 1636 003c 10BD     		pop	{r4, pc}
 1637              	.L141:
 1638 003e 00BF     		.align	2
 1639              	.L140:
 1640 0040 00000000 		.word	.LANCHOR1
 1641 0044 00380240 		.word	1073887232
 1642              		.size	dmaStreamRelease, .-dmaStreamRelease
 1643              		.global	_stm32_dma_streams
 1644 0048 AFF30080 		.section	.bss.dma_isr_redir,"aw",%nobits
 1644      AFF30080 
 1645              		.align	2
 1646              		.set	.LANCHOR0,. + 0
 1647              		.type	dma_isr_redir, %object
 1648              		.size	dma_isr_redir, 128
 1649              	dma_isr_redir:
 1650 0000 00000000 		.space	128
 1650      00000000 
 1650      00000000 
 1650      00000000 
ARM GAS  /tmp/cch4md0g.s 			page 90


 1650      00000000 
 1651              		.section	.rodata._stm32_dma_streams,"a",%progbits
 1652              		.align	2
 1653              		.set	.LANCHOR2,. + 0
 1654              		.type	_stm32_dma_streams, %object
 1655              		.size	_stm32_dma_streams, 192
 1656              	_stm32_dma_streams:
 1657 0000 10600240 		.word	1073897488
 1658 0004 08600240 		.word	1073897480
 1659 0008 00       		.byte	0
 1660 0009 00       		.byte	0
 1661 000a 0B       		.byte	11
 1662 000b 00       		.space	1
 1663 000c 28600240 		.word	1073897512
 1664 0010 08600240 		.word	1073897480
 1665 0014 06       		.byte	6
 1666 0015 01       		.byte	1
 1667 0016 0C       		.byte	12
 1668 0017 00       		.space	1
 1669 0018 40600240 		.word	1073897536
 1670 001c 08600240 		.word	1073897480
 1671 0020 10       		.byte	16
 1672 0021 02       		.byte	2
 1673 0022 0D       		.byte	13
 1674 0023 00       		.space	1
 1675 0024 58600240 		.word	1073897560
 1676 0028 08600240 		.word	1073897480
 1677 002c 16       		.byte	22
 1678 002d 03       		.byte	3
 1679 002e 0E       		.byte	14
 1680 002f 00       		.space	1
 1681 0030 70600240 		.word	1073897584
 1682 0034 0C600240 		.word	1073897484
 1683 0038 00       		.byte	0
 1684 0039 04       		.byte	4
 1685 003a 0F       		.byte	15
 1686 003b 00       		.space	1
 1687 003c 88600240 		.word	1073897608
 1688 0040 0C600240 		.word	1073897484
 1689 0044 06       		.byte	6
 1690 0045 05       		.byte	5
 1691 0046 10       		.byte	16
 1692 0047 00       		.space	1
 1693 0048 A0600240 		.word	1073897632
 1694 004c 0C600240 		.word	1073897484
 1695 0050 10       		.byte	16
 1696 0051 06       		.byte	6
 1697 0052 11       		.byte	17
 1698 0053 00       		.space	1
 1699 0054 B8600240 		.word	1073897656
 1700 0058 0C600240 		.word	1073897484
 1701 005c 16       		.byte	22
 1702 005d 07       		.byte	7
 1703 005e 2F       		.byte	47
 1704 005f 00       		.space	1
 1705 0060 10640240 		.word	1073898512
 1706 0064 08640240 		.word	1073898504
ARM GAS  /tmp/cch4md0g.s 			page 91


 1707 0068 00       		.byte	0
 1708 0069 08       		.byte	8
 1709 006a 38       		.byte	56
 1710 006b 00       		.space	1
 1711 006c 28640240 		.word	1073898536
 1712 0070 08640240 		.word	1073898504
 1713 0074 06       		.byte	6
 1714 0075 09       		.byte	9
 1715 0076 39       		.byte	57
 1716 0077 00       		.space	1
 1717 0078 40640240 		.word	1073898560
 1718 007c 08640240 		.word	1073898504
 1719 0080 10       		.byte	16
 1720 0081 0A       		.byte	10
 1721 0082 3A       		.byte	58
 1722 0083 00       		.space	1
 1723 0084 58640240 		.word	1073898584
 1724 0088 08640240 		.word	1073898504
 1725 008c 16       		.byte	22
 1726 008d 0B       		.byte	11
 1727 008e 3B       		.byte	59
 1728 008f 00       		.space	1
 1729 0090 70640240 		.word	1073898608
 1730 0094 0C640240 		.word	1073898508
 1731 0098 00       		.byte	0
 1732 0099 0C       		.byte	12
 1733 009a 3C       		.byte	60
 1734 009b 00       		.space	1
 1735 009c 88640240 		.word	1073898632
 1736 00a0 0C640240 		.word	1073898508
 1737 00a4 06       		.byte	6
 1738 00a5 0D       		.byte	13
 1739 00a6 44       		.byte	68
 1740 00a7 00       		.space	1
 1741 00a8 A0640240 		.word	1073898656
 1742 00ac 0C640240 		.word	1073898508
 1743 00b0 10       		.byte	16
 1744 00b1 0E       		.byte	14
 1745 00b2 45       		.byte	69
 1746 00b3 00       		.space	1
 1747 00b4 B8640240 		.word	1073898680
 1748 00b8 0C640240 		.word	1073898508
 1749 00bc 16       		.byte	22
 1750 00bd 0F       		.byte	15
 1751 00be 46       		.byte	70
 1752 00bf 00       		.space	1
 1753              		.section	.bss.dma_streams_mask,"aw",%nobits
 1754              		.align	2
 1755              		.set	.LANCHOR1,. + 0
 1756              		.type	dma_streams_mask, %object
 1757              		.size	dma_streams_mask, 4
 1758              	dma_streams_mask:
 1759 0000 00000000 		.space	4
 1760              		.comm	__gnu_lto_v1,1,1
 1761              		.ident	"GCC: (GNU Tools for ARM Embedded Processors) 4.8.4 20140526 (release) [ARM/embedded-4_8-br
ARM GAS  /tmp/cch4md0g.s 			page 92


DEFINED SYMBOLS
                            *ABS*:0000000000000000 stm32_dma.c
     /tmp/cch4md0g.s:995    .text.Vector6C:0000000000000000 $t
     /tmp/cch4md0g.s:1001   .text.Vector6C:0000000000000000 Vector6C
     /tmp/cch4md0g.s:1020   .text.Vector6C:0000000000000020 $d
     /tmp/cch4md0g.s:1024   .text.Vector70:0000000000000000 $t
     /tmp/cch4md0g.s:1030   .text.Vector70:0000000000000000 Vector70
     /tmp/cch4md0g.s:1051   .text.Vector70:0000000000000024 $d
     /tmp/cch4md0g.s:1055   .text.Vector74:0000000000000000 $t
     /tmp/cch4md0g.s:1061   .text.Vector74:0000000000000000 Vector74
     /tmp/cch4md0g.s:1082   .text.Vector74:0000000000000024 $d
     /tmp/cch4md0g.s:1086   .text.Vector78:0000000000000000 $t
     /tmp/cch4md0g.s:1092   .text.Vector78:0000000000000000 Vector78
     /tmp/cch4md0g.s:1113   .text.Vector78:0000000000000024 $d
     /tmp/cch4md0g.s:1117   .text.Vector7C:0000000000000000 $t
     /tmp/cch4md0g.s:1123   .text.Vector7C:0000000000000000 Vector7C
     /tmp/cch4md0g.s:1142   .text.Vector7C:0000000000000020 $d
     /tmp/cch4md0g.s:1146   .text.Vector80:0000000000000000 $t
     /tmp/cch4md0g.s:1152   .text.Vector80:0000000000000000 Vector80
     /tmp/cch4md0g.s:1173   .text.Vector80:0000000000000024 $d
     /tmp/cch4md0g.s:1177   .text.Vector84:0000000000000000 $t
     /tmp/cch4md0g.s:1183   .text.Vector84:0000000000000000 Vector84
     /tmp/cch4md0g.s:1204   .text.Vector84:0000000000000024 $d
     /tmp/cch4md0g.s:1208   .text.VectorFC:0000000000000000 $t
     /tmp/cch4md0g.s:1214   .text.VectorFC:0000000000000000 VectorFC
     /tmp/cch4md0g.s:1235   .text.VectorFC:0000000000000024 $d
     /tmp/cch4md0g.s:1239   .text.Vector120:0000000000000000 $t
     /tmp/cch4md0g.s:1245   .text.Vector120:0000000000000000 Vector120
     /tmp/cch4md0g.s:1264   .text.Vector120:0000000000000020 $d
     /tmp/cch4md0g.s:1268   .text.Vector124:0000000000000000 $t
     /tmp/cch4md0g.s:1274   .text.Vector124:0000000000000000 Vector124
     /tmp/cch4md0g.s:1295   .text.Vector124:0000000000000024 $d
     /tmp/cch4md0g.s:1299   .text.Vector128:0000000000000000 $t
     /tmp/cch4md0g.s:1305   .text.Vector128:0000000000000000 Vector128
     /tmp/cch4md0g.s:1326   .text.Vector128:0000000000000024 $d
     /tmp/cch4md0g.s:1330   .text.Vector12C:0000000000000000 $t
     /tmp/cch4md0g.s:1336   .text.Vector12C:0000000000000000 Vector12C
     /tmp/cch4md0g.s:1357   .text.Vector12C:0000000000000024 $d
     /tmp/cch4md0g.s:1361   .text.Vector130:0000000000000000 $t
     /tmp/cch4md0g.s:1367   .text.Vector130:0000000000000000 Vector130
     /tmp/cch4md0g.s:1386   .text.Vector130:0000000000000020 $d
     /tmp/cch4md0g.s:1390   .text.Vector150:0000000000000000 $t
     /tmp/cch4md0g.s:1396   .text.Vector150:0000000000000000 Vector150
     /tmp/cch4md0g.s:1417   .text.Vector150:0000000000000024 $d
     /tmp/cch4md0g.s:1421   .text.Vector154:0000000000000000 $t
     /tmp/cch4md0g.s:1427   .text.Vector154:0000000000000000 Vector154
     /tmp/cch4md0g.s:1448   .text.Vector154:0000000000000024 $d
     /tmp/cch4md0g.s:1452   .text.Vector158:0000000000000000 $t
     /tmp/cch4md0g.s:1458   .text.Vector158:0000000000000000 Vector158
     /tmp/cch4md0g.s:1479   .text.Vector158:0000000000000024 $d
     /tmp/cch4md0g.s:1483   .text.dmaInit:0000000000000000 $t
     /tmp/cch4md0g.s:1489   .text.dmaInit:0000000000000000 dmaInit
     /tmp/cch4md0g.s:1521   .text.dmaInit:0000000000000034 $d
     /tmp/cch4md0g.s:1528   .text.dmaStreamAllocate:0000000000000000 $t
     /tmp/cch4md0g.s:1534   .text.dmaStreamAllocate:0000000000000000 dmaStreamAllocate
     /tmp/cch4md0g.s:1597   .text.dmaStreamAllocate:0000000000000088 $d
     /tmp/cch4md0g.s:1602   .text.dmaStreamRelease:0000000000000000 $t
ARM GAS  /tmp/cch4md0g.s 			page 93


     /tmp/cch4md0g.s:1608   .text.dmaStreamRelease:0000000000000000 dmaStreamRelease
     /tmp/cch4md0g.s:1640   .text.dmaStreamRelease:0000000000000040 $d
     /tmp/cch4md0g.s:1656   .rodata._stm32_dma_streams:0000000000000000 _stm32_dma_streams
     /tmp/cch4md0g.s:1645   .bss.dma_isr_redir:0000000000000000 $d
     /tmp/cch4md0g.s:1649   .bss.dma_isr_redir:0000000000000000 dma_isr_redir
     /tmp/cch4md0g.s:1652   .rodata._stm32_dma_streams:0000000000000000 $d
     /tmp/cch4md0g.s:1754   .bss.dma_streams_mask:0000000000000000 $d
     /tmp/cch4md0g.s:1758   .bss.dma_streams_mask:0000000000000000 dma_streams_mask
                            *COM*:0000000000000001 __gnu_lto_v1
     /tmp/cch4md0g.s:1023   .text.Vector6C:0000000000000028 $t
     /tmp/cch4md0g.s:1054   .text.Vector70:000000000000002c $t
     /tmp/cch4md0g.s:1085   .text.Vector74:000000000000002c $t
     /tmp/cch4md0g.s:1116   .text.Vector78:000000000000002c $t
     /tmp/cch4md0g.s:1145   .text.Vector7C:0000000000000028 $t
     /tmp/cch4md0g.s:1176   .text.Vector80:000000000000002c $t
     /tmp/cch4md0g.s:1207   .text.Vector84:000000000000002c $t
     /tmp/cch4md0g.s:1238   .text.VectorFC:000000000000002c $t
     /tmp/cch4md0g.s:1267   .text.Vector120:0000000000000028 $t
     /tmp/cch4md0g.s:1298   .text.Vector124:000000000000002c $t
     /tmp/cch4md0g.s:1329   .text.Vector128:000000000000002c $t
     /tmp/cch4md0g.s:1360   .text.Vector12C:000000000000002c $t
     /tmp/cch4md0g.s:1389   .text.Vector130:0000000000000028 $t
     /tmp/cch4md0g.s:1420   .text.Vector150:000000000000002c $t
     /tmp/cch4md0g.s:1451   .text.Vector154:000000000000002c $t
     /tmp/cch4md0g.s:1482   .text.Vector158:000000000000002c $t
     /tmp/cch4md0g.s:1527   .text.dmaInit:0000000000000048 $t
     /tmp/cch4md0g.s:1601   .text.dmaStreamAllocate:0000000000000094 $t
     /tmp/cch4md0g.s:1644   .text.dmaStreamRelease:0000000000000048 $t

UNDEFINED SYMBOLS
_port_irq_epilogue
nvicEnableVector
nvicDisableVector
