ARM GAS  /tmp/ccfTw1cj.s 			page 1


   1              		.syntax unified
   2              		.cpu cortex-m4
   3              		.eabi_attribute 27, 3
   4              		.eabi_attribute 28, 1
   5              		.fpu fpv4-sp-d16
   6              		.eabi_attribute 20, 1
   7              		.eabi_attribute 21, 1
   8              		.eabi_attribute 23, 3
   9              		.eabi_attribute 24, 1
  10              		.eabi_attribute 25, 1
  11              		.eabi_attribute 26, 1
  12              		.eabi_attribute 30, 2
  13              		.eabi_attribute 34, 1
  14              		.eabi_attribute 18, 4
  15              		.thumb
  16              		.file	"testsem.c"
  17              		.section	.gnu.lto_.jmpfuncs.242cfd61d017484d,"",%progbits
  18 0000 789CAD54 		.ascii	"x\234\255T;n\3030\014}\244\374\215[7\001\202\216Y{\213"
  18      3B6EC330 
  18      0C7DA4FC 
  18      8D5B3701 
  18      828E597B 
  19 0015 A2F9F40E 		.ascii	"\242\371\364\016\335;y\310\332\245\213\307\034!K\357"
  19      DD3B79C8 
  19      DAA58BC7 
  19      1C214BEF 
  20 0025 94C374EA 		.ascii	"\224\303t\352T\375,\320\260-\324F\015\003\246\370\036"
  20      54FD2CD0 
  20      B02DD446 
  20      0D03A6F8 
  20      1E
  21 0036 45F28932 		.ascii	"E\362\2112\2031\366<\247\300\243\376\326\000\363\033"
  21      8331F63C 
  21      A7C0A3FE 
  21      D600F31B 
  22 0046 35D4F198 		.ascii	"5\324\361\230?\361\323^\332uCt&\34728k<\3656n\312\372"
  22      3FF1D35E 
  22      DA754374 
  22      26E73238 
  22      6B3CF536 
  23 005d 0353BD7B 		.ascii	"\003S\275{\246\361\\\215'\331\201\276\332\353KC\251"
  23      A6F15C8D 
  23      27D981BE 
  23      DAEB4B43 
  23      A9
  24 006e DFD60692 		.ascii	"\337\326\006\222\344d;$\216\223\273\3344\314\375\237"
  24      E4643B24 
  24      8E93BBDC 
  24      34CCFD9F 
  25 007e AE79E557 		.ascii	"\256y\345W\262\374y\241\365\362\320\315\362\320\355"
  25      B2FC79A1 
  25      F5F2D0CD 
  25      F2D0ED
  26 008d F2D0DE51 		.ascii	"\362\320\336Q)\242Q\371\262?\312\234O\317\2206\212("
  26      29A251F9 
  26      B23FCA9C 
  26      4FCF9036 
ARM GAS  /tmp/ccfTw1cj.s 			page 2


  26      8A28
  27 009f 5A46D1D5 		.ascii	"ZF\321\325\304I\033\274\370\326\215Vv\302\356\210L\323"
  27      C4491BBC 
  27      F8D68D56 
  27      76C2EE88 
  27      4CD3
  28 00b1 1F84FB6E 		.ascii	"\037\204\373n\356R1\203V\020\012\313d\032b\277\214\211"
  28      EE523183 
  28      56100ACB 
  28      641A62BF 
  28      8C89
  29 00c3 49DDB5E9 		.ascii	"I\335\265\351\346\033&,\224,\355:\272\021\207V\313\310"
  29      E61B262C 
  29      942CED3A 
  29      BA118756 
  29      CBC8
  30 00d5 352C2E4F 		.ascii	"5,.O\030-]v\230!\364\021\331\305\223s\021X\010\273\024"
  30      182D5D76 
  30      9821F411 
  30      D9C59373 
  30      115808BB 
  31 00ea F62A766D 		.ascii	"\366*vm\225\343TN\210\207\276\230R\311\236FS\225ic="
  31      95E3544E 
  31      8887BE98 
  31      52C99E46 
  31      53956963 
  32 00ff 8A0E3DC3 		.ascii	"\212\016=\3034V\220\315\274\254\263~\023\252wH\340="
  32      345690CD 
  32      BCACB37E 
  32      13AA7748 
  32      E03D
  33 0111 B2FDE178 		.ascii	"\262\375\341xz\005\353\367\004>\202\017\370\005\013"
  33      7A05EBF7 
  33      043E820F 
  33      F8050B
  34 0120 C0D2B2   		.ascii	"\300\322\262"
  35              		.text
  36              		.section	.gnu.lto_.inline.242cfd61d017484d,"",%progbits
  37 0000 789C9552 		.ascii	"x\234\225R\273N\0031\020\234\365]\356\222{\221(\022"
  37      BB4E0331 
  37      109CF55D 
  37      EE927B91 
  37      2812
  38 0012 02247405 		.ascii	"\002$t\005H\210\177@\242K\201\220\225o\310\327\244t"
  38      48887F40 
  38      A24B8190 
  38      956FC8D7 
  38      A474
  39 0024 9F260505 		.ascii	"\237&\005\005E>&\005\022\010!\321\246\201:%k\373\234"
  39      453E2605 
  39      120821D1 
  39      A6813A25 
  39      6BFB9C
  40 0037 C4B97324 		.ascii	"\304\271s$\\x\355\235\365\316\316\256\005\004\272\326"
  40      5C78ED9D 
  40      F5CECEAE 
  40      0504BAD6 
ARM GAS  /tmp/ccfTw1cj.s 			page 3


  41 0047 75646D05 		.ascii	"udm\005\374\340\235\010b\272\371\215\220,k\023\037\227"
  41      FCE09D08 
  41      62BAF98D 
  41      902C6B13 
  41      1F97
  42 0059 E0874A52 		.ascii	"\340\207JR\306\027\263E\205\366 \035\002=%\031rA\026"
  42      C617B345 
  42      85F6201D 
  42      023D2519 
  42      724116
  43 006c 16391F82 		.ascii	"\0269\037\202\373\341\253\377\236#\364/9\017mR\244\363"
  43      FBE1ABFF 
  43      9E23F42F 
  43      390F6D52 
  43      A4F3
  44 007e 3B539D49 		.ascii	";S\235I\252\244\315\235 \275 \243\322\025\3571#\251"
  44      AAA4CD9D 
  44      20BD20A3 
  44      D215EF31 
  44      23A9
  45 0090 7CB411D2 		.ascii	"|\264\021\322\017\001\203\020\220!\273e ^\326;\244%"
  45      0F018310 
  45      9021BB65 
  45      205ED63B 
  45      A425
  46 00a2 3D473EE6 		.ascii	"=G>\346f\222v\017^'\273\212\367\201J\026\350\225\035"
  46      6692760F 
  46      5E27BB8A 
  46      F7814A16 
  46      E8951D
  47 00b5 052B5916 		.ascii	"\005+Y\026\337xdd\266]Pk\022\316Z\236\323\336v\323\035"
  47      DF786464 
  47      B65D506B 
  47      12CE5A9E 
  47      D3DE76D3 
  48 00ca D248694C 		.ascii	"\322HiL\205/|\352\332\237W\037{\306\320\210\2179\275"
  48      852F7CEA 
  48      DA9F571F 
  48      7BC6D088 
  48      8F39BD
  49 00dd 3F2272D2 		.ascii	"?\"r\322\022b\253\314\032w=\264\260\260\036\253\222"
  49      1262ABCC 
  49      1A773DB4 
  49      B0B01EAB 
  49      92
  50 00ee 4A9EA1BE 		.ascii	"J\236\241\276g\350|=\365{\032\342j\022\0141\326\243"
  50      67E87C3D 
  50      F57B1AE2 
  50      6A120C31 
  50      D6A3
  51 0100 28DE9E8E 		.ascii	"(\336\236\216\207\344\013Ur\204\233\007\216\274\332"
  51      87E40B55 
  51      72849B07 
  51      8EBCDA
  52 010f BED06986 		.ascii	"\276\320i\206\216\377\215?)|I\255"
  52      8EFF8D3F 
  52      297C49AD 
ARM GAS  /tmp/ccfTw1cj.s 			page 4


  53              		.text
  54              		.section	.gnu.lto_.pureconst.242cfd61d017484d,"",%progbits
  55 0000 789C6362 		.ascii	"x\234cb`b\220e\200\000>\006+fI6\011v\011\016\011N\011"
  55      60629065 
  55      80003E06 
  55      2B664936 
  55      0976090E 
  56 0017 2E2B6E2B 		.ascii	".+n+\036\011^+>+~I\001IAI\000(\262\002\273"
  56      1E095E2B 
  56      3E2B7E49 
  56      01494149 
  56      0028B202 
  57              		.text
  58              		.section	.gnu.lto_sem1_execute.242cfd61d017484d,"",%progbits
  59 0000 789CC597 		.ascii	"x\234\305\227_L[u\024\307\317\357woK\313\277u RQk\025"
  59      5F4C5B75 
  59      14C7CFEF 
  59      776F4BCB 
  59      BF752052 
  60 0017 C6837FB8 		.ascii	"\306\203\177\270\222\360\177\214\375a\230\030\263\027"
  60      92F07F8C 
  60      FD619818 
  60      B317
  61 0025 99893E99 		.ascii	"\231\211>\231ri\240jai\313\"\361a\227?\032\314|\300"
  61      7269A06A 
  61      6169CB22 
  61      F161973F 
  61      1ACC7CC0 
  62 0039 07956896 		.ascii	"\007\225h\226\314\250\323,\213:\022\023SPg\226%\350"
  62      CCA8D32C 
  62      8B3A1213 
  62      53506796 
  62      25E8
  63 004b 26A0716C 		.ascii	"&\240ql\222.\222i\262\007\315\202/s\361e\236\363\273"
  63      922E9269 
  63      B207CD82 
  63      2F73F165 
  63      9EF3BB
  64 005e BD7F684B 		.ascii	"\275\177hK\267\326\022\233p{\316\357\376\316\367w\316"
  64      B7D6129B 
  64      707BCEEF 
  64      FECEF777 
  64      CE
  65 006f EFF33BE5 		.ascii	"\357\363;\345^\016\034R?O\341\337\257\036\200\004~\263"
  65      5E0E1C52 
  65      3F4FE1DF 
  65      AF1E8004 
  65      7EB3
  66 0081 22607C7A 		.ascii	"\"`|z\021`\314\305\271sE\001\255X\212\373@+\225\270"
  66      1160CCC5 
  66      B9734501 
  66      AD588AFB 
  66      402B95B8 
  67 0095 3C8FDFC5 		.ascii	"<\217\337\305\216\237q\254TfN}\222\3030\234\214\221"
  67      8E9F71AC 
  67      54664E7D 
  67      92C3309C 
ARM GAS  /tmp/ccfTw1cj.s 			page 5


  67      8C91
  68 00a7 010C8E70 		.ascii	"\001\014\216pIv8\331\221\347\230P\377\214\237Y\273u"
  68      497638D9 
  68      91E79850 
  68      FF8C9F59 
  68      BB75
  69 00b9 EBD3CBAF 		.ascii	"\353\323\313\257}\230`\307x\217\004!\0062^\230\023/"
  69      7D9860C7 
  69      788F0421 
  69      06325E98 
  69      132F
  70 00cb DC45AE9B 		.ascii	"\334E\256\233\334\022r\313\310-'\327Cn\005\271\225\344"
  70      DC1272CB 
  70      C82D27D7 
  70      436E05B9 
  70      95E4
  71 00dd 56915B4D 		.ascii	"V\221[M\256\227\334\032rk\361\"\325\221[On\003^d\205"
  71      AE97DC1A 
  71      726BF122 
  71      D5915B4F 
  71      6E035E64 
  72 00f2 C61AE9D2 		.ascii	"\306\032\351\322Dc\315xq\264\220\325JV\033Y\355du\220"
  72      4463CD78 
  72      71B490D5 
  72      4A561B59 
  72      ED647590 
  73 0106 B593AC4E 		.ascii	"\265\223\254N\262v\221\325E\326n\2620m\007Lj\332\264"
  73      B27691D5 
  73      45D66EB2 
  73      306D074C 
  73      6ADAB4
  74 0119 1F401565 		.ascii	"\037@\025e\034\304+\325\367\014\343\364-\375\000\343"
  74      1CC42BD5 
  74      F70CE3F4 
  74      2DFD00E3 
  75 0129 89CB7F2C 		.ascii	"\211\313\177,\310\001\366>N\037`\322cpJ\363\204\230"
  75      C801F63E 
  75      4E1F60D2 
  75      63704AF3 
  75      8498
  76 013b F33D7877 		.ascii	"\363=xwl\232\254\242W\340\037m\206,WXH<\313\320\004"
  76      6C9AACA2 
  76      57E01F6D 
  76      862C5758 
  76      483CCBD0 
  77 0150 C372DB00 		.ascii	"\303r\333\000\240\330jbu\245\311\\S7\264\017N(\266D"
  77      A0D86A62 
  77      75A5C95C 
  77      5337B40F 
  77      4E28B644 
  78 0164 74E3CCD1 		.ascii	"t\343\314\321K\247\267\243\236\276\260\312\204\264\312"
  78      4BA7B7A3 
  78      9EBEB0CA 
  78      84B4CA
  79 0173 04D501D6 		.ascii	"\004\325\001\326\364\010\234\3244m\355\342\027\037="
  79      F4089CD4 
  79      346DEDE2 
ARM GAS  /tmp/ccfTw1cj.s 			page 6


  79      171F3D
  80 0182 8CC5E89E 		.ascii	"\214\305\350\236\326\036b\305\224\227F\331\224P^Sd\225"
  80      D61E62C5 
  80      949746D9 
  80      94505E53 
  80      6495
  81 0194 86453465 		.ascii	"\206E4eS*\362\350#7\300N\320\006\3641f\332z\2063\263"
  81      532AF2E8 
  81      2337C04E 
  81      D006F431 
  81      66DA7A86 
  82 01aa 3501F6B1 		.ascii	"5\001\366\261\250\2669)\034\305\2752\205\313py\322\342"
  82      A8B63929 
  82      1CC5BD32 
  82      85CB7079 
  82      D2E2
  83 01bc 492D4EF1 		.ascii	"I-N\361\237\030\361\023Sg\217^z\323m\354\227\214\"4"
  83      9F18F113 
  83      53678F5E 
  83      7AD36DEC 
  83      978C2234 
  84 01d0 59DC5E02 		.ascii	"Y\334^\002\2571\3564\263+W\231\004zU\022\315\334\266"
  84      AF31EE34 
  84      B32B5799 
  84      047A5512 
  84      CDDCB6
  85 01e3 2C511CDD 		.ascii	",Q\034\335w\205\230Ge\311\275\007\032\361\206\330v\037"
  85      77859847 
  85      65C9BD07 
  85      1AF186D8 
  85      761F
  86 01f5 BC704C9B 		.ascii	"\274pL\233\331\023b\025\311\315A\222\225\"\365\357\226"
  86      D9136215 
  86      C9CD4192 
  86      9522F5EF 
  86      96
  87 0206 8BF41182 		.ascii	"\213\364\021\202\204\237fL\322L\373.s\305\252\260\310"
  87      849F664C 
  87      D24CFB2E 
  87      73C5AAB0 
  87      C8
  88 0217 9D16ABCA 		.ascii	"\235\026\253\312\300\011\223\023j\211\2336\356\256\234"
  88      C0099313 
  88      6A899B36 
  88      EEAE9C
  89 0226 B9B33CB9 		.ascii	"\271\263<\271\237\317\306\275\245\020\334\3436\356\361"
  89      9FCFC6BD 
  89      A510DCE3 
  89      36EEF1
  90 0235 14EE73A2 		.ascii	"\024\356s\242\332\326M\270\267\244q\237\267q?o\343\356"
  90      DAD64DB8 
  90      B7A4719F 
  90      B7713F6F 
  90      E3EE
  91 0247 4611C19D 		.ascii	"F\021\301\235m\344^\222\211\273\313\342\356\316\306"
  91      6DE45E92 
  91      89BBCBE2 
ARM GAS  /tmp/ccfTw1cj.s 			page 7


  91      EECEC6
  92 0256 3DBC15DC 		.ascii	"=\274\025\334MN\230\234\316}\346\272\305\275,g\356\266"
  92      4D4E989C 
  92      CE7DE6BA 
  92      C5BD2C67 
  92      EEB6
  93 0268 DFDDDCFA 		.ascii	"\337\335\334\372=\221\205{[!\270/\332\270/\246p_\022"
  93      3D91857B 
  93      5B21B82F 
  93      DAB82FA6 
  93      705F12
  94 027b D5B66FC2 		.ascii	"\325\266o\302\275-\215\373\262\275\337\023\026\367r"
  94      BD2D8DFB 
  94      B2BDDF13 
  94      16F772
  95 028a 1411DCA5 		.ascii	"\024\021\334\245\215\334=\231\270\227Y\334\313\263q"
  95      8DDC3D99 
  95      B89759DC 
  95      CBB371
  96 0299 3FB415DC 		.ascii	"?\264\025\334MN\230\234\316\375K\033\367\212\234\271"
  96      4D4E989C 
  96      CEFD4B1B 
  96      F78A9CB9 
  97 02a9 4BF9F67B 		.ascii	"K\371\366{6\356\035\205\340~\325\306\375j\012\367\337"
  97      36EE1D85 
  97      E07ED5C6 
  97      FD6A0AF7 
  97      DF
  98 02ba 44B53B37 		.ascii	"D\265;7\341\336\221\306\375w{\277\333\270W\242\210\340"
  98      E1DE91C6 
  98      FD777BBF 
  98      DBB857A2 
  98      88E0
  99 02cc 2E6FE45E 		.ascii	".o\344^\225\211{\205\305\2752\033\367\350Vp79\015\320"
  99      95897B85 
  99      C5BD321B 
  99      F7E85670 
  99      37390DD0 
 100 02e0 A8F8FF6E 		.ascii	"\250\370\377n\343^\2353w9\337~\277\222\205{g!\270\337"
 100      E35E9D33 
 100      7739DF7E 
 100      BF92857B 
 100      6721B8DF 
 101 02f4 B071BF91 		.ascii	"\260q\277\221\302\375oQ\355\256M\270w\246q\277i\357"
 101      C2FD6F51 
 101      EDAE4DB8 
 101      77A671BF 
 101      69EF
 102 0306 F72B1677 		.ascii	"\367+\026w/\212\010\356|#\367\232L\334\253-\356\336"
 102      2F8A08EE 
 102      7C23F79A 
 102      4CDCAB2D 
 102      EEDE
 103 0318 6CDC0F6F 		.ascii	"l\334\017o\005w\223\023&G\251N\256\315\235M\312\351"
 103      05779313 
 103      2647A94E 
 103      AECD9D4D 
ARM GAS  /tmp/ccfTw1cj.s 			page 8


 103      CAE9
 104 032a 6B8BD8BB 		.ascii	"k\213\330\273U\275PH\346W\035f\222\231\205W\304\035"
 104      55BD5048 
 104      E6571D66 
 104      92998557 
 104      C41D
 105 033c 9F97F20A 		.ascii	"\237\227\362\012\373*\277\260\257\363\013\373&\237\260"
 105      FB2ABFB0 
 105      AFF30BFB 
 105      269FB0
 106 034b 89B58589 		.ascii	"\211\265\205\211\222\264\270{Tz\"\002\232%v\356\325"
 106      92B4B87B 
 106      547A2202 
 106      9A2576EE 
 106      D5
 107 035c B50BAAC1 		.ascii	"\265\013\252\301\271\326\234u\257\212\357\024\306no"
 107      B9D69C75 
 107      AF8AEF14 
 107      C66E6F
 108 036b 6306CEFB 		.ascii	"c\006\316\373|0\252\343\274\337\302\351\003X\200\311"
 108      7C30AAE3 
 108      BCDFC2E9 
 108      035880C9 
 109 037b 3F99A942 		.ascii	"?\231\251B1\266\037Pz\376\226 \356\243\307\357\325\013"
 109      31B61F50 
 109      7AFE9620 
 109      EEA3C7EF 
 109      D50B
 110 038d AB2BF29D 		.ascii	"\253+\362\235u\324\265,\035\325U\210\216z\213[\035%"
 110      75D4B52C 
 110      1DD55588 
 110      8E7A8B5B 
 110      1D25
 111 039f 6C5B47BD 		.ascii	"l[G\275\315\251\222\335\233tTWZG\275\303m\035u\315\352"
 111      CDA992DD 
 111      9B745457 
 111      5A47BDC3 
 111      6D1D75CD 
 112 03b4 A83A14C9 		.ascii	"\250:\024\311\364\304\\\177\233'\346\272\377\363\211"
 112      F4C45C7F 
 112      9B27E6BA 
 112      FFF389
 113 03c3 B91E6011 		.ascii	"\271\036`\021\306\377\232:7\373\206db1\016\022\276+"
 113      C6FF9A3A 
 113      37FB8664 
 113      62310E12 
 113      BE2B
 114 03d5 32F81673 		.ascii	"2\370\026sF\015I\177/\365\301O\314H))\367\200\237,\363"
 114      460D497F 
 114      2FF5C14F 
 114      CC482929 
 114      F7809F2C 
 115 03ea FEC5E47D 		.ascii	"\376\305\344}\277\276\004\236\272\365\361\271S,\355"
 115      BFBE049E 
 115      BAF5F1B9 
 115      532CED
 116 03f9 703EA826 		.ascii	"p>\250&\177\214\323\0175\251>\304\261\326Zq\266\217"
ARM GAS  /tmp/ccfTw1cj.s 			page 9


 116      7F8CD30F 
 116      35A93EC4 
 116      B1D65A71 
 116      B68F
 117 040b FF92DE12 		.ascii	"\377\222\336\022x\264\335\326\321\276\263\022\360\345"
 117      78B4DDD6 
 117      D1BEB312 
 117      F0E5
 118 0419 884B7ACA 		.ascii	"\210Kz\312`K9\300Nr\237\221\354\304\372\354\334\347"
 118      604B39C0 
 118      4E729F91 
 118      ECC4FAEC 
 118      DCE7
 119 042b E9C96EEC 		.ascii	"\351\311n\354\244\234\227\363g^\0169\306\317\275~\335"
 119      A49C97F3 
 119      675E0E39 
 119      C6CFBD7E 
 119      DD
 120 043c ECA60624 		.ascii	"\354\246\006$H\245\233\313\322\236$w\271\332e-\202G"
 120      48A59BCB 
 120      D29E2477 
 120      B9DA652D 
 120      8247
 121 044e 6F493282 		.ascii	"oI2\202\024\214\243\011\262\376\300\3560\306\033M\225"
 121      148CA309 
 121      B2FEC0EE 
 121      30C61B4D 
 121      95
 122 045f 3A95155B 		.ascii	":\225\025[\015\316)&\304v\244trc\206N\226a\275D\302"
 122      0DCE2926 
 122      C476A474 
 122      7263864E 
 122      9661BD44 
 123 0474 624F63B1 		.ascii	"bOc\261\245\377qkuE\007|_A\212\254 jN\361\246\377#\214"
 123      A5FF716B 
 123      7545077C 
 123      5F418AAC 
 123      206A4EF1 
 124 048c B9ACD183 		.ascii	"\271\254\321\203\330\3448J\001\21228\034\016*\352p\377"
 124      D8E4384A 
 124      018A3238 
 124      1C0E2AEA 
 124      70FF
 125 049e A8D21F3C 		.ascii	"\250\322\037<\254\250\203\241\276\320pT\211EF\206^T"
 125      ACA883A1 
 125      BED07054 
 125      89454686 
 125      5E54
 126 04b0 62C1684C 		.ascii	"b\301hL\211\304\304w4\030nP\2415\353|4pvhH}i\244\037"
 126      89C4C477 
 126      34186E50 
 126      A135EB7C 
 126      34707668 
 127 04c9 270DC606 		.ascii	"'\015\306\006#\301@\177\264a\020\370^\340\373\200w\003"
 127      23C1407F 
 127      B46110F8 
 127      5EE0FB80 
ARM GAS  /tmp/ccfTw1cj.s 			page 10


 127      7703
 128 04db DF0FBC07 		.ascii	"\337\017\274\007\234{\367u\357\357\201=\267S\013\276"
 128      9C7BF775 
 128      EFEF813D 
 128      B7530BBE 
 129 04eb 1C53BA0F 		.ascii	"\034S\272\017\364>\331k\211\016G\202\317\253\341'F\206"
 129      F43ED96B 
 129      890E4782 
 129      CFABE127 
 129      4686
 130 04fd 5494F51C 		.ascii	"T\224\365\034\350}\332\337\027\210\006\017EB\217\372"
 130      E87DDADF 
 130      1788060F 
 130      45428FFA 
 131 050d 773C0E3C 		.ascii	"w<\016<\002E\341`x82\012\377\002\002\036\017\217"
 131      0245E160 
 131      7838320A 
 131      FF02021E 
 131      0F8F
 132              		.text
 133              		.section	.gnu.lto_thread1.242cfd61d017484d,"",%progbits
 134 0000 789C6550 		.ascii	"x\234eP\261J\003A\020}o\356.Iikgm\341\342\277D0\245"
 134      B14A0341 
 134      107D6FEE 
 134      2E49696B 
 134      676DE1E2 
 135 0018 6E8E6491 		.ascii	"n\216d\221\363 w\012\301\"\227\030\301FH\035\213 V\202"
 135      F320770A 
 135      C1229718 
 135      C146481D 
 135      8B205682 
 136 002c 689FCACA 		.ascii	"h\237\312\312N\203\177p\255\277`\023g\357bc\026f\337"
 136      4E837F70 
 136      ADBF6013 
 136      67EF6263 
 136      1666DF
 137 003f EECC9BB7 		.ascii	"\356\314\233\267oV \370\277v5\2765\0165\030\2002\373"
 137      6F5620F8 
 137      BF7635BE 
 137      350E3518 
 137      8032FB
 138 0052 04C62D21 		.ascii	"\004\306-!\375\001\304H8\352\260\342\276\312[\271^\277"
 138      FD01C448 
 138      38EAB0E2 
 138      BECA5BB9 
 138      5EBF
 139 0064 2CDF17CF 		.ascii	",\337\027\317\234K#`B\204pU1\302\264(f{\200\255\256"
 139      9C4B2360 
 139      42847055 
 139      31C2B428 
 139      667B80AD 
 140 0079 6DDDBDC0 		.ascii	"m\335\275\300\021\305c\260\302\264\\\\7O\370\300H\313"
 140      11C563B0 
 140      C2B45C5C 
 140      374FF8C0 
 140      48CB
 141 008b 57F8296E 		.ascii	"W\370)n\213\035GZ\326\332>\323r\224\204\334\220\234"
ARM GAS  /tmp/ccfTw1cj.s 			page 11


 141      8B1D475A 
 141      D6DA3ED3 
 141      729484DC 
 141      909C
 142 009d DAC10726 		.ascii	"\332\301\007&\313\233\307\273\375:\327cx\2179\365\305"
 142      CB9BC7BB 
 142      FD3AD763 
 142      788F39F5 
 142      C5
 143 00ae 1E8363C5 		.ascii	"\036\203c\305p3\305\012\341\226tdY\217\253]\216\015"
 143      7033C50A 
 143      E1967464 
 143      598FAB5D 
 143      8E0D
 144 00c0 E00BE3F2 		.ascii	"\340\013\343\362\311\326<\337\334\374\373\203\266zP"
 144      C9D63CDF 
 144      DCFCFB83 
 144      B67A50
 145 00cf 939E6D4C 		.ascii	"\223\236mL?Mbc\323\356\320t\343Kc\373\356\324\245\231"
 145      3F4D6263 
 145      D3EED074 
 145      E34B63FB 
 145      EED4A599 
 146 00e3 C90717E7 		.ascii	"\311\007\027\347g&\217\263\334\014\362\012\26389\260"
 146      67268FB3 
 146      DC0CF20A 
 146      B33839B0 
 147 00f3 F805C634 		.ascii	"\370\005\3064H\347"
 147      48E7
 148              		.text
 149              		.section	.gnu.lto_thread3.242cfd61d017484d,"",%progbits
 150 0000 789C6362 		.ascii	"x\234cb`b@\007\222@|\032\210\015\201\230\221\231\201"
 150      60624007 
 150      92407C1A 
 150      880D8198 
 150      919981
 151 0013 9169C239 		.ascii	"\221i\3029\006\206F\016&FF\020\203\201\221\241\236\211"
 151      0686460E 
 151      26464610 
 151      838191A1 
 151      9E89
 152 0025 B13E9211 		.ascii	"\261>\222\021\254v=\323\201\007\377\377\257\273tn\376"
 152      AC763DD3 
 152      8107FFFF 
 152      AFBB746E 
 152      FE
 153 0036 1FC65D4C 		.ascii	"\037\306]L,@\021V\206\226\206\206\011\012\014\014\311"
 153      2C401156 
 153      86968686 
 153      090A0C0C 
 153      C9
 154 0047 60152140 		.ascii	"`\025!@\022\244-\224\221\011D3\237ghy\260\246\235=\221"
 154      12A42D94 
 154      91094433 
 154      9F676879 
 154      B0A69D3D 
 155 005c 7121232B 		.ascii	"q!#+P\272\232\341WCG\203@&#P9\304D\220\010G&#c.#\003"
ARM GAS  /tmp/ccfTw1cj.s 			page 12


 155      50BA9AE1 
 155      57434783 
 155      40262350 
 155      39C44490 
 156 0078 54512650 		.ascii	"TQ&P+\003H\337\332\343\230\372\230\223\031\231p\352"
 156      2B0348DF 
 156      DAE398FA 
 156      98931999 
 156      70EA
 157 008a 03BAE722 		.ascii	"\003\272\347\"C\343\203u\351\020\221\010\306L\260f\006"
 157      43E38375 
 157      E9109108 
 157      C64CB066 
 157      06
 158 009b 88C31841 		.ascii	"\210\303\030A\016\002i\326\327\317\310\317M\325O\316"
 158      0E0269D6 
 158      D7CFC8CF 
 158      4DD54FCE 
 159 00ab 4FA9D44F 		.ascii	"O\251\324OI-\323O\316\310L\312\314/\326/)*\315\313\326"
 159      492DD34F 
 159      CEC84CCA 
 159      CC2FD62F 
 159      292ACDCB 
 160 00c0 2F492D2E 		.ascii	"/I-.\321/*\001\323\305\251\271z\311\014\000\257\013"
 160      D12F2A01 
 160      D3C5A9B9 
 160      7AC90C00 
 160      AF0B
 161 00d2 46A6     		.ascii	"F\246"
 162              		.text
 163              		.section	.gnu.lto_sem1_setup.242cfd61d017484d,"",%progbits
 164 0000 789C6362 		.ascii	"x\234cb`b@\007\222@<\025\210\015\201\230\221\231\201"
 164      60624007 
 164      92403C15 
 164      880D8198 
 164      919981
 165 0013 9169C239 		.ascii	"\221i\3029\006\206F\016&FF\020\203\201\221\241\236\211"
 165      0686460E 
 165      26464610 
 165      838191A1 
 165      9E89
 166 0025 B13E9211 		.ascii	"\261>\222\021\254v=\323\201\007\377\377\257\333\320"
 166      AC763DD3 
 166      8107FFFF 
 166      AFDBD0
 167 0034 367F0FE3 		.ascii	"6\177\017\343L&f\240\010+CKC\303\004\005\006\206d\260"
 167      4C2666A0 
 167      082B434B 
 167      43C30405 
 167      068664B0 
 168 0048 8A102009 		.ascii	"\212\020 \011\322\026\312\310\004\242\231\3173\264>"
 168      D216CAC8 
 168      04A299CF 
 168      33B43E
 169 0057 9875982B 		.ascii	"\230u\230+\221q!#+P\272\232\341WCG\203@&#P9\304D\220"
 169      91712123 
 169      2B50BA9A 
ARM GAS  /tmp/ccfTw1cj.s 			page 13


 169      E1574347 
 169      83402623 
 170 0070 08472623 		.ascii	"\010G&#c.#\003TQ\004c&P3C&\320-\014\027\031\032\037"
 170      632E2303 
 170      54510463 
 170      26503343 
 170      26D02D0C 
 171 0088 CC5686E9 		.ascii	"\314V\206\351\206\200\020\240N\240\321 \217\350\353"
 171      868010A0 
 171      4EA0D120 
 171      8FE8EB
 172 0097 67E4E7A6 		.ascii	"g\344\347\246\352'\347\247T\352\247\244\226\351'gd&"
 172      EA27E7A7 
 172      54EAA7A4 
 172      96E92767 
 172      6426
 173 00a9 65E617EB 		.ascii	"e\346\027\353\227\024\225\346e\353\227\244\026\227\350"
 173      971495E6 
 173      65EB97A4 
 173      1697E8
 174 00b8 179580E9 		.ascii	"\027\225\200\351\342\324\\\275d\006\000\321\2608\225"
 174      E2D45CBD 
 174      640600D1 
 174      B03895
 175              		.text
 176              		.section	.gnu.lto_sem2_setup.242cfd61d017484d,"",%progbits
 177 0000 789C6362 		.ascii	"x\234cb`b@\007\222@<\025\210\015\201\230\221\231\201"
 177      60624007 
 177      92403C15 
 177      880D8198 
 177      919981
 178 0013 9169C239 		.ascii	"\221i\3029\006\206F\016&FF\020\203\201\221\241\236\211"
 178      0686460E 
 178      26464610 
 178      838191A1 
 178      9E89
 179 0025 B13E9211 		.ascii	"\261>\222\021\254v=\323\201\007\377\377\257\233\324"
 179      AC763DD3 
 179      8107FFFF 
 179      AF9BD4
 180 0034 35FF0CE3 		.ascii	"5\377\014\343\012&f\240\010+CKC\303\004\005\006\206"
 180      0A2666A0 
 180      082B434B 
 180      43C30405 
 180      0686
 181 0046 64B08A10 		.ascii	"d\260\212\020 \011\322\026\312\310\004\242\231\3173"
 181      2009D216 
 181      CAC804A2 
 181      99CF33
 182 0055 B43EE83E 		.ascii	"\264>\350>\312\225\310\270\220\221\025(]\315\360\253"
 182      CA95C8B8 
 182      90911528 
 182      5DCDF0AB 
 183 0065 A1A34120 		.ascii	"\241\243A \223\021\250\034b\"H\204#\223\2211\227\221"
 183      9311A81C 
 183      62224884 
 183      23939131 
ARM GAS  /tmp/ccfTw1cj.s 			page 14


 183      9791
 184 0077 01AA2882 		.ascii	"\001\252(\2021\023\250\231!\023\350\026\206\213\014"
 184      3113A899 
 184      2113E816 
 184      868B0C
 185 0086 8D0F7A54 		.ascii	"\215\017zTa\272! \004\250\023h4\310#\372\372\031\371"
 185      61BA2120 
 185      04A81368 
 185      34C823FA 
 185      FA19F9
 186 0099 B9A9FAC9 		.ascii	"\271\251\372\311\371)\225\372)\251e\372\311\031\231"
 186      F92995FA 
 186      29A965FA 
 186      C91999
 187 00a8 4999F9C5 		.ascii	"I\231\371\305\372%E\245y\331\372%\251\305%\372E%`\272"
 187      FA2545A5 
 187      79D9FA25 
 187      A9C525FA 
 187      452560BA 
 188 00bc 3835572F 		.ascii	"85W/\231\001\000\311\3648\200"
 188      990100C9 
 188      F43880
 189              		.text
 190              		.section	.gnu.lto_sem3_setup.242cfd61d017484d,"",%progbits
 191 0000 789C6362 		.ascii	"x\234cb`b@\007\222@<\025\210\015\201\230\221\231\201"
 191      60624007 
 191      92403C15 
 191      880D8198 
 191      919981
 192 0013 9169C239 		.ascii	"\221i\3029\006\206F\016&FF\020\203\201\221\241\236\211"
 192      0686460E 
 192      26464610 
 192      838191A1 
 192      9E89
 193 0025 B13E9211 		.ascii	"\261>\222\021\254v=\323\201\007\377\377\257\333\321"
 193      AC763DD3 
 193      8107FFFF 
 193      AFDBD1
 194 0034 37FF0FE3 		.ascii	"7\377\017\343N&f\240\010+CKC\303\004\005\006\206d\260"
 194      4E2666A0 
 194      082B434B 
 194      43C30405 
 194      068664B0 
 195 0048 8A102009 		.ascii	"\212\020 \011\322\026\312\310\004\242\231\3173\264>"
 195      D216CAC8 
 195      04A299CF 
 195      33B43E
 196 0057 98779C2B 		.ascii	"\230w\234+\221q!#+P\272\232\341WCG\203@&#P9\304D\220"
 196      91712123 
 196      2B50BA9A 
 196      E1574347 
 196      83402623 
 197 0070 08472623 		.ascii	"\010G&#c.#\003TQ\004c&P3C&\320-\014\027\031\032\037"
 197      632E2303 
 197      54510463 
 197      26503343 
 197      26D02D0C 
ARM GAS  /tmp/ccfTw1cj.s 			page 15


 198 0088 CC5787E9 		.ascii	"\314W\207\351\206\200\020\240N\240\321 \217\350\353"
 198      868010A0 
 198      4EA0D120 
 198      8FE8EB
 199 0097 67E4E7A6 		.ascii	"g\344\347\246\352'\347\247T\352\247\244\226\351'gd&"
 199      EA27E7A7 
 199      54EAA7A4 
 199      96E92767 
 199      6426
 200 00a9 65E617EB 		.ascii	"e\346\027\353\227\024\225\346e\353\227\244\026\227\350"
 200      971495E6 
 200      65EB97A4 
 200      1697E8
 201 00b8 179580E9 		.ascii	"\027\225\200\351\342\324\\\275d\006\000'w9\025"
 201      E2D45CBD 
 201      64060027 
 201      773915
 202              		.text
 203              		.section	.gnu.lto_thread2.242cfd61d017484d,"",%progbits
 204 0000 789C7D91 		.ascii	"x\234}\221=K\003A\020\206g\366\214\371\260I\251MHc'"
 204      3D4B0341 
 204      108667F6 
 204      8CF9B049 
 204      A94D4863 
 205 0015 597F4240 		.ascii	"Y\177B@\020,\322x\021\264\222\313f!\213^N\356.bP\310"
 205      102CD278 
 205      11B492CB 
 205      66218B5E 
 205      4EEE2E62 
 206 002b 4503B192 		.ascii	"E\003\261\222\024)\024\"b!h\343\327/\260\266\210\210"
 206      14291422 
 206      622168E3 
 206      D72FB0B6 
 206      8888
 207 003d 7F202836 		.ascii	"\177 (6\251\024\254D\210\273wI\020\0039\330\233a\347"
 207      A914AC44 
 207      88BB7749 
 207      100339D8 
 207      9B61E7
 208 0050 7D679F9D 		.ascii	"}g\237\235%@\340\3777#W\035\001\216dD\015\2204\332\000"
 208      2540E0FF 
 208      3723571D 
 208      018E6444 
 208      0D9034DA 
 209 0065 D5084154 		.ascii	"\325\010AT\011 T\010V\326\320\327\336\220\207N\257w"
 209      09205408 
 209      56D6D0D7 
 209      DE90874E 
 209      AF77
 210 0077 DD7A3CFB 		.ascii	"\335z<\373\301+\022\225;!\250y^#\011\300|EV\376\225"
 210      C12B1295 
 210      3B21A879 
 210      5E2309C0 
 210      7C4556FE 
 211 008c 6D05898A 		.ascii	"m\005\211\212\332\023\324:'\334\300s\014\311\352.|{"
 211      DA13D43A 
 211      27DCC073 
ARM GAS  /tmp/ccfTw1cj.s 			page 16


 211      0CC9EA2E 
 211      7C7B
 212 009e 875E5CA0 		.ascii	"\207^\\\240T\007\015WQ ~i \244\036\332\260\177\327m"
 212      54070D57 
 212      51207E69 
 212      20A41EDA 
 212      B07FD76D 
 213 00b2 B261CB81 		.ascii	"\262a\313\201M2 8\232b\327\202\013$\240\206\247\336"
 213      4D322038 
 213      9A62D782 
 213      0B24A086 
 213      A7DE
 214 00c4 715A48E0 		.ascii	"qZH\340~\227\211\244\312\206\365z\277\036\012.)9>\356"
 214      7E9789A4 
 214      CA86F57A 
 214      BF1E0A2E 
 214      29393EEE 
 215 00d8 5FF64640 		.ascii	"_\366F@&\031\006\023Q;\021\201a\023\007\307\012\214"
 215      26190613 
 215      513B1181 
 215      611307C7 
 215      0A8C
 216 00ea 28DF41A7 		.ascii	"(\337A\247\365\036\033\361EYp\262T\305|\360\317n\363"
 216      F51E1BF1 
 216      455970B2 
 216      54C57CF0 
 216      CF6EF3
 217 00fd 6D7A1CB9 		.ascii	"mz\034\271\201\027\322\342\223\302\037R\003/1\0210>"
 217      8117D2E2 
 217      93C21F52 
 217      032F3111 
 217      303E
 218 010f 43F5F655 		.ascii	"C\365\366U\017\254J75x\241\254\034\226\034\246\322S"
 218      0FAC4A37 
 218      3578A1AC 
 218      1C961CA6 
 218      D253
 219 0121 5AB04C4E 		.ascii	"Z\260LN\231\225/\323<\337\246\254 r\302r\250k\227\212"
 219      99952FD3 
 219      3CDFA6AC 
 219      2072C272 
 219      A86B978A 
 220 0135 1BD4E58E 		.ascii	"\033\324\345\216Km\327\217\0167S\014\322c\3652\341;"
 220      4B6DD78F 
 220      0E37530C 
 220      D263F532 
 220      E13B
 221 0147 2E5DC8E8 		.ascii	".]\310\350K:\025E\266Y\312+\255\315\327\231\271X*\262"
 221      4B3A1545 
 221      B659CA2B 
 221      ADCDD799 
 221      B9582AB2 
 222 015b 5401E219 		.ascii	"T\001\342\031}9\2313\034\276e\213\271\344\354<\020\033"
 222      7D399933 
 222      1CBE658B 
 222      B9E4EC3C 
 222      101B
ARM GAS  /tmp/ccfTw1cj.s 			page 17


 223 016d C226372D 		.ascii	"\302&7-\273\014\277l\257\206\367"
 223      BB0CBF6C 
 223      AF86F7
 224              		.text
 225              		.section	.gnu.lto_chBSemSignal.242cfd61d017484d,"",%progbits
 226 0000 789C8D52 		.ascii	"x\234\215R\275k\024A\024\377\275\231]\357<\223\220F"
 226      BD6B1441 
 226      14FFBD99 
 226      5DEF3C93 
 226      9046
 227 0012 B00AD708 		.ascii	"\260\012\327\010\361\003W\304\324\006\004\301\" 9\003"
 227      F10357C4 
 227      D40604C1 
 227      22203903 
 228 0022 A690B03B 		.ascii	"\246\220\260;\267\344\006\335[\331\273\013\211)2\227"
 228      B7E406DD 
 228      5BD9BB0B 
 228      89293297 
 229 0032 5C918045 		.ascii	"\\\221\200E\270X\030?@\301#\321B\377\002\361J\013MH"
 229      B858183F 
 229      40C123D1 
 229      42FF02F1 
 229      4A0B4D48 
 230 0046 2B160141 		.ascii	"+\026\001AH\025m\014\304\"\316\354\336m\202\215\031"
 230      48156D0C 
 230      C422CEEC 
 230      DE6D828D 
 230      19
 231 0057 D899F766 		.ascii	"\330\231\367f\336\357c\337\014\003\303\277\343\212\376"
 231      DEEF63DF 
 231      0C03C3BF 
 231      E38AFE
 232 0066 6EE9ED15 		.ascii	"n\351\355\025\275\222\015b\313\033@=\313\030\337\353"
 232      BD920D62 
 232      CB1B403D 
 232      CB18DFEB 
 233 0076 83CA59AB 		.ascii	"\203\312Y\253\327\240z8Y\311\266Ed\002\020\346\030\267"
 233      D7A07A38 
 233      59C9B645 
 233      640210E6 
 233      18B7
 234 0088 686E9C62 		.ascii	"hn\234b\222\367\254\275}p\360\356w\363\303s\372\314"
 234      92F7ACBD 
 234      7D70F0EE 
 234      77F3C373 
 234      FACC
 235 009a 7A390584 		.ascii	"z9\005\204\014$!\253'Sb\243\241\324r\036\0201\340\266"
 235      0C2421AB 
 235      275362A3 
 235      A1D4721E 
 235      1031E0B6 
 236 00ae 9E0DCF18 		.ascii	"\236\015\317\0301\263\362\015\314\377\332}\374\375L"
 236      31B3F20D 
 236      CCFFDA7D 
 236      FCFD4C
 237 00bd 5AE6D22B 		.ascii	"Z\346\322+m&\026\"Ls\343\233'\346\007\260D/\324\223"
 237      6D261622 
ARM GAS  /tmp/ccfTw1cj.s 			page 18


 237      4C73E39B 
 237      27E607B0 
 237      442FD493 
 238 00d1 6149717A 		.ascii	"aIqz\207$\361\274\211\322\363G\235s+\371\301/\230\377"
 238      8724F1BC 
 238      89D2F347 
 238      9D732BF9 
 238      C12F98FF 
 239 00e5 FAED65EB 		.ascii	"\372\355e\353|\312\235\004\352Ok\260\253#b\217\230\244"
 239      7CCA9D04 
 239      EA4F6BB0 
 239      AB23628F 
 239      98A4
 240 00f7 CC05BC55 		.ascii	"\314\005\274UJ\265\267\232\247%\331I\242\206$\235x\206"
 240      4AB5B79A 
 240      A725D949 
 240      A286249D 
 240      7886
 241 0109 A775A5FA 		.ascii	"\247u\245\372%e&\211\033\315l\314\355\031\234Ko\214"
 241      25652689 
 241      1BCD6CCC 
 241      ED199C4B 
 241      6F8C
 242 011b 57CF9074 		.ascii	"W\317\220tb\340\023\032?\352\275.\255\353T\363\032\210"
 242      62E0131A 
 242      3FEABD2E 
 242      ADEB54F3 
 242      1A88
 243 012d 7DB4ED63 		.ascii	"}\264\355c\304\261\327\307\265\271\375\205\265\326\271"
 243      C4B1D7C7 
 243      B5B9FD85 
 243      B5D6B9
 244 013c 6E617616 		.ascii	"nav\026\017u\307:\312w\217\247\234\212n\242\321\356"
 244      0F75C73A 
 244      CA778FA7 
 244      9C8A6EA2 
 244      D1EE
 245 014e 5001B3D8 		.ascii	"P\001\263\330W\213\006xR\020KK\264\204\244\\\327\203"
 245      578B0678 
 245      52104B4B 
 245      B484A45C 
 245      D783
 246 0160 15777F13 		.ascii	"\025w\177\023\013\333\037wr\335\236\247\300SB\2334C"
 246      0BDB1F77 
 246      72DD9EA7 
 246      C053429B 
 246      3443
 247 0172 520F709C 		.ascii	"R\017p\234;r\351\265\206\304w\202#w\342\322\032\015"
 247      3B72E9B5 
 247      86C47782 
 247      2377E2D2 
 247      1A0D
 248 0184 249A5BA8 		.ascii	"$\232[\250\377l\256\332)\026\311s c\304\324^uJa\340"
 248      FF6CAEDA 
 248      2916C973 
 248      2063C4D4 
 248      5E754A61 
ARM GAS  /tmp/ccfTw1cj.s 			page 19


 249 0199 3B222CCE 		.ascii	";\",\3168E\177\312\021%\351\311\260\342T\243Z\371\236"
 249      38457FCA 
 249      1125E9C9 
 249      B0E254A3 
 249      5AF99E
 250 01ac A383A8EA 		.ascii	"\243\203\250\352\310\262\270_+\352\242\222W\361\203"
 250      C8B2B85F 
 250      2BEAA292 
 250      57F183
 251 01bb 4B250CFF 		.ascii	"K%\014\377\017\344OW\235\353#\205\233\205Cl\030\371"
 251      0FE44F57 
 251      9DEB2385 
 251      9B85436C 
 251      18F9
 252 01cd 1322B851 		.ascii	"\023\"\270Q+\013M\320?R\030\315{n\305\177\020\311\213"
 252      2B0B4DD0 
 252      3F5218CD 
 252      7B6EC57F 
 252      10C98B
 253 01e0 F9B397C1 		.ascii	"\371\263\227\301\"d\002?\010\243\031\374\005\004\315"
 253      2264023F 
 253      08A319FC 
 253      0504CD
 254 01ef B75A     		.ascii	"\267Z"
 255              		.text
 256              		.section	.gnu.lto_thread4.242cfd61d017484d,"",%progbits
 257 0000 789C6362 		.ascii	"x\234cb`b@\007\222@\334\011\304\206@\314\310\314\300"
 257      60624007 
 257      9240DC09 
 257      C48640CC 
 257      C8CCC0
 258 0013 C834E11C 		.ascii	"\3104\341\034\003C#\007\023##\210\301\300\310P\317\304"
 258      03432307 
 258      13232388 
 258      C1C0C850 
 258      CFC4
 259 0025 581FC908 		.ascii	"X\037\311\010V\273\236\351\300\203\377\377\327\3358"
 259      56BB9EE9 
 259      C083FFFF 
 259      D7DD38
 260 0034 3FBF8771 		.ascii	"?\277\207q?\023\013\023c.X\234\225\241\245\241a\202"
 260      3F130B13 
 260      632E589C 
 260      95A1A5A1 
 260      6182
 261 0046 02034332 		.ascii	"\002\003C2\230\033\002$AzC\031\231@4\363y\206\226\007"
 261      981B0224 
 261      417A4319 
 261      994034F3 
 261      79869607 
 262 005a EF9EB327 		.ascii	"\357\236\263'2.dd\005JW3\374j\350h\020\310d\004*\207"
 262      322E6464 
 262      054A5733 
 262      FC6AE868 
 262      10C86404 
 263 0070 189BCEC8 		.ascii	"\030\233\316\310\224\011b^dh|\360>\035\242.\2021\223"
 263      9409625E 
ARM GAS  /tmp/ccfTw1cj.s 			page 20


 263      64687CF0 
 263      3E1DA22E 
 263      823193
 264 0083 11EED810 		.ascii	"\021\356\330\020\240,\320$\020__?#?7U?9?\245R?%\265"
 264      A02CD024 
 264      105F5F3F 
 264      233F3755 
 264      3F393FA5 
 265 009b 4C3F3923 		.ascii	"L?9#3)3\277X\277\244\2504/[\277$\265\270D\277\250\004"
 265      332933BF 
 265      58BFA4A8 
 265      342F5BBF 
 265      24B5B844 
 266 00b2 4C17A7E6 		.ascii	"L\027\247\346\352%3\000\000\272\3366\367"
 266      EA253300 
 266      00BADE36 
 266      F7
 267              		.text
 268              		.section	.gnu.lto_sem4_execute.242cfd61d017484d,"",%progbits
 269 0000 789CCD57 		.ascii	"x\234\315W]L\034U\024>g\366\177\331e\027\351\322\012"
 269      5D4C1C55 
 269      143E67F6 
 269      7FD96517 
 269      E9D20A
 270 0013 8280F4A1 		.ascii	"\202\200\364\241\024\273\264\324\020\373\237\230\230"
 270      14BBB4D4 
 270      10FB9F98 
 270      98
 271 0020 F4A13E48 		.ascii	"\364\241>HI\364\251.\303\006&\272\240\273\213\261\032"
 271      49F4A92E 
 271      C30626BA 
 271      A0BB8BB1 
 271      1A
 272 0031 D3013101 		.ascii	"\323\0011\001\353\003\246mB4&`\251I\011\325\012>\031"
 272      EB03A66D 
 272      42342660 
 272      A94909D5 
 272      0A3E19
 273 0044 34D86DAD 		.ascii	"4\330m\255\224\002-\301>\030\022I\215&F\223\266\211"
 273      94022DC1 
 273      3E181249 
 273      8D264693 
 273      B689
 274 0056 4FC6B89E 		.ascii	"O\306\270\236sgg\366\227\325\352$:\2013\367\236{\317"
 274      736767F6 
 274      97D5EA24 
 274      3A8133F7 
 274      9E7BCF
 275 0069 DF777EB2 		.ascii	"\337w~\262#\201\004\271O\202\376\327J\211 \375\225\001"
 275      238104B9 
 275      4F82FED7 
 275      4A8920FD 
 275      9501
 276 007b 4A234B00 		.ascii	"J#K\000\375NI\262\314\266\202\352\266\256V\200\352\261"
 276      FD4E49B2 
 276      CCB682EA 
 276      B6AE5680 
ARM GAS  /tmp/ccfTw1cj.s 			page 21


 276      EAB1
 277 008d A04F635B 		.ascii	"\240Oc[%\233`\333\005\333\246\263\355\222C\260\235\202"
 277      259B60DB 
 277      05DBA6B3 
 277      ED9243B0 
 277      9D82
 278 009f EDD0D94E 		.ascii	"\355\320\331N\311%\330n\301v\351l\267T\"\330\036\301"
 278      C925D86E 
 278      C176E96C 
 278      B75422D8 
 278      1EC1
 279 00b1 2ED1D91E 		.ascii	".\321\331\036\311\273\032$v\351l\015\261\275:\273\024"
 279      C9BB1A24 
 279      76E96C0D 
 279      B1BD3ABB 
 279      14
 280 00c2 FDDAC2A7 		.ascii	"\375\332\302\247/\374\210\274 \217OH\026\253\315\356"
 280      2FFC88BC 
 280      208F4F48 
 280      16ABCDEE 
 281 00d2 70BADC25 		.ascii	"p\272\334%\036o\251\317\217'\236E\016\012\353a\\\235"
 281      1E6FA9CF 
 281      8F279E45 
 281      0E0AEB61 
 281      5C9D
 282 00e4 1B59FFE1 		.ascii	"\033Y\377\341\217{R\277:78\246\376\236L\"*H\000\354"
 282      8F7B52BF 
 282      3A3738A6 
 282      FE9E4C22 
 282      2A4800EC 
 283 00f8 4290119E 		.ascii	"B\220\021\236\241\015>'^\222'\033\221\217\245\271\365"
 283      A10D3E27 
 283      5E92271B 
 283      918FA5B9 
 283      F5
 284 0109 64722A39 		.ascii	"dr*9v\373#\334\324\346\000\005-.\"V\017\021\233\227"
 284      76FB23DC 
 284      D4E60005 
 284      2D2E2256 
 284      0F119B97 
 285 011d 88DD47C4 		.ascii	"\210\335G\304Q\316\007\001>\250\344U\025\257\252\231"
 285      51CE0701 
 285      3EA8E455 
 285      15AFAA99 
 286 012d D4F1B69E 		.ascii	"\324\361\266\236W\015L\266\361\266\221WML\232y\273\223"
 286      570D4CB6 
 286      F1B69157 
 286      4D4C9A79 
 286      BB93
 287 013f 572D4CF6 		.ascii	"W-L\3660\331\313\372\366\021q\356\347\355\001&\007\231"
 287      30D9CBFA 
 287      F61171EE 
 287      E7ED0126 
 287      0799
 288 0151 90373618 		.ascii	"\22076\030T\325\221\332\020\216SP\300\256\323s\224("
 288      54D591DA 
 288      108E5350 
ARM GAS  /tmp/ccfTw1cj.s 			page 22


 288      C0AED373 
 288      9428
 289 0163 43D08E12 		.ascii	"C\320\216\022\277-\313\360\346\335;#o\005R\227u\251"
 289      BF2DCBF0 
 289      E6DD3B23 
 289      6F055297 
 289      75A9
 290 0175 B993C919 		.ascii	"\271\223\311\031\033@\010\317\242\215$Q\213\3575\370"
 290      1B4008CF 
 290      A28D2451 
 290      8BEF35F8 
 291 0185 4D1D52FD 		.ascii	"M\035R\375\012\272d\224Bx\216\316R\\U]\377n\374t\243"
 291      0ABA6494 
 291      42788ECE 
 291      525C555D 
 291      FF6EFC74 
 292 019a 82EEED30 		.ascii	"\202\356\3550I;\365\230\202%\232\345\016\026N]\016\341"
 292      493BF598 
 292      82259AE5 
 292      0E164E5D 
 292      0EE1
 293 01ac 04BF183B 		.ascii	"\004\277\030;\202NA/\0009\260>|\336\221k\177!\371\275"
 293      824E412F 
 293      0039B03E 
 293      7CDE916B 
 293      7F21F9BD 
 294 01c0 256DDF92 		.ascii	"%m\337\222o\337\032\302\311l\373\347&\252\323\366\333"
 294      6FDF1AC2 
 294      C96CFBE7 
 294      26AAD3F6 
 294      DB
 295 01d1 73ED4F6A 		.ascii	"s\355Oj\366\317\347\332_\202\201{k\211\351\267-\206"
 295      F6CFE7DA 
 295      5F82817B 
 295      6B89E9B7 
 295      2D86
 296 01e3 079A5151 		.ascii	"\007\232QQ%\010\027\3106\225\276E\253\377\032\370\002"
 296      250817C8 
 296      3695BE45 
 296      ABFF1AF8 
 296      02
 297 01f4 DF57470F 		.ascii	"\337WG\017)\310u/\364\370jye\234\177\231:\367k\036/"
 297      29C8752F 
 297      F4F86A79 
 297      659C7F99 
 297      3AF76B1E 
 298 0209 C2C06757 		.ascii	"\302\300gW\206/[5\235]\350x\017\336e\343\232\317\024"
 298      862F5B35 
 298      9D5DE878 
 298      0FDE65E3 
 298      9ACF14
 299 021c 49999E1E 		.ascii	"I\231\236\036\241\254\314\231\266\276\010o\\O|\276\360"
 299      A1ACCC99 
 299      B6BE086F 
 299      5C4F7CBE 
 299      F0
 300 022d 54BE5F5D 		.ascii	"T\276_]\270\2074\361}\201\013!xq\340\035\324M\270\014"
ARM GAS  /tmp/ccfTw1cj.s 			page 23


 300      B88734F1 
 300      7D810B21 
 300      7871E01D 
 300      D44DB80C 
 301 0241 941E90B5 		.ascii	"\224\036\220\265\373Bu9\262\234\202\233\000\276\206"
 301      FB427539 
 301      B29C829B 
 301      00BE86
 302 0250 C15FD2D7 		.ascii	"\301_\322\327\371\320\232Y\305\355\244v\266\325B\300"
 302      F9D09A59 
 302      C5EDA476 
 302      B6D542C0 
 303 0260 7C42C078 		.ascii	"|B\300x\212\342\022\302\213\264\0208@\006\016!\234\301"
 303      8AE212C2 
 303      8BB41038 
 303      40060E21 
 303      9CC1
 304 0272 9A4C8D56 		.ascii	"\232L\215VX\255`\215\370/\265\021\236kkS\023\207u\357"
 304      58AD608D 
 304      F82FB511 
 304      9E6B6B53 
 304      138775EF 
 305 0286 3D8FC214 		.ascii	"=\217\302\024\207\032 \\\373GxU\301\341\217\362js\004"
 305      871A205C 
 305      FB477855 
 305      C1E18FF2 
 305      6A7304
 306 0299 F5E0371B 		.ascii	"\365\3407\0330l\311\010\224\224};\373\343O\327\3549"
 306      306CC908 
 306      94947D3B 
 306      FBE34FD7 
 306      EC39
 307 02ab C5A79EFD 		.ascii	"\305\247\236\3750h\264O\272#\276\372\324\233\256H;\210"
 307      3068B44F 
 307      BA23BEFA 
 307      D49BAE48 
 307      3B88
 308 02bd 967268F9 		.ascii	"\226rh\371\330\253U\335\372\314\322\255\011\224\250"
 308      D8AB55DD 
 308      FACCD2AD 
 308      0994A8
 309 02cc 255355F8 		.ascii	"%SU\370\270\202\017\262g\"\325\225Fb\252\"\242\243\330"
 309      B8820FB2 
 309      6722D595 
 309      4662AA22 
 309      A2A3D8
 310 02df 9F2AE149 		.ascii	"\237*\341I\007\357Cx\211\021\351@\311Xk>\216NW\2060"
 310      07EF4378 
 310      8911E940 
 310      C9586B3E 
 310      8E4E5786 
 311 02f4 21E2DD97 		.ascii	"!\342\335\227R\034\243\2167\024?D\016\260.GJ\227h\234"
 311      521CA38E 
 311      37143F44 
 311      0EB02E47 
 311      4A97689C 
 312 0308 CB46150D 		.ascii	"\313F\025\015%\026\256\234v\351\210yI\011_\266'\351"
ARM GAS  /tmp/ccfTw1cj.s 			page 24


 312      2516AE9C 
 312      76E98879 
 312      49095FB6 
 312      27E9
 313 031a F189F2D9 		.ascii	"\361\211\362\331\242\237\371\014\017\253et\202\026\233"
 313      A29FF90C 
 313      0FAB6574 
 313      82169B
 314 0329 4754CF0D 		.ascii	"GT\317\015\013\313\362\271S\301\032\031S\372\250\371"
 314      0BCBF2B9 
 314      53C11A19 
 314      53FAA8F9 
 315 0339 5E358A38 		.ascii	"^5\2128\305R\360a\341\367\374\015\207\306\341\034\321"
 315      C552F061 
 315      E1F7FC0D 
 315      87C6E11C 
 315      D1
 316 034a F39822CA 		.ascii	"\363\230\"\312_\363\271\3260U\027\341\200\005\030u\005"
 316      5FF3B9D6 
 316      305517E1 
 316      80051875 
 316      05
 317 035b D2D4C5B5 		.ascii	"\322\324\305\265\260\014\203w\357\254\\\303\274)qu5"
 317      B00C8377 
 317      EFAC5CC3 
 317      BC297175 
 317      35
 318 036c 634AB873 		.ascii	"cJ\270s\246D\275\3143`%gJ\234\331\236\236\022/\345N"
 318      A644BDCC 
 318      33602567 
 318      4A9CD99E 
 318      9E122FE5 
 319 0381 89156D4A 		.ascii	"\211\025mJ\334\324\342x\344\357\216\207\214\302\315"
 319      DCD4E278 
 319      E4EF8E87 
 319      8CC2CD
 320 0390 1C07D985 		.ascii	"\034\007\331\205K\203`\321\030\004\345\346\014\202\375"
 320      4B8360D1 
 320      1804E5E6 
 320      0C82FD
 321 039f A4296B10 		.ascii	"\244)k\020|p\312\350\354\300\006\203@b\271\374A\020"
 321      7C70CAE8 
 321      ECC00683 
 321      4062B9FC 
 321      4110
 322 03b1 2830086C 		.ascii	"(0\010lp\322o\356 \260\303\274\335\214A\300\025q\373"
 322      70D26FEE 
 322      20B0C3BC 
 322      DD8C41C0 
 322      1571FB
 323 03c4 D4EBBAB0 		.ascii	"\324\353\272\260\021j\203\214\236T\025\024(\314\255"
 323      116A838C 
 323      9E541514 
 323      28CCAD
 324 03d3 2627747E 		.ascii	"&'t~\331Hh\2459\011=@\232\214\204\222\215\331D\206\215"
 324      D94868A5 
 324      39093D40 
ARM GAS  /tmp/ccfTw1cj.s 			page 25


 324      9A8C8492 
 324      8DD94486 
 325 03e8 2A3AE7D0 		.ascii	"*:\347\320m:\243z\203\024s\263V\345\247\270\272@\212"
 325      6D3AA37A 
 325      831473B3 
 325      56E5A7B8 
 325      BA408A
 326 03fb 1DF08DD5 		.ascii	"\035\360\215\325\334\024;\341W4#\305\367\243\242h\327"
 326      DC143BE1 
 326      573423C5 
 326      F7A3A268 
 326      D7
 327 040c AD1A00D6 		.ascii	"\255\032\000\326\025O\222;;I\313\026]\256\236DEV\020"
 327      154F923B 
 327      3B49CB16 
 327      5DAE9E44 
 327      455610
 328 041f B2F06FD8 		.ascii	"\262\360o\330\000\177+\313\344\343\337P\000\177\027"
 328      007F2BCB 
 328      E4E3DF50 
 328      007F17
 329 042e 47632AFE 		.ascii	"Gc*\376n\270\012f\265\330\364\231\377\272\305\206o\031"
 329      6EB80A66 
 329      B5D8F499 
 329      FFBAC586 
 329      6F19
 330 0440 D9DB664E 		.ascii	"\331\333fN\213\035$M\331-\226a\243\221\316\263R\334"
 330      8B1D244D 
 330      D92D9661 
 330      A391CEB3 
 330      52DC
 331 0452 54A4C51A 		.ascii	"T\244\305\032\363S\334T \305%\260\313\334\014{ \360"
 331      F353DC54 
 331      20C525B0 
 331      CBDC0C7B 
 331      20F0
 332 0464 7F6AB0F9 		.ascii	"\177j\260\3714|\315\377\260\301v\222h\241\006k\331\000"
 332      347CCDFF 
 332      B0C17692 
 332      68A1066B 
 332      D900
 333 0476 7D21938F 		.ascii	"}!\223\217~K\001\364\275\3405\027\375Rp\232\363S\366"
 333      7E4B01F4 
 333      BDE03517 
 333      FD52709A 
 333      F353F6
 334 0489 D2CF9226 		.ascii	"\322\317\222&\252a\264\033f\324!\376\3224,\371`\210"
 334      AA61B41B 
 334      66D421FE 
 334      D2342CF9 
 334      6088
 335 049b 3ED1F8E2 		.ascii	">\321\370\342\365\261\206\342W\375\342k\356&}\343\246"
 335      F5B186E2 
 335      57FDE26B 
 335      EE267DE3 
 335      A6
 336 04ac 5D3D4ABF 		.ascii	"]=J\277*\211\313\206\203\301\356\336H8(\367v\036\017"
ARM GAS  /tmp/ccfTw1cj.s 			page 26


 336      2A89CB86 
 336      83C1EEDE 
 336      483828F7 
 336      761E0F
 337 04bf 76865F0E 		.ascii	"v\206_\016\312\335J\207\322\033\013\306\243}=\317\007"
 337      CADD4A87 
 337      D21B0BC6 
 337      A37D3DCF 
 337      07
 338 04d0 E3E1583C 		.ascii	"\343\341X<\030\215\213w,\034\331!\203\265\203\336\273"
 338      188D8B77 
 338      2C1CD921 
 338      83B583DE 
 338      BB
 339 04e1 8B0AD182 		.ascii	"\213\012\321\202D\224\036\371\205\276N\272\324\315\022"
 339      44941EF9 
 339      85BE4EBA 
 339      D4CD12
 340 04f0 3BBAE1D0 		.ascii	";\272\341\320_\011\205_\211\007\2378\322v\270--\333"
 340      5F09855F 
 340      89079F38 
 340      D276B82D 
 340      2DDB
 341 0502 1B0D1F93 		.ascii	"\033\015\037\223#O\366\365\310\244\300\177\244\355\351"
 341      234FF6F5 
 341      C8A4C07F 
 341      A4EDE9
 342 0511 DA8E502C 		.ascii	"\332\216P,\374bTi\252\335\332\014R\024\034\221p\244"
 342      FC625469 
 342      AADDDA0C 
 342      52141C91 
 342      70A4
 343 0523 377A1C5A 		.ascii	"7z\034Z\357\313\243xw4\034\352\214\221\316?\001\037"
 343      EFCBA378 
 343      77341CEA 
 343      8C91CE3F 
 343      011F
 344 0535 DD6DA7   		.ascii	"\335m\247"
 345              		.text
 346              		.section	.gnu.lto_sem2_execute.part.2.242cfd61d017484d,"",%progbits
 347 0000 789CB557 		.ascii	"x\234\265Wkl\024U\024>gf\337\257\266\264\364E\331V\024"
 347      6B6C1455 
 347      143E6766 
 347      DFAFB6B4 
 347      F445D956 
 348 0015 79141928 		.ascii	"y\024\031(\250\361\227<\324\204\204\376\241%A\377\220"
 348      A8F1973C 
 348      D48484FE 
 348      A12541FF 
 348      90
 349 0026 ED74D34E 		.ascii	"\355t\323N\354R\262\273 \304\037L\273\240MD\3234\006"
 349      EC52B2BB 
 349      20C41F4C 
 349      BBA04D44 
 349      D33406
 350 0039 2A6AC407 		.ascii	"*j\304\007P\011B,?\324\022\222\3622\322\"\255&@ \374"
 350      5009422C 
ARM GAS  /tmp/ccfTw1cj.s 			page 27


 350      3FD41292 
 350      F232D222 
 350      AD264020 
 351 004e 581415E2 		.ascii	"X\024\025\342\013IL\004\215\3539w\036[\272[\250\022"
 351      0B494C04 
 351      8DEB3977 
 351      1E5BBA5B 
 351      A812
 352 0060 8770E7DC 		.ascii	"\207p\347\334\307\367\335\357\234{\356\231\255\004\022"
 352      C7F7DDEF 
 352      9C7BEE99 
 352      AD0412
 353 006f 8C7F8ED0 		.ascii	"\214\177\216\320\377\316\000@/\002`\001`\250\373,\031"
 353      FFCE0040 
 353      2F026001 
 353      60A8FB2C 
 353      19
 354 0080 2194C45B 		.ascii	"!\224\304[\222\202\347\025\320}\362@\030\364\200l\366"
 354      9282E715 
 354      D07DF240 
 354      18F4806C 
 354      F6
 355 0091 1CA2E730 		.ascii	"\034\242\3470{N\321s\242\217\021\035\036\227\024\274"
 355      7B4ED173 
 355      A28F111D 
 355      1E9714BC 
 356 00a1 8234EC3E 		.ascii	"\2024\354>t\006h\334mv=F\327cv\275F\327k\240\216y|\222"
 356      740668DC 
 356      6D763D46 
 356      D76376BD 
 356      46D76BA0 
 357 00b9 EBD56334 		.ascii	"\353\325c4\342\363\247\2024\3567\271\003\202;\200A\203"
 357      E2F3A782 
 357      34EE37B9 
 357      03823B80 
 357      4183
 358 00cb 3B88C806 		.ascii	";\210\310\006 l\011I\262\303\351r{\274>\177 \210[\236"
 358      206C0949 
 358      B2C3E972 
 358      7BBC3E7F 
 358      20885B9E 
 359 00df 4576C633 		.ascii	"Ev\3063\003\336\325\365]\351=\373\257\343\316\327\007"
 359      03DED5F5 
 359      5DE93DFB 
 359      AFE3CED7 
 359      07
 360 00f0 3B76EB7F 		.ascii	";v\353\177e2\210\032O\252\010k\310B\217xIxg\030\014"
 360      6532881A 
 360      4FAA086B 
 360      C8428F78 
 360      49786718 
 361 0105 A0DEDFA7 		.ascii	"\240\336\337\247{\005H\326P\316bj\014\214#/\346`\237"
 361      7B0548D6 
 361      50CE626A 
 361      0C8C232F 
 361      E6609F
 362 0118 2E5B98FF 		.ascii	".[\230\377\262\217\343\177\333\247{\360\342\320\366"
ARM GAS  /tmp/ccfTw1cj.s 			page 28


 362      B28FE37F 
 362      DBA77BF0 
 362      E2D0F6
 363 0127 0A7D7767 		.ascii	"\012}wg\267\3767\305AC\247\004u8\231\335z\006/\014\275"
 363      B7FE37C5 
 363      4143A704 
 363      753899DD 
 363      7A062F0C 
 364 013c 3616294B 		.ascii	"6\026)K\360\330\244\220\335\203\347\206\206Q\357\321"
 364      F0D8A490 
 364      DD83E786 
 364      8651EFD1 
 365 014c 3B6E6432 		.ascii	";nd2\005\032\272$Xv/\340!IOg2\267\216x\027#h\350\226"
 365      051ABA24 
 365      58762FE0 
 365      21494F67 
 365      32B78E78 
 366 0165 A8F1C8D4 		.ascii	"\250\361\310\3248\034\324x\235\334uA\004\367\342\014"
 366      381CD478 
 366      9DDC7541 
 366      04F7E20C 
 367 0175 7053073C 		.ascii	"pS\007<\334xy\330\307\226\237\233\0005\276 [!n\012\250"
 367      DC7879D8 
 367      C7969F9B 
 367      0035BE20 
 367      5B216E0A 
 368 018a 910B09D4 		.ascii	"\221\013\011\324G\240\"z\357\247\367\024\032\364\027"
 368      47A0227A 
 368      EFA7F714 
 368      1AF417
 369 0199 735362D2 		.ascii	"sSb\322M\345\265\245\334\2241]9[\025\334T2\3354\266"
 369      4DE5B5A5 
 369      DC94315D 
 369      395B15DC 
 369      5432DD34 
 370 01ae AAB8996E 		.ascii	"\252\270\231n2\204\271S\315\252H\266\023\266\222\277"
 370      3284B953 
 370      CDAA48B6 
 370      13B692BF 
 371 01be 35C68CB1 		.ascii	"5\306\214\261\223\301*\016\207\236Fj9_\0331\304oy5J"
 371      93C12A0E 
 371      879E466A 
 371      395F1B31 
 371      C46F7935 
 372 01d3 E2FD2574 		.ascii	"\342\375%t^\376\264\377\264#\202\007\320\011-\210\217"
 372      5EFEB4FF 
 372      B4238207 
 372      D0092D88 
 372      8F
 373 01e4 C001BD50 		.ascii	"\300\001\275P\303\300\233\260\253\243\233\255\340\213"
 373      C3C09BB0 
 373      ABA39BAD 
 373      E08B
 374 01f2 705BEF65 		.ascii	"p[\357e+\024\023T\034\266\020X\226kL\360\210\354\322"
 374      2B141354 
 374      1CB61058 
 374      966B4CF0 
ARM GAS  /tmp/ccfTw1cj.s 			page 29


 374      88ECD2
 375 0205 5BDF5E1B 		.ascii	"[\337^\033r\231r,]\372\373{\025[\243e\014\016_\355/"
 375      7299722C 
 375      5DFAFB7B 
 375      155BA365 
 375      0C0E5FED 
 376 021a 22426367 		.ascii	"\"Bcg\025\005\267\212\242,\264\240T\013\373u]O\277\361"
 376      1505B78A 
 376      A22CB4A0 
 376      540BFB75 
 376      5D4FBFF1 
 377 022e F9F90F50 		.ascii	"\371\371\017P\242x\030}\375\011\015\013X\232\316\202"
 377      A278187D 
 377      FD090D0B 
 377      589ACE82 
 378 023e 0A595A17 		.ascii	"\012YZ\027[E1\201gAEBJ\023w#\3701Q\223\215\266m\210"
 378      5B453181 
 378      67414542 
 378      4A137723 
 378      F8315193 
 379 0256 ECEDAF8C 		.ascii	"\354\355\257\214`\277pX6\211\023t\3066\361\024\022\300"
 379      60BF7058 
 379      36891374 
 379      C636F114 
 379      12C0
 380 0268 5C1E934B 		.ascii	"\\\036\223Kb\374a\013\237\352:1|\265\307k\205\314A$"
 380      62FC610B 
 380      9FEA3A31 
 380      7CB5C76B 
 380      85CC4124 
 381 027c BCD89BA1 		.ascii	"\274\330\233\241\247\200V\214@\2715\347\264\025\026"
 381      A780568C 
 381      40B935E7 
 381      B41516
 382 028b AB7C8B85 		.ascii	"\253|\213\205o\310\253KFe\306\362\274G\303\251*\232"
 382      6FC8AB4B 
 382      4665C6F2 
 382      BC47C3A9 
 382      2A9A
 383 029d 47207C70 		.ascii	"G |p\003\235k\251\320zz\324mL\360\301\320\363(\251\262"
 383      039D6BA9 
 383      D07A7AD4 
 383      6D4CF0C1 
 383      D0F328A9 
 384 02b2 7596D9F4 		.ascii	"u\226\331\364\3451\0219\006\227\3479\233\026f\036\201"
 384      E5311139 
 384      0697E739 
 384      9B16661E 
 384      81
 385 02c3 6DE9E1EF 		.ascii	"m\351\341\357\320\322\346\262\301\025\252\341\032\030"
 385      D0D2E6B2 
 385      C115AAE1 
 385      1A18
 386 02d1 231C8BCA 		.ascii	"#\034\213\312\030\312c\004y\273f\221\242i\314\221J\237"
 386      18CA6304 
 386      79BB6691 
 386      A269CC91 
ARM GAS  /tmp/ccfTw1cj.s 			page 30


 386      4A9F
 387 02e3 D9E637A7 		.ascii	"\331\3467\247\300\246\250R\315\3354\234.b4\222\372d"
 387      C0A6A852 
 387      CDDD349C 
 387      2E623492 
 387      FA64
 388 02f5 876C6DE5 		.ascii	"\207lm\345\246\335\230\306\007\"<Nk\334c\343\303*;m"
 388      A6DD98C6 
 388      07223C4E 
 388      6BDC63E3 
 388      C32A3B6D 
 389 0309 EA2E7130 		.ascii	"\352.q0F\303j\200/`\353O\266b\317\032\243~f\237\325"
 389      46C36A80 
 389      2F60EB4F 
 389      B662CF1A 
 389      A37E669F 
 390 031e 14D481B0 		.ascii	"\024\324\201\260,\022/3z\373\271\3619\366\312\017u\331"
 390      2C122F33 
 390      7AFBB9F1 
 390      39F6CA0F 
 390      75D9
 391 0330 0CF31891 		.ascii	"\014\363\030\221\360\232\251u\353\345s\027Dj\331\341"
 391      F09AA975 
 391      EBE57317 
 391      446AD9E1 
 392 0340 ACB1E5B0 		.ascii	"\254\261\345\260\373\246\230\007\314\034\220\231\350"
 392      FBA69807 
 392      CC1C9099 
 392      E8
 393 034d A49D0323 		.ascii	"\244\235\003#\251)\021<!d\371\210\323@\246O\035\256"
 393      A929113C 
 393      2164F988 
 393      D340A64F 
 393      1DAE
 394 035f 20442DCC 		.ascii	" D-\314%2\242hB\243\274X\341\032\353\273\177\002\337"
 394      2532A268 
 394      42A3BC58 
 394      E11AEBBB 
 394      7F02DF
 395 0372 0563AEEF 		.ascii	"\005c\256\357\376<\276;\340W\277\360\375\332a{]@l>\303"
 395      FE3CBE3B 
 395      E057BFF0 
 395      FDDA617B 
 395      5D406C3E 
 396 0387 F6E9C17C 		.ascii	"\366\351\301|>U\232>9\355\213\233\032\261\017+H$\371"
 396      3E559A3E 
 396      39ED8B9B 
 396      1AB10F2B 
 396      4824F9
 397 039a 0E2B3481 		.ascii	"\016+4\201`\027cr\005\207\362\010v\302\250C\346\024"
 397      60176372 
 397      0587F208 
 397      76C2A843 
 397      E614
 398 03ac BABCC797 		.ascii	"\272\274\307\227\223B\017\251\242\224q\012\315\0048"
 398      93420FA9 
 398      A294710A 
ARM GAS  /tmp/ccfTw1cj.s 			page 31


 398      CD0438
 399 03bb 0B9DBF5D 		.ascii	"\013\235\277]?\325\277]\266\217\324\016\"\322\277\233"
 399      3FD5BF5D 
 399      B68FD40E 
 399      22D2BF9B 
 400 03cb E40B25BC 		.ascii	"\344\013%\274l\374\214\010CJz[\357]\242\341\303\226"
 400      6CFC8C08 
 400      434A7A5B 
 400      EF5DA2E1 
 400      C396
 401 03dd AC59356C 		.ascii	"\254Y5l\331\363/\231\363\263-\207\217_:\263\357\370"
 401      D9F32F99 
 401      F3B32D87 
 401      8F5F3AB3 
 401      EFF8
 402 03ef ECF1F9F2 		.ascii	"\354\361\371\362\341G\227\345l\302\370\214\204)\340"
 402      E14797E5 
 402      6CC2F88C 
 402      8429E0
 403 03fe 84D9DA91 		.ascii	"\204\331\332\221>\332s\362=\376\202\317\261k\343\\\336"
 403      3EDA73F2 
 403      3DFE82CF 
 403      B16BE35C 
 403      DE
 404 040f A996AFA5 		.ascii	"\251\226\257\245ClZk\306\325\305\034\027\014\265\223"
 404      436C5A6B 
 404      C6D5C51C 
 404      170CB593 
 405 041f 7324825F 		.ascii	"s$\202_\223!\204\303\030\341\021<\207a\373\214\250\356"
 405      932184C3 
 405      18E1113C 
 405      8761FB8C 
 405      A8EE
 406 0431 FC72D33E 		.ascii	"\374r\323>\247BR&\356f\337\011+\316\253i\347\376\"N"
 406      A7425226 
 406      EE66DF09 
 406      2BCEAB69 
 406      E7FE224E 
 407 0445 891F5399 		.ascii	"\211\037S\231\035\363\254\225T\316\212\014\002\033\\"
 407      1DF3AC95 
 407      54CE8A0C 
 407      021B5C
 408 0454 4CA30CF6 		.ascii	"L\243\014\366/\025\207\354\3109\215y*\372\315\322Q\254"
 408      2F1587EC 
 408      C8398D79 
 408      2AFACDD2 
 408      51AC
 409 0466 D1574154 		.ascii	"\321WAT\217k{\\\026A\311\204\325\343\205\211\253\207"
 409      8F6B7B5C 
 409      1641C984 
 409      D5E38589 
 409      AB87
 410 0478 B837FB76 		.ascii	"\2707\373v\332)5\225xD\252e\254\007\267\334\221s\245"
 410      DA293595 
 410      7844AA65 
 410      AC07B7DC 
 410      9173A5
ARM GAS  /tmp/ccfTw1cj.s 			page 32


 411 048b 13E49C9B 		.ascii	"\023\344\234\233\301\2719W\232'\347\334\240\027\335"
 411      C1B93957 
 411      9A27E7DC 
 411      A017DD
 412 049a A540FCBE 		.ascii	"\245@\374\276*\247@\224\335G\201\370\346\316\002qE\310"
 412      2AA74094 
 412      DD4781F8 
 412      E6CE0271 
 412      45C8
 413 04ac 2A6FB12A 		.ascii	"*o\261*u\372\324\300\234\311\026\210\212\011|\3670c"
 413      75FAD4C0 
 413      9CC91688 
 413      8A097CF7 
 413      3063
 414 04be AEEF1579 		.ascii	"\256\357\025y|\367\300H\241Q \006\354u\225\367] \246"
 414      7CF7C048 
 414      A1512006 
 414      EC7595F7 
 414      5D20A6
 415 04d1 1149BE02 		.ascii	"\021I\276\002Q5\201`/cr\005W\345\021\354\205wXp\252"
 415      51358160 
 415      2F637205 
 415      57E511EC 
 415      85775870 
 416 04e6 2BF5E70E 		.ascii	"+\365\347\016\305Z8\235\322W|\316\262i\356\203\033%"
 416      C55A389D 
 416      D2577CCE 
 416      B269EE83 
 416      1B25
 417 04f8 32B17DDF 		.ascii	"2\261}\337\341\266V\031K\262?\347.B\221\371\015t\366"
 417      E1B65619 
 417      4BB23FE7 
 417      2E4291F9 
 417      0D74F6
 418 050b C944E2FD 		.ascii	"\311D\342\375\303\311H?\034\225e\316\345\237\243\026"
 418      C3C9483F 
 418      1C9565CE 
 418      E59FA316 
 419 051b 326CEB9E 		.ascii	"2l\353\236\257b \253\333'2\232B\255\204\241G6\352\307"
 419      AF6220AB 
 419      DB27329A 
 419      42AD84A1 
 419      4736EAC7 
 420 052f 02EBA834 		.ascii	"\002\353\2504\\8\316\237p\036\177\002p\020\015\177>"
 420      5C38CE9F 
 420      701E7F02 
 420      70100D7F 
 420      3E
 421 0540 2BB3D655 		.ascii	"+\263\326U\233\367V\276$\356\355\010\270r._\235\212"
 421      9BF756BE 
 421      24EEED08 
 421      B8722E5F 
 421      9D8A
 422 0552 C1AC0EBF 		.ascii	"\301\254\016\277q\331\2535\\d\361\006\305\217\267\257"
 422      71D9AB35 
 422      5C64F106 
 422      C58FB7AF 
ARM GAS  /tmp/ccfTw1cj.s 			page 33


 423 0562 E8EF90EC 		.ascii	"\350\357\220\354n\215\3643\207F\271n(Jk{,\252\250\355"
 423      6E8DF433 
 423      8746B96E 
 423      284A6B7B 
 423      2CAAA8ED 
 424 0576 CD9B95E6 		.ascii	"\315\233\225\346\350FEm\325\232\264\366\204\222\214"
 424      E846456D 
 424      D59AB4F6 
 424      84928C
 425 0585 6F58F7BC 		.ascii	"oX\367\274\222\214&\222J<)\336\211hl\276\012r,\321\342"
 425      928C2692 
 425      4A3C29DE 
 425      89686CBE 
 425      0A722CD1 
 426 059a 4F46E22D 		.ascii	"OF\342-\321\344\332\244\026\213\242\366\370]\031\310"
 426      D1E4DAA4 
 426      168BA2F6 
 426      F85D19C8 
 427 05aa 20BCB64E 		.ascii	" \274\266Nm\333\320L\213Z\223\255\361h\24491\277\025"
 427      6DDBD04C 
 427      8B5A93AD 
 427      F168A439 
 427      31BF15
 428 05bd 16FF2B5C 		.ascii	"\026\377+\\Bmm&\320\222{\201\242\233\222\312\362\372"
 428      426D6D26 
 428      D0927B81 
 428      A29B92CA 
 428      F2FA
 429 05cf 86150D59 		.ascii	"\206\025\015Yl{<\272V\215=\263a\235J\004\205\365\015"
 429      6C7B3CBA 
 429      568D3DB3 
 429      619D4A04 
 429      85F50D
 430 05e2 AB6A9A22 		.ascii	"\253j\232\"\211\350\372\2706\257f\346\002\220\342\340"
 430      89E8FAB8 
 430      36AF66E6 
 430      0290E2E0 
 431 05f2 8E4563ED 		.ascii	"\216Ec\355\361\315\260\374^\344\255\2216e}{<\231P\032"
 431      F1CDB0FC 
 431      5EE4AD91 
 431      36657D7B 
 431      3C99501A 
 432 0606 1AEB17D5 		.ascii	"\032\353\027\325)+W>\2454\256\250\337\270PI$\327\266"
 432      292B573E 
 432      A534AEA8 
 432      DFB85049 
 432      24D7B6
 433 0619 B5B1C027 		.ascii	"\265\261\300''\341\225A\261tU\375\362\372M\264@\010"
 433      27E19541 
 433      B17455FD 
 433      F2FA4DB4 
 433      4008
 434 062b E458C609 		.ascii	"\344X\306\011\357Z\272l\371SO\303?\337\355l\344"
 434      EF5ABA6C 
 434      F9534FC3 
 434      3FDFED6C 
 434      E4
ARM GAS  /tmp/ccfTw1cj.s 			page 34


 435              		.text
 436              		.section	.gnu.lto_sem2_execute.242cfd61d017484d,"",%progbits
 437 0000 789C7D53 		.ascii	"x\234}S\317k\023Q\020\376f\337\356f\223F\023s\363R\212"
 437      CF6B1351 
 437      10FE66DF 
 437      EE669346 
 437      1373F352 
 438 0015 478B5D28 		.ascii	"G\213](\376\037^Z\324c\262\011\315\252i\240I\005\361"
 438      FE1F5E5A 
 438      D463B209 
 438      CDAA69A0 
 438      4905F1
 439 0028 90579342 		.ascii	"\220W\223B\217\275\364\240\365\320\342\301_`\317\026"
 439      8FBDF4A0 
 439      F5D0E2C1 
 439      5F60CF16 
 440 0038 841C15A9 		.ascii	"\204\034\025\251\321C\025\304B\020zR\350]\2048\363\366"
 440      D14315C4 
 440      42107A52 
 440      E85D8438 
 440      F3F6
 441 004a 87B64D7D 		.ascii	"\207\266M}\2603ovg\276\371\276yo-X8\271\256\361s]\001"
 441      B0336F76 
 441      67BEF9BE 
 441      796F2D58 
 441      38B9AEF1 
 442 0061 B7D85306 		.ascii	"\267\330S\006d\255\177\000V<\313r?\373\3209\265;\011"
 442      64AD7F00 
 442      563CCB72 
 442      3FFBD039 
 442      B53B09
 443 0074 9D577164 		.ascii	"\235Wqd\233\310\216#\307D\016\271RB.\221x\020:\226\262"
 443      9BC88E23 
 443      C7440EB9 
 443      52422E91 
 443      78103A96 
 444 0089 1D973A37 		.ascii	"\035\227:7I\032\320%lk\275>\\}\371\216\036\352~oK\377"
 444      491AD025 
 444      6C6BBD3E 
 444      5C7DF98E 
 444      1EEA7E6F 
 445 009f 1E8D8842 		.ascii	"\036\215\210Bb2\263\204\200p\203\003\2322\316\262\217"
 445      6232B384 
 445      80708303 
 445      9A32CEB2 
 445      8F
 446 00b0 B3DBB1FA 		.ascii	"\263\333\261\372\303\321\350\361\376\326\367#*\225\024"
 446      C3D1E8F1 
 446      FED6F723 
 446      2A9514
 447 00bf CAB4CD78 		.ascii	"\312\264\315x6BR\256\030OL\226\215\235\223]^L\201\215"
 447      364252AE 
 447      184F4C96 
 447      8D9D935D 
 447      5E4C818D 
 448 00d3 53941D03 		.ascii	"S\224\035\0038\350q\363\251\250\016\322\215\327\034"
 448      38E871F3 
ARM GAS  /tmp/ccfTw1cj.s 			page 35


 448      A9A80ED2 
 448      8DD71C
 449 00e2 5BE13A4F 		.ascii	"[\341:O\226x5\300\352\360\365!\225\351\0119X u\037\277"
 449      967835C0 
 449      EAF0F521 
 449      95E90939 
 449      5820751F 
 450 00f7 F49A2E86 		.ascii	"\364\232.\206\344\006d\012\020\275\321\255\2202\015"
 450      E406640A 
 450      10BDD1AD 
 450      90320D
 451 0106 42946808 		.ascii	"B\224h\010{\340FY`\017\335A\367\307\206J0l\206\221\357"
 451      7BE04659 
 451      600FDD41 
 451      F7C7864A 
 451      306C8691 
 452 011b F62859D4 		.ascii	"\366(Y\324\001\006p\222\0047m\222\013(:\026\311\237"
 452      01067092 
 452      04376D92 
 452      0B283A16 
 452      C99F
 453 012d 20290E29 		.ascii	" )\016)\017\274E\357g\312\311\225\217\352\337\321\314"
 453      0FBC45EF 
 453      67CAC995 
 453      8FEADFD1 
 453      CC
 454 013e 73B83BA9 		.ascii	"s\270;\251\366\360\340\353\267\315\375/N\2544\221\334"
 454      F6F0E0EB 
 454      B7CDFD2F 
 454      4EAC3491 
 454      DC
 455 014f 7F7F308B 		.ascii	"\177\1770\213\230i\020U.Pa\032/\264\326\303\203\347"
 455      98691055 
 455      2E50611A 
 455      2FB4D6C3 
 455      83E7
 456 0161 6FAEF090 		.ascii	"o\256\360\2206\361hE\013\205s)\031\221\027S9o\332T$"
 456      36F16845 
 456      0B857329 
 456      19911753 
 456      396FDA54 
 457 0176 2ED33311 		.ascii	".\3233\021\034\313,\225\351\251!Ud\304\250rx\370\352"
 457      1CCB2C95 
 457      E9A92155 
 457      64C4A872 
 457      78F8EA
 458 0189 22574CE3 		.ascii	"\"WL\3432\2031D%\236[<\251c\312\2753\224[\202xZ\271"
 458      32833144 
 458      259E5B3C 
 458      A963CABD 
 458      33945B82 
 459 01a0 3746B98D 		.ascii	"7F\271\215\243\011\243|m'\315\313\232\346\205TSq\234"
 459      A309A37C 
 459      6D27CDCB 
 459      9AE68554 
 459      53719C
 460 01b3 A64CAC29 		.ascii	"\246L\254)\371\017DOzf9\0061gv\202p\376\014\302JjN\023"
ARM GAS  /tmp/ccfTw1cj.s 			page 36


 460      F90F444F 
 460      7A663906 
 460      31677682 
 460      70FE0CC2 
 461 01cb CE8F21EC 		.ascii	"\316\217!\354\340\243\315\327\254\353%\003I!/\004Q?"
 461      E0A3CDD7 
 461      ACEB2503 
 461      49212F04 
 461      513F
 462 01dd BE46A524 		.ascii	"\276F\245$\3335\267\362\023\377\206\1771\346x\242\374"
 462      DB35B7F2 
 462      13FF867F 
 462      31E678A2 
 462      FC
 463 01ee 56DAFB7E 		.ascii	"V\332\373~\275\331\250\371A\263z\317\257\326\356\372"
 463      BDD9A8F9 
 463      41B37ACF 
 463      AFD6EEFA 
 464 01fe 413DAC84 		.ascii	"A=\254\204\315\226\337^Z^\274\355\267k\255\266\277\324"
 464      CD96DF5E 
 464      5A5EBCED 
 464      B76BADB6 
 464      BFD4
 465 0210 36BE556B 		.ascii	"6\276Uk\314\004P\215\326\302\325\377\326\360\206+\302"
 465      CC04508D 
 465      D6C2D5FF 
 465      D6F0862B 
 465      C2
 466 0221 C5E0CE72 		.ascii	"\305\340\316r\225\223\352\255\240^\235\251\343\017w"
 466      9593EAAD 
 466      A05E9DA9 
 466      E30F77
 467 0230 ABEC1D   		.ascii	"\253\354\035"
 468              		.text
 469              		.section	.gnu.lto_sem3_execute.part.3.242cfd61d017484d,"",%progbits
 470 0000 789C8D52 		.ascii	"x\234\215R\317kSA\020\236\331\037m\222\326\037x\353"
 470      CF6B5341 
 470      109ED91F 
 470      6D92D61F 
 470      78EB
 471 0012 A5148F16 		.ascii	"\245\024\217\026\273\007=\371w\244\320\036\223M\232"
 471      BB073DF9 
 471      77A4D01E 
 471      934D9A
 472 0021 B7681A68 		.ascii	"\267h\032hRA<tc+x\354\241 \304\213\005\013\251\007\205"
 472      52413C74 
 472      632B78EC 
 472      A120C48B 
 472      050BA907 
 473 0036 1E0B85DE 		.ascii	"\036\013\205\336\014\210\006\017U\020\017\357 \210 "
 473      0C88060F 
 473      55100FEF 
 473      208820
 474 0045 1E725384 		.ascii	"\036rS\2048\263\357\345\305\250\210\013of\336\354|3"
 474      38B3EFE5 
 474      C5A8880B 
 474      6F66DEEC 
ARM GAS  /tmp/ccfTw1cj.s 			page 37


 474      7C33
 475 0057 DFB7BB02 		.ascii	"\337\267\273\002\004\374\276n\320\367\211\322k\344q"
 475      04FCBE6E 
 475      D0F789D2 
 475      6BE471
 476 0066 0A50EFBE 		.ascii	"\012P\357\276\246@\243\010^\010\365\326\200/\310\343"
 476      A640A308 
 476      5E08F5D6 
 476      802FC8E3 
 477 0076 79F0B312 		.ascii	"y\360\263\022\025g\3339\205\310\001 li!\025n\255\"\367"
 477      1567DB39 
 477      85C80120 
 477      6C692115 
 477      6EAD22F7 
 478 008a 929761DF 		.ascii	"\222\227a\337\373N|\360\3653>\334;m?\366?\206CD\307"
 478      FB4E7CF0 
 478      F5333EDC 
 478      3B6D3FF6 
 478      3F864344 
 479 009f 9B166185 		.ascii	"\233\026a\205\"\314\005'p\222E\002\364\317\272^\006"
 479      22CC0527 
 479      70924502 
 479      F4CFBA5E 
 479      06
 480 00b0 90FC7FCC 		.ascii	"\220\374\177\314Q\327\347G\0309\306,$\0305\211y.|<\034"
 480      51D7E747 
 480      1839C62C 
 480      24183589 
 480      792E7C3C 
 481 00c5 7E1BE467 		.ascii	"~\033\344g\020\034*A\006$\033EFk\010cA\303\216\367\273"
 481      101C2A41 
 481      06241B45 
 481      466B0863 
 481      41C38EF7 
 482 00da 0BA119AD 		.ascii	"\013\241\031\255\"Y\226[D\315^.\243\010\276\017\367"
 482      2259965B 
 482      44CD5E2E 
 482      A308BE0F 
 482      F7
 483 00eb E3DE8B42 		.ascii	"\343\336\213B\011\237\320\006\300]\370\356\037\370\213"
 483      099FD006 
 483      C05DF8EE 
 483      1FF88B
 484 00fa 0EA72C26 		.ascii	"\016\247,&T9\223s8]GH\213\376\3148R\007\257\340\336"
 484      54399373 
 484      385D4748 
 484      8BFECC38 
 484      5207AFE0 
 485 010f FB0F9DB3 		.ascii	"\373\017\235\263w:\233\234\004\247/?^\203\264\322b\270"
 485      773A9B9C 
 485      04A72F3F 
 485      5E83B4D2 
 485      62B8
 486 0121 BC1AE222 		.ascii	"\274\032\342\"<\365\336\307g\207'WI\303#\350\264=\217"
 486      3CF5DEC7 
 486      67872757 
 486      49C323E8 
ARM GAS  /tmp/ccfTw1cj.s 			page 38


 486      B43D8F
 487 0134 CD6704B8 		.ascii	"\315g\004\270=->\200B R\346\377\022\036\006\2364m\273"
 487      3D2D3E80 
 487      422052E6 
 487      FF121E06 
 487      9E346DBB 
 488 0148 BF7DA984 		.ascii	"\277}\251\204]\372\255\241\240\216\0112>\030\314\021"
 488      5DFAADA1 
 488      A08E0932 
 488      3E18CC11 
 489 0158 6211AE50 		.ascii	"b\021\256P3jQNe\214\004B\037t\022\327Pf\303f,\037{:"
 489      336A514E 
 489      658C0442 
 489      1F7412D7 
 489      5066C366 
 490 0170 6E567247 		.ascii	"nVrG\207\347\000z\260\363\005\263\362\225\344\025\214"
 490      87E7007A 
 490      B0F305B3 
 490      F295E415 
 490      8C
 491 0181 D732A18E 		.ascii	"\3272\241\216\347%+\357\015\262:\025\206\237\3174]\370"
 491      E7252BEF 
 491      0DB23A15 
 491      869FCF34 
 491      5DF8
 492 0193 9BA6E954 		.ascii	"\233\246\351T\323\3501\263\0369\352\240\251\011\027"
 492      D3E831B3 
 492      1E39EAA0 
 492      A90917
 493 01a2 4D12FEE5 		.ascii	"M\022\376\345v&\371*\206\004\276\011)\025n\366\015\275"
 493      7626F92A 
 493      8604BE09 
 493      29156EF6 
 493      0DBD
 494 01b4 F131D522 		.ascii	"\3611\325\"\235\003ey\2341Q\243^5\266Q\271c*\325\333"
 494      9D036579 
 494      9C3151A3 
 494      5E35B651 
 494      B9632AD5 
 495 01c9 C646AEEC 		.ascii	"\306F\256\354\032M\323\332\330\\\277iZ\325f\313l\264"
 495      1A4DD3DA 
 495      D85CBF69 
 495      5AD566CB 
 495      6CB4
 496 01db 826F56EB 		.ascii	"\202oV\353K\026\256\377\263\236\002\252v\353\366\326"
 496      4B16AEFF 
 496      B39E02AA 
 496      76EBF6D6 
 497 01eb 66858AA2 		.ascii	"f\205\212\242\246\215*K\021\374\004b\021\317\004"
 497      A68D2A4B 
 497      11FC0462 
 497      11CF04
 498              		.text
 499              		.section	.gnu.lto_sem3_execute.242cfd61d017484d,"",%progbits
 500 0000 789C9554 		.ascii	"x\234\225T\335KTA\024?g\356\275\272\037n\373\241\346"
 500      DD4B5441 
 500      143F67EE 
ARM GAS  /tmp/ccfTw1cj.s 			page 39


 500      BDBA1F6E 
 500      FBA1E6
 501 0013 47253D27 		.ascii	"G%='y\0372\242\267\376\010\205\352m\235]\334Km\202\273"
 501      791F32A2 
 501      B7FE0885 
 501      EA6D9D5D 
 501      DC4B6D82 
 502 0028 06D183D7 		.ascii	"\006\321\203\327\326\310\247\220z\221\202 J\213\210"
 502      D6C8A790 
 502      7A918220 
 502      4A8B88
 503 0037 82420AF1 		.ascii	"\202B\012\361A\350!Ej\355A\003\321\330? \022z\210\360"
 503      41E82145 
 503      6AED4103 
 503      D1D83F20 
 503      127A88F0 
 504 004b C5CE993B 		.ascii	"\305\316\231;w\\\\\013\272p\317\234\2319\347w~\347\234"
 504      775C5C0B 
 504      BA70CF9C 
 504      9939E777 
 504      7EE79C
 505 005e 991120E0 		.ascii	"\231\021 \340\340w\201\376{6\300#\032\261\011PL\177"
 505      E07781FE 
 505      7B36C023 
 505      1AB10950 
 505      4C7F
 506 0070 06988808 		.ascii	"\006\230\210\010\341l\270\340\307\254\205\036\360[,"
 506      E16CB8E0 
 506      C7AC851E 
 506      F05B2C
 507 007f 3DB3D5CC 		.ascii	"=\263\325\314F\207\215\320A\344\021\020\306\205e;8~"
 507      46878DD0 
 507      41E41110 
 507      C685653B 
 507      387E
 508 0091 0915E46B 		.ascii	"\011\025\344k\261T\333\333{\365\363\356\323E\\\024m"
 508      B154DBDB 
 508      7BF5F3EE 
 508      D3455C14 
 508      6D
 509 00a2 023C048B 		.ascii	"\002<\004\213\004:$D\224\204\025#a\307YK\260H\362F\212"
 509      043A2444 
 509      94841523 
 509      61C7594B 
 509      B048F246 
 510 00b7 8493662D 		.ascii	"\204\223f-\303k\004\344\300\244\357O\237\004\220\012"
 510      C36B04E4 
 510      C0A4EF4F 
 510      9F04900A 
 511 00c7 78802407 		.ascii	"x\200$\007\034D\301\243\365\011nm\375\376\261bg\361"
 511      1C44C1A3 
 511      F5096E6D 
 511      FDFEB162 
 511      67F1
 512 00d9 31410FA3 		.ascii	"1A\017\2438\015/\375\224\207M\017\341\301\3044k\315"
 512      380D2FFD 
 512      94874D0F 
ARM GAS  /tmp/ccfTw1cj.s 			page 40


 512      E1C1C434 
 512      6BCD
 513 00eb 3761D79F 		.ascii	"7a\327\237a-RT\020\027\221T\010\265h]\035\010lsks\243"
 513      612D5254 
 513      10179154 
 513      08B5685D 
 513      1D086C73 
 514 0102 DFC40C14 		.ascii	"\337\304\014\024\377\311\234[G$P\226V\267\337\246\011"
 514      FFC99C5B 
 514      47245096 
 514      56B7DFA6 
 514      09
 515 0113 2F082C51 		.ascii	"/\010,QAKT\305\035\306d/\274\360}\277\266>?{\212\222"
 515      414B54C5 
 515      1DC6642F 
 515      BCF07DBF 
 515      B63E3F7B 
 516 0129 0966FE79 		.ascii	"\011f\376y\017c\314\313g6q\3465\305ZKQy3\233\026\305"
 516      0F63CCCB 
 516      673671E6 
 516      35C55A4B 
 516      5179339B 
 517 013f 6388A759 		.ascii	"c\210\247Y\234#`\322\321\350\001\303\2317\335Y|\246"
 517      9C2360D2 
 517      D1E801C3 
 517      9937DD59 
 517      7CA6
 518 0151 B24D69E0 		.ascii	"\262Mi\340\022U\315\000'(<c\011\215%\330\377y\350_\231"
 518      1255CD00 
 518      27283C63 
 518      098D25D8 
 518      FF79E85F 
 519 0166 FAB0BA7D 		.ascii	"\372\260\272}?\032\326\313\"\0206V\014\252\320\031\256"
 519      3F1AD6CB 
 519      22103656 
 519      0CAAD019 
 519      AE
 520 0177 3B86DD11 		.ascii	";\206\335\021\251\372\300Y\011\266L\256Y\354\307\373"
 520      A9FAC059 
 520      09B64CAE 
 520      59ECC7FB 
 521 0187 110F5312 		.ascii	"\021\017S\022u\355\025\1772\3630\255x\256\2545\007\033"
 521      75ED157F 
 521      32F330AD 
 521      78AEAC35 
 521      071B
 522 0199 DC11FACE 		.ascii	"\334\021\372\316\022#\3031c\340[\213\212(;\267\036\322"
 522      1223C331 
 522      63E05B8B 
 522      8A283BB7 
 522      1ED2
 523 01ab 946146AE 		.ascii	"\224aF\256\302\355\332\342\307\230\216\003\306\267M"
 523      C2EDDAE2 
 523      C7988E03 
 523      C6B74D
 524 01ba 06598126 		.ascii	"\006Y\201&\323^DK\0335\256xxTw\370\327\332\356\345\206"
 524      D35E444B 
ARM GAS  /tmp/ccfTw1cj.s 			page 41


 524      1B35AE78 
 524      785477F8 
 524      D7DAEEE5 
 525 01cf 6E7E3BB3 		.ascii	"n~;\263\337\313\246 rZ7q\376\316\372W\024\365\364;\014"
 525      DFCBA620 
 525      725A3771 
 525      FECEFA57 
 525      14F5F43B 
 526 01e4 050EA049 		.ascii	"\005\016\240Iw\352z[\014\364\336\324\273Z\311d\361\235"
 526      77EA7A5B 
 526      0CF4DED4 
 526      BB5AC964 
 526      F19D
 527 01f6 2A6A8630 		.ascii	"*j\2060\003\317\332\354N\027y\364\002\235\216\016\202"
 527      03CFDAEC 
 527      4E1779F4 
 527      029D8E0E 
 527      82
 528 0207 18425B79 		.ascii	"\030B[y\207)R\312N\330\212\250\011\326%\261\331\324"
 528      872952CA 
 528      4ED88AA8 
 528      09D625B1 
 528      D9D4
 529 0219 28898CE8 		.ascii	"(\211\214\350a7\3002L~Gc\316\233V\375\365\036\244\351"
 529      6137C032 
 529      4C7E4763 
 529      CE9B56FD 
 529      F51EA4E9 
 530 022d 420F5F95 		.ascii	"B\017_\225\315\345\035c\027S\301\217\231\234\216\037"
 530      CDE51D63 
 530      1753C18F 
 530      999C8E1F 
 531 023d 9653BBCE 		.ascii	"\226S\273\316\31117\244R\265B\2048\201\260\221}\200"
 531      C93137A4 
 531      52B54284 
 531      3881B091 
 531      7D80
 532 024f 70E22F84 		.ascii	"p\342/\204\005\3734\022N\034B\330\206\235\270U\205J"
 532      05FB3412 
 532      4E1C42D8 
 532      869DB855 
 532      854A
 533 0261 A4A1E727 		.ascii	"\244\241\347'\244\276\274\036\366\204\326\216z\012\276"
 533      A4BEBC1E 
 533      F684D68E 
 533      7A0ABE
 534 0270 D093B58F 		.ascii	"\320\223\265\2171@'\232V\371l\271na\244\230w\345H\356"
 534      3140279A 
 534      56F96CB9 
 534      6E61A498 
 534      77E548EE 
 535 0284 869BCB5F 		.ascii	"\206\233\313_we\301\033\362FJnyt\354\332\025\267\234"
 535      7765C11B 
 535      F2464A6E 
 535      7974ECDA 
 535      15B79C
 536 0297 2F95DDD1 		.ascii	"/\225\335\321\262\032K\371b\237\204s\377\264'\205\254"
ARM GAS  /tmp/ccfTw1cj.s 			page 42


 536      B21A4BF9 
 536      629F8473 
 536      FFB42785 
 536      AC
 537 02a8 BD6BF2EA 		.ascii	"\275k\362\352X\216\214\012\345\302h>\233+\365\025\240"
 537      588E8C0A 
 537      E5C2683E 
 537      9B2BF515 
 537      A0
 538 02b9 FFBFFC4A 		.ascii	"\377\277\374J\262\220#\247?\006CB\371"
 538      B29023A7 
 538      3F064342 
 538      F9
 539              		.text
 540              		.section	.gnu.lto_.symbol_nodes.242cfd61d017484d,"",%progbits
 541 0000 789C4D91 		.ascii	"x\234M\221\313n\323P\020@g\346\332N\032\327N\014\005"
 541      CB6ED350 
 541      104067E6 
 541      DA4E1AD7 
 541      4E0C05
 542 0013 376D9A50 		.ascii	"7m\232P(t\307\212m?\246_2!\206\026Z\211\240Vb\201\350"
 542      2874C78A 
 542      6D3FA65F 
 542      32218616 
 542      5A89A056 
 543 002a 2AFC025F 		.ascii	"*\374\002_`\321H]\260\000)\221\020\022\020S\236\345"
 543      60D1485D 
 543      B0002991 
 543      10121053 
 543      9EE5
 544 003c FD7EB4E2 		.ascii	"\375~\264\342\276\324ko\216\316\314\235\2713\327\004"
 544      BED46B6F 
 544      8ECECC9D 
 544      B933D704 
 545 004c 046D0FCC 		.ascii	"\004m\017\314G\373\310\036\334|\000\300|\347\372\252"
 545      47FBC81E 
 545      DC7C00C0 
 545      7CE7FAAA 
 546 005c FF151118 		.ascii	"\377\025\021\030\374#$\011z\201\014\245\344w\024*9A"
 546      FC232409 
 546      7A810CA5 
 546      E477142A 
 546      3941
 547 006e F058D001 		.ascii	"\360X\320\001\262pI*\220\375\222\276B\016J\372\016\271"
 547      B270492A 
 547      90FD92BE 
 547      420E4AFA 
 547      0EB9
 548 0080 52D2D7C8 		.ascii	"R\322\327\310T\322\373\310U\253;\327V\351#2\226\262"
 548      54D2FBC8 
 548      55AB3BD7 
 548      56E92332 
 548      96B2
 549 0092 9F90A74A 		.ascii	"\237\220\247J\272C\\;>\214\364\0069,e\357\022O\227\262"
 549      BA435C3B 
 549      3E8CF406 
 549      392C65EF 
ARM GAS  /tmp/ccfTw1cj.s 			page 43


 549      124F97B2 
 550 00a6 EF91A3D2 		.ascii	"\357\221\243\322\006_\320\363\345\006/\321Wx\213\201"
 550      065FD0F3 
 550      E5062FD1 
 550      57788B81 
 551 00b6 C207AC28 		.ascii	"\302\007\254(|\306\252\004\376E\216ME\267\213\370\023"
 551      7CC6AA04 
 551      FE458E4D 
 551      45B78BF8 
 551      13
 552 00c7 B9EEEC0F 		.ascii	"\271\356\354\017r\303\331o\344\304\3317\344\023\316"
 552      72C3D96F 
 552      E4C4D937 
 552      E413CE
 553 00d6 7E219F74 		.ascii	"~!\237t\366\003y\306\331!\362)g\377\220O;\353\022\247"
 553      F60379C6 
 553      D921F229 
 553      67FF904F 
 553      3BEB12A7 
 554 00ea CEAE12CF 		.ascii	"\316\256\022\317:\273B\334t\266N<\347\3542\361\274\263"
 554      3ABB42DC 
 554      74B64E3C 
 554      E7EC32F1 
 554      BCB3
 555 00fc 1E71CB59 		.ascii	"\036q\313YF\274\340l\215\270}l\002\346!{~\244\231\257"
 555      46BCE06C 
 555      8DB87D6C 
 555      02E6217B 
 555      7EA499AF 
 556 0110 1D74B46F 		.ascii	"\035t\264o\030\346\233\326\373\212\013\220[\026\226"
 556      18E69BD6 
 556      FB8A0B90 
 556      5B1696
 557 011f D996E1C0 		.ascii	"\331\226\341\3002\327\234\205B\263\005\331\266\251\037"
 557      32D79C85 
 557      42B305D9 
 557      B6A91F
 558 012e 8C760301 		.ascii	"\214v\003\001s\220\215\025\2330\320\224\3474S(\036K"
 558      73908D15 
 558      9B30D094 
 558      E7345328 
 558      1E4B
 559 0140 8A0E64CF 		.ascii	"\212\016d\317\344\034\242\015\271b`=\220\375\025+g\214"
 559      E41CA20D 
 559      B962603D 
 559      90FD152B 
 559      678C
 560 0152 572DA72C 		.ascii	"W-\247,kg-\027M]\255\011\205b\270\010\331a*By\235Zo"
 560      6B672D17 
 560      4D5DAD09 
 560      8562B808 
 560      D9612A42 
 561 016a 3A849E0A 		.ascii	":\204\236\012G\266,:g\332F\251\311Gr\314\365}OD\035"
 561      47B62C3A 
 561      67DA46A9 
 561      C94772CC 
 561      F57D4F44 
ARM GAS  /tmp/ccfTw1cj.s 			page 44


 562 017f 2834E558 		.ascii	"(4\345X\033\212!L6G\372\\\3267,\266Z:\374H\350\350X"
 562      1B8A214C 
 562      3647FA5C 
 562      D6372CB6 
 562      5A3AFC48 
 563 0196 A3B88D22 		.ascii	"\243\270\215\"\276 mF\304-\030\334\272(b\331y{$4\037"
 563      BE206D46 
 563      C42D18DC 
 563      BA2862D9 
 563      797B2434 
 564 01ab 3E31EC3F 		.ascii	">1\354?\225\\\202\342\206\242\\T\363<\024{+:\2757&\315"
 564      955C82E2 
 564      86A25C54 
 564      F33C147B 
 564      2B3ABD37 
 565 01c1 A17C0F45 		.ascii	"\241|\017E\365?b\371Nj@Y\226k\332\377U_2\213\324S\263"
 565      F53F62F9 
 565      4E6A4059 
 565      966BDAFF 
 565      555F328B 
 566 01d8 B7E2BD4B 		.ascii	"\267\342\275K\032\273\262M=\206\336pE4\344d2\252\240"
 566      1ABBB24D 
 566      3D86DE70 
 566      4534E464 
 566      32AAA0
 567 01eb 0E35964D 		.ascii	"\0165\226MQb\233$\313\246ib/K\354\345I\003&\3031\301"
 567      51629B24 
 567      CBA66962 
 567      2F4BECE5 
 567      490326C3 
 568 0201 7FE4AC43 		.ascii	"\177\344\254C\254"
 568      AC
 569              		.text
 570              		.section	.gnu.lto_.refs.242cfd61d017484d,"",%progbits
 571 0000 789C854D 		.ascii	"x\234\205M[\016\2000\010+\335\313\031u\276?\275\377"
 571      5B0E8030 
 571      082BDDCB 
 571      1975BE3F 
 571      BDFF
 572 0012 65BC93B8 		.ascii	"e\274\223\2709\343\237\220B\333\320@\020'J\035\200\200"
 572      39E39F90 
 572      42DBD040 
 572      10274A1D 
 572      8080
 573 0024 3462FF36 		.ascii	"4b\3776]\355\252\341\304\274\256\277\247\004E\243\210"
 573      5DEDAAE1 
 573      C4BCAEBF 
 573      A70445A3 
 573      88
 574 0035 8A96CEF6 		.ascii	"\212\226\316\3669\335\211\355\206\314\332\222\373\302"
 574      39DD89ED 
 574      86CCDA92 
 574      FBC2
 575 0043 A6CADCC8 		.ascii	"\246\312\334\310\327\215S\276\367\345\357s9s\341\312"
 575      D78D53BE 
 575      F7E5EF73 
 575      3973E1CA 
ARM GAS  /tmp/ccfTw1cj.s 			page 45


 576 0053 8DBBEE40 		.ascii	"\215\273\356@(o\230TGN\262\263\307\005\2766\004-"
 576      286F9854 
 576      474EB2B3 
 576      C705BE36 
 576      042D
 577              		.text
 578              		.section	.gnu.lto_.decls.242cfd61d017484d,"",%progbits
 579 0000 789CBD5C 		.ascii	"x\234\275\\yp\024\327\231\357\3569$!\201\004\304\004"
 579      797014D7 
 579      99EFEE39 
 579      24218104 
 579      C404
 580 0012 27BB414E 		.ascii	"'\273AN%\331\224\355 \020$\306[\265\006[\316\332TLB"
 580      25D994ED 
 580      201024C6 
 580      5BB5065B 
 580      CEDA544C 
 581 0027 09A7D655 		.ascii	"\011\247\326U[[\223f\324\240\211ue\246\005f\363\007"
 581      5B5B9366 
 581      D4A08975 
 581      65A60566 
 581      F307
 582 0039 8D380D06 		.ascii	"\2158\015\006\204\300\\\026\267\301\006[X\3106\267`"
 582      84C05C16 
 582      B7C1065B 
 582      58C836B7 
 582      60
 583 004a C0206464 		.ascii	"\300 dd\016\213\303\010\014\310\304\330`\207\3734\227"
 583      0E8BC308 
 583      0CC8C4D8 
 583      6087FB34 
 583      97
 584 005b F67B47F7 		.ascii	"\366{G\367\274~\352\356\351V\234\235\252\367\246\247"
 584      BC7EEAEE 
 584      E9569C9D 
 584      AAF7A6A7 
 585 006b E7BDDFFB 		.ascii	"\347\275\337\373}\307\373\336\321oF\022$\241:U\020\332"
 585      7DC7FBDE 
 585      D16F4612 
 585      24A13A55 
 585      10DA
 586 007d E0D52C0B 		.ascii	"\340\325,\013\302\335N\202\220)\010\302S\220\340R\010"
 586      C2DD4E82 
 586      902908C2 
 586      5390E052 
 586      08
 587 008e 405A0649 		.ascii	"@Z\006I\021\005!\002\251\010R1\244RHe\220R\340\273\201"
 587      11052102 
 587      A9085231 
 587      A4524865 
 587      9052E0BB 
 588 00a3 0279F582 		.ascii	"\002y\365\202\024\205{\243!\375\025\322XH\343!M\206"
 588      14857BA3 
 588      21FD15D2 
 588      5848E321 
 588      4D86
 589 00b5 3415D274 		.ascii	"4\025\322tH\225\220\226@Z\016i\025\244\325\220j \325"
ARM GAS  /tmp/ccfTw1cj.s 			page 46


 589      48959096 
 589      405A0E69 
 589      15A4D590 
 589      6A20D5
 590 00c8 42DA0869 		.ascii	"B\332\010i3\244\255\220v@:\000\351\010\244\026H'!}\001"
 590      33A4AD90 
 590      76403A00 
 590      E908A416 
 590      4827217D 
 591 00dd E96F90CE 		.ascii	"\351o\220\316B\372;\244\213\220\256A\272\011\351\036"
 591      42FA3BA4 
 591      8B90AE41 
 591      BA09E91E 
 592 00ed A434685F 		.ascii	"\2444h_\224\2007\244LH# \375\031\322XH\323 \315\205"
 592      948037A4 
 592      4C482320 
 592      FD19D258 
 592      48D320CD 
 593 0102 B44C124C 		.ascii	"\264L\022L/\304\357\027T\006$\313:Hup/\010\357\365\220"
 593      2FC4EF17 
 593      540624CB 
 593      3A487570 
 593      2F08EFF5 
 594 0117 32A07C3A 		.ascii	"2\240|:\2445\220\374\360\371\207\360\236\005\351\035"
 594      A43590FC 
 594      F0F987F0 
 594      9E05E91D 
 595 0127 4875F0F9 		.ascii	"Hu\360\371]\211\350\210\325\315NH#\341~\015\244\265"
 595      5D89E888 
 595      D5CD4E48 
 595      23E17E0D 
 595      A4B5
 596 0139 12D1DF51 		.ascii	"\022\321\337Q\270\247\302\365\004x\177OJ\350\357 \244"
 596      B8A7C2F5 
 596      04787F4F 
 596      4AE8EF20 
 596      A4
 597 014a 387C5F8B 		.ascii	"8|_\213\360$\242\347zH\357\303\365:x\367\301w=\340\372"
 597      F024A2E7 
 597      7A48EFC3 
 597      F53A78F7 
 597      C1773DE0 
 598 015f DF206D85 		.ascii	"\337 m\205\353t\312\371\003\370\274Q\"z\212R=m\244:"
 598      EB74CAF9 
 598      03F8BC51 
 598      227A8A52 
 598      3D6DA43A 
 599 0173 DB4AF588 		.ascii	"\333J\365\210t\2128\263\372\0209\371Q]0\277\220\211"
 599      748A38B3 
 599      FA1039F9 
 599      515D30BF 
 599      9089
 600 0185 EA51AEA7 		.ascii	"\352Q\256\247\340\372\020\342\001\237\217\303\373c\""
 600      E0FA10E2 
 600      019F8FC3 
 600      FB6322
 601 0194 29EBA3E5 		.ascii	")\353\243\345OR\233 (Ul\2179\226\352\217\305Cz8\312"
ARM GAS  /tmp/ccfTw1cj.s 			page 47


 601      4F529B20 
 601      28556C8F 
 601      3996EA8F 
 601      C5437A38 
 602 01a9 618DA558 		.ascii	"a\215\245X\210\273(\264\307\231L\371\327I\011\037\254"
 602      88BB28B4 
 602      C7994CF9 
 602      D749091F 
 602      AC
 603 01ba A7F525FA 		.ascii	"\247\365%\372\375\0276u\247&\251;\325\241\356\364$u"
 603      FD173675 
 603      A726A93B 
 603      D5A1EEF4 
 603      2475
 604 01cc A73BD445 		.ascii	"\247;\324E~\237\001\357\333$\342O_Q\237\320ml\345\017"
 604      7E9F01EF 
 604      DB24E24F 
 604      5F519FD0 
 604      6D6CE50F 
 605 01e0 BA4EFCB4 		.ascii	"\272N\374\264\376Y\352\347\233m\332@}\250\263@t\214"
 605      FE59EAE7 
 605      9B6DDA40 
 605      7DA8B340 
 605      748C
 606 01f2 B0587CC4 		.ascii	"\260X|\304u9\\\317\201\367\331\214\336\365\266\020\324"
 606      75395CCF 
 606      81F7D98C 
 606      DEF5B610 
 606      D4
 607 0203 02782FA0 		.ascii	"\002x/\2402\"\254\355\222\271\275j\321\334\336h\352"
 607      3222ACED 
 607      92B9BD6A 
 607      D1DCDE68 
 607      EA
 608 0214 871F41B9 		.ascii	"\207\037A\271Y\014_\211~WI\353\215\341\352-\241}\013"
 608      590C5F89 
 608      7E5749EB 
 608      8DE1EA2D 
 608      A17D0B
 609 0227 71E92210 		.ascii	"q\351\"\020\275 \316\250\177\261\375\255\236\321\365"
 609      BD20CEA8 
 609      7FB1FDAD 
 609      9ED1F5
 610 0236 7246DFAC 		.ascii	"rF\337\254\\\263i\237@}\015\365\0137\3752\302\365E\344"
 610      5CB3699F 
 610      407D0DF5 
 610      0B37FD32 
 610      C2F545E4 
 611 024a 8FC81775 		.ascii	"\217\310\027u9\374T\027l\377\352Ly\357\222\210\215\367"
 611      39FC5417 
 611      6CFFEA4C 
 611      79EF9288 
 611      8DF7
 612 025c 4924D6D4 		.ascii	"I$\326\324r}\016\311\335,\021\377\255\244\372a\373\031"
 612      727D0EC9 
 612      DD2C11FF 
 612      ADA4FA61 
ARM GAS  /tmp/ccfTw1cj.s 			page 48


 612      FB19
 613 026e FB42B1AE 		.ascii	"\373B\261\256?\225[\327\3039\221\310\375\030\3451\220"
 613      3F955BD7 
 613      C33991C8 
 613      FD18E531 
 613      90
 614 027f EA2285EA 		.ascii	"\352\"\205\352(\223\223\321)\356\2602\036\243z\274\304"
 614      289393D1 
 614      29EEB032 
 614      1EA37ABC 
 614      C4
 615 0290 D85C8F25 		.ascii	"\330\\\217%k\0206\343#-p}\235\323\363qH' u\366%\372"
 615      6B1036E3 
 615      232D707D 
 615      9DD3F371 
 615      48272075 
 616 02a7 3F1FAFBA 		.ascii	"?\037\257\272\300w\267D\302\225\325]-\244\325\002\361"
 616      C077B744 
 616      C295D55D 
 616      2DA4D502 
 616      F1
 617 02b8 ADAB1291 		.ascii	"\255\253\022\221u9\2477\344\337\027i\254B:\315\364\221"
 617      7539A737 
 617      E4DF1769 
 617      AC423ACD 
 617      F491
 618 02ca 18DEC347 		.ascii	"\030\336\303Gb\012\212_7]\304-4vt\247\372\323u\252\307"
 618      620A8A5F 
 618      375DC42D 
 618      347674A7 
 618      FAD375AA 
 619 02df 6DA4475D 		.ascii	"m\244G]\017)T\027\254\357\360zx\030\332^Am\310\312\020"
 619      0F295417 
 619      ACEFF07A 
 619      7818DA5E 
 619      416DC8CA 
 620 02f4 A0ED5C64 		.ascii	"\240\355\\d\270.\267\351\223h\034\313\342l\\O\271 N"
 620      B82EB7E9 
 620      93681CCB 
 620      E26C5C4F 
 620      B9204E
 621 0307 3FF2113E 		.ascii	"?\362\021>\367\231\366YN:\027\236\203\237b\337\243\355"
 621      F799F659 
 621      4E3A179E 
 621      839F62DF 
 621      A3ED
 622 0319 D7DAB48F 		.ascii	"\327\332\264\217\306\320^\302\3673\216\261\376d\307"
 622      C6D05EC2 
 622      F7338EB1 
 622      FE64C7
 623 0328 9BE5FC63 		.ascii	"\233\345\374c(\263\206\266e\347\017i\224#\353\013c9"
 623      28B386B6 
 623      65E70F69 
 623      9423EB0B 
 623      6339
 624 033a B956BBB0 		.ascii	"\271V\273\260{\2720U\323*\264\245\223\264\347\033\273"
 624      7BBA3055 
ARM GAS  /tmp/ccfTw1cj.s 			page 49


 624      D32AB4A5 
 624      93B4E71B 
 624      BB
 625 034b 74136669 		.ascii	"t\023fi\360\312n\004\215\277$\312b\2274\341O\370\"#"
 625      F0CA6E04 
 625      8DBF24CA 
 625      629734E1 
 625      4FF82223 
 626 035f 0D1BE0E7 		.ascii	"\015\033\340\347\302\233\232V\331\272\362\224\230-\213"
 626      C29B9A56 
 626      D9BAF294 
 626      982D8B
 627 036e CBC56E10 		.ascii	"\313\305n\020\261~#\012\217\012\253\241R\245\246\355"
 627      B17E230A 
 627      8F0AABA1 
 627      52A5A6ED 
 628 037e FC2917B0 		.ascii	"\374)\027\260\360+\031\250$\014\026\005Y\\\005p\262"
 628      F02B19A8 
 628      240C1605 
 628      595C0570 
 628      B2
 629 038f B8527C94 		.ascii	"\270R|\224\264\242\305O,C\255\240\333\002\375\302\342"
 629      B4A2C54F 
 629      2C43ADA0 
 629      DB02FDC2 
 629      E2
 630 03a0 F588B014 		.ascii	"\365\210\260\024\225=y6M\253\312\260hi\220\336Rj\202"
 630      953D7936 
 630      4DABCAB0 
 630      686990DE 
 630      526A82
 631 03b3 FE6793F6 		.ascii	"\376g\223\366\317\022'h\032|\261\006\313\360\232(\232"
 631      CF122768 
 631      1A7CB106 
 631      CBF09A28 
 631      9A
 632 03c4 5AA0384B 		.ascii	"Z\2408K\007\331\001\301\024\017W\251\3418\267ni:<N\034"
 632      07D901C1 
 632      140F57A9 
 632      E138B76E 
 632      693A3C4E 
 633 03d9 87A16B5C 		.ascii	"\207\241k\\\020\257\210\037\231\264\350am\351N1\231"
 633      10AF881F 
 633      99B4E861 
 633      6DE94E31 
 633      99
 634 03ea 1996FAF5 		.ascii	"\031\226\372\365\366\237M\010rt\322.Q\323Re\261\016"
 634      F69F4D08 
 634      7274D22E 
 634      51D35265 
 634      B10E
 635 03fc 8B71C65A 		.ascii	"\213q\306Z\014{\030I\370\026W\371\260\235\030\323N\351"
 635      0C7B1849 
 635      F81657F9 
 635      B09D18D3 
 635      4EE9
 636 040e 627CE84A 		.ascii	"b|\350J\214\273T\014Y\\\007\242H\302\015\003\2276\234"
ARM GAS  /tmp/ccfTw1cj.s 			page 50


 636      8CBB540C 
 636      595C07A2 
 636      48C20D03 
 636      97369C
 637 0421 ADB78BFC 		.ascii	"\255\267\213\374\221^\222\027-`\306{\320\220Q)\353`"
 637      915E9217 
 637      2D60C67B 
 637      D0905129 
 637      EB60
 638 0433 F73C8365 		.ascii	"\367<\203e\233\300f\357\251\306\344\322\204)\011\035"
 638      9BC066EF 
 638      A9C6E4D2 
 638      8429091D 
 639 0443 0B966054 		.ascii	"\013\226`T\261\363\232\367\177*\216\307\362\327C5I\370"
 639      B1F39AF7 
 639      7F2A8EC7 
 639      F2D74335 
 639      49F8
 640 0455 4432ABD6 		.ascii	"D2\253\326=T\313\334\335;\304\012\014\025\307P\337u"
 640      3D54CBDC 
 640      DD3BC40A 
 640      0C15C750 
 640      DF75
 641 0467 18EAF585 		.ascii	"\030\352\365\205[\237\304\346\376\010\003m\360\231\201"
 641      5B9FC4E6 
 641      FE08036D 
 641      F09981
 642 0476 6431C550 		.ascii	"d1\305P\243\361Y/\200\320\360\327\364\002-O2\205\177"
 642      A3F1592F 
 642      80D0F0D7 
 642      F4022D4F 
 642      32857F
 643 0489 727149D8 		.ascii	"rqI\330\351sa\272T;?\320Z7O;+.\320\342\023|z\227\014"
 643      E97361BA 
 643      543B3FD0 
 643      5A374F3B 
 643      2B2ED0E2 
 644 04a2 DAE94812 		.ascii	"\332\351H\022>\306m5\362\276|h\361\205\012\352\313\215"
 644      3EC66D35 
 644      F2BE7C68 
 644      F1850AEA 
 644      CB8D
 645 04b4 AE7C7943 		.ascii	"\256|yC\323<w]2\250\267_\200\333\237\346G\355\357\343"
 645      D33C775D 
 645      32A8B75F 
 645      80DB9FE6 
 645      47EDEFE3 
 646 04c8 DB3F7DE6 		.ascii	"\333?}\346\334S\3635-\213|\225\274\371\323\007\346\264"
 646      DC53F335 
 646      2D8B7C95 
 646      BCF9D307 
 646      E6B4
 647 04da 6F5E169F 		.ascii	"o^\026\237z\310\3115\016-\336s\225\012\371)\3563G\374"
 647      7AC8C935 
 647      0E2DDE73 
 647      950AF929 
 647      EE3347FC 
ARM GAS  /tmp/ccfTw1cj.s 			page 51


 648 04ee BC730C4C 		.ascii	"\274s\014L7\233\017>3\005$\341\224A\277C]\026\344\214"
 648      379B0F3E 
 648      330524E1 
 648      9441BF43 
 648      5D16E48C 
 649 0502 0F5C5DA7 		.ascii	"\017\\]\247i\257\006u\016g<#f\2334q\365\000\016\002"
 649      69AF0675 
 649      0E673C23 
 649      669B3471 
 649      F5000E02 
 650 0516 04EC2B37 		.ascii	"\004\354+7`\266\236T\021\277\316\202}\343\031\314\314"
 650      60B69E54 
 650      11BFCE82 
 650      7DE319CC 
 650      CC
 651 0527 EC260B76 		.ascii	"\354&\013v\321\015X\226=\263\333,\330U\317`ffwX\260"
 651      D10D5896 
 651      3DB3DB2C 
 651      D855CF60 
 651      66667758 
 652 053c 9B6EC07A 		.ascii	"\233n\300z\3323\273\307\202\335\361\014ff\366\200\005"
 652      DA33BBC7 
 652      82DDF10C 
 652      6666F680 
 652      05
 653 054d 7BE0062C 		.ascii	"{\340\006,\333\236Ye3\003V\021\360\012ffV\305\202Mr"
 653      DB9E5965 
 653      33035611 
 653      F00A6666 
 653      56C5824D 
 654 0562 03F64B7B 		.ascii	"\003\366K{fsX\260\251\236\301\314\314\346\262`3\334"
 654      667358B0 
 654      A99EC1CC 
 654      CCE6B260 
 654      33DC
 655 0574 80F5B167 		.ascii	"\200\365\261g6\237\005\253\362\014ff\266\220\005\233"
 655      369F05AB 
 655      F20C6666 
 655      B690059B 
 656 0584 EB066C80 		.ascii	"\353\006l\200=\263j\026l\241g03\263Z\026l\261\033\260"
 656      3DB36A16 
 656      6CA16730 
 656      33B35A16 
 656      6CB11BB0 
 657 0598 41F6CCEA 		.ascii	"A\366\314\352X\260e\236\301\314\314>`\301\336t\003\366"
 657      58B0659E 
 657      C1CCCC3E 
 657      60C1DE74 
 657      03F6
 658 05aa BC3DB3F5 		.ascii	"\274=\263\365,\330[\236\301\314\3146\262`k\334\200\015"
 658      2CD85B9E 
 658      C1CCCC36 
 658      B2606BDC 
 658      800D
 659 05bc B567B699 		.ascii	"\265g\266\231\005\253\361\014ff\266\225\005\253u\003"
 659      05ABF10C 
 659      6666B695 
ARM GAS  /tmp/ccfTw1cj.s 			page 52


 659      05AB7503 
 660 05cc F6923DB3 		.ascii	"\366\222=\263m,\330\007\236\301\314\314\016\262`\033"
 660      6D2CD807 
 660      9EC1CCCC 
 660      0EB2601B 
 661 05dc DD80FDC9 		.ascii	"\335\200\375\311\202\231\361\262\252\207\206\351ODc"
 661      8299F1B2 
 661      AA8786E9 
 661      4F4463
 662 05eb DC96842D 		.ascii	"\334\226\204-\001}\212\343q\214\026\022\030\333\003"
 662      017D8AE3 
 662      718C1612 
 662      18DB03
 663 05fa 5EA76426 		.ascii	"^\247d&\271am\360\3252q\366x\255\261\217>?\337\355\006"
 663      B9616DF0 
 663      D53271F6 
 663      78ADB18F 
 663      3E3FDFED 
 664 060f D161005C 		.ascii	"\321a\000\\\270\207\231\354\357\363\014\306\2712\002"
 664      B88799EC 
 664      EFF30CC6 
 664      B93202
 665 061e 33CD9DE8 		.ascii	"3\315\235\350\004\273ue\274\347\374\304\354-U\307BK"
 665      04BB7565 
 665      BCE7FCC4 
 665      EC2D55C7 
 665      424B
 666 0630 56325583 		.ascii	"V2U\203\025\254d\024\326z\366\264.+\2133\244\237C>S"
 666      15AC6414 
 666      D67AF6B4 
 666      2E2B8B33 
 666      A49F433E 
 667 0645 4A335890 		.ascii	"J3X\220k\375\252MDz>\022\260Z\014c\000\347\252v\236"
 667      6BFDAA4D 
 667      447A3E12 
 667      B05A0C63 
 667      00E7AA76 
 668 065a F09AC478 		.ascii	"\360\232\304x\302q7jr\030\332O\357\251\376\241\326\032"
 668      C271376A 
 668      7218DA4F 
 668      EFA9FEA1 
 668      D61A
 669 066c 1719791D 		.ascii	"\027\031y\035\225\003k\242\252}\372\232h\266\204\326"
 669      95036BA2 
 669      AA7DFA9A 
 669      68B684D6 
 670 067c 1F5F042C 		.ascii	"\037_\004,\0272.\240Z\346\326<\206\0272s1\3207\035\006"
 670      17322EA0 
 670      5AE6D63C 
 670      86173273 
 670      31D0371D 
 671 0691 7A7DE1E2 		.ascii	"z}\341\342\001\030h\001\006\272\312\001\311\242\310"
 671      01186801 
 671      06BACA01 
 671      C9A2C8
 672 06a0 AD8844F3 		.ascii	"\255\210D\363\232ELK\\\264\231\315\365\275\226\2055"
 672      9A454C4B 
ARM GAS  /tmp/ccfTw1cj.s 			page 53


 672      5CB499CD 
 672      F5BD9685 
 672      35
 673 06b1 2C6F2F93 		.ascii	",o/\2238IgO\255[\232\356\317\022\257Uh\363\373x\260"
 673      3849674F 
 673      AD5B9AEE 
 673      CF12AF55 
 673      68F3FB78 
 674 06c6 58F327BA 		.ascii	"X\363'\272\305\026c\375L\010\362\372\231+yS\220$\274"
 674      C51663FD 
 674      4C08F2FA 
 674      992B7953 
 674      9024BC
 675 06d9 16F42AC8 		.ascii	"\026\364*\310/\315\202L\333U\345]\020\303\365V`A\346"
 675      2FCD824C 
 675      DB55E55D 
 675      10C3F556 
 675      6041E6
 676 06ec 7C0F8254 		.ascii	"|\017\202T{\026\244\017#\010\332#\271QE\342`w\241\312"
 676      7B16A40F 
 676      2308DA23 
 676      B95145E2 
 676      6077A1CA 
 677 0700 796D8AF8 		.ascii	"ym\212\370\274-u7oo\265\354E\333[\350v\362\355\255["
 677      BC2D7537 
 677      6F6FB5EC 
 677      45DB5BE8 
 677      76F2EDAD 
 678 0715 7B991D0C 		.ascii	"{\231\035\014\315\325\016F\325\001]e\357`\225\255\010"
 678      CDD50E46 
 678      D5015D65 
 678      EF6095AD 
 678      08
 679 0726 5A743257 		.ascii	"Zt2WP-Gw\255\243;\030k1\324\352\016C\275~|\003\351\257"
 679      502D4777 
 679      ADA33B18 
 679      6B31D4EA 
 679      0E43BD7E 
 680 073e EB30D0BA 		.ascii	"\3530\320\272vf\014rV\014\232\255\010\037QK\267\321"
 680      76660C72 
 680      560C9AAD 
 680      081F514B 
 680      B7D1
 681 0750 FE823896 		.ascii	"\376\2028\226\336A\037R\204\377\367z0\032c\372\310\202"
 681      DE411F52 
 681      84FFF77A 
 681      301A63FA 
 681      C882
 682 0762 1E4763C3 		.ascii	"\036Gc\303\203\316V\351#)1\322\316\177\010\261\"\376"
 682      83CE56E9 
 682      232931D2 
 682      CE7F08B1 
 682      22FE
 683 0774 FE347D1B 		.ascii	"\3764}\033n \032K\233\376A\270O\233<o\234U\035\326\335"
 683      6E201A4B 
 683      9BFE41B8 
 683      4F9B3C6F 
ARM GAS  /tmp/ccfTw1cj.s 			page 54


 683      9C551DD6 
 684 0789 6E3396A8 		.ascii	"n3\226\250\271\235\211\343|Lv\263\217t\252\243\222\030"
 684      B99D89E3 
 684      7C4C76B3 
 684      8F74AAA3 
 684      9218
 685 079b 2F4938CB 		.ascii	"/I8\313wxOkN\264\267{\213\232+\351f\224\276\321\334"
 685      77784F6B 
 685      4EB4B77B 
 685      8B9A2BE9 
 685      6694BED1 
 686 07b0 D0308E6E 		.ascii	"\3200\216n4\307%\264C{\236\323\206\213]\255\333\270"
 686      34C725B4 
 686      437B9ED3 
 686      868B5DAD 
 686      DBB8
 687 07c2 CA4752BB 		.ascii	"\312GR\273\035\332}\372\016-\372\316\305\256"
 687      1DDA7DFA 
 687      0E2DFACE 
 687      C5AE
 688 07d0 96698756 		.ascii	"\226i\207V\0267\211\022\305\355\250FMFL\020\224\305"
 688      16378912 
 688      C5EDA846 
 688      4D464C10 
 688      94C5
 689 07e2 DD787ED4 		.ascii	"\335x~\324 =\302j\177J\212W\355g\263\332\217\337m\252"
 689      203DC26A 
 689      7F4A8A57 
 689      ED67B3DA 
 689      8FDF6DAA 
 690 07f6 16097FB2 		.ascii	"\026\011\177\262g_\305\343\015b\347\256\364\322v\235"
 690      675FC5E3 
 690      0D62E7AE 
 690      F4D2769D 
 691 0806 AEC5ABF6 		.ascii	"\256\305\253\366\343I'\351w\213\334\220sXZ/&`\304\345"
 691      E34927E9 
 691      778BDC90 
 691      73585A2F 
 691      2660C4E5 
 692 081a 577806CB 		.ascii	"Wx\006\3136\201\325\317p\367H@\023\331\351\260$\254"
 692      3681D5CF 
 692      70F74840 
 692      13D9E9B0 
 692      24AC
 693 082c C5ED1EE4 		.ascii	"\305\355\036\344=\245\345\356\301\311\324S\016\272\360"
 693      3DA5E5EE 
 693      C1C9D453 
 693      0EBAF0
 694 083b 14186CF0 		.ascii	"\024\030l\360\263\024]\317\347\014T\007=[\371\211\376"
 694      B3145DCF 
 694      E70C5407 
 694      3D5BF989 
 694      FE
 695 084c 64E0FCC7 		.ascii	"d\340\374\307\"\206#\323\373\313<\\\322\325\207\031"
 695      228623D3 
 695      FBCB3C5C 
 695      D2D58719 
ARM GAS  /tmp/ccfTw1cj.s 			page 55


 696 085c EE81D2D8 		.ascii	"\356\201\322\330\307\233bH_\214\237\330\204\206\333"
 696      C79B6248 
 696      5F8C9FD8 
 696      8486DB
 697 086b 16DC0D6F 		.ascii	"\026\334\015o\247\360A\211h\206\361\347\203\214?7c\177"
 697      A7F04189 
 697      6886F1E7 
 697      838C3F37 
 697      637F
 698 087d 3E04FE2C 		.ascii	">\004\376,\213Gp\376\031\353\333v#\3761v\276\256\245"
 698      8B4770FE 
 698      19EBDB76 
 698      23FE3176 
 698      BEAEA5
 699 0890 7A953B9B 		.ascii	"z\225;\233\263\216]3\007\330f&\247\272\360=\373\235"
 699      B38E5D33 
 699      07D86626 
 699      A7BAF03D 
 699      FB9D
 700 08a2 18082B47 		.ascii	"\030\010+Gf\353C\022y\3621\3133\242\331\233\257\314"
 700      66EB4312 
 700      79F231CB 
 700      33A2D99B 
 700      AFCC
 701 08b4 300D49D5 		.ascii	"0\015I\325n\340\006Y\020\264z\261O\256dq\203\210\314"
 701      6EE00659 
 701      10B47AB1 
 701      4FAE6471 
 701      8388CC
 702 08c7 B4514406 		.ascii	"\264QD\006\332\214\363\2558\337\203\363\311\330p\257"
 702      DA8CF3AD 
 702      38DF83F3 
 702      C9D870AF 
 703 08d7 E27C1ACE 		.ascii	"\342|\032\316\253p\276\010\347\313q\376\026\316\267"
 703      AB70BE08 
 703      E7CB71FE 
 703      16CEB7
 704 08e6 E3BC11E7 		.ascii	"\343\274\021\347{q\376\011\316\367\343\374\024\316["
 704      7B71FE09 
 704      CEF7E3FC 
 704      14CE5B
 705 08f5 DD380009 		.ascii	"\3358\000\011\264\206\233\3511\267\246\303O\305\216"
 705      B4869BE9 
 705      31B7A6C3 
 705      4FC58E
 706 0904 269E8AC9 		.ascii	"&\236\212\311\342\026\317`\274G\2314Y\303h\362=\254"
 706      E216CF60 
 706      BC479934 
 706      59C368F2 
 706      3DAC
 707 0916 C95AACB7 		.ascii	"\311Z\254\2673\3460\376f\252\376\254\266#\341@k\235"
 707      33E630FE 
 707      66AAFEAC 
 707      B623E140 
 707      6B9D
 708 0928 78CAFB4C 		.ascii	"x\312\373L\366\210>\2458\213\343\353\273\251|\357]\313"
 708      F6883EA5 
ARM GAS  /tmp/ccfTw1cj.s 			page 56


 708      388BE3EB 
 708      BBA97CEF 
 708      5DCB
 709 093a 4FFE3D4D 		.ascii	"O\376=M\343\352x\221\334\206$kE\256b\024\3716V\344j"
 709      E3EA7891 
 709      DC86246B 
 709      45AE6214 
 709      F93656E4 
 710 094f ACC82FDD 		.ascii	"\254\310/\335\270\314\262\304n\217)\312\365\020^\247"
 710      B8CCB2C4 
 710      6E8F29CA 
 710      F5105EA7 
 711 095f EAD24495 		.ascii	"\352\322D\225\214Zv\020\337H=\360\225\017\037'\022\350"
 711      8C5A7610 
 711      DF483DF0 
 711      950F1F27 
 711      12E8
 712 0971 839E3FFA 		.ascii	"\203\236?\372\222\266}^2\271\253\251\375\256B%n\177"
 712      92B67D5E 
 712      32B9ABA9 
 712      FDAE4225 
 712      6E7F
 713 0983 D0FC2E64 		.ascii	"\320\374.d\243\202\202d\351 \022\005\271 u\305W&\373"
 713      A3828264 
 713      E9201205 
 713      B92075C5 
 713      5726FB
 714 0996 92AD349B 		.ascii	"\222\2554\233f/2\233!\031i\211\0131\011\335\277K\326"
 714      662F329B 
 714      21196989 
 714      0B3109DD 
 714      BF4BD6
 715 09a9 AAA254B3 		.ascii	"\252\242T\2639\246}\364\372AZ\377\262g\246Wl\230\006"
 715      39A67DF4 
 715      FA415AFF 
 715      B267A657 
 715      6C9806
 716 09bc 9230BD94 		.ascii	"\2220\275\224`\332KX\254\305/\267^Yq\376\341\305\350"
 716      60DA4B58 
 716      ACC52FB7 
 716      5E5971FE 
 716      E1C5E8
 717 09cf 5999F6A0 		.ascii	"Y\231\366\240m\254Hl\006C-\347\330?\023VhZ\225\366]"
 717      6DAC486C 
 717      06432DE7 
 717      D83F1356 
 717      685A95F6 
 718 09e4 C1F33478 		.ascii	"\301\3634x^\306\005\256J\275,\233\322\037\361\375BX"
 718      5EC605AE 
 718      4ABD2C9B 
 718      D21FF1FD 
 718      4258
 719 09f6 8904AAFF 		.ascii	"\211\004\252\377r\350\363\304S\004\207J\224\3425\311"
 719      72E8F3C4 
 719      5304874A 
 719      94E235C9 
 720 0a06 742C84D0 		.ascii	"t,\204\320\214\037;\220Q9\256\265\255\255\227\316\360"
ARM GAS  /tmp/ccfTw1cj.s 			page 57


 720      8C1F3B90 
 720      5139AEB5 
 720      ADAD97CE 
 720      F0
 721 0a17 AA334359 		.ascii	"\2523CY\274!\241\240t\253#\014\355*Q\206\267-\031V\357"
 721      BC21A1A0 
 721      74AB230C 
 721      ED2A5186 
 721      B72D1956 
 722 0a2c E518DE71 		.ascii	"\345\030\336q\307\360nG\030\332U\242\014\357Y2l\336"
 722      C7F06E47 
 722      18DA55A2 
 722      0CEF5932 
 722      6CDE
 723 0a3e CF31AC48 		.ascii	"\3171\254Hs\305\260\255#\014\355*Q\206\232\317\212a"
 723      73C5B0AD 
 723      230CED2A 
 723      51869ACF 
 723      8A61
 724 0a50 4BC30C08 		.ascii	"K\303\014\010\311\025\361\266\266\201\002\027gl\036"
 724      C915F1B6 
 724      B6810217 
 724      676C1E
 725 0a5f 3A23AC09 		.ascii	":#\254\011\276\036\364J\017-\2220\225\023\315`\251\275"
 725      BE1EF44A 
 725      0F2D9230 
 725      9513CD60 
 725      A9BD
 726 0a71 ADF9301A 		.ascii	"\255\3710\032*?\336\327\213e!\213\023-i\3256\030\212"
 726      2A3FDED7 
 726      8B65218B 
 726      132D69D5 
 726      36188A
 727 0a84 436D49C2 		.ascii	"CmI\302<W\350\223y\364)\226\350U{9\364\345\256\320\247"
 727      3C57E893 
 727      79F42996 
 727      E8557B39 
 727      F4E5AED0 
 728 0a99 F2E8D32C 		.ascii	"\362\350\323,\3217\356\347\320k\\\241O\347\321gX\241"
 728      D137EEE7 
 728      D06B5CA1 
 728      4FE7D167 
 728      58A1
 729 0aab B75E79A7 		.ascii	"\267^y\247\345w\357\352\321c\234&\2727\332,\237il\350"
 729      E577EFEA 
 729      D1639C26 
 729      BA37DA2C 
 729      9F696CE8 
 730 0abf C0D9AFF8 		.ascii	"\300\331\257\370\366\0064\217\236\343C\363\350\013\234"
 730      F606348F 
 730      9EE343F3 
 730      E80B9C
 731 0ace 54C92010 		.ascii	"T\311 \020\205y>\356\230\327\226\206\014\315O\356'_"
 731      85793EEE 
 731      98D79686 
 731      0CCD4FEE 
 731      275F
ARM GAS  /tmp/ccfTw1cj.s 			page 58


 732 0ae0 9BD437E8 		.ascii	"\233\3247\350\253@r\372L\353$RL\253\366<\257b\023\344"
 732      AB4072FA 
 732      4CEB2452 
 732      4CABF63C 
 732      AF6213E4 
 733 0af4 6471BE0F 		.ascii	"dq\276\017\215\335\013|.F\355\331\276\364\004\0063\322"
 733      8DDD0B7C 
 733      2E46EDD9 
 733      BEF40406 
 733      33D2
 734 0b06 C27CBC93 		.ascii	"\302|\274\223Ug\217\337j^\017]N\"5%a\016.U\351\263\353"
 734      55678FDF 
 734      6A5E0F5D 
 734      4E223525 
 734      610E2E55 
 735 0b1d F1149FBA 		.ascii	"\361\024\237\272L\2136\264\247\3412\225\274\313\274"
 735      4C8B36B4 
 735      A7E13295 
 735      BCCBBC
 736 0b2c 61ED322B 		.ascii	"a\3552+>\035\270\210\031p\210W\316\357\344\306+\227"
 736      3E1DB888 
 736      19708857 
 736      CEEFE4C6 
 736      2B97
 737 0b3e F04D2CB5 		.ascii	"\360M,\265\364\371\346\275\257\245\022\247w\357\217"
 737      F4F9E6BD 
 737      AFA512A7 
 737      77EF8F
 738 0b4d 2B2C82C8 		.ascii	"+,\202\310JkR\225fR\313yRoZ\221\322@\3444\015&z\232"
 738      4A6B5295 
 738      6652CB79 
 738      526F5A91 
 738      D240E434 
 739 0b65 A4CBBCC9 		.ascii	"\244\313\274\311\225\314\253x\370\267,e\276\272\337"
 739      95CCAB78 
 739      F8B72C65 
 739      BEBADF
 740 0b74 BBCC6B2C 		.ascii	"\273\314k,dnp%\363j\236\324;.e>\356J\346\032\036~m{"
 740      646E7025 
 740      F36A9ED4 
 740      3B2E653E 
 740      EE4AE61A 
 741 0b8c F8D6CAD6 		.ascii	"\370\326\312\326%\033v\374x~\2356\201\270\222I\356T"
 741      251B76FC 
 741      787E9D36 
 741      81B89249 
 741      EE54
 742 0b9e 6132DED1 		.ascii	"a2\336\321\237\250\215\023\377bt\027\233'm\262X\347"
 742      9FA88D13 
 742      FF627417 
 742      9B276DB2 
 742      58E7
 743 0bb0 4B45CE9F 		.ascii	"KE\316\237n\373\234\014\025@/T\237\\\353W\016\217\311"
 743      6EFB9C0C 
 743      15402F54 
 743      9F5CEB57 
 743      0E8FC9
ARM GAS  /tmp/ccfTw1cj.s 			page 59


 744 0bc3 D6F9B8F9 		.ascii	"\326\371\270\371o -qM\021\271^\2720\235\327\017)\264"
 744      6F202D71 
 744      4D11B95E 
 744      BA309DD7 
 744      0F29B4
 745 0bd6 C14A01F1 		.ascii	"\301J\001\361\333\015\257i\2429\274\277e\003\260\311"
 745      DB0DAF69 
 745      A239BCBF 
 745      6503B0C9 
 746 0be6 52839B9B 		.ascii	"R\203\233\233\366\007\027h;'\200\221\306\012\206_\332"
 746      F6071768 
 746      3B278091 
 746      C60A865F 
 746      DA
 747 0bf7 406CB184 		.ascii	"@l\261\204x\363Z\2438\245J\273\327\326\346\3630f\327"
 747      78F35AA3 
 747      38A54ABB 
 747      D7D6E6F3 
 747      3066D7
 748 0c0a F3AA41CB 		.ascii	"\363\252A\313\015\343\303Y2\275\345t\263\327\206W\334"
 748      0DE3C359 
 748      32BDE574 
 748      B3D78657 
 748      DC
 749 0c1b 92D7AD6D 		.ascii	"\222\327\255m;\236Zd\355\034d\335jGm'Om\240\301\314"
 749      3B9E5A64 
 749      ED1C64DD 
 749      6A476D27 
 749      4F6DA0C1 
 750 0c30 FDEEF367 		.ascii	"\375\356\363gg\276\370\367\367\360Q\273\335>\264$i\310"
 750      67BEF8F7 
 750      F7F051BB 
 750      DD3EB424 
 750      69C8
 751 0c42 E0578A01 		.ascii	"\340W\212\001n\241\0300/\024\003i\211\213\304\221G\203"
 751      6EA11830 
 751      2F140369 
 751      898BC491 
 751      4783
 752 0c54 533DD9BA 		.ascii	"S=\331\272\266\032=\311\354\316\201\033h\346_Wcn{q\314"
 752      B61A3DC9 
 752      ECCE811B 
 752      68E65F57 
 752      636E7B71 
 753 0c69 DFD78EDB 		.ascii	"\337\327\216\333y\211;\241\307-\3108\355\2647\325\221"
 753      79893BA1 
 753      C72DC838 
 753      EDB437D5 
 753      91
 754 0c7a 0C6B53ED 		.ascii	"\014kS\355\267\351\307\037\333\365c\322O\354Lu\320\276"
 754      B7E9C71F 
 754      DBF563D2 
 754      4FEC4C75 
 754      D0BE
 755 0c8c 83712A99 		.ascii	"\203q*\231\351\260L=\344K7\2214I\362\265\215$\207-%"
 755      E9B04C3D 
 755      E44B3791 
ARM GAS  /tmp/ccfTw1cj.s 			page 60


 755      3449F2B5 
 755      8D24872D 
 756 0ca1 F9F26A47 		.ascii	"\371\362jG:\303Q\253\316\300\361\270o\303\343\230%\217"
 756      3AC351AB 
 756      CEC0F1B8 
 756      6FC3E398 
 756      258F
 757 0cb3 C51BAEFC 		.ascii	"\305\033\256\374\310\350\327\356\211\034\347\211 \265"
 757      C8E8D7EE 
 757      891CE789 
 757      20B5
 758 0cc1 71445EED 		.ascii	"qD^\355lM\344sK\"g/5\212vD\234\266\016N\271P\311\002"
 758      6C4DE473 
 758      4B22672F 
 758      358A7644 
 758      9CB60E4E 
 759 0cd9 1B26AD96 		.ascii	"\033&\255\226\261\362\273I\257=\254-#k\013\022\177$"
 759      B1F2BB49 
 759      AF3DAC2D 
 759      236B0B12 
 759      7F24
 760 0ceb 61850DC2 		.ascii	"a\205\015\302\031K\204\371{\230h{\024\003\274o\003\360"
 760      194B84F9 
 760      7B98687B 
 760      1403BC6F 
 760      03F0
 761 0cfd A5A5326E 		.ascii	"\245\2452nn;?\260\003V\371\312\254\013\017Ah\322\372"
 761      6E3B3FB0 
 761      0356F9CA 
 761      AC0B0F41 
 761      68D2FA
 762 0d10 47F133CE 		.ascii	"G\3613\316s8\006\305;\363\375\274\003\017\300\370\230"
 762      733806C5 
 762      3BF3FDBC 
 762      030FC0F8 
 762      98
 763 0d21 6CA3806F 		.ascii	"l\243\200o-\025\260\362R\\d\206\033b\204#6\020\027,"
 763      2D15B0F2 
 763      525C6486 
 763      1B628423 
 763      3610172C 
 764 0d35 8D307B4F 		.ascii	"\2150{O\302\214\036\374\351\222\343x\203\364#\264\223"
 764      C28C1EFC 
 764      E992E378 
 764      83F423B4 
 764      93
 765 0d46 ADD586D8 		.ascii	"\255\325\206\330U\233 v\376\307\266\343\015j\300\216"
 765      559B2076 
 765      FEC7B6E3 
 765      0D6AC08E 
 766 0d56 DA758B59 		.ascii	"\332u\213Y\330\025\233\246oX\352\344\306$[\2358E\317"
 766      D8159BA6 
 766      6F58EAE4 
 766      C6245B9D 
 766      3845CF
 767 0d69 5B4ED313 		.ascii	"[N\323\023\252\222$*\322\272X\363\274k\251\242\335\327"
 767      AA92242A 
ARM GAS  /tmp/ccfTw1cj.s 			page 61


 767      D2BA58F3 
 767      BC6BA9A2 
 767      DDD7
 768 0d7b 3A160CEE 		.ascii	":\026\014\356;\032\217nT\362\301\301\206\231\34671\373"
 768      3B1A8F6E 
 768      54F2C1C1 
 768      8699E637 
 768      31FB
 769 0d8d A9B04C8B 		.ascii	"\251\260L\213\037\204EI\313d\021V\214\215\260\260kk"
 769      1F844549 
 769      CB641156 
 769      8C8DB0B0 
 769      6B6B
 770 0d9f 137BE98B 		.ascii	"\023{\351\213\272\325\006\212\335\"\262\202\342\365"
 770      BAD5068A 
 770      DD22B282 
 770      E2F5
 771 0dad 17DED7A6 		.ascii	"\027\336\327\246\304\263IE\262\321j\334Z\203o\241M\354"
 771      C4B34945 
 771      B2D16ADC 
 771      5A836FA1 
 771      4DEC
 772 0dbf BF0A77B4 		.ascii	"\277\012w\264TnhZc\263\335\213\320'\371\215\241\351"
 772      546E685A 
 772      63B3DD8B 
 772      D027F98D 
 772      A1E9
 773 0dd1 31E1511D 		.ascii	"1\341Q\035i\234\377\247\264\211\204\\hs\034\243\223"
 773      699CFFA7 
 773      B489845C 
 773      68731CA3 
 773      93
 774 0de2 4A8EA505 		.ascii	"J\216\245\005\262\005Lw\237u5\324\"\037\376\356\361"
 774      B2054C77 
 774      9F7535D4 
 774      221FFEEE 
 774      F1
 775 0df3 8D15C887 		.ascii	"\215\025\310\207\265\333mb\233O\337\300l\354bp\216;"
 775      B5DB6D62 
 775      9B4FDFC0 
 775      6CEC6270 
 775      8E3B
 776 0e05 FD04C0D8 		.ascii	"\375\004\300\330\343m\267tN \231\216\377\313\342t\177"
 776      E36DB774 
 776      4E20998E 
 776      FFCBE274 
 776      7F
 777 0e16 57C1FA25 		.ascii	"W\301\372%\011k\333\331P\026g$\354\207H\203Wmij\333"
 777      096BDBD9 
 777      50166724 
 777      EC874883 
 777      576D696A 
 778 0e2b 2D56694B 		.ascii	"-ViKu\333Y\375>\302\247\263D\277\3254\242\343\305et"
 778      75DB59FD 
 778      3EC2A7B3 
 778      44BFD534 
 778      A2E3C565 
ARM GAS  /tmp/ccfTw1cj.s 			page 62


 779 0e40 37BFD28F 		.ascii	"7\277\322\217\214\275\216k.)\220$\324\343*\263\375\355"
 779      8CBD8E6B 
 779      2E299024 
 779      D4E32AB3 
 779      FDED
 780 0e52 1E89EF9E 		.ascii	"\036\211\357\236H\037t\242\357\222o&,:J6\023,\232l5"
 780      481F74A2 
 780      EF926F26 
 780      2C3A4A36 
 780      132C9A6C 
 781 0e67 1E21FE0B 		.ascii	"\036!\376\013\303\275\341\310\027\224\373<\314}Or\356"
 781      C3BDE1C8 
 781      1794FB3C 
 781      CC7D4F72 
 781      EE
 782 0e78 66204938 		.ascii	"f I8\214\253,l\317\375\360\004\312}\241+\356\207\232"
 782      8CAB2C6C 
 782      CFFDF004 
 782      CA7DA12B 
 782      EE879A
 783 0e8b CD8FC3CF 		.ascii	"\315\217\303\317\030\270\035y.S\021?LN\263\222g~\337"
 783      18B81D79 
 783      2E53113F 
 783      4C4EB392 
 783      677EDF
 784 0e9e F0609E1E 		.ascii	"\360`\236\036\322j\361c\004\254\0213\273\342\031,\333"
 784      D26AF163 
 784      04AC1133 
 784      BBE2192C 
 784      DB
 785 0eaf C4EC7495 		.ascii	"\304\354t\225\371\247e\267\334\3409\2346\275\334\314"
 785      F9A765B7 
 785      DCE0399C 
 785      36BDDCCC 
 786 0ebf 9C366DF3 		.ascii	"\2346m\363\014f&w\223\005\233\234\351\002\314\352L\246"
 786      0C662677 
 786      93059B9C 
 786      E902CCEA 
 786      4CA6
 787 0ed1 D58B7512 		.ascii	"\325\213u\022Y\254\366\243\315\250E~\364 i\011\316\227"
 787      59ACF6A3 
 787      CDA8457E 
 787      F4206909 
 787      CE97
 788 0ee3 E17C05CE 		.ascii	"\341|\005\316W\342\374-\277\351I\335\254L\275\227X\272"
 788      57E2FC2D 
 788      BFE949DD 
 788      AC4CBD97 
 788      58BA
 789 0ef5 623297D0 		.ascii	"b2\227\320\342\037\332w\017\253'\354\320\265\317\216"
 789      E21FDA77 
 789      0FAB27EC 
 789      D0B5CF8E 
 790 0f05 13279223 		.ascii	"\023'\222#g\270{\314\313L\332=\3703\0145\270\312\332"
 790      67B87BCC 
 790      CB4CDA3D 
 790      F8330C35 
ARM GAS  /tmp/ccfTw1cj.s 			page 63


 790      B8CADA
 791 0f18 76DDA3E9 		.ascii	"v\335\243\351\376x\332=\326\272\350\036\025\361\357"
 791      FE78DA3D 
 791      D6BAE81E 
 791      15F1EF
 792 0f27 66BAFC59 		.ascii	"f\272\374Y\245\321\376\017\030A\032N\351\277\017}\037"
 792      A5D1FE0F 
 792      18411A4E 
 792      E9BF0F7D 
 792      1F
 793 0f38 0BB22BB9 		.ascii	"\013\262+\271 f \350\347\270\312\372\366\202\\\320\005"
 793      206620E8 
 793      E7B8CAFA 
 793      F6825CD0 
 793      05
 794 0f49 59EF4A90 		.ascii	"Y\357J\220M3u\357\257\363#\037;k\340:\370\230\255Q+"
 794      4D3375EF 
 794      AFF3231F 
 794      3B6BE03A 
 794      F898AD51 
 795 0f5e E29BC9AF 		.ascii	"\342\233\311\257p\010\330\005\317`f\357\257?PM\311\221"
 795      7008D805 
 795      CF6066EF 
 795      AF3F504D 
 795      C991
 796 0f70 B9EE0D37 		.ascii	"\271\356\0157x\016\207;\266\035\340\317n\273\237\257"
 796      780E873B 
 796      B61DE0CF 
 796      6EBB9FAF 
 797 0f80 EFF077E0 		.ascii	"\357\360w\340\261\247\341\271\237\217\323\177\243\211"
 797      B1A7E1B9 
 797      9F8FD37F 
 797      A389
 798 0f8e 15F38033 		.ascii	"\025\363\200387y@m\331\361\330\355\267\034\212\255\276"
 798      38377940 
 798      6DD9F1D8 
 798      EDB71C8A 
 798      ADBE
 799 0fa0 838891E5 		.ascii	"\203\210\221\345Ua&\003\200;]_\241\037\327\300O\010"
 799      55612603 
 799      803B5D5F 
 799      A11FD7C0 
 799      4F08
 800 0fb2 67BA01B4 		.ascii	"g\272\001\264\012\216V/\326\177eq#\016A\233p\250\331"
 800      0A8E562F 
 800      D67F6571 
 800      230E419B 
 800      70A8D9
 801 0fc5 82F37A9C 		.ascii	"\202\363z\234o\307\371\0366\370\330\351\246\316\317"
 801      6FC7F91E 
 801      36F8D8E9 
 801      A6CECF
 802 0fd4 EC936FF6 		.ascii	"\354\223o\366K\264\253w\314\223\357%<Y\026\267z\006"
 802      4BB4AB77 
 802      CC93EF25 
 802      3C5916B7 
 802      7A06
ARM GAS  /tmp/ccfTw1cj.s 			page 64


 803 0fe6 3329323E 		.ascii	"3)2>\253\231\365dY\334\346\006\317\301\223\351\217\220"
 803      AB99F564 
 803      59DCE606 
 803      CFC193E9 
 803      8F90
 804 0ff8 48B7989B 		.ascii	"H\267\230\233%z\004\313"
 804      257A04CB 
 805 1000 7632CA5A 		.ascii	"v2\312Z\306(\265\330(\353\260\011>\306\371^\2347\231"
 805      C628B5D8 
 805      28EBB009 
 805      3EC6F95E 
 805      9C3799
 806 1013 C782E559 		.ascii	"\307\202\345Y\334X`\216\273VC\023\253\037-\276\365("
 806      DC58608E 
 806      BB564313 
 806      AB1F2DBE 
 806      F528
 807 1025 C8E3FED8 		.ascii	"\310\343\376\330\343\327\372\261\307\0038~\256\316\362"
 807      E3D7FAB1 
 807      C703387E 
 807      AECEF2
 808 1034 7CEC7123 		.ascii	"|\354q#\256\322\334~\236tV\237'5'\217\237\023\306\307"
 808      AED2DC7E 
 808      9E74569F 
 808      2735278F 
 808      9F13C6C7 
 809 1048 3F9CBD2A 		.ascii	"?\234\275*1\020\2147z\360t\207\205\217\351w\026\215"
 809      31108C37 
 809      7AF07487 
 809      858FE977 
 809      168D
 810 105a 060F8F5E 		.ascii	"\006\017\217^jm\273f\306v\207\261\355\216\230-\325\314"
 810      6A6DBB66 
 810      C67687B1 
 810      ED8E982D 
 810      D5CC
 811 106c 5BCAAA3D 		.ascii	"[\312\252=\333_\014j\361\317\216\022Gvk\253\223\253"
 811      DB5F0C6A 
 811      F1CF8E12 
 811      47766BAB 
 811      93AB
 812 107e AE3E8177 		.ascii	"\256>\201w+\216cK\275\332\325\243\245\220P'9+\305\257"
 812      2B8E634B 
 812      BDDAD5A3 
 812      A5905027 
 812      392BC5AF 
 813 1092 29D9E46E 		.ascii	")\331\344n\362\361\355\356Y|<\320\313\011\343=\372q"
 813      F2F1EDEE 
 813      597C3CD0 
 813      CB09E33D 
 813      FA71
 814 10a4 A0563FEA 		.ascii	"\240V?\352]\0139\312\035<a\274\034\303\234\374\276\014"
 814      5D0B39CA 
 814      1D3C61BC 
 814      1CC39CFC 
 814      BE0C
 815 10b6 7D9231F4 		.ascii	"}\2221\364)l\350\323fC\257\356\352\302\320VGN\255\333"
ARM GAS  /tmp/ccfTw1cj.s 			page 65


 815      296CE8D3 
 815      6643AFEE 
 815      EAC2D056 
 815      474EADDB 
 816 10ca 9BCDB4F7 		.ascii	"\233\315\264\367:no.\016\004kp\276\037\347-f\006\357"
 816      3A6E6F2E 
 816      0E046B70 
 816      BE1FE72D 
 816      6606EF
 817 10dd 1A8AB35C 		.ascii	"\032\212\263\\g\341G\002\346u\337R\274\341\362\370\032"
 817      67E14702 
 817      E675DF52 
 817      BCE1F2F8 
 817      1A
 818 10ee CBC5AA69 		.ascii	"\313\305\252i\177\337<\035BP_\373\275\036\2679\347\267"
 818      7FDF3C1D 
 818      42505FFB 
 818      BD1EB739 
 818      E7B7
 819 1100 3E6EE337 		.ascii	">n\3437$x\257\235\004\355\232=o\226\2406\216v\035^\330"
 819      2478AF9D 
 819      04ED9A3D 
 819      6F96A036 
 819      8E761D5E 
 820 1115 57811E85 		.ascii	"W\201\036\205:.\267u\317\007Os\230\257n\000\006I\247"
 820      3A2EB775 
 820      CF074F73 
 820      98AF6E00 
 820      0649A7
 821 1128 B5B27811 		.ascii	"\265\262x\021\017'\227\370h\266dC\213~4\367\222\273"
 821      0F2797F8 
 821      68B66443 
 821      8B7E34F7 
 821      92BB
 822 113a 69EDFD46 		.ascii	"i\355\375Fr\230\026\305(I\210c\371/ux\010\275{\036\303"
 822      729816C5 
 822      28498863 
 822      F92F7578 
 822      08BD7B1E 
 823 114f 71B31BF4 		.ascii	"q\263\033\364<\312\316&\327\375Ll\334\355\271\371lS"
 823      3CCACE26 
 823      D7FD4C6C 
 823      DCEDB9F9 
 823      6C53
 824 1161 F3F71434 		.ascii	"\363\367\0244o\271\216g\\Mn\260\222\234\013\326\261"
 824      6FB98E67 
 824      5C4D6EB0 
 824      929C0BD6 
 824      B1
 825 1172 0E7BC6CA 		.ascii	"\016{\306\312n\327\237\210\035d\361\012\3569\327p~\023"
 825      6ED79F88 
 825      1D64F10A 
 825      EE39D770 
 825      7E13
 826 1184 E7B793CF 		.ascii	"\347\267\223\317t8\205^\260a\202\360\357\370\323\271"
 826      7438855E 
 826      B06182F0 
ARM GAS  /tmp/ccfTw1cj.s 			page 66


 826      EFF8D3B9 
 827 1194 B66D5C99 		.ascii	"\266m\\\231\355h\250\222\255\307\337\245\035-\321\201"
 827      ED68A892 
 827      ADC7DFA5 
 827      1D2DD181 
 828 11a4 F88F92F0 		.ascii	"\370\217\222\360y\362\216s\317\264\3056T\026\277\005"
 828      79F28E73 
 828      CFB4C536 
 828      5416BF05 
 829 11b4 5C43F568 		.ascii	"\\C\365h\323k\276\206\316\261\275\340#|P\357\272|0\276"
 829      D36BBE86 
 829      CEB1BDE0 
 829      237C50EF 
 829      BA7C30BE 
 830 11c8 7DF22258 		.ascii	"}\362\"X4B\367z\320\326&\022\321%\341k\2769s\377\300"
 830      3442F77A 
 830      D0D62612 
 830      D125E16B 
 830      BE3973FF 
 831 11dd 3B840149 		.ascii	";\204\001I\370\211p\271\353\"-\225iv\020A f m\306?\335"
 831      F88970B9 
 831      EB222D95 
 831      69761041 
 831      2066206D 
 832 11f4 23BA39EF 		.ascii	"#\2729\357Wk4\241o\364N\014x\215@\223\002\326\021\350"
 832      576B34A1 
 832      6FF44E0C 
 832      788D4093 
 832      02D611E8 
 833 1208 2147EB43 		.ascii	"!G\353C\017\012\030F\375\2110\256\333\"m\376\240D\363"
 833      0F0A1846 
 833      FD8930AE 
 833      DB226DFE 
 833      A044F3
 834 121b C49B9030 		.ascii	"\304\233\2200S\264xs\012qZ\343\334\022\3612\204G\272"
 834      53B47873 
 834      0A715AE3 
 834      DC12F132 
 834      8447BA
 835 122e 1AF1375A 		.ascii	"\032\3617Z\372\250Q\232=CEY\210\272\202\252\273\233"
 835      FAA8519A 
 835      3D434559 
 835      88BA82AA 
 835      BB9B
 836 1240 2C726D9A 		.ascii	",rm\232\205E\346wKj\221\327\002\254\003XY\342F\223+"
 836      8545E677 
 836      4B6A91D7 
 836      02AC0358 
 836      59E24693 
 837 1255 4BB4F7AD 		.ascii	"K\264\367\255J\317\226\230ec\211\356I,1\223\265\304"
 837      4ACF9698 
 837      656389EE 
 837      492C3193 
 837      B5C4
 838 1267 326A894A 		.ascii	"2j\211J+K\334L\327u;\325\205%\356\030\245W\265\267\204"
 838      2B4BDC4C 
 838      D7753BD5 
ARM GAS  /tmp/ccfTw1cj.s 			page 67


 838      8525EE18 
 838      A557B5B7 
 839 127c A42B68B1 		.ascii	"\244+h\261\331\022o\314\264\260\304\372\344\226\230"
 839      D9126FCC 
 839      B4B0C4FA 
 839      E49698
 840 128b 97D4128B 		.ascii	"\227\324\022\213\016\270\262\304m\003\272\027\205~\303"
 840      0EB8B2C4 
 840      6D03BA17 
 840      857EC3
 841 129a B325AA6D 		.ascii	"\263%\252m,\361\223$\226X\310Zb;\265\304\033V\226X\234"
 841      2CF19324 
 841      9658C85A 
 841      623BB5C4 
 841      1B569658 
 842 12af A9EB76BA 		.ascii	"\251\353v\272\013K\324\031\245k\332[\302\247+\250\326"
 842      0B4BD419 
 842      A56BDA5B 
 842      C2A72BA8 
 842      D6
 843 12c0 6C892B55 		.ascii	"l\211+U\026\2268\235\334\022\313\223Z\342Z\263+KL\221"
 843      1696389D 
 843      DC12CB93 
 843      5AE25AB3 
 843      2B4B4C91 
 844 12d4 74E84728 		.ascii	"t\350G(\364*\317\226x\313\306\022\331I,\261\222\265"
 844      F42ACF96 
 844      78CBC612 
 844      D9492CB1 
 844      92B5
 845 12e6 C4396A89 		.ascii	"\3049j\211U&K\260\272v\320\375\355n\272\356\227\264"
 845      55264BB0 
 845      BA76D0FD 
 845      ED6EBAEE 
 845      97B4
 846 12f8 D73DF9A7 		.ascii	"\327=\371\2471}|\343\206\304i\211\301\244\035\2775\001"
 846      317D7CE3 
 846      86C46989 
 846      C1A41DBF 
 846      3501
 847 130a EB83DDE4 		.ascii	"\353\203\335\344\211\201]\255wlk\355t\230\317\274k["
 847      89815DAD 
 847      776C6BED 
 847      7498CFBC 
 847      6B5B
 848 131c EB6B0786 		.ascii	"\353k\007\2065\266\265\216:\264\265\326\266\326A\207"
 848      35B6B58E 
 848      3AB4B5D6 
 848      B6D64187 
 849 132c 5AEF256A 		.ascii	"Z\357%j\331\370\322\000\275J\012\255R\353\331\225\326"
 849      D9F8D200 
 849      BD4A0AAD 
 849      52EBD995 
 849      D6
 850 133d D9B852D0 		.ascii	"\331\270R\320\232o\275\003\337:[)\3279\324z?Q\213\236"
 850      9A6FBD03 
 850      DF3A5B29 
ARM GAS  /tmp/ccfTw1cj.s 			page 68


 850      D739D47A 
 850      3F518B9E 
 851 1351 58BCB5ED 		.ascii	"X\274\265\355\312\357\3363\016\271Nx\232\333\011D\017"
 851      CAEFDE33 
 851      0EB94E78 
 851      9ADB0944 
 851      0F
 852 1362 2AECC03E 		.ascii	"*\354\300>\014X\034M\356ny\004\256B\253{[K\323O\366"
 852      0C581C4D 
 852      EE6E7904 
 852      AE42AB7B 
 852      5B4BD34F 
 853 1377 C8E20701 		.ascii	"\310\342\007\001\307\003\324\353\003V\247\000?\303\233"
 853      C703D4EB 
 853      0356A700 
 853      3FC39B
 854 1386 47E849F0 		.ascii	"G\350I\360v\355\221T\017\207\2366Y\020\255v&\272N$\275"
 854      76ED9154 
 854      0F879E36 
 854      5910AD76 
 854      26BA4E24 
 855 139b 70A333D1 		.ascii	"p\2433\321\315f\242\234%N9Xb\253\255\375\216;\324\252"
 855      CD66A29C 
 855      254E3958 
 855      62ABADFD 
 855      8E3BD4AA 
 856 13af B7ADF595 		.ascii	"\267\255\365\225C\255m\355\254~\345\235/\006'\2166O"
 856      43AD6DED 
 856      AC7EE59D 
 856      2F06278E 
 856      364F
 857 13c1 10C99165 		.ascii	"\020\311\221eIX\303i\205\036\232?\251<ON\307\312\342"
 857      4958C369 
 857      851E9A3F 
 857      A93C4F4E 
 857      C7CAE2
 858 13d4 221F5A62 		.ascii	"\"\037Zbm\267Q\213\343\031ZT\211y\311b\334Q{\263\034"
 858      6DB7518B 
 858      E3195A54 
 858      8979C962 
 858      DC517BB3 
 859 13e9 24FA8897 		.ascii	"$\372\210\227(~o\0179\012\276$\236\345~3{w\200\333\314"
 859      287E6F0F 
 859      390ABE24 
 859      9EE57E33 
 859      7B7780DB 
 860 13fe 46EC931C 		.ascii	"F\354\223\034b\334h\255\242k\274\212v9\253\210V\233"
 860      62DC68AD 
 860      A26BBC8A 
 860      7639AB88 
 860      569B
 861 1410 D790DE47 		.ascii	"\327\220\336G?\241\3711Ff\352q\377\207B\371X\251v\027"
 861      3FA1F931 
 861      4666EA71 
 861      FF8742F9 
 861      58A97617 
 862 1424 AFDA46CB 		.ascii	"\257\332F\313\036\364\340\200\241$\"\274$\034\260\026"
ARM GAS  /tmp/ccfTw1cj.s 			page 69


 862      1EF4E080 
 862      A12422BC 
 862      241CB016 
 863 1434 A7851767 		.ascii	"\247\205\027g\237+q\356\377OO\302S\026\233\002\\5\367"
 863      9F2B71EE 
 863      FF4F4FC2 
 863      53169B02 
 863      5C35F7
 864 1447 D2ECE3A5 		.ascii	"\322\354\343\245\331o)\315\366\275s\023\361\300\313"
 864      D96F29CD 
 864      F6BD7313 
 864      F1C0CB
 865 1456 918B4356 		.ascii	"\221\213CVf\347\314|\302\245^\232]\366\204\023\246\037"
 865      66E7CC7C 
 865      C2A55E9A 
 865      5DF68413 
 865      A61F
 866 1468 90D8D5A2 		.ascii	"\220\330\325\242\004\2178v\214K\016\035\343\230m\200"
 866      048F3876 
 866      8C4B0E1D 
 866      E3986D80 
 867 1478 B8EE50AB 		.ascii	"\270\356P\253%Q\013\017f\343\035w\010eq\007\376\275"
 867      25510B0F 
 867      66E31D77 
 867      08657107 
 867      FEBD
 868 148a 5DF2ED3E 		.ascii	"]\362\355>\253-\033\343\337\034\377$\030\233\215\213"
 868      AB2D1BE3 
 868      DF1CFF24 
 868      189B8D8B 
 869 149a B61F2F21 		.ascii	"\266\037/!{\215'\002h\212X\363\203\344O4M8\210\324\251"
 869      7B8D2702 
 869      688A58F3 
 869      83E44F34 
 869      4D3888D4 
 870 14af 00B73D7A 		.ascii	"\000\267=z\3778\376\305\003\272\237|\003\273\355\270"
 870      FF38FEC5 
 870      03BA9F7C 
 870      03BBEDB8 
 871 14bf FE64E278 		.ascii	"\376d\342x\000--6a\012\250\256\225\012\214\001\\\020"
 871      002D2D36 
 871      610AA8AE 
 871      950A8C01 
 871      5C10
 872 14d1 AC364A00 		.ascii	"\2546J\000\257\362\004~2A\300\352=\203e\233\300\252"
 872      AFF2047E 
 872      3241C0EA 
 872      3D83659B 
 872      C0AA
 873 14e3 58B01D6E 		.ascii	"X\260\035n\300\354\266p\000l\016\013\326\340\031\314"
 873      C0ECB670 
 873      006C0E0B 
 873      D6E019CC 
 874 14f3 CC6C2E0B 		.ascii	"\314l.\013\326\344\006\314\356\310\000\200\315g\301"
 874      D6E406CC 
 874      EEC80080 
 874      CD67C1
ARM GAS  /tmp/ccfTw1cj.s 			page 70


 875 1502 F67B0633 		.ascii	"\366{\00633[\310\2025\273\001\263\373\033'\000\253f"
 875      335BC882 
 875      35BB01B3 
 875      FB1B2700 
 875      AB66
 876 1514 C18E7906 		.ascii	"\301\216y\00633[\314\202\235r\003\226m\317\254\226\005"
 876      33335BCC 
 876      829D7203 
 876      966DCFAC 
 876      9605
 877 1526 FB9B6730 		.ascii	"\373\233g03\263:\026\354k7`v\377\374\000`\037\260`\337"
 877      33B33A16 
 877      EC6B3760 
 877      76FFFC00 
 877      601FB060 
 878 153b 7A063333 		.ascii	"z\00633[\317\202]r\003f\3677\022\023\306\3057\376w\245"
 878      5BCF825D 
 878      720366F7 
 878      371213C6 
 878      C537FE77 
 879 1550 CCEEF321 		.ascii	"\314\356\363!T=\254pkQ\266X\\\264-&\213\367</\006\356"
 879      543DAC70 
 879      6B51B658 
 879      5CB42D26 
 879      8BF73C2F 
 880 1566 DB2C0612 		.ascii	"\333,\006\022\243\020[\012\304\276\306\213m\371t\321"
 880      A3105B0A 
 880      C4BEC68B 
 880      6DF974D1 
 881 1576 EE1F2F40 		.ascii	"\356\037/@\211\233Y%\336r\243\304A\366`[Y\260{n\300"
 881      899B5925 
 881      DE72A3C4 
 881      41F6605B 
 881      59B07B6E 
 882 158b ECFE6511 		.ascii	"\354\376e\021\300\266\261`\332C^\301\314\314\016\262"
 882      C0B6B160 
 882      DA435EC1 
 882      CCCC0EB2 
 883 159b 6013DD80 		.ascii	"`\023\335\200\331\375\313\"\2005\263`S<\203\261\314"
 883      D9FDCB22 
 883      8035B360 
 883      533C83B1 
 883      CC
 884 15ac C6C50F27 		.ascii	"\306\305\017'\034\017\375\351\271\311\363\006\231\243"
 884      1C0FFDE9 
 884      B9C9F306 
 884      99A3
 885 15ba ADA918E3 		.ascii	"\255\251\030\343y\\1X\342\007\365\035\205\213\222i\037"
 885      795C3158 
 885      E207F51D 
 885      858B9269 
 885      1F
 886 15cb DAF82809 		.ascii	"\332\370(\0113x\336&\024zi\365\207\216V/v\244\225\305"
 886      3378DE26 
 886      147A69F5 
 886      878E562F 
 886      76A495C5 
ARM GAS  /tmp/ccfTw1cj.s 			page 71


 887 15df D3013415 		.ascii	"\323\0014\025h\015\240-\37338\377\022\347_\341\374\034"
 887      680DA02D 
 887      FB3338FF 
 887      12E75FE1 
 887      FC1C
 888 15f1 CEBFC1F9 		.ascii	"\316\277\301\371\337q~\021\347\227q~\025\347\327q~\023"
 888      DF717E11 
 888      E797717E 
 888      15E7D771 
 888      7E13
 889 1603 E7B7717E 		.ascii	"\347\267q~\007\347m8\037\027D\371x\234O\304\371d\234"
 889      07E76D38 
 889      1F1744F9 
 889      789C4FC4 
 889      F9649C
 890 1616 BF1A641E 		.ascii	"\277\032d\036\017pS\235\0236\006\302G2\203v\023\244"
 890      0F70539D 
 890      133606C2 
 890      47328376 
 890      13A4
 891 1628 5B0E13A4 		.ascii	"[\016\023\244\031A~\005\265e\332\341\317\304\252\361"
 891      19417E05 
 891      B565DAE1 
 891      CFC4AAF1 
 892 1638 5AA37619 		.ascii	"Z\243v\031\246:K\247\370=\234M\256\014r\363\317I\376"
 892      A63A4BA7 
 892      F83D9C4D 
 892      AE0C72F3 
 892      CF49FE
 893 164b 76F3CFD9 		.ascii	"v\363\317\331\017\331\317?'\341\307/\313p\211\231A\273"
 893      0FD9CF3F 
 893      27E1C72F 
 893      CB708999 
 893      41BB
 894 165d F9273D5E 		.ascii	"\371'=^K\227\265'>\037\332S\237t\233j\231\246\345\224"
 894      4B97B527 
 894      3E1FDA53 
 894      9F749B6A 
 894      99A6E594 
 895 1671 6055D0EA 		.ascii	"`U\320\352\307\215o|{\265\327&\323\242\361:^4\236\347"
 895      C78D6F7C 
 895      7BB5D726 
 895      D3A2F13A 
 895      5E349EE7 
 896 1685 A8724B69 		.ascii	"\250rKir\270Z\026\347\3320\245m\316\013:\315yW8\030"
 896      72B85A16 
 896      E7DA30A5 
 896      6DCE0B3A 
 896      CD795738 
 897 169a 6781AD49 		.ascii	"g\201\255I\357;\324Zh[k\215C\2557\022\265\204~9\205"
 897      EF3BD45A 
 897      685B6B8D 
 897      43AD3712 
 897      B5847E39 
 898 16af A5C54A4E 		.ascii	"\245\305JN\270\264`LN\2012*'\\\030\031\036)\215\345"
 898      B8B4604C 
 898      4E81322A 
ARM GAS  /tmp/ccfTw1cj.s 			page 72


 898      275C1819 
 898      1E298DE5 
 899 16c3 A8D1F292 		.ascii	"\250\321\362\222\227s\340\"\252\346DJ\302E\345\005P"
 899      9773E022 
 899      AAE6444A 
 899      C245E505 
 899      50
 900 16d4 A830A614 		.ascii	"\2500\246\024\367.\024\322\341M.+,\215*!5\370\334\357"
 900      F72E14D2 
 900      E14D2E2B 
 900      2C8D2A21 
 900      35F8DCEF 
 901 16e8 FF989D27 		.ascii	"\377\230\235'\244\031\267\006x\003\034\023S\307\224"
 901      A419B706 
 901      78031C13 
 901      53C794
 902 16f7 293140CD 		.ascii	")1@\315T\013\243\212\\\020\013\375\245\\)\007\344\254"
 902      540BA38A 
 902      5C100BFD 
 902      A55C2907 
 902      E4AC
 903 1709 7061C874 		.ascii	"pa\310t\253\2777\344pa\001\240\246\022\210\220\232f"
 903      ABBF37E4 
 903      706101A0 
 903      A6128890 
 903      9A66
 904 171b C005CB42 		.ascii	"\300\005\313B%\312+*\274\225E\225Q\317\273@-+\215\252"
 904      25CA2B2A 
 904      BC954595 
 904      51CFBB40 
 904      2D2B8DAA 
 905 172f B19CA7F3 		.ascii	"\261\234\247\363\207\344\015y\005J\026\227E\212\224"
 905      87E40D79 
 905      054A1697 
 905      458A94
 906 173e 682CE7B9 		.ascii	"h,\347\271\274<(\256\363OQ\313\242\221\322\220\372\263"
 906      BC3C28AE 
 906      F34F51CB 
 906      A291D290 
 906      FAB3
 907 1750 9CF25834 		.ascii	"\234\362X4G\216\026\377\252\244\264D\371\225\"\017\217"
 907      478E16FF 
 907      AAA4B444 
 907      F995220F 
 907      8F
 908 1761 18B4626A 		.ascii	"\030\264bjA\244DE\264\312\341\275_nH\355\357P\272X\006"
 908      41A44445 
 908      B4CAE1BD 
 908      5F6E48ED 
 908      EF50BA58 
 909 1776 32254A4E 		.ascii	"2%JN\250@\031!\227\027\251!\275\251N\241\220^\037K\021"
 909      A8401921 
 909      9717A921 
 909      BDA94EA1 
 909      905E1F4B 
 910 178b 294D0997 		.ascii	")M\011\227\226\250 \324\223\236\245)\014\203\321\220"
 910      96A820D4 
ARM GAS  /tmp/ccfTw1cj.s 			page 73


 910      939EA529 
 910      0C83D190 
 911 179b 51D1ED10 		.ascii	"Q\321\355\020\240\206\325W\376\243c(\241QO \367H\215"
 911      A086D557 
 911      FEA36328 
 911      A1514F20 
 911      F7488D
 912 17ae 2A2341A0 		.ascii	"*#A\240\220\352\213\365\375\015\244' \015\200\364\244"
 912      90EA8BF5 
 912      FD0DA427 
 912      200D80F4 
 912      A4
 913 17bf 2F96DB07 		.ascii	"/\226\333\007R_H\271\220\372A\352\017\351\327\220\240"
 913      525F48B9 
 913      90FA41EA 
 913      0FE9D790 
 913      A0
 914 17d0 5C2E94CB 		.ascii	"\\.\224\313\205r\271P\256\037\224\353\327W\212\366\227"
 914      8572B950 
 914      AE1F94EB 
 914      D7578AF6 
 914      97
 915 17e1 A2BF96A2 		.ascii	"\242\277\226\242\277\221\242OH\321\001R\364I_\264o\037"
 915      BF91A24F 
 915      48D10152 
 915      F4495FB4 
 915      6F1F
 916 17f3 487DA5A2 		.ascii	"H}\245\242(\274\365\013\224\205\200m\012\262\347h%\012"
 916      28BCF50B 
 916      9485806D 
 916      0AB2E768 
 916      250A
 917 1805 EFA54505 		.ascii	"\357\245E\005J\324\037.\224\243\310\310r\261\222\252"
 917      4AD41F2E 
 917      94A3C8C8 
 917      72B192AA 
 918 1815 C6545905 		.ascii	"\306TY\005oJA\012\033\000n@T\007WP\034\177\227\242\026"
 918      6F4A410A 
 918      1B006E40 
 918      54075750 
 918      1C7F97A2 
 919 182a 971628F8 		.ascii	"\227\026(\370\363\210\"yd,E\215*#bX\263\350\"P\034\033"
 919      F3882279 
 919      642C458D 
 919      2A236258 
 919      B3E82250 
 920 1840 095F5275 		.ascii	"\011_RuCu]\361\321\2021\360U\252\362JD\005E)\301\321"
 920      43755DF1 
 920      D18231F0 
 920      55AAF24A 
 920      44054529 
 921 1856 6AE9F03F 		.ascii	"j\351\360?\227\245+\243\224\022\265X\216\275\014E\224"
 921      97A52BA3 
 921      9412B558 
 921      8EBD0C45 
 921      94
 922 1867 D1E8C257 		.ascii	"\321\350\302W\026*\357\242{rQ$\006v\314d|\033\335I+"
ARM GAS  /tmp/ccfTw1cj.s 			page 74


 922      162AEFA2 
 922      7B725124 
 922      0676CC64 
 922      7C1BDD49 
 923 187c 0B8D9623 		.ascii	"\013\215\226#j\244dd\247\262\020\240b\177\017\340K\270"
 923      6AA46464 
 923      A7B210A0 
 923      627F0FE0 
 923      4BB8
 924 188e A1942925 		.ascii	"\241\224)%\3407#\003\305\345`co=\266X}\005\371f1\351"
 924      E0372303 
 924      C5E56063 
 924      6F3DB658 
 924      7D05F966 
 925 18a4 42F05E3A 		.ascii	"B\360^:\272\004T\205\221\200a1\356\012\320<\224CD:!"
 925      BA045485 
 925      91806131 
 925      EE0AD03C 
 925      9443443A 
 926 18b9 A1E522EC 		.ascii	"\241\345\"\354Rp\263\254\264\264(\205v\277@\270\004"
 926      5270B3AC 
 926      B4B42885 
 926      76BF40B8 
 926      04
 927 18ca 98076221 		.ascii	"\230\007b!x\317q\344\240*1\025\261@\357(b\204\241o`"
 927      78CF71E4 
 927      A02A3115 
 927      B140EF28 
 927      6284A16F 
 928 18df 61FB8A65 		.ascii	"a\373\212e\364\252?}\317\245\357\3752\240`\337\220\362"
 928      F4AA3F7D 
 928      CFA5EFFD 
 928      32A060DF 
 928      90F2
 929 18f1 8A120666 		.ascii	"\212\022\006f\235\360\207\230\242\226\227\241\313\334"
 929      9DF08798 
 929      A29697A1 
 929      CBDC
 930 18ff C4653F72 		.ascii	"\304e?r\351-\024\014'a\253\333\360H\211\034\035\023"
 930      E92D140C 
 930      2761ABDB 
 930      F048891C 
 930      1D13
 931 1911 62A3D7F0 		.ascii	"b\243\327\360\030\372\230\021.|f\230R<,2\262D.\362\015"
 931      18FA9811 
 931      2E7C6698 
 931      523C2C32 
 931      B2442EF2 
 932 1926 8F952136 		.ascii	"\217\225!6\375u6\3351\005\372\241w\231\034U{\347f\260"
 932      FD7536DD 
 932      3105FAA1 
 932      77991C55 
 932      7BE766B0 
 933 193a F7BA6362 		.ascii	"\367\272cb\246\002X\036\343\336\343\256\325\0054\003"
 933      A602581E 
 933      E3DEE3AE 
 933      D5053403 
ARM GAS  /tmp/ccfTw1cj.s 			page 75


 934 194a A16740EB 		.ascii	"\241g@\353\031!\3641$\307bJT\355\212\257\221\207\350"
 934      1921F431 
 934      24C7624A 
 934      54ED8AAF 
 934      9187E8
 935 195d 5E03C171 		.ascii	"^\003\301qX\2700_\201(\247\024\224\027)\303\320\015"
 935      58B8305F 
 935      8128A714 
 935      941729C3 
 935      D00D
 936 196f A5F8E982 		.ascii	"\245\370\351\202\202\274\322r\210\004\321\301OxR\021"
 936      82BCD272 
 936      8804D1C1 
 936      4F785211 
 937 197f 8585E673 		.ascii	"\205\205\346sq@*\212\014\317\031\031\016s\201\251\177"
 937      71402A8A 
 937      0CCF1919 
 937      0E7381A9 
 937      7F
 938 1990 EF01BDFB 		.ascii	"\357\001\275\373\263\301\014\002\023T\011\306\"\377"
 938      B3C10C02 
 938      135409C6 
 938      22FF
 939 199e 8B3A903A 		.ascii	"\213:\220:\242\274$\034R\273\206\013_,,\310\003@U\031"
 939      A2BC241C 
 939      52BB860B 
 939      5F2C2CC8 
 939      03405519 
 940 19b2 063D2C12 		.ascii	"\006=,\022~\210\025\006\024\016\376T\022V\3221e\242"
 940      7E881506 
 940      140EFE54 
 940      1256D231 
 940      65A2
 941 19c4 F44C5C40 		.ascii	"\364L\\@)F\022\226\276\254\224\244\341\357\376\013$"
 941      29461296 
 941      BEAC94A4 
 941      E1EFFE0B 
 941      24
 942 19d5 CEC4577F 		.ascii	"\316\304W\177\030\376g%\254\016.\211\250\031L\255\301"
 942      18FE6725 
 942      AC0E2E89 
 942      A8194CAD 
 942      C1
 943 19e6 6968FC88 		.ascii	"ih\374\210\024C\343\235p\243\303\212\024\245\254\023"
 943      1443E39D 
 943      70A3C38A 
 943      14A5AC13 
 944 19f6 2E01BA51 		.ascii	".\001\272Q\324,\003\346E(UZ\256va4\031\011\277\334\323"
 944      D42C03E6 
 944      4528555A 
 944      AE766134 
 944      1909BFDC 
 945 1a0b 440C238D 		.ascii	"D\014#\215\216\224\024\224\216\316dZA\325\375\310#\245"
 945      8E941494 
 945      8ECE645A 
 945      41D5FDC8 
 945      23A5
ARM GAS  /tmp/ccfTw1cj.s 			page 76


 946 1a1d D132700E 		.ascii	"\3212p\016\2416\225b2\242\220\353\014\244\2741\264o"
 946      A1369562 
 946      32A290EB 
 946      0CA4BC31 
 946      B46F
 947 1a2f 7786DB89 		.ascii	"w\206\333\211\317)Q\322{\202Q\034\247\003Q\034\261\242"
 947      CF2951D2 
 947      7B82511C 
 947      A703511C 
 947      B1A2
 948 1a41 34624549 		.ascii	"4bEI\304J\203\273\345\321(\004\216@\024UzhT$\252\226"
 948      C44A83BB 
 948      E5D12804 
 948      8E401455 
 948      7A685424 
 949 1a57 CB459851 		.ascii	"\313E\230QT\017\032=\000\330\342\213L\323=2n\232n\245"
 949      540F1A3D 
 949      00D8E28B 
 949      4CD33D32 
 949      6E9A6EA5 
 950 1a6b 8C52712F 		.ascii	"\214Rq/G\357h\304K\205\367\002\245H\225\341\202X\014"
 950      47EF68C4 
 950      4B85F702 
 950      A54895E1 
 950      82580C
 951 1a7e 7D83AE82 		.ascii	"}\203\256\202\250\204\034M\207\267\"9\246\242\332p\013"
 951      A8841C4D 
 951      87B72239 
 951      A6A2DA70 
 951      0B
 952 1a8f 35D2850A 		.ascii	"5\322\205\012]\240\014/\037I\342\027{'\255L.\211\204"
 952      5DA00C2F 
 952      1F49E217 
 952      7B27AD4C 
 952      2E8984
 953 1aa2 51B8F215 		.ascii	"Q\270\362\025\014\037\231\353\315\365P\337\314R\213"
 953      0C1F99EB 
 953      CDF550DF 
 953      CC528B
 954 1ab1 436119BC 		.ascii	"Ca\031\274.\012\376RZ\002\224\242*\2167\301\322\021"
 954      2E0AFE52 
 954      5A0294A2 
 954      2A8E37C1 
 954      D211
 955 1ac3 23C09092 		.ascii	"#\300\220\222Z,\205\013i\260\210\245\"\253\205\345\230"
 955      5A2C850B 
 955      69B088A5 
 955      22AB85E5 
 955      98
 956 1ad4 E247313E 		.ascii	"\342G1>\200C\002\334\223\243`\271\222\024=\210\224\311"
 956      804302DC 
 956      93A360B9 
 956      92143D88 
 956      94C9
 957 1ae6 2A748412 		.ascii	"*t\204\022\260\\*\215D}\263zGK\013dU\356\255\337\350"
 957      B05C2A8D 
 957      447DB37A 
ARM GAS  /tmp/ccfTw1cj.s 			page 77


 957      474B0B64 
 957      55EEADDF 
 958 1afb 314C0F06 		.ascii	"1L\017\006\261\307\263\225\022d*\010\264\202^!\367\007"
 958      B1C7B395 
 958      12642A08 
 958      B4825E21 
 958      F707
 959 1b0d ECF72AF1 		.ascii	"\354\367*\361!\343\333~\275\330oe\265\2648\022\316\216"
 959      21E3DB7E 
 959      BDD86F65 
 959      B5B43812 
 959      CE8E
 960 1b1f 619FF915 		.ascii	"a\237\371\025r1\243`\377G\236\301\241'\233-\217\024"
 960      7231A360 
 960      FF479EC1 
 960      A1279B2D 
 960      8F14
 961 1b31 8E6405A9 		.ascii	"\216d\005\251\3251\002\3514\317)\352P\360\222(\334y"
 961      D53102E9 
 961      34CF29EA 
 961      50F09228 
 961      DC79
 962 1b43 A9B37E67 		.ascii	"\251\263~g\230R4\002}J\204\250\301Y\344S\242W\004T\031"
 962      98523402 
 962      7D4A84A8 
 962      C159E453 
 962      A2570454 
 963 1b58 7A4D3AB9 		.ascii	"zM:\271\215]\277\023\271F\316\373\237\311\354Q(\027"
 963      8D5DBF13 
 963      B946CEFB 
 963      9FC9EC51 
 963      2817
 964 1b6a D1F17CD8 		.ascii	"\321\361|\330\213C\372\345\346\274\360\302\2639/\016"
 964      8B43FAE5 
 964      E6BCF0C2 
 964      B3392F0E 
 965 1b7a 1E32AA2F 		.ascii	"\0362\252/\364\361b4\330E\310\264O\377\000C{^~_H\271"
 965      F4F16234 
 965      D845C8B4 
 965      4FFF0043 
 965      7B5E7E5F 
 966 1b90 FE6143F2 		.ascii	"\376aC\362\362\375\317\016\376m\2764,\337\367\333\347"
 966      F2FDCF0E 
 966      FE6DBE34 
 966      2CDFF7DB 
 966      E7
 967 1ba1 F2037979 		.ascii	"\362\003yyC\362\373\342<\327\237\227\367\333|_\336\357"
 967      43F2FBE2 
 967      3CD79F97 
 967      F7DB7C5F 
 967      DEEF
 968 1bb3 5FF40D1D 		.ascii	"_\364\015\035\226\347{:?\337\227\237\007\237\241\302"
 968      96E77B3A 
 968      3FDF979F 
 968      079FA1C2 
 969 1bc3 33CFBE98 		.ascii	"3\317\276\230\357{\026\325\034\362t\276\364\007R\253"
 969      EF7B16D5 
ARM GAS  /tmp/ccfTw1cj.s 			page 78


 969      1CF274BE 
 969      F40752AB 
 970 1bd3 1F947F29 		.ascii	"\037\224\177)\2773\231\376E@me\352\030\237\372\227\262"
 970      BF3399FE 
 970      45406D65 
 970      EA189FFA 
 970      97B2
 971 1be5 BC7F847E 		.ascii	"\274\177\204~\250\250\010M\003\273\221\253\320HE\015"
 971      A8A8084D 
 971      03BB91AB 
 971      D048450D 
 972 1bf5 854984FC 		.ascii	"\205I\204\374?#r\324\337"
 972      3F2372D4 
 972      DF
 973              		.text
 974              		.section	.gnu.lto_.symtab.242cfd61d017484d,"",%progbits
 975 0000 70617474 		.ascii	"patternsem\000\000\000\000\000\000\000\000\000\000\000"
 975      65726E73 
 975      656D0000 
 975      00000000 
 975      00000000 
 976 0015 006A0200 		.ascii	"\000j\002\000\000testsem1\000\000\000\000\000\000\000"
 976      00746573 
 976      7473656D 
 976      31000000 
 976      00000000 
 977 0029 00000000 		.ascii	"\000\000\000\000\000\177\002\000\000testsem2\000\000"
 977      007F0200 
 977      00746573 
 977      7473656D 
 977      320000
 978 003c 00000000 		.ascii	"\000\000\000\000\000\000\000\000\000\000\213\002\000"
 978      00000000 
 978      00008B02 
 978      00
 979 0049 00746573 		.ascii	"\000testsem3\000\000\000\000\000\000\000\000\000\000"
 979      7473656D 
 979      33000000 
 979      00000000 
 979      000000
 980 005c 00009602 		.ascii	"\000\000\226\002\000\000testsem4\000\000\000\000\000"
 980      00007465 
 980      73747365 
 980      6D340000 
 980      000000
 981 006f 00000000 		.ascii	"\000\000\000\000\000\000\000\241\002\000\000wa\000\000"
 981      000000A1 
 981      02000077 
 981      610000
 982 007e 02000000 		.ascii	"\002\000\000\000\000\000\000\000\000\000\012\002\000"
 982      00000000 
 982      00000A02 
 982      00
 983 008b 00636800 		.ascii	"\000ch\000\000\002\000\000\000\000\000\000\000\000\000"
 983      00020000 
 983      00000000 
 983      000000
ARM GAS  /tmp/ccfTw1cj.s 			page 79


 984 009a 0F020000 		.ascii	"\017\002\000\000threads\000\000\002\000\000\000\000"
 984      74687265 
 984      61647300 
 984      00020000 
 984      0000
 985 00ac 00000000 		.ascii	"\000\000\000\000\000f\002\000\000_test_assert\000\000"
 985      00660200 
 985      005F7465 
 985      73745F61 
 985      73736572 
 986 00c3 02000000 		.ascii	"\002\000\000\000\000\000\000\000\000\000\260\001\000"
 986      00000000 
 986      0000B001 
 986      00
 987 00d0 00746573 		.ascii	"\000test_wait_threads\000\000\002\000\000\000\000\000"
 987      745F7761 
 987      69745F74 
 987      68726561 
 987      64730000 
 988 00ea 00000000 		.ascii	"\000\000\000\000\270\001\000\000chSchRescheduleS\000"
 988      B8010000 
 988      63685363 
 988      68526573 
 988      63686564 
 989 0103 00020000 		.ascii	"\000\002\000\000\000\000\000\000\000\000\000\272\001"
 989      00000000 
 989      000000BA 
 989      01
 990 0110 00006368 		.ascii	"\000\000chSemAddCounterI\000\000\002\000\000\000\000"
 990      53656D41 
 990      6464436F 
 990      756E7465 
 990      72490000 
 991 0129 00000000 		.ascii	"\000\000\000\000\000\274\001\000\000chThdCreateStat"
 991      00BC0100 
 991      00636854 
 991      68644372 
 991      65617465 
 992 0141 69630000 		.ascii	"ic\000\000\002\000\000\000\000\000\000\000\000\000\301"
 992      02000000 
 992      00000000 
 992      0000C1
 993 0150 0100005F 		.ascii	"\001\000\000_test_assert_sequence\000\000\002\000\000"
 993      74657374 
 993      5F617373 
 993      6572745F 
 993      73657175 
 994 016d 00000000 		.ascii	"\000\000\000\000\000\000\000\317\001\000\000chSemSi"
 994      000000CF 
 994      01000063 
 994      6853656D 
 994      5369
 995 017f 676E616C 		.ascii	"gnal\000\000\002\000\000\000\000\000\000\000\000\000"
 995      00000200 
 995      00000000 
 995      00000000 
 996 018f D5010000 		.ascii	"\325\001\000\000test_emit_token\000\000\002\000\000"
ARM GAS  /tmp/ccfTw1cj.s 			page 80


 996      74657374 
 996      5F656D69 
 996      745F746F 
 996      6B656E00 
 997 01a7 00000000 		.ascii	"\000\000\000\000\000\000\000\331\001\000\000chSemWa"
 997      000000D9 
 997      01000063 
 997      6853656D 
 997      5761
 998 01b9 69740000 		.ascii	"it\000\000\002\000\000\000\000\000\000\000\000\000\335"
 998      02000000 
 998      00000000 
 998      0000DD
 999 01c8 01000063 		.ascii	"\001\000\000chSemObjectInit\000\000\002\000\000\000"
 999      6853656D 
 999      4F626A65 
 999      6374496E 
 999      69740000 
 1000 01e0 00000000 		.ascii	"\000\000\000\000\000\000\341\001\000\000chSemSignal"
 1000      0000E101 
 1000      00006368 
 1000      53656D53 
 1000      69676E61 
 1001 01f5 49000002 		.ascii	"I\000\000\002\000\000\000\000\000\000\000\000\000\343"
 1001      00000000 
 1001      00000000 
 1001      00E3
 1002 0203 01000063 		.ascii	"\001\000\000chThdSleep\000\000\002\000\000\000\000\000"
 1002      68546864 
 1002      536C6565 
 1002      70000002 
 1002      00000000 
 1003 0218 00000000 		.ascii	"\000\000\000\000\345\001\000\000chSemReset\000\000\002"
 1003      E5010000 
 1003      63685365 
 1003      6D526573 
 1003      65740000 
 1004 022d 00000000 		.ascii	"\000\000\000\000\000\000\000\000\000\354\001\000\000"
 1004      00000000 
 1004      00EC0100 
 1004      00
 1005 023a 63685365 		.ascii	"chSemWaitTimeout\000\000\002\000\000\000\000\000\000"
 1005      6D576169 
 1005      7454696D 
 1005      656F7574 
 1005      00000200 
 1006 0253 000000EE 		.ascii	"\000\000\000\356\001\000\000test_wait_tick\000\000\002"
 1006      01000074 
 1006      6573745F 
 1006      77616974 
 1006      5F746963 
 1007 026b 00000000 		.ascii	"\000\000\000\000\000\000\000\000\000\363\001\000\000"
 1007      00000000 
 1007      00F30100 
 1007      00
 1008 0278 5F746573 		.ascii	"_test_assert_time_window\000\000\002\000\000\000\000"
 1008      745F6173 
ARM GAS  /tmp/ccfTw1cj.s 			page 81


 1008      73657274 
 1008      5F74696D 
 1008      655F7769 
 1009 0297 00000000 		.ascii	"\000\000\000\000\000\366\001\000\000chSemSignalWait"
 1009      00F60100 
 1009      00636853 
 1009      656D5369 
 1009      676E616C 
 1010 02af 00000200 		.ascii	"\000\000\002\000\000\000\000\000\000\000\000\000\374"
 1010      00000000 
 1010      00000000 
 1010      FC
 1011 02bc 010000   		.ascii	"\001\000\000"
 1012              		.text
 1013              		.section	.gnu.lto_.opts,"",%progbits
 1014 0000 272D6D63 		.ascii	"'-mcpu=cortex-m4' '-mfloat-abi=hard' '-mfpu=fpv4-sp"
 1014      70753D63 
 1014      6F727465 
 1014      782D6D34 
 1014      2720272D 
 1015 0033 2D643136 		.ascii	"-d16' '-mno-thumb-interwork' '-mthumb' '-O2' '-fomi"
 1015      2720272D 
 1015      6D6E6F2D 
 1015      7468756D 
 1015      622D696E 
 1016 0066 742D6672 		.ascii	"t-frame-pointer' '-falign-functions=16' '-ffunction"
 1016      616D652D 
 1016      706F696E 
 1016      74657227 
 1016      20272D66 
 1017 0099 2D736563 		.ascii	"-sections' '-fdata-sections' '-fno-common' '-flto' "
 1017      74696F6E 
 1017      73272027 
 1017      2D666461 
 1017      74612D73 
 1018 00cc 272D6673 		.ascii	"'-fsingle-precision-constant'\000"
 1018      696E676C 
 1018      652D7072 
 1018      65636973 
 1018      696F6E2D 
 1019              		.text
 1020              		.section	.text.sem1_execute,"ax",%progbits
 1021              		.align	2
 1022              		.p2align 4,,15
 1023              		.thumb
 1024              		.thumb_func
 1025              		.type	sem1_execute, %function
 1026              	sem1_execute:
 1027              		@ args = 0, pretend = 0, frame = 0
 1028              		@ frame_needed = 0, uses_anonymous_args = 0
 1029 0000 2DE9F043 		push	{r4, r5, r6, r7, r8, r9, lr}
 1030 0004 474E     		ldr	r6, .L7
 1031 0006 484F     		ldr	r7, .L7+4
 1032 0008 B369     		ldr	r3, [r6, #24]
 1033 000a D7F80080 		ldr	r8, [r7]
 1034 000e 9A68     		ldr	r2, [r3, #8]
 1035 0010 DFF83891 		ldr	r9, .L7+40
ARM GAS  /tmp/ccfTw1cj.s 			page 82


 1036 0014 454B     		ldr	r3, .L7+8
 1037 0016 464D     		ldr	r5, .L7+12
 1038 0018 464C     		ldr	r4, .L7+16
 1039 001a 83B0     		sub	sp, sp, #12
 1040 001c 0532     		adds	r2, r2, #5
 1041 001e 4FF4E871 		mov	r1, #464
 1042 0022 CDF80090 		str	r9, [sp]
 1043 0026 4046     		mov	r0, r8
 1044 0028 FFF7FEFF 		bl	chThdCreateStatic
 1045 002c B269     		ldr	r2, [r6, #24]
 1046 002e 7B68     		ldr	r3, [r7, #4]
 1047 0030 9268     		ldr	r2, [r2, #8]
 1048 0032 4149     		ldr	r1, .L7+20
 1049 0034 2860     		str	r0, [r5]
 1050 0036 0132     		adds	r2, r2, #1
 1051 0038 1846     		mov	r0, r3
 1052 003a 0091     		str	r1, [sp]
 1053 003c 3B4B     		ldr	r3, .L7+8
 1054 003e 4FF4E871 		mov	r1, #464
 1055 0042 FFF7FEFF 		bl	chThdCreateStatic
 1056 0046 B269     		ldr	r2, [r6, #24]
 1057 0048 BB68     		ldr	r3, [r7, #8]
 1058 004a 9268     		ldr	r2, [r2, #8]
 1059 004c 3B49     		ldr	r1, .L7+24
 1060 004e 6860     		str	r0, [r5, #4]
 1061 0050 0332     		adds	r2, r2, #3
 1062 0052 1846     		mov	r0, r3
 1063 0054 0091     		str	r1, [sp]
 1064 0056 354B     		ldr	r3, .L7+8
 1065 0058 4FF4E871 		mov	r1, #464
 1066 005c FFF7FEFF 		bl	chThdCreateStatic
 1067 0060 B269     		ldr	r2, [r6, #24]
 1068 0062 FB68     		ldr	r3, [r7, #12]
 1069 0064 9268     		ldr	r2, [r2, #8]
 1070 0066 3649     		ldr	r1, .L7+28
 1071 0068 A860     		str	r0, [r5, #8]
 1072 006a 0432     		adds	r2, r2, #4
 1073 006c 1846     		mov	r0, r3
 1074 006e 0091     		str	r1, [sp]
 1075 0070 2E4B     		ldr	r3, .L7+8
 1076 0072 4FF4E871 		mov	r1, #464
 1077 0076 FFF7FEFF 		bl	chThdCreateStatic
 1078 007a B269     		ldr	r2, [r6, #24]
 1079 007c 3B69     		ldr	r3, [r7, #16]
 1080 007e 9268     		ldr	r2, [r2, #8]
 1081 0080 3049     		ldr	r1, .L7+32
 1082 0082 E860     		str	r0, [r5, #12]
 1083 0084 0232     		adds	r2, r2, #2
 1084 0086 1846     		mov	r0, r3
 1085 0088 0091     		str	r1, [sp]
 1086 008a 284B     		ldr	r3, .L7+8
 1087 008c 4FF4E871 		mov	r1, #464
 1088 0090 FFF7FEFF 		bl	chThdCreateStatic
 1089 0094 2861     		str	r0, [r5, #16]
 1090 0096 2046     		mov	r0, r4
 1091 0098 FFF7FEFF 		bl	chSemSignal
 1092 009c 2046     		mov	r0, r4
ARM GAS  /tmp/ccfTw1cj.s 			page 83


 1093 009e FFF7FEFF 		bl	chSemSignal
 1094 00a2 2046     		mov	r0, r4
 1095 00a4 FFF7FEFF 		bl	chSemSignal
 1096 00a8 2046     		mov	r0, r4
 1097 00aa FFF7FEFF 		bl	chSemSignal
 1098 00ae 2046     		mov	r0, r4
 1099 00b0 FFF7FEFF 		bl	chSemSignal
 1100 00b4 FFF7FEFF 		bl	test_wait_threads
 1101 00b8 0120     		movs	r0, #1
 1102 00ba 2349     		ldr	r1, .L7+36
 1103 00bc FFF7FEFF 		bl	_test_assert_sequence
 1104 00c0 0746     		mov	r7, r0
 1105 00c2 10B1     		cbz	r0, .L5
 1106 00c4 03B0     		add	sp, sp, #12
 1107              		@ sp needed
 1108 00c6 BDE8F083 		pop	{r4, r5, r6, r7, r8, r9, pc}
 1109              	.L5:
 1110 00ca B269     		ldr	r2, [r6, #24]
 1111 00cc 174B     		ldr	r3, .L7+8
 1112 00ce 9268     		ldr	r2, [r2, #8]
 1113 00d0 CDF80090 		str	r9, [sp]
 1114 00d4 0532     		adds	r2, r2, #5
 1115 00d6 4046     		mov	r0, r8
 1116 00d8 4FF4E871 		mov	r1, #464
 1117 00dc FFF7FEFF 		bl	chThdCreateStatic
 1118 00e0 2026     		movs	r6, #32
 1119 00e2 2860     		str	r0, [r5]
 1120              	@ 546 "/home/cody/dev/chibios/trunk/os/ext/CMSIS/include/core_cmFunc.h" 1
 1121 00e4 86F31188 		MSR basepri, r6
 1122              	@ 0 "" 2
 1123              		.thumb
 1124 00e8 0221     		movs	r1, #2
 1125 00ea 2046     		mov	r0, r4
 1126 00ec FFF7FEFF 		bl	chSemAddCounterI
 1127 00f0 FFF7FEFF 		bl	chSchRescheduleS
 1128              	@ 546 "/home/cody/dev/chibios/trunk/os/ext/CMSIS/include/core_cmFunc.h" 1
 1129 00f4 87F31188 		MSR basepri, r7
 1130              	@ 0 "" 2
 1131              		.thumb
 1132 00f8 FFF7FEFF 		bl	test_wait_threads
 1133              	@ 546 "/home/cody/dev/chibios/trunk/os/ext/CMSIS/include/core_cmFunc.h" 1
 1134 00fc 86F31188 		MSR basepri, r6
 1135              	@ 0 "" 2
 1136              		.thumb
 1137 0100 A168     		ldr	r1, [r4, #8]
 1138 0102 4B1E     		subs	r3, r1, #1
 1139 0104 5942     		rsbs	r1, r3, #0
 1140 0106 5941     		adcs	r1, r1, r3
 1141 0108 0220     		movs	r0, #2
 1142 010a FFF7FEFF 		bl	_test_assert
 1143 010e 20B9     		cbnz	r0, .L6
 1144              	@ 546 "/home/cody/dev/chibios/trunk/os/ext/CMSIS/include/core_cmFunc.h" 1
 1145 0110 80F31188 		MSR basepri, r0
 1146              	@ 0 "" 2
 1147              		.thumb
 1148 0114 03B0     		add	sp, sp, #12
 1149              		@ sp needed
ARM GAS  /tmp/ccfTw1cj.s 			page 84


 1150 0116 BDE8F083 		pop	{r4, r5, r6, r7, r8, r9, pc}
 1151              	.L6:
 1152              	@ 546 "/home/cody/dev/chibios/trunk/os/ext/CMSIS/include/core_cmFunc.h" 1
 1153 011a 87F31188 		MSR basepri, r7
 1154              	@ 0 "" 2
 1155              		.thumb
 1156 011e 03B0     		add	sp, sp, #12
 1157              		@ sp needed
 1158 0120 BDE8F083 		pop	{r4, r5, r6, r7, r8, r9, pc}
 1159              	.L8:
 1160              		.align	2
 1161              	.L7:
 1162 0124 00000000 		.word	ch
 1163 0128 00000000 		.word	wa
 1164 012c 00000000 		.word	thread1
 1165 0130 00000000 		.word	threads
 1166 0134 00000000 		.word	.LANCHOR0
 1167 0138 04000000 		.word	.LC1
 1168 013c 08000000 		.word	.LC2
 1169 0140 0C000000 		.word	.LC3
 1170 0144 10000000 		.word	.LC4
 1171 0148 14000000 		.word	.LC5
 1172 014c 00000000 		.word	.LC0
 1173              		.size	sem1_execute, .-sem1_execute
 1174              		.section	.text.thread3,"ax",%progbits
 1175              		.align	2
 1176              		.p2align 4,,15
 1177              		.thumb
 1178              		.thumb_func
 1179              		.type	thread3, %function
 1180              	thread3:
 1181              		@ args = 0, pretend = 0, frame = 0
 1182              		@ frame_needed = 0, uses_anonymous_args = 0
 1183 0000 10B5     		push	{r4, lr}
 1184 0002 044C     		ldr	r4, .L10
 1185 0004 2046     		mov	r0, r4
 1186 0006 FFF7FEFF 		bl	chSemWait
 1187 000a 2046     		mov	r0, r4
 1188 000c FFF7FEFF 		bl	chSemSignal
 1189 0010 0020     		movs	r0, #0
 1190 0012 10BD     		pop	{r4, pc}
 1191              	.L11:
 1192              		.align	2
 1193              	.L10:
 1194 0014 00000000 		.word	.LANCHOR0
 1195              		.size	thread3, .-thread3
 1196 0018 AFF30080 		.section	.text.thread1,"ax",%progbits
 1196      AFF30080 
 1197              		.align	2
 1198              		.p2align 4,,15
 1199              		.thumb
 1200              		.thumb_func
 1201              		.type	thread1, %function
 1202              	thread1:
 1203              		@ args = 0, pretend = 0, frame = 0
 1204              		@ frame_needed = 0, uses_anonymous_args = 0
 1205 0000 10B5     		push	{r4, lr}
ARM GAS  /tmp/ccfTw1cj.s 			page 85


 1206 0002 0446     		mov	r4, r0
 1207 0004 0348     		ldr	r0, .L13
 1208 0006 FFF7FEFF 		bl	chSemWait
 1209 000a 2078     		ldrb	r0, [r4]	@ zero_extendqisi2
 1210 000c FFF7FEFF 		bl	test_emit_token
 1211 0010 0020     		movs	r0, #0
 1212 0012 10BD     		pop	{r4, pc}
 1213              	.L14:
 1214              		.align	2
 1215              	.L13:
 1216 0014 00000000 		.word	.LANCHOR0
 1217              		.size	thread1, .-thread1
 1218 0018 AFF30080 		.section	.text.sem1_setup,"ax",%progbits
 1218      AFF30080 
 1219              		.align	2
 1220              		.p2align 4,,15
 1221              		.thumb
 1222              		.thumb_func
 1223              		.type	sem1_setup, %function
 1224              	sem1_setup:
 1225              		@ args = 0, pretend = 0, frame = 0
 1226              		@ frame_needed = 0, uses_anonymous_args = 0
 1227              		@ link register save eliminated.
 1228 0000 0148     		ldr	r0, .L16
 1229 0002 0021     		movs	r1, #0
 1230 0004 FFF7FEBF 		b	chSemObjectInit
 1231              	.L17:
 1232              		.align	2
 1233              	.L16:
 1234 0008 00000000 		.word	.LANCHOR0
 1235              		.size	sem1_setup, .-sem1_setup
 1236 000c AFF30080 		.section	.text.sem2_setup,"ax",%progbits
 1237              		.align	2
 1238              		.p2align 4,,15
 1239              		.thumb
 1240              		.thumb_func
 1241              		.type	sem2_setup, %function
 1242              	sem2_setup:
 1243              		@ args = 0, pretend = 0, frame = 0
 1244              		@ frame_needed = 0, uses_anonymous_args = 0
 1245              		@ link register save eliminated.
 1246 0000 0148     		ldr	r0, .L19
 1247 0002 0021     		movs	r1, #0
 1248 0004 FFF7FEBF 		b	chSemObjectInit
 1249              	.L20:
 1250              		.align	2
 1251              	.L19:
 1252 0008 00000000 		.word	.LANCHOR0
 1253              		.size	sem2_setup, .-sem2_setup
 1254 000c AFF30080 		.section	.text.sem3_setup,"ax",%progbits
 1255              		.align	2
 1256              		.p2align 4,,15
 1257              		.thumb
 1258              		.thumb_func
 1259              		.type	sem3_setup, %function
 1260              	sem3_setup:
 1261              		@ args = 0, pretend = 0, frame = 0
ARM GAS  /tmp/ccfTw1cj.s 			page 86


 1262              		@ frame_needed = 0, uses_anonymous_args = 0
 1263              		@ link register save eliminated.
 1264 0000 0148     		ldr	r0, .L22
 1265 0002 0021     		movs	r1, #0
 1266 0004 FFF7FEBF 		b	chSemObjectInit
 1267              	.L23:
 1268              		.align	2
 1269              	.L22:
 1270 0008 00000000 		.word	.LANCHOR0
 1271              		.size	sem3_setup, .-sem3_setup
 1272 000c AFF30080 		.section	.text.thread2,"ax",%progbits
 1273              		.align	2
 1274              		.p2align 4,,15
 1275              		.thumb
 1276              		.thumb_func
 1277              		.type	thread2, %function
 1278              	thread2:
 1279              		@ args = 0, pretend = 0, frame = 0
 1280              		@ frame_needed = 0, uses_anonymous_args = 0
 1281 0000 08B5     		push	{r3, lr}
 1282 0002 4FF4FA70 		mov	r0, #500
 1283 0006 FFF7FEFF 		bl	chThdSleep
 1284 000a 2023     		movs	r3, #32
 1285              	@ 546 "/home/cody/dev/chibios/trunk/os/ext/CMSIS/include/core_cmFunc.h" 1
 1286 000c 83F31188 		MSR basepri, r3
 1287              	@ 0 "" 2
 1288              		.thumb
 1289 0010 0448     		ldr	r0, .L25
 1290 0012 FFF7FEFF 		bl	chSemSignalI
 1291 0016 FFF7FEFF 		bl	chSchRescheduleS
 1292 001a 0020     		movs	r0, #0
 1293              	@ 546 "/home/cody/dev/chibios/trunk/os/ext/CMSIS/include/core_cmFunc.h" 1
 1294 001c 80F31188 		MSR basepri, r0
 1295              	@ 0 "" 2
 1296              		.thumb
 1297 0020 08BD     		pop	{r3, pc}
 1298              	.L26:
 1299 0022 00BF     		.align	2
 1300              	.L25:
 1301 0024 00000000 		.word	.LANCHOR0
 1302              		.size	thread2, .-thread2
 1303 0028 AFF30080 		.section	.text.sem2_execute,"ax",%progbits
 1303      AFF30080 
 1304              		.align	2
 1305              		.p2align 4,,15
 1306              		.thumb
 1307              		.thumb_func
 1308              		.type	sem2_execute, %function
 1309              	sem2_execute:
 1310              		@ args = 0, pretend = 0, frame = 0
 1311              		@ frame_needed = 0, uses_anonymous_args = 0
 1312 0000 70B5     		push	{r4, r5, r6, lr}
 1313 0002 504C     		ldr	r4, .L34
 1314 0004 82B0     		sub	sp, sp, #8
 1315 0006 0021     		movs	r1, #0
 1316 0008 2046     		mov	r0, r4
 1317 000a FFF7FEFF 		bl	chSemWaitTimeout
ARM GAS  /tmp/ccfTw1cj.s 			page 87


 1318 000e B0F1FF3E 		subs	lr, r0, #-1
 1319 0012 DEF10001 		rsbs	r1, lr, #0
 1320 0016 51EB0E01 		adcs	r1, r1, lr
 1321 001a 0120     		movs	r0, #1
 1322 001c FFF7FEFF 		bl	_test_assert
 1323 0020 08B1     		cbz	r0, .L33
 1324              	.L27:
 1325 0022 02B0     		add	sp, sp, #8
 1326              		@ sp needed
 1327 0024 70BD     		pop	{r4, r5, r6, pc}
 1328              	.L33:
 1329 0026 2168     		ldr	r1, [r4]
 1330 0028 0E1B     		subs	r6, r1, r4
 1331 002a 7142     		rsbs	r1, r6, #0
 1332 002c 7141     		adcs	r1, r1, r6
 1333 002e 0220     		movs	r0, #2
 1334 0030 FFF7FEFF 		bl	_test_assert
 1335 0034 0028     		cmp	r0, #0
 1336 0036 F4D1     		bne	.L27
 1337 0038 A168     		ldr	r1, [r4, #8]
 1338 003a D1F10101 		rsbs	r1, r1, #1
 1339 003e 38BF     		it	cc
 1340 0040 0021     		movcc	r1, #0
 1341 0042 0320     		movs	r0, #3
 1342 0044 FFF7FEFF 		bl	_test_assert
 1343 0048 0028     		cmp	r0, #0
 1344 004a EAD1     		bne	.L27
 1345 004c 3E4B     		ldr	r3, .L34+4
 1346 004e 3F4A     		ldr	r2, .L34+8
 1347 0050 9B69     		ldr	r3, [r3, #24]
 1348 0052 1168     		ldr	r1, [r2]
 1349 0054 9A68     		ldr	r2, [r3, #8]
 1350 0056 3E4B     		ldr	r3, .L34+12
 1351 0058 0090     		str	r0, [sp]
 1352 005a 013A     		subs	r2, r2, #1
 1353 005c 0846     		mov	r0, r1
 1354 005e 4FF4E871 		mov	r1, #464
 1355 0062 FFF7FEFF 		bl	chThdCreateStatic
 1356 0066 3B4B     		ldr	r3, .L34+16
 1357 0068 41F28831 		movw	r1, #5000
 1358 006c 1860     		str	r0, [r3]
 1359 006e 2046     		mov	r0, r4
 1360 0070 FFF7FEFF 		bl	chSemWaitTimeout
 1361 0074 0546     		mov	r5, r0
 1362 0076 FFF7FEFF 		bl	test_wait_threads
 1363 007a D5F10101 		rsbs	r1, r5, #1
 1364 007e 38BF     		it	cc
 1365 0080 0021     		movcc	r1, #0
 1366 0082 0420     		movs	r0, #4
 1367 0084 FFF7FEFF 		bl	_test_assert
 1368 0088 0028     		cmp	r0, #0
 1369 008a CAD1     		bne	.L27
 1370 008c 2168     		ldr	r1, [r4]
 1371 008e 0D1B     		subs	r5, r1, r4
 1372 0090 6942     		rsbs	r1, r5, #0
 1373 0092 6941     		adcs	r1, r1, r5
 1374 0094 0520     		movs	r0, #5
ARM GAS  /tmp/ccfTw1cj.s 			page 88


 1375 0096 FFF7FEFF 		bl	_test_assert
 1376 009a 0028     		cmp	r0, #0
 1377 009c C1D1     		bne	.L27
 1378 009e A168     		ldr	r1, [r4, #8]
 1379 00a0 D1F10101 		rsbs	r1, r1, #1
 1380 00a4 4FF00600 		mov	r0, #6
 1381 00a8 38BF     		it	cc
 1382 00aa 0021     		movcc	r1, #0
 1383 00ac FFF7FEFF 		bl	_test_assert
 1384 00b0 0546     		mov	r5, r0
 1385 00b2 0028     		cmp	r0, #0
 1386 00b4 B5D1     		bne	.L27
 1387 00b6 FFF7FEFF 		bl	test_wait_tick
 1388 00ba 2023     		movs	r3, #32
 1389              	@ 546 "/home/cody/dev/chibios/trunk/os/ext/CMSIS/include/core_cmFunc.h" 1
 1390 00bc 83F31188 		MSR basepri, r3
 1391              	@ 0 "" 2
 1392              		.thumb
 1393 00c0 4FF08043 		mov	r3, #1073741824
 1394 00c4 5E6A     		ldr	r6, [r3, #36]
 1395              	@ 546 "/home/cody/dev/chibios/trunk/os/ext/CMSIS/include/core_cmFunc.h" 1
 1396 00c6 85F31188 		MSR basepri, r5
 1397              	@ 0 "" 2
 1398              		.thumb
 1399 00ca 4125     		movs	r5, #65
 1400              	.L32:
 1401 00cc 2846     		mov	r0, r5
 1402 00ce FFF7FEFF 		bl	test_emit_token
 1403 00d2 41F28831 		movw	r1, #5000
 1404 00d6 1B48     		ldr	r0, .L34
 1405 00d8 FFF7FEFF 		bl	chSemWaitTimeout
 1406 00dc B0F1FF32 		subs	r2, r0, #-1
 1407 00e0 5142     		rsbs	r1, r2, #0
 1408 00e2 5141     		adcs	r1, r1, r2
 1409 00e4 0720     		movs	r0, #7
 1410 00e6 FFF7FEFF 		bl	_test_assert
 1411 00ea 0028     		cmp	r0, #0
 1412 00ec 99D1     		bne	.L27
 1413 00ee 2168     		ldr	r1, [r4]
 1414 00f0 0B1B     		subs	r3, r1, r4
 1415 00f2 5942     		rsbs	r1, r3, #0
 1416 00f4 5941     		adcs	r1, r1, r3
 1417 00f6 0820     		movs	r0, #8
 1418 00f8 FFF7FEFF 		bl	_test_assert
 1419 00fc 0028     		cmp	r0, #0
 1420 00fe 90D1     		bne	.L27
 1421 0100 A168     		ldr	r1, [r4, #8]
 1422 0102 D1F10101 		rsbs	r1, r1, #1
 1423 0106 4FF00900 		mov	r0, #9
 1424 010a 38BF     		it	cc
 1425 010c 0021     		movcc	r1, #0
 1426 010e FFF7FEFF 		bl	_test_assert
 1427 0112 0135     		adds	r5, r5, #1
 1428 0114 EDB2     		uxtb	r5, r5
 1429 0116 0028     		cmp	r0, #0
 1430 0118 83D1     		bne	.L27
 1431 011a 462D     		cmp	r5, #70
ARM GAS  /tmp/ccfTw1cj.s 			page 89


 1432 011c D6D1     		bne	.L32
 1433 011e 0A20     		movs	r0, #10
 1434 0120 0D49     		ldr	r1, .L34+20
 1435 0122 FFF7FEFF 		bl	_test_assert_sequence
 1436 0126 0028     		cmp	r0, #0
 1437 0128 7FF47BAF 		bne	.L27
 1438 012c 06F5C341 		add	r1, r6, #24960
 1439 0130 0A46     		mov	r2, r1
 1440 0132 5A32     		adds	r2, r2, #90
 1441 0134 2831     		adds	r1, r1, #40
 1442 0136 0B20     		movs	r0, #11
 1443 0138 02B0     		add	sp, sp, #8
 1444              		@ sp needed
 1445 013a BDE87040 		pop	{r4, r5, r6, lr}
 1446 013e FFF7FEBF 		b	_test_assert_time_window
 1447              	.L35:
 1448 0142 00BF     		.align	2
 1449              	.L34:
 1450 0144 00000000 		.word	.LANCHOR0
 1451 0148 00000000 		.word	ch
 1452 014c 00000000 		.word	wa
 1453 0150 00000000 		.word	thread2
 1454 0154 00000000 		.word	threads
 1455 0158 14000000 		.word	.LC5
 1456              		.size	sem2_execute, .-sem2_execute
 1457 015c AFF30080 		.section	.text.sem3_execute,"ax",%progbits
 1458              		.align	2
 1459              		.p2align 4,,15
 1460              		.thumb
 1461              		.thumb_func
 1462              		.type	sem3_execute, %function
 1463              	sem3_execute:
 1464              		@ args = 0, pretend = 0, frame = 0
 1465              		@ frame_needed = 0, uses_anonymous_args = 0
 1466 0000 10B5     		push	{r4, lr}
 1467 0002 214B     		ldr	r3, .L41
 1468 0004 214A     		ldr	r2, .L41+4
 1469 0006 9B69     		ldr	r3, [r3, #24]
 1470 0008 1068     		ldr	r0, [r2]
 1471 000a 9A68     		ldr	r2, [r3, #8]
 1472 000c 204B     		ldr	r3, .L41+8
 1473 000e 214C     		ldr	r4, .L41+12
 1474 0010 82B0     		sub	sp, sp, #8
 1475 0012 0021     		movs	r1, #0
 1476 0014 0132     		adds	r2, r2, #1
 1477 0016 0091     		str	r1, [sp]
 1478 0018 4FF4E871 		mov	r1, #464
 1479 001c FFF7FEFF 		bl	chThdCreateStatic
 1480 0020 1D4B     		ldr	r3, .L41+16
 1481 0022 2146     		mov	r1, r4
 1482 0024 1860     		str	r0, [r3]
 1483 0026 2046     		mov	r0, r4
 1484 0028 FFF7FEFF 		bl	chSemSignalWait
 1485 002c 2168     		ldr	r1, [r4]
 1486 002e 0A1B     		subs	r2, r1, r4
 1487 0030 5142     		rsbs	r1, r2, #0
 1488 0032 5141     		adcs	r1, r1, r2
ARM GAS  /tmp/ccfTw1cj.s 			page 90


 1489 0034 0120     		movs	r0, #1
 1490 0036 FFF7FEFF 		bl	_test_assert
 1491 003a 08B1     		cbz	r0, .L40
 1492              	.L36:
 1493 003c 02B0     		add	sp, sp, #8
 1494              		@ sp needed
 1495 003e 10BD     		pop	{r4, pc}
 1496              	.L40:
 1497 0040 A168     		ldr	r1, [r4, #8]
 1498 0042 D1F10101 		rsbs	r1, r1, #1
 1499 0046 38BF     		it	cc
 1500 0048 0021     		movcc	r1, #0
 1501 004a 0220     		movs	r0, #2
 1502 004c FFF7FEFF 		bl	_test_assert
 1503 0050 0028     		cmp	r0, #0
 1504 0052 F3D1     		bne	.L36
 1505 0054 2146     		mov	r1, r4
 1506 0056 2046     		mov	r0, r4
 1507 0058 FFF7FEFF 		bl	chSemSignalWait
 1508 005c 2168     		ldr	r1, [r4]
 1509 005e 0B1B     		subs	r3, r1, r4
 1510 0060 5942     		rsbs	r1, r3, #0
 1511 0062 5941     		adcs	r1, r1, r3
 1512 0064 0320     		movs	r0, #3
 1513 0066 FFF7FEFF 		bl	_test_assert
 1514 006a 0028     		cmp	r0, #0
 1515 006c E6D1     		bne	.L36
 1516 006e A168     		ldr	r1, [r4, #8]
 1517 0070 D1F10101 		rsbs	r1, r1, #1
 1518 0074 4FF00400 		mov	r0, #4
 1519 0078 38BF     		it	cc
 1520 007a 0021     		movcc	r1, #0
 1521 007c 02B0     		add	sp, sp, #8
 1522              		@ sp needed
 1523 007e BDE81040 		pop	{r4, lr}
 1524 0082 FFF7FEBF 		b	_test_assert
 1525              	.L42:
 1526 0086 00BF     		.align	2
 1527              	.L41:
 1528 0088 00000000 		.word	ch
 1529 008c 00000000 		.word	wa
 1530 0090 00000000 		.word	thread3
 1531 0094 00000000 		.word	.LANCHOR0
 1532 0098 00000000 		.word	threads
 1533              		.size	sem3_execute, .-sem3_execute
 1534 009c AFF30080 		.section	.text.thread4,"ax",%progbits
 1535              		.align	2
 1536              		.p2align 4,,15
 1537              		.thumb
 1538              		.thumb_func
 1539              		.type	thread4, %function
 1540              	thread4:
 1541              		@ args = 0, pretend = 0, frame = 0
 1542              		@ frame_needed = 0, uses_anonymous_args = 0
 1543 0000 08B5     		push	{r3, lr}
 1544 0002 2022     		movs	r2, #32
 1545              	@ 546 "/home/cody/dev/chibios/trunk/os/ext/CMSIS/include/core_cmFunc.h" 1
ARM GAS  /tmp/ccfTw1cj.s 			page 91


 1546 0004 82F31188 		MSR basepri, r2
 1547              	@ 0 "" 2
 1548              		.thumb
 1549 0008 8368     		ldr	r3, [r0, #8]
 1550 000a 002B     		cmp	r3, #0
 1551 000c 05DD     		ble	.L45
 1552 000e FFF7FEFF 		bl	chSchRescheduleS
 1553 0012 0020     		movs	r0, #0
 1554              	@ 546 "/home/cody/dev/chibios/trunk/os/ext/CMSIS/include/core_cmFunc.h" 1
 1555 0014 80F31188 		MSR basepri, r0
 1556              	@ 0 "" 2
 1557              		.thumb
 1558 0018 08BD     		pop	{r3, pc}
 1559              	.L45:
 1560 001a FFF7FEFF 		bl	chSemSignalI
 1561 001e FFF7FEFF 		bl	chSchRescheduleS
 1562 0022 0020     		movs	r0, #0
 1563              	@ 546 "/home/cody/dev/chibios/trunk/os/ext/CMSIS/include/core_cmFunc.h" 1
 1564 0024 80F31188 		MSR basepri, r0
 1565              	@ 0 "" 2
 1566              		.thumb
 1567 0028 08BD     		pop	{r3, pc}
 1568              		.size	thread4, .-thread4
 1569 002a 00BFAFF3 		.section	.text.sem4_execute,"ax",%progbits
 1569      0080
 1570              		.align	2
 1571              		.p2align 4,,15
 1572              		.thumb
 1573              		.thumb_func
 1574              		.type	sem4_execute, %function
 1575              	sem4_execute:
 1576              		@ args = 0, pretend = 0, frame = 16
 1577              		@ frame_needed = 0, uses_anonymous_args = 0
 1578 0000 70B5     		push	{r4, r5, r6, lr}
 1579 0002 86B0     		sub	sp, sp, #24
 1580 0004 03A8     		add	r0, sp, #12
 1581 0006 0021     		movs	r1, #0
 1582 0008 FFF7FEFF 		bl	chSemObjectInit
 1583 000c 03A8     		add	r0, sp, #12
 1584 000e 0021     		movs	r1, #0
 1585 0010 FFF7FEFF 		bl	chSemReset
 1586 0014 2025     		movs	r5, #32
 1587              	@ 546 "/home/cody/dev/chibios/trunk/os/ext/CMSIS/include/core_cmFunc.h" 1
 1588 0016 85F31188 		MSR basepri, r5
 1589              	@ 0 "" 2
 1590              		.thumb
 1591 001a 0599     		ldr	r1, [sp, #20]
 1592 001c 0029     		cmp	r1, #0
 1593 001e 4FF00100 		mov	r0, #1
 1594 0022 CCBF     		ite	gt
 1595 0024 0021     		movgt	r1, #0
 1596 0026 0121     		movle	r1, #1
 1597 0028 FFF7FEFF 		bl	_test_assert
 1598 002c 0446     		mov	r4, r0
 1599 002e 20B1     		cbz	r0, .L47
 1600 0030 0023     		movs	r3, #0
 1601              	@ 546 "/home/cody/dev/chibios/trunk/os/ext/CMSIS/include/core_cmFunc.h" 1
ARM GAS  /tmp/ccfTw1cj.s 			page 92


 1602 0032 83F31188 		MSR basepri, r3
 1603              	@ 0 "" 2
 1604              		.thumb
 1605              	.L46:
 1606 0036 06B0     		add	sp, sp, #24
 1607              		@ sp needed
 1608 0038 70BD     		pop	{r4, r5, r6, pc}
 1609              	.L47:
 1610              	@ 546 "/home/cody/dev/chibios/trunk/os/ext/CMSIS/include/core_cmFunc.h" 1
 1611 003a 80F31188 		MSR basepri, r0
 1612              	@ 0 "" 2
 1613              		.thumb
 1614 003e 3F4B     		ldr	r3, .L61
 1615 0040 3F4A     		ldr	r2, .L61+4
 1616 0042 9B69     		ldr	r3, [r3, #24]
 1617 0044 1068     		ldr	r0, [r2]
 1618 0046 9A68     		ldr	r2, [r3, #8]
 1619 0048 3E4B     		ldr	r3, .L61+8
 1620 004a 03A9     		add	r1, sp, #12
 1621 004c 0091     		str	r1, [sp]
 1622 004e 013A     		subs	r2, r2, #1
 1623 0050 4FF4E871 		mov	r1, #464
 1624 0054 FFF7FEFF 		bl	chThdCreateStatic
 1625 0058 3B4B     		ldr	r3, .L61+12
 1626 005a 1860     		str	r0, [r3]
 1627 005c 03A8     		add	r0, sp, #12
 1628 005e FFF7FEFF 		bl	chSemWait
 1629              	@ 546 "/home/cody/dev/chibios/trunk/os/ext/CMSIS/include/core_cmFunc.h" 1
 1630 0062 85F31188 		MSR basepri, r5
 1631              	@ 0 "" 2
 1632              		.thumb
 1633 0066 0599     		ldr	r1, [sp, #20]
 1634 0068 0029     		cmp	r1, #0
 1635 006a CCBF     		ite	gt
 1636 006c 0021     		movgt	r1, #0
 1637 006e 0121     		movle	r1, #1
 1638 0070 0220     		movs	r0, #2
 1639 0072 FFF7FEFF 		bl	_test_assert
 1640 0076 18B1     		cbz	r0, .L49
 1641              	.L57:
 1642              	@ 546 "/home/cody/dev/chibios/trunk/os/ext/CMSIS/include/core_cmFunc.h" 1
 1643 0078 84F31188 		MSR basepri, r4
 1644              	@ 0 "" 2
 1645              		.thumb
 1646 007c 06B0     		add	sp, sp, #24
 1647              		@ sp needed
 1648 007e 70BD     		pop	{r4, r5, r6, pc}
 1649              	.L49:
 1650              	@ 546 "/home/cody/dev/chibios/trunk/os/ext/CMSIS/include/core_cmFunc.h" 1
 1651 0080 80F31188 		MSR basepri, r0
 1652              	@ 0 "" 2
 1653              	@ 546 "/home/cody/dev/chibios/trunk/os/ext/CMSIS/include/core_cmFunc.h" 1
 1654 0084 85F31188 		MSR basepri, r5
 1655              	@ 0 "" 2
 1656              		.thumb
 1657 0088 059B     		ldr	r3, [sp, #20]
 1658 008a 002B     		cmp	r3, #0
ARM GAS  /tmp/ccfTw1cj.s 			page 93


 1659 008c 22DD     		ble	.L59
 1660              	.L50:
 1661 008e FFF7FEFF 		bl	chSchRescheduleS
 1662 0092 0024     		movs	r4, #0
 1663              	@ 546 "/home/cody/dev/chibios/trunk/os/ext/CMSIS/include/core_cmFunc.h" 1
 1664 0094 84F31188 		MSR basepri, r4
 1665              	@ 0 "" 2
 1666              		.thumb
 1667 0098 2026     		movs	r6, #32
 1668              	@ 546 "/home/cody/dev/chibios/trunk/os/ext/CMSIS/include/core_cmFunc.h" 1
 1669 009a 86F31188 		MSR basepri, r6
 1670              	@ 0 "" 2
 1671              		.thumb
 1672 009e 0599     		ldr	r1, [sp, #20]
 1673 00a0 A142     		cmp	r1, r4
 1674 00a2 4FF00300 		mov	r0, #3
 1675 00a6 D4BF     		ite	le
 1676 00a8 0021     		movle	r1, #0
 1677 00aa 0121     		movgt	r1, #1
 1678 00ac FFF7FEFF 		bl	_test_assert
 1679 00b0 0546     		mov	r5, r0
 1680 00b2 0028     		cmp	r0, #0
 1681 00b4 E0D1     		bne	.L57
 1682              	@ 546 "/home/cody/dev/chibios/trunk/os/ext/CMSIS/include/core_cmFunc.h" 1
 1683 00b6 80F31188 		MSR basepri, r0
 1684              	@ 0 "" 2
 1685              	@ 546 "/home/cody/dev/chibios/trunk/os/ext/CMSIS/include/core_cmFunc.h" 1
 1686 00ba 86F31188 		MSR basepri, r6
 1687              	@ 0 "" 2
 1688              		.thumb
 1689 00be 0599     		ldr	r1, [sp, #20]
 1690 00c0 4A1E     		subs	r2, r1, #1
 1691 00c2 5142     		rsbs	r1, r2, #0
 1692 00c4 5141     		adcs	r1, r1, r2
 1693 00c6 0420     		movs	r0, #4
 1694 00c8 FFF7FEFF 		bl	_test_assert
 1695 00cc 30B1     		cbz	r0, .L52
 1696              	.L58:
 1697              	@ 546 "/home/cody/dev/chibios/trunk/os/ext/CMSIS/include/core_cmFunc.h" 1
 1698 00ce 85F31188 		MSR basepri, r5
 1699              	@ 0 "" 2
 1700              		.thumb
 1701 00d2 B0E7     		b	.L46
 1702              	.L59:
 1703 00d4 03A8     		add	r0, sp, #12
 1704 00d6 FFF7FEFF 		bl	chSemSignalI
 1705 00da D8E7     		b	.L50
 1706              	.L52:
 1707              	@ 546 "/home/cody/dev/chibios/trunk/os/ext/CMSIS/include/core_cmFunc.h" 1
 1708 00dc 80F31188 		MSR basepri, r0
 1709              	@ 0 "" 2
 1710              	@ 546 "/home/cody/dev/chibios/trunk/os/ext/CMSIS/include/core_cmFunc.h" 1
 1711 00e0 86F31188 		MSR basepri, r6
 1712              	@ 0 "" 2
 1713              		.thumb
 1714 00e4 059B     		ldr	r3, [sp, #20]
 1715 00e6 002B     		cmp	r3, #0
ARM GAS  /tmp/ccfTw1cj.s 			page 94


 1716 00e8 23DD     		ble	.L60
 1717              	.L53:
 1718 00ea FFF7FEFF 		bl	chSchRescheduleS
 1719 00ee 0024     		movs	r4, #0
 1720              	@ 546 "/home/cody/dev/chibios/trunk/os/ext/CMSIS/include/core_cmFunc.h" 1
 1721 00f0 84F31188 		MSR basepri, r4
 1722              	@ 0 "" 2
 1723              		.thumb
 1724 00f4 2026     		movs	r6, #32
 1725              	@ 546 "/home/cody/dev/chibios/trunk/os/ext/CMSIS/include/core_cmFunc.h" 1
 1726 00f6 86F31188 		MSR basepri, r6
 1727              	@ 0 "" 2
 1728              		.thumb
 1729 00fa 0599     		ldr	r1, [sp, #20]
 1730 00fc A142     		cmp	r1, r4
 1731 00fe 4FF00300 		mov	r0, #3
 1732 0102 D4BF     		ite	le
 1733 0104 0021     		movle	r1, #0
 1734 0106 0121     		movgt	r1, #1
 1735 0108 FFF7FEFF 		bl	_test_assert
 1736 010c 0546     		mov	r5, r0
 1737 010e 0028     		cmp	r0, #0
 1738 0110 B2D1     		bne	.L57
 1739              	@ 546 "/home/cody/dev/chibios/trunk/os/ext/CMSIS/include/core_cmFunc.h" 1
 1740 0112 80F31188 		MSR basepri, r0
 1741              	@ 0 "" 2
 1742              	@ 546 "/home/cody/dev/chibios/trunk/os/ext/CMSIS/include/core_cmFunc.h" 1
 1743 0116 86F31188 		MSR basepri, r6
 1744              	@ 0 "" 2
 1745              		.thumb
 1746 011a 0599     		ldr	r1, [sp, #20]
 1747 011c 4B1E     		subs	r3, r1, #1
 1748 011e 5942     		rsbs	r1, r3, #0
 1749 0120 5941     		adcs	r1, r1, r3
 1750 0122 0520     		movs	r0, #5
 1751 0124 FFF7FEFF 		bl	_test_assert
 1752 0128 0028     		cmp	r0, #0
 1753 012a D0D1     		bne	.L58
 1754              	@ 546 "/home/cody/dev/chibios/trunk/os/ext/CMSIS/include/core_cmFunc.h" 1
 1755 012c 80F31188 		MSR basepri, r0
 1756              	@ 0 "" 2
 1757              		.thumb
 1758 0130 81E7     		b	.L46
 1759              	.L60:
 1760 0132 03A8     		add	r0, sp, #12
 1761 0134 FFF7FEFF 		bl	chSemSignalI
 1762 0138 D7E7     		b	.L53
 1763              	.L62:
 1764 013a 00BF     		.align	2
 1765              	.L61:
 1766 013c 00000000 		.word	ch
 1767 0140 00000000 		.word	wa
 1768 0144 00000000 		.word	thread4
 1769 0148 00000000 		.word	threads
 1770              		.size	sem4_execute, .-sem4_execute
 1771              		.global	patternsem
 1772              		.global	testsem4
ARM GAS  /tmp/ccfTw1cj.s 			page 95


 1773              		.global	testsem3
 1774              		.global	testsem2
 1775              		.global	testsem1
 1776 014c AFF30080 		.section	.rodata.testsem1,"a",%progbits
 1777              		.align	2
 1778              		.type	testsem1, %object
 1779              		.size	testsem1, 16
 1780              	testsem1:
 1781 0000 74000000 		.word	.LC9
 1782 0004 00000000 		.word	sem1_setup
 1783 0008 00000000 		.word	0
 1784 000c 00000000 		.word	sem1_execute
 1785              		.section	.rodata.testsem2,"a",%progbits
 1786              		.align	2
 1787              		.type	testsem2, %object
 1788              		.size	testsem2, 16
 1789              	testsem2:
 1790 0000 60000000 		.word	.LC8
 1791 0004 00000000 		.word	sem2_setup
 1792 0008 00000000 		.word	0
 1793 000c 00000000 		.word	sem2_execute
 1794              		.section	.rodata.testsem3,"a",%progbits
 1795              		.align	2
 1796              		.type	testsem3, %object
 1797              		.size	testsem3, 16
 1798              	testsem3:
 1799 0000 40000000 		.word	.LC7
 1800 0004 00000000 		.word	sem3_setup
 1801 0008 00000000 		.word	0
 1802 000c 00000000 		.word	sem3_execute
 1803              		.section	.rodata.testsem4,"a",%progbits
 1804              		.align	2
 1805              		.type	testsem4, %object
 1806              		.size	testsem4, 16
 1807              	testsem4:
 1808 0000 1C000000 		.word	.LC6
 1809 0004 00000000 		.word	0
 1810 0008 00000000 		.word	0
 1811 000c 00000000 		.word	sem4_execute
 1812              		.section	.data.sem1,"aw",%progbits
 1813              		.align	2
 1814              		.set	.LANCHOR0,. + 0
 1815              		.type	sem1, %object
 1816              		.size	sem1, 12
 1817              	sem1:
 1818 0000 00000000 		.word	sem1
 1819 0004 00000000 		.word	sem1
 1820 0008 00000000 		.word	0
 1821              		.section	.rodata.patternsem,"a",%progbits
 1822              		.align	2
 1823              		.type	patternsem, %object
 1824              		.size	patternsem, 20
 1825              	patternsem:
 1826 0000 00000000 		.word	testsem1
 1827 0004 00000000 		.word	testsem2
 1828 0008 00000000 		.word	testsem3
 1829 000c 00000000 		.word	testsem4
ARM GAS  /tmp/ccfTw1cj.s 			page 96


 1830 0010 00000000 		.word	0
 1831              		.section	.rodata.str1.4,"aMS",%progbits,1
 1832              		.align	2
 1833              	.LC0:
 1834 0000 4100     		.ascii	"A\000"
 1835 0002 0000     		.space	2
 1836              	.LC1:
 1837 0004 4200     		.ascii	"B\000"
 1838 0006 0000     		.space	2
 1839              	.LC2:
 1840 0008 4300     		.ascii	"C\000"
 1841 000a 0000     		.space	2
 1842              	.LC3:
 1843 000c 4400     		.ascii	"D\000"
 1844 000e 0000     		.space	2
 1845              	.LC4:
 1846 0010 4500     		.ascii	"E\000"
 1847 0012 0000     		.space	2
 1848              	.LC5:
 1849 0014 41424344 		.ascii	"ABCDE\000"
 1849      4500
 1850 001a 0000     		.space	2
 1851              	.LC6:
 1852 001c 42696E61 		.ascii	"Binary Semaphores, functionality\000"
 1852      72792053 
 1852      656D6170 
 1852      686F7265 
 1852      732C2066 
 1853 003d 000000   		.space	3
 1854              	.LC7:
 1855 0040 53656D61 		.ascii	"Semaphores, atomic signal-wait\000"
 1855      70686F72 
 1855      65732C20 
 1855      61746F6D 
 1855      69632073 
 1856 005f 00       		.space	1
 1857              	.LC8:
 1858 0060 53656D61 		.ascii	"Semaphores, timeout\000"
 1858      70686F72 
 1858      65732C20 
 1858      74696D65 
 1858      6F757400 
 1859              	.LC9:
 1860 0074 53656D61 		.ascii	"Semaphores, enqueuing\000"
 1860      70686F72 
 1860      65732C20 
 1860      656E7175 
 1860      6575696E 
 1861              		.comm	__gnu_lto_v1,1,1
 1862 008a 0000     		.ident	"GCC: (GNU Tools for ARM Embedded Processors) 4.8.4 20140526 (release) [ARM/embedded-4_8-br
ARM GAS  /tmp/ccfTw1cj.s 			page 97


DEFINED SYMBOLS
                            *ABS*:0000000000000000 testsem.c
     /tmp/ccfTw1cj.s:1021   .text.sem1_execute:0000000000000000 $t
     /tmp/ccfTw1cj.s:1026   .text.sem1_execute:0000000000000000 sem1_execute
     /tmp/ccfTw1cj.s:1162   .text.sem1_execute:0000000000000124 $d
     /tmp/ccfTw1cj.s:1202   .text.thread1:0000000000000000 thread1
     /tmp/ccfTw1cj.s:1175   .text.thread3:0000000000000000 $t
     /tmp/ccfTw1cj.s:1180   .text.thread3:0000000000000000 thread3
     /tmp/ccfTw1cj.s:1194   .text.thread3:0000000000000014 $d
     /tmp/ccfTw1cj.s:1197   .text.thread1:0000000000000000 $t
     /tmp/ccfTw1cj.s:1216   .text.thread1:0000000000000014 $d
     /tmp/ccfTw1cj.s:1219   .text.sem1_setup:0000000000000000 $t
     /tmp/ccfTw1cj.s:1224   .text.sem1_setup:0000000000000000 sem1_setup
     /tmp/ccfTw1cj.s:1234   .text.sem1_setup:0000000000000008 $d
     /tmp/ccfTw1cj.s:1237   .text.sem2_setup:0000000000000000 $t
     /tmp/ccfTw1cj.s:1242   .text.sem2_setup:0000000000000000 sem2_setup
     /tmp/ccfTw1cj.s:1252   .text.sem2_setup:0000000000000008 $d
     /tmp/ccfTw1cj.s:1255   .text.sem3_setup:0000000000000000 $t
     /tmp/ccfTw1cj.s:1260   .text.sem3_setup:0000000000000000 sem3_setup
     /tmp/ccfTw1cj.s:1270   .text.sem3_setup:0000000000000008 $d
     /tmp/ccfTw1cj.s:1273   .text.thread2:0000000000000000 $t
     /tmp/ccfTw1cj.s:1278   .text.thread2:0000000000000000 thread2
     /tmp/ccfTw1cj.s:1301   .text.thread2:0000000000000024 $d
     /tmp/ccfTw1cj.s:1304   .text.sem2_execute:0000000000000000 $t
     /tmp/ccfTw1cj.s:1309   .text.sem2_execute:0000000000000000 sem2_execute
     /tmp/ccfTw1cj.s:1450   .text.sem2_execute:0000000000000144 $d
     /tmp/ccfTw1cj.s:1458   .text.sem3_execute:0000000000000000 $t
     /tmp/ccfTw1cj.s:1463   .text.sem3_execute:0000000000000000 sem3_execute
     /tmp/ccfTw1cj.s:1528   .text.sem3_execute:0000000000000088 $d
     /tmp/ccfTw1cj.s:1535   .text.thread4:0000000000000000 $t
     /tmp/ccfTw1cj.s:1540   .text.thread4:0000000000000000 thread4
     /tmp/ccfTw1cj.s:1570   .text.sem4_execute:0000000000000000 $t
     /tmp/ccfTw1cj.s:1575   .text.sem4_execute:0000000000000000 sem4_execute
     /tmp/ccfTw1cj.s:1766   .text.sem4_execute:000000000000013c $d
     /tmp/ccfTw1cj.s:1825   .rodata.patternsem:0000000000000000 patternsem
     /tmp/ccfTw1cj.s:1807   .rodata.testsem4:0000000000000000 testsem4
     /tmp/ccfTw1cj.s:1798   .rodata.testsem3:0000000000000000 testsem3
     /tmp/ccfTw1cj.s:1789   .rodata.testsem2:0000000000000000 testsem2
     /tmp/ccfTw1cj.s:1780   .rodata.testsem1:0000000000000000 testsem1
     /tmp/ccfTw1cj.s:1777   .rodata.testsem1:0000000000000000 $d
     /tmp/ccfTw1cj.s:1786   .rodata.testsem2:0000000000000000 $d
     /tmp/ccfTw1cj.s:1795   .rodata.testsem3:0000000000000000 $d
     /tmp/ccfTw1cj.s:1804   .rodata.testsem4:0000000000000000 $d
     /tmp/ccfTw1cj.s:1813   .data.sem1:0000000000000000 $d
     /tmp/ccfTw1cj.s:1817   .data.sem1:0000000000000000 sem1
     /tmp/ccfTw1cj.s:1822   .rodata.patternsem:0000000000000000 $d
     /tmp/ccfTw1cj.s:1832   .rodata.str1.4:0000000000000000 $d
                            *COM*:0000000000000001 __gnu_lto_v1
     /tmp/ccfTw1cj.s:1196   .text.thread3:0000000000000018 $t
     /tmp/ccfTw1cj.s:1218   .text.thread1:0000000000000018 $t
     /tmp/ccfTw1cj.s:1236   .text.sem1_setup:000000000000000c $t
     /tmp/ccfTw1cj.s:1254   .text.sem2_setup:000000000000000c $t
     /tmp/ccfTw1cj.s:1272   .text.sem3_setup:000000000000000c $t
     /tmp/ccfTw1cj.s:1303   .text.thread2:0000000000000028 $t
     /tmp/ccfTw1cj.s:1457   .text.sem2_execute:000000000000015c $t
     /tmp/ccfTw1cj.s:1534   .text.sem3_execute:000000000000009c $t
     /tmp/ccfTw1cj.s:1776   .text.sem4_execute:000000000000014c $t
ARM GAS  /tmp/ccfTw1cj.s 			page 98



UNDEFINED SYMBOLS
chThdCreateStatic
chSemSignal
test_wait_threads
_test_assert_sequence
chSemAddCounterI
chSchRescheduleS
_test_assert
ch
wa
threads
chSemWait
test_emit_token
chSemObjectInit
chThdSleep
chSemSignalI
chSemWaitTimeout
test_wait_tick
_test_assert_time_window
chSemSignalWait
chSemReset
