ARM GAS  /tmp/ccG7kTd2.s 			page 1


   1              		.syntax unified
   2              		.cpu cortex-m4
   3              		.eabi_attribute 27, 3
   4              		.eabi_attribute 28, 1
   5              		.fpu fpv4-sp-d16
   6              		.eabi_attribute 20, 1
   7              		.eabi_attribute 21, 1
   8              		.eabi_attribute 23, 3
   9              		.eabi_attribute 24, 1
  10              		.eabi_attribute 25, 1
  11              		.eabi_attribute 26, 1
  12              		.eabi_attribute 30, 2
  13              		.eabi_attribute 34, 1
  14              		.eabi_attribute 18, 4
  15              		.thumb
  16              		.file	"tmp275.c"
  17              		.section	.gnu.lto_.jmpfuncs.a43516a03084634,"",%progbits
  18 0000 789C7D8C 		.ascii	"x\234}\214\313\015\2000\014C\375)d\025Fb\205.\320\375"
  18      CB0D8030 
  18      0C43FD29 
  18      64154662 
  18      852ED0FD 
  19 0014 D88C408B 		.ascii	"\330\214@\213\004\010\221Cl\331/\021\204\257\331\206"
  19      04089143 
  19      6CD92F11 
  19      84AFD986 
  20 0024 06CC8882 		.ascii	"\006\314\210\202J\200p\256v\212Z\357\265\262\222\313"
  20      4A8070AE 
  20      768A5AEF 
  20      B5B292CB 
  21 0034 616D3D38 		.ascii	"am=8\240\330=\031\234t\231L&+1$6\350\027\313\333\321"
  21      A0D83D19 
  21      9C74994C 
  21      262B3124 
  21      36E817CB 
  22 004a FCF728FE 		.ascii	"\374\367(\376J\354\022{\015?"
  22      4AEC127B 
  22      0D3F
  23              		.text
  24              		.section	.gnu.lto_.inline.a43516a03084634,"",%progbits
  25 0000 789C8D8F 		.ascii	"x\234\215\217M\016\2020\020\205\337L\013S\004!\250\211"
  25      4D0E8230 
  25      1085DF4C 
  25      0B530421 
  25      A889
  26 0012 89317149 		.ascii	"\2111qI\334p\024\317\305\302\205G`\351\021<\006\307"
  26      DC7014CF 
  26      C5C28547 
  26      60E9113C 
  26      06C7
  27 0024 60C9119C 		.ascii	"`\311\021\234\001\312\312\205\323\264\363\367\315k\313"
  27      01CACA85 
  27      D3B4F3F7 
  27      CD6BCB
  28 0033 60FCB23B 		.ascii	"`\374\262;-^\200]F\014M]\277\2707\013\215\002\351\032"
  28      2D5E805D 
  28      460C4D5D 
ARM GAS  /tmp/ccG7kTd2.s 			page 2


  28      BFB8370B 
  28      8D02E91A 
  29 0047 CD47F10C 		.ascii	"\315G\361\014\3679{\013\303\\\010H\247\266\260a\312"
  29      F7397B0B 
  29      C35C0848 
  29      A7B6B061 
  29      CA
  30 0058 4F57221B 		.ascii	"OW\"\033\002\037\206'!\355o\363u\241V\345\327#.\025"
  30      021F8627 
  30      21ED6FF3 
  30      75A156E5 
  30      D7232E15 
  31 006c 855491D4 		.ascii	"\205T\221\324\0359\277\327\334\010\217\254\216}\036"
  31      1D39BFD7 
  31      DC088FAC 
  31      8E7D1E
  32 007b 2A84A9DD 		.ascii	"*\204\251\335\000g\002\011\312K\004\222\256Y^\247\346"
  32      00670209 
  32      CA4B0492 
  32      AE595EA7 
  32      E6
  33 008c 8A552129 		.ascii	"\212U!)W2E~$\246\371\177v\270MO\003o\325\015\225\377"
  33      5732457E 
  33      24A6F97F 
  33      76B84D4F 
  33      036FD50D 
  34 00a2 517C01B3 		.ascii	"Q|\001\263h!z"
  34      68217A
  35              		.text
  36              		.section	.gnu.lto_.pureconst.a43516a03084634,"",%progbits
  37 0000 789C6362 		.ascii	"x\234cb`b\340g\200\000v\006)F\011f\011\026)V)6)v)\000"
  37      6062E067 
  37      80007606 
  37      29460966 
  37      09162956 
  38 001a 07A500E7 		.ascii	"\007\245\000\347"
  39              		.text
  40              		.section	.gnu.lto_tmp275_readTemperature.part.0.a43516a03084634,"",%progbits
  41 0000 789C8D52 		.ascii	"x\234\215R\317K\033A\024~\337\314nv\223H\265\320\203"
  41      CF4B1B41 
  41      147EDFCC 
  41      6E769348 
  41      B5D083
  42 0013 140F92AB 		.ascii	"\024\017\222\253V\241(\375\007\372'D\260'\331\006\011"
  42      56A128FD 
  42      07FA2744 
  42      B027D906 
  42      09
  43 0024 7B084892 		.ascii	"{\010H\222*\364\342\244\333\202xq\361\324\037\240\015"
  43      2AF4E2A4 
  43      DB827871 
  43      F1D41FA0 
  43      0D
  44 0035 A2484084 		.ascii	"\242H@\204\336\274\365\250\007\005\017\236\024\011^"
  44      DEBCF5A8 
  44      07050F9E 
  44      14095E
ARM GAS  /tmp/ccG7kTd2.s 			page 3


  45 0044 2C14457A 		.ascii	",\024Ez-t}o\226$5'\007\366\275\231o\3367\337\367vF\221"
  45      2D747D6F 
  45      96243527 
  45      07F6BD99 
  45      6FDE37DF 
  46 005c A2FE31C6 		.ascii	"\242\3761\306\337\026\303\005\316p\011N|\302\023\007"
  46      DF16C305 
  46      CE70094E 
  46      7CC21307 
  47 006c CA66052D 		.ascii	"\312f\005-\271\341k@&\004Zv\224\306\362\033\010Y\025"
  47      B9E16B40 
  47      26045A76 
  47      94C6F21B 
  47      085915
  48 007f A8694CDC 		.ascii	"\250iL\334\376\264\2616l\2767b\363/I\020\202e\236\201"
  48      FEB4B136 
  48      6CBE3762 
  48      F32F4910 
  48      82659E81 
  49 0093 4AA0595E 		.ascii	"J\240Y^`\310&\325'\2352\177\236\337\034\302\254\233"
  49      60C826D5 
  49      279D327F 
  49      9EDF1CC2 
  49      AC9B
  50 00a5 C65D920C 		.ascii	"\306]\222\014\206\320\212Fz\304\321\224\350<$\356+\323"
  50      86D08A46 
  50      7AC4D194 
  50      E83C24EE 
  50      2BD3
  51 00b7 4E9283B9 		.ascii	"N\222\203\271'@E\224B8\232\203\353Hp9d2\202y2\363)@"
  51      27404594 
  51      42389A83 
  51      EB487039 
  51      64328279 
  52 00cf 1305CAF2 		.ascii	"\023\005\312\362\302\313I\3103I\254\273\364\221\345"
  52      C2CB49C8 
  52      3349ACBB 
  52      F491E5
  53 00de 47036C41 		.ascii	"G\003lA:/\331v\212\034\245\313\"\034\311z\006\312\346"
  53      3A2FD976 
  53      8A1CA5CB 
  53      221CC97A 
  53      06CAE6
  54 00f1 63FA70F1 		.ascii	"c\372p\361\371r\252\313iZN\200m\376a<\312P/h<\204?F"
  54      F972AACB 
  54      695A4E80 
  54      6DFE613C 
  54      CA502F68 
  55 0109 2DC36393 		.ascii	"-\303c\223]g\277\321\327\2061C!re@\372\310[\367o\221"
  55      5D67BFD1 
  55      D7863143 
  55      21726540 
  55      FAC85BF7 
  56 011f 762188FB 		.ascii	"v!\210\373_W,q\033\375\320\001v\030.C\363\231\002F{"
  56      5F572C71 
  56      1BFDD001 
  56      76182E43 
ARM GAS  /tmp/ccG7kTd2.s 			page 4


  56      F3990246 
  57 0134 5DC861D4 		.ascii	"]\310a\324\262\374\264\374wt\205\316\236\313\333\026"
  57      B2FCB4FC 
  57      777485CE 
  57      9ECBDB16 
  58 0144 BCB82B75 		.ascii	"\274\270+u\260\314\003O\177\037\353\011}\236z\"\036"
  58      B0CC034F 
  58      7F1FEB09 
  58      7D9E7A22 
  58      1E
  59 0155 9F693D1D 		.ascii	"\237i=\035D\357;\230o\265=[\273\033]\237\253\316F\226"
  59      44EF3B98 
  59      6FB53D5B 
  59      BB1B5D9F 
  59      ABCE4696 
  60 0169 F76CF16A 		.ascii	"\367l\361j\364\247{\002\313f\237\323\027\263b\342_\011"
  60      F4A77B02 
  60      CB669FD3 
  60      17B362E2 
  60      5F09
  61 017b BF1422B1 		.ascii	"\277\024\"\261f\332\255\263\026K{\251\344Q\354\245\365"
  61      66DAADB3 
  61      164B7BA9 
  61      E451ECA5 
  61      F5
  62 018c 5DB72C9C 		.ascii	"]\267,\234\027o\003\224\376\355\\jo\006\332\336\316"
  62      176F0394 
  62      FEED5C6A 
  62      6F06DADE 
  62      CE
  63 019d 293FCF9E 		.ascii	")?\317\236\351\"_/\243\362\332\236\276\256\206\213\363"
  63      E9225F2F 
  63      A3F2DA9E 
  63      BEAE868B 
  63      F3
  64 01ae D5DA64BD 		.ascii	"\325\332d\275\262\360\362\325\364D\211\274j\260T\234"
  64      B2F0F2D5 
  64      F44489BC 
  64      6AB0549C 
  65 01be AF2C646A 		.ascii	"\257,dj\365\240\376\256v\017\002\373\244\271"
  65      F5A0FEAE 
  65      760F02FB 
  65      A4B9
  66              		.text
  67              		.section	.gnu.lto_tmp275_init.a43516a03084634,"",%progbits
  68 0000 789C8D92 		.ascii	"x\234\215\222MhSA\020\307gv_^\336\313K\332\264\026\304"
  68      4D685341 
  68      10C76776 
  68      5F5EDECB 
  68      4BDAB416 
  69 0015 4B293D15 		.ascii	"K)=\025\264\265VK\241'A/\036\004\017\021Ro1\204\260"
  69      B4B5564B 
  69      A127412F 
  69      1E040F11 
  69      526F3184 
  70 002a 87446DDA 		.ascii	"\207Dm\332\036\354\241\233Vh\360 \241'\251\024,E\374"
  70      1EECA19B 
ARM GAS  /tmp/ccG7kTd2.s 			page 5


  70      5668F020 
  70      A127A914 
  70      2C45FC
  71 003d 402AE8A5 		.ascii	"@*\350\245P\012A\220\"X\255\267\336\314Q\360\342\325"
  71      500A4190 
  71      2258ADB7 
  71      DECC51F0 
  71      E2D5
  72 004f 22AEB3BB 		.ascii	"\"\256\263\273\357\325$\344\340\300\333\331d\346\377"
  72      EFD524E4 
  72      E0C0DBD9 
  72      64E6FF
  73 005e 9BD96118 		.ascii	"\233\331a\0300\350\2643\364\335\342\000\323\344\221"
  73      30E8B433 
  73      F4DDE200 
  73      D3E491
  74 006d 03B2FA67 		.ascii	"\003\262\372g\200\252\307\020\365\005\020\226\030.\315"
  74      80AAC710 
  74      F5051096 
  74      182ECD
  75 007c A04EE5C3 		.ascii	"\240N\345\303\260)\345Z\363\303\376\243\323\017\233"
  75      B029E55A 
  75      F3C3FEA3 
  75      D30F9B
  76 008b B22EFF28 		.ascii	"\262.\377(\205\002\011:\200\220G\310\322\017\364\214"
  76      8502093A 
  76      809047C8 
  76      D20FF48C 
  77 009b 63D85EC5 		.ascii	"c\330^\305*\345\366\213e\376T\376V\212\033\331PWY\011"
  77      2AE5F68B 
  77      65FE54FE 
  77      568A1BD9 
  77      50575909 
  78 00af DB758D7A 		.ascii	"\333u\215zc\367\273G\352\352O\245z\005r\006\347\376"
  78      63F7BB47 
  78      EAEA4FA5 
  78      7A057206 
  78      E7FE
  79 00c1 09B35618 		.ascii	"\011\263V\030\264\327{\303\032M\245>m\035\016\2449\344"
  79      B4D77BC3 
  79      1A4DA53E 
  79      6D1D0EA4 
  79      39E4
  80 00d3 701387C1 		.ascii	"p\023\207\301!\277E\336\005\201\216\207%D\237n\261\004"
  80      21BF45DE 
  80      05818E87 
  80      25449F6E 
  80      B104
  81 00e5 1D6E4047 		.ascii	"\035n@G<I\377\261\024\0354\015\210\301\003)\353C9|F"
  81      3C49FFB1 
  81      141D340D 
  81      88C10329 
  81      EB43397C 
  82 00fa 12D0D5C8 		.ascii	"\022\320\325\3102t\352\251\334D\246=?\200\345\275\235"
  82      3274EAA9 
  82      DC44A63D 
  82      3F80E5BD 
ARM GAS  /tmp/ccG7kTd2.s 			page 6


  82      9D
  83 010b D5540E9F 		.ascii	"\325T\016\237c\014l\352 \\\330\220\217/\013\003\241"
  83      630C6CEA 
  83      205CD890 
  83      8F2F0B03 
  83      A1
  84 011c F8C7A3FD 		.ascii	"\370\307\243\375\036\033/\"\177\002\353U)\323\002\275"
  84      1E1B2F22 
  84      7F02EB55 
  84      29D302BD 
  85 012c 45389635 		.ascii	"E8\2265}\363\355k\365\033\374\260\367\003X\251\361H"
  85      7DF3ED6B 
  85      F51BFCB0 
  85      F70358A9 
  85      F148
  86 013e E3904C07 		.ascii	"\343\220L\007=\264\274k6\360?$\022w\300\334\020\346"
  86      3DB4BC6B 
  86      36F03F24 
  86      1277C0DC 
  86      10E6
  87 0150 8CB7C146 		.ascii	"\214\267\301F\341\265$\273H\001\373\010\235\223\210"
  87      E1B524BB 
  87      4801FB08 
  87      9D9388
  88 015f 47B3249D 		.ascii	"G\263$\235\311>^QG,B\371\213p\237\246w\026^i\351=\201"
  88      C93E5E51 
  88      472C42F9 
  88      8B709FA6 
  88      77165E69 
  89 0176 01B544B2 		.ascii	"\001\265D\262d\021=-O\031\351\355\32650\210\267'\315"
  89      64113D2D 
  89      4F19E9ED 
  89      D6353088 
  89      B727CD
  90 0189 240CC10D 		.ascii	"$\014\301\015\011\337H\323\323\035\201\035\210\355d"
  90      09DF48D3 
  90      D31D811D 
  90      88ED64
  91 0198 84080C22 		.ascii	"\204\010\014\"\036\"6\\\201\275\335\021-k\377\005\326"
  91      1E22365C 
  91      81BDDD11 
  91      2D6BFF05 
  91      D6
  92 01a9 E54ECC12 		.ascii	"\345N\314\022\000N\246\227\316\207u\350iE\255OQ\207"
  92      004EA697 
  92      CE8775E8 
  92      6945AD4F 
  92      5187
  93 01bb 544153FA 		.ascii	"TAS\372FL\036\331/*\321og\024\022\004\236\322m\275\377"
  93      464C1ED9 
  93      2F2AD16F 
  93      67141204 
  93      9ED26DBD 
  94 01d0 C15AB7E0 		.ascii	"\301Z\267\340\022\274\2235\264K\360\025\252\315\227"
  94      12BC9335 
  94      B44BF015 
  94      AACD97
ARM GAS  /tmp/ccG7kTd2.s 			page 7


  95 01df 2C2A682D 		.ascii	",*h-C\305h\201t[}Wg\305Ba\266r~\256twbjr,\017A\245P"
  95      43C56881 
  95      745B7D57 
  95      67C54261 
  95      B6727EAE 
  96 01fd AE5CB933 		.ascii	"\256\\\2713_\236\033\033o\271O8\345\\\251\340g\256\337"
  96      5F9E1B1B 
  96      6FB94F38 
  96      E55CA9E0 
  96      67AEDF
  97 0210 A0B4D12C 		.ascii	"\240\264\321,\374\005\275\315\314\342"
  97      FC05BDCD 
  97      CCE2
  98              		.text
  99              		.section	.gnu.lto_tmp275_stop.a43516a03084634,"",%progbits
 100 0000 789C6362 		.ascii	"x\234cb`b@\007\222@|\031\210\205\201\230\221\231\201"
 100      60624007 
 100      92407C19 
 100      88858198 
 100      919981
 101 0013 9169C239 		.ascii	"\221i\3029\006\206F\016&FF\020\203\201\221\241\236\211"
 101      0686460E 
 101      26464610 
 101      838191A1 
 101      9E89
 102 0025 B13E9211 		.ascii	"\261>\222\021\254v=\323\201\007\377\377\257\373\322"
 102      AC763DD3 
 102      8107FFFF 
 102      AFFBD2
 103 0034 F288999D 		.ascii	"\362\210\231\235\2211\227\021h\\&#\003\013\220\305\310"
 103      91319711 
 103      685C2623 
 103      030B90C5 
 103      C8
 104 0045 06648114 		.ascii	"\006d\201\024\2612\26444LP``H\006k\011\001\222 sB\031"
 104      B132B434 
 104      344C5060 
 104      6048066B 
 104      09019220 
 105 005c 994034F3 		.ascii	"\231@4\363Y\206\246_\315\357/2'2.ddeHgd\252f\250\002"
 105      5986A65F 
 105      CDEF2F32 
 105      27322E64 
 105      64654867 
 106 0075 1AA1CDB0 		.ascii	"\032\241\315\260\252\001\010\3523\031\231f3\314b\314"
 106      AA0108EA 
 106      33199966 
 106      33CC62CC 
 107 0085 64644E67 		.ascii	"ddNgd\214\000\322,`{\223\030\221\034|\236\241\365\000"
 107      648C00D2 
 107      2C607B93 
 107      18911C7C 
 107      9EA1F500 
 108 0099 2B4C3F5B 		.ascii	"+L?[5\303\257\206\216\006\201LF\326dF\210*\240\241\351"
 108      35C3AF86 
 108      8E06814C 
 108      46D66446 
ARM GAS  /tmp/ccG7kTd2.s 			page 8


 108      882AA0A1 
 109 00ae 8C2C9940 		.ascii	"\214,\231@\0271\\d`\204+\204h\016\001*\002\272\003\024"
 109      17315C64 
 109      60842B84 
 109      680E012A 
 109      02BA0314 
 110 00c2 0C822E45 		.ascii	"\014\202.E\231e\251E\305\372%\271\005F\346\246z\311"
 110      9965A945 
 110      C5FA25B9 
 110      0546E6A6 
 110      7AC9
 111 00d4 0C00333A 		.ascii	"\014\0003:5\207"
 111      3587
 112              		.text
 113              		.section	.gnu.lto_tmp275_writeConfig.a43516a03084634,"",%progbits
 114 0000 789CA591 		.ascii	"x\234\245\221\261KC1\020\306\277\357^\337\263\243\342"
 114      B14B4331 
 114      10C6BFEF 
 114      5EDFB3A3 
 114      E2
 115 0011 206EEE52 		.ascii	" n\356REA\034\\\375\023Z\320Q\037\362\310P\220\266t"
 115      45411C5C 
 115      FD135AD0 
 115      511FF2C8 
 115      5090B674 
 116 0025 B04353AB 		.ascii	"\260CS\253\342Xq\253\223\253\210\256\216\235\025\025"
 116      E25871AB 
 116      93AB88AE 
 116      8E9D1515 
 117 0035 B7EA54F0 		.ascii	"\267\352T\360\237\220.\355%i;\210\233\007\271K\362]"
 117      9F902EED 
 117      25693B88 
 117      9B07B94B 
 117      F25D
 118 0047 7EC95D04 		.ascii	"~\311]\004\202\337\266\254\243M`Q##P:o@+/\244\233\200"
 118      82DFB6AC 
 118      A34D6051 
 118      2323503A 
 118      6F402B2F 
 119 005e 680A9BFB 		.ascii	"h\012\233\373\364\271\217\322\033\214F\017\335\363\347"
 119      F4B98FD2 
 119      1B8C460F 
 119      DDF3E7
 120 006d 5813CA44 		.ascii	"X\023\312DN\035\023\030/\3078\263\266\263\002\244~Y"
 120      4E1D1318 
 120      2FC738B3 
 120      B6B302A4 
 120      7E59
 121 007f 54EF1025 		.ascii	"T\357\020%\212\213\321+N\237\372\327K\007\274e\214\002"
 121      8A8BD12B 
 121      4E9FFAD7 
 121      4B07BC65 
 121      8C02
 122 0091 EEAD5AC9 		.ascii	"\356\255Z\311\220\253\270s\323\015C\271A\227\206QF\331"
 122      90ABB873 
 122      D30D43B9 
 122      41978651 
ARM GAS  /tmp/ccG7kTd2.s 			page 9


 122      46D9
 123 00a3 D398F377 		.ascii	"\323\230\363w\036\206\253\341v\342\331\253\335\212N"
 123      1E86ABE1 
 123      76E2D9AB 
 123      DD8A4E
 124 00b2 51EACBCF 		.ascii	"Q\352\313\317?\251\234R3\247*q\330\376\376\212\0022"
 124      3FA99C52 
 124      33A72A71 
 124      D8FEFE8A 
 124      0232
 125 00c4 63D2C089 		.ascii	"c\322\300\211\0268\001^\351\201\344o\342\014\003\274"
 125      1638015E 
 125      E981E46F 
 125      E20C03BC 
 126 00d4 E3A2B713 		.ascii	"\343\242\267\023\000@\003C{i\347\015\347\322I\216B}"
 126      00400343 
 126      7B69E70D 
 126      E7D2498E 
 126      427D
 127 00e6 0112EA80 		.ascii	"\001\022\352\20060\017|\2405\370\224\351\251`EU\265"
 127      36300F7C 
 127      A035F894 
 127      E9A96045 
 127      55B5
 128 00f8 79EEDB16 		.ascii	"y\356\333\026v+\246~T\251\256\327\312\307\233\333[k"
 128      762BA67E 
 128      54A9AED7 
 128      CAC79BDB 
 128      5B6B
 129 010a 29C6FDD7 		.ascii	")\306\375\327W\321"
 129      57D1
 130              		.text
 131              		.section	.gnu.lto_tmp275_readTemperature.a43516a03084634,"",%progbits
 132 0000 789C6D90 		.ascii	"x\234m\220\315+DQ\030\306\237\347\3343c\346\032\242"
 132      CD2B4451 
 132      18C69FE7 
 132      DC3363E6 
 132      1AA2
 133 0012 9410C956 		.ascii	"\224\020\311VL\243dg\345O0\305rL\232\356B\311\014\013"
 133      4CA36467 
 133      E54F30C5 
 133      724C9AEE 
 133      42C90C0B 
 134 0026 168ECF6C 		.ascii	"\026\216\317l\324\254\307\306$\033\221%\013e\224\205"
 134      D4ACC7C6 
 134      241B9125 
 134      0B659485 
 135 0036 0D439485 		.ascii	"\015C\224\205\324\354\374\013\242\214\367\334;\306G"
 135      D4ECFC0B 
 135      A28CF7DC 
 135      3BC647
 136 0045 DEBAF73D 		.ascii	"\336\272\367=\347\375\370\275\317y\025\024\376ZB\276"
 136      E7FDF8BD 
 136      CF791514 
 136      FE5A42BE 
 137 0055 47029DE2 		.ascii	"G\002\235\342\031\002U\376\006X\211(\345<\304a\\}\326"
 137      190255FE 
ARM GAS  /tmp/ccG7kTd2.s 			page 10


 137      06588928 
 137      E53CC461 
 137      5C7DD6
 138 0068 031373A8 		.ascii	"\003\023s\250m\230\232\264\036\304\262r4\227'i\021\354"
 138      6D989AB4 
 138      1EC4B272 
 138      34972769 
 138      11EC
 139 007a 43D1987C 		.ascii	"C\321\230|e\377i\273\303\354\256\346\315G\265J\2172"
 139      65FF69BB 
 139      C3ECAEE6 
 139      CD47B54A 
 139      8F32
 140 008c AC8D4813 		.ascii	"\254\215H\023\023ra\257\357\224\376=\375X\225*\325\352"
 140      137261AF 
 140      EF94FE3D 
 140      FD58952A 
 140      D5EA
 141 009e E1D1EDA8 		.ascii	"\341\321\355\250\2538Chxt\302H\261(\320\250D\354\200"
 141      AB384368 
 141      7874C248 
 141      B128D0A8 
 141      44EC80
 142 00b1 10D605DF 		.ascii	"\020\326\005\337\033\004a\211b\343\362\267Z\222T\326"
 142      1B046189 
 142      62E3F2B7 
 142      5A9254D6 
 143 00c1 3BD7583D 		.ascii	";\327X=}-\264\247\270'\257\030\300\241\021Kz\324\375"
 143      7D2DB4A7 
 143      B827AF18 
 143      C0A1114B 
 143      7AD4FD
 144 00d4 38B0C784 		.ascii	"8\260\307\204\307\320\016\012\"!\234\241\262R\032|\001"
 144      C7D00E0A 
 144      22219CA1 
 144      B2521A7C 
 144      01
 145 00e5 530C84D8 		.ascii	"S\014\204\330H\244.\313\336|\245B}[;\271\017\005\330"
 145      48A42ECB 
 145      DE7CA542 
 145      7D5B3BB9 
 145      0F05D8
 146 00f8 0CF51216 		.ascii	"\014\365\022\026Ea\015z.e\321\377\251\374~c\031\233"
 146      45610D7A 
 146      2E65D1FF 
 146      A9FC7E63 
 146      199B
 147 010a A5AE2F40 		.ascii	"\245\256/@x\011of\313\264xt\323\265\"\241\372\363\202"
 147      78096F66 
 147      CBB47874 
 147      D3B522A1 
 147      FAF382
 148 011d 4569252B 		.ascii	"Ei%+h\004\256p\371r\361\334]\357\263\271\330\317\325"
 148      6804AE70 
 148      F972F1DC 
 148      5DEFB3B9 
 148      D8CFD5
ARM GAS  /tmp/ccG7kTd2.s 			page 11


 149 0130 25E9E021 		.ascii	"%\351\340!\356\224\261\021\011\212\200:\273)MUc\253"
 149      EE94B111 
 149      098A803A 
 149      BB294D55 
 149      63AB
 150 0142 0CA31E9B 		.ascii	"\014\243\036\233\277z\264\277\254;\254T\336\335:;H\216"
 150      BF7AB4BF 
 150      AC3BAC54 
 150      DEDD3A3B 
 150      488E
 151 0154 8B1E49DA 		.ascii	"\213\036I\332\306\326\2619oaz.\033\317\315\314\016\215"
 151      C6D6B139 
 151      6F617A2E 
 151      1BCFCDCC 
 151      0E8D
 152 0166 0C0FA611 		.ascii	"\014\017\246\021\316\346R\271\371\354'^\221qN"
 152      CEE652B9 
 152      F9EC275E 
 152      91714E
 153              		.text
 154              		.section	.gnu.lto_tmp275_writeTHigh.a43516a03084634,"",%progbits
 155 0000 789CAD92 		.ascii	"x\234\255\222=K\003A\020\206\337w\317\365\356<\013\305"
 155      3D4B0341 
 155      1086DF77 
 155      CFF5EE3C 
 155      0BC5
 156 0012 CACE5E54 		.ascii	"\312\316^T\024D\355\255\254\023\320R\0179\256\010H\024"
 156      1444EDAD 
 156      AC13D052 
 156      0F39AE08 
 156      4814
 157 0024 0B53E4F4 		.ascii	"\013S\344\364D,R\244\216\202\332\212\304\237`*\301\""
 157      442C52A4 
 157      8E82DA8A 
 157      C49F602A 
 157      C122
 158 0036 7E749682 		.ascii	"~t\226\202\205\205\340\017H\023g\367r'\210\245\013;"
 158      8585E00F 
 158      481367F7 
 158      722788A5 
 158      0B3B
 159 0048 3BBB3BEF 		.ascii	";\273;\3573\263\037\012\012\277\333\244\364W\002\023"
 159      33B31F0A 
 159      0ABFDBA4 
 159      F4570213 
 160 0058 32D20155 		.ascii	"2\322\001U\363\0218\364\024i\034\020u\305\372\006m\354"
 160      F31138F4 
 160      14691C10 
 160      75C5FA06 
 160      6DEC
 161 006a ADEABCF5 		.ascii	"\255\352\274\365\373\355\363\373\313\0269JV(\300\230"
 161      FBEDF3FB 
 161      CB16394A 
 161      5628C098 
 162 007a 70C450CB 		.ascii	"p\304P\313\224\256\361|1*\020\343\210F\3438I\232S@h"
 162      94AEF17C 
 162      312A10E3 
ARM GAS  /tmp/ccG7kTd2.s 			page 12


 162      8846E338 
 162      499A5340 
 163 008f 1925B106 		.ascii	"\031%\261\006\\\2462\243\323E\332N\357\032\313\233\274"
 163      5CA632A3 
 163      D345DA4E 
 163      EF1ACB9B 
 163      BC
 164 00a0 A2464415 		.ascii	"\242FD\025\221\353\2149\344Ip\027G_N\276\343\310\246"
 164      91EB8C39 
 164      E4497017 
 164      475F4EBE 
 164      E3C8A6
 165 00b3 5D7A780E 		.ascii	"]zx\016\262\265\031\334$\322\3121\3654\256\215;\037"
 165      B2B519DC 
 165      24D2CA31 
 165      F534AE8D 
 165      3B1F
 166 00c5 73F80C2D 		.ascii	"s\370\014-\321\273\021\265\341x\266\360\255\254~Xrq"
 166      D1BB11B5 
 166      E178B6F0 
 166      ADAC7E58 
 166      7271
 167 00d7 F4C81428 		.ascii	"\364\310\024(\300\317\364\275\261\222\247\021!\377%"
 167      C0CFF4BD 
 167      B192A711 
 167      21FF25
 168 00e6 0D7FD2B8 		.ascii	"\015\177\322\270\026\330K?\032ky\032\277\206\003\271"
 168      16D84B3F 
 168      1A6B791A 
 168      BF8603B9 
 169 00f6 A501F042 		.ascii	"\245\001\360B\004\376\337\304\002\003<\341\244\243s"
 169      04FEDFC4 
 169      02033CE1 
 169      A4A373
 170 0105 4050432F 		.ascii	"@PC/9M\306b\216\204\203 \241\032\245V\266\000\015y\201"
 170      394DC662 
 170      8E848320 
 170      A11AA556 
 170      B6000D79 
 171 011a 0078010B 		.ascii	"\000x\001\013M\306)I\274\334\275\371\013\343\253\325"
 171      4DC62949 
 171      BCDCBDF9 
 171      0BE3ABD5 
 172 012a 787FBBBA 		.ascii	"x\177\273\272;\267W\331YXZ\234\015\361\015\242\374h"
 172      3BB757D9 
 172      59585A9C 
 172      0DF10DA2 
 172      FC68
 173 013c C8       		.ascii	"\310"
 174              		.text
 175              		.section	.gnu.lto_tmp275_writeTLow.a43516a03084634,"",%progbits
 176 0000 789CAD92 		.ascii	"x\234\255\222\277K\303@\024\307\277\337\213g\022\343"
 176      BF4BC340 
 176      14C7BFDF 
 176      8B6712E3 
 177 0010 A038B9B9 		.ascii	"\2408\271\271\213\212\202\350\037\340\344\334\202\216"
 177      8B8A82E8 
ARM GAS  /tmp/ccG7kTd2.s 			page 13


 177      1FE0E4DC 
 177      828E
 178 001e 1A246428 		.ascii	"\032$d(H\025\007;4\032\021\227Bg\035\324U\244\035\034"
 178      4815073B 
 178      341A1197 
 178      42671DD4 
 178      55A41D1C 
 179 0032 1C5C3A09 		.ascii	"\034\\:\011\016\365\307\"\216\356\202\177@\227\372\356"
 179      0EF5C722 
 179      8EEE827F 
 179      4097FAEE 
 180 0042 D2A4208E 		.ascii	"\322\244 \216\036\344\335\313\335\373~\3367wQP\370="
 180      1EE4DDCB 
 180      DDFB7EDE 
 180      37775150 
 180      F83D
 181 0054 A6E5F920 		.ascii	"\246\345\371 0%3\035P5\237\201#O\221&\001QW\254o\322"
 181      3025331D 
 181      50359F81 
 181      234F9126 
 181      015157AC 
 182 006a D6B655E7 		.ascii	"\326\266U\347\263\337o\275?^\265\311q\262B\001\306\204"
 182      B3DF6FBD 
 182      3F5EB5C9 
 182      71B24201 
 182      C684
 183 007c 23815A5E 		.ascii	"#\201Z^\351\232\314\227\240\002\011\216h4N\222\2449"
 183      E99ACC97 
 183      A002098E 
 183      68344E92 
 183      A439
 184 008e 03849651 		.ascii	"\003\204\226Q\222h\300e*3;]\244\255\364\256\261\272"
 184      9268C065 
 184      2A333B5D 
 184      A4ADF4AE 
 184      B1BA
 185 00a0 C56B6A44 		.ascii	"\305kjDT\021\271\301\230#\236\024wq\374\355\344;\216"
 185      5411B9C1 
 185      98239E14 
 185      7771FCED 
 185      E43B8E
 186 00b3 6CDAA5A7 		.ascii	"l\332\245\247\327 [\233\303m\"\243\034S\317\342\306"
 186      D7205B9B 
 186      C36D22A3 
 186      1C53CFE2 
 186      C6
 187 00c4 A48B3147 		.ascii	"\244\2131G/p.z7\2426\034\317\032\337\316\374\303\222"
 187      2F702E7A 
 187      37A2361C 
 187      CF1ADFCE 
 187      FCC392
 188 00d7 8B4F8F8C 		.ascii	"\213O\217\214A\001~\245\367C\003\"\344\277\264\341\260"
 188      41017EA5 
 188      F7430322 
 188      E4BFB4E1 
 188      B0
 189 00e8 8D6B81BD 		.ascii	"\215k\201\275\364\241\261\236\267\361k8\224S\032\000"
ARM GAS  /tmp/ccG7kTd2.s 			page 14


 189      F4A1B19E 
 189      B7F16B38 
 189      94531A00 
 190 00f8 2F45E0FF 		.ascii	"/E\340\377M,0\300\013N;:\007\0045\364\222\263d\"\346"
 190      4D2C30C0 
 190      0B4E3B3A 
 190      070435F4 
 190      92B36422 
 191 010d 58382812 		.ascii	"X8(\022\252Qje\015h\310\015\004\300\033Xh2NI\352\345"
 191      AA516A65 
 191      0D68C80D 
 191      04C01B58 
 191      68324E49 
 192 0123 ECCDBF30 		.ascii	"\354\315\2770\271V\215\017v\252{\013\373\225\335\245"
 192      B9568D0F 
 192      76AA7B0B 
 192      FB95DDA5 
 193 0133 95E5F910 		.ascii	"\225\345\371\020?\333{h\265"
 193      3FDB7B68 
 193      B5
 194              		.text
 195              		.section	.gnu.lto_.symbol_nodes.a43516a03084634,"",%progbits
 196 0000 789C4DC8 		.ascii	"x\234M\310\273\021\202P\024\204\341={x7a\251\213\250"
 196      BB118250 
 196      1484E13D 
 196      7B783761 
 196      A98BA8
 197 0013 78CD6C40 		.ascii	"x\315l@\023\"\3530'\262\000\034SkPQ\030/\233\374\363"
 197      1322EB30 
 197      27B2001C 
 197      536B5051 
 197      182F9BFC 
 198 0028 2D41DC30 		.ascii	"-A\3340\217\007\0128\366\200t\012\306\232\262\231\347"
 198      8F070A38 
 198      F680740A 
 198      C69AB299 
 198      E7
 199 0039 60E9DB90 		.ascii	"`\351\333\220\310\271\246\030_6\224/\270\241\222\005"
 199      C8B9A618 
 199      5F36942F 
 199      B8A19205 
 200 0049 B754BAE0 		.ascii	"\267T\272\340\216\312\"\255\245\362\211um\266\247\212"
 200      8ECA22AD 
 200      A5F28975 
 200      6DB6A78A 
 201 0059 A840957F 		.ascii	"\250@\225\177\271\025\350\332\347\312\275D7\274\314"
 201      B915E8DA 
 201      E7CABD44 
 201      37BCCC
 202 0068 930A8F6F 		.ascii	"\223\012\217o\323\012\327_\201\346\322\233g\243\357"
 202      D30AD75F 
 202      81E6D29B 
 202      67A3EF
 203 0077 A3F3A9F8 		.ascii	"\243\363\251\370\000Z\301?\316"
 203      005AC13F 
 203      CE
 204              		.text
ARM GAS  /tmp/ccG7kTd2.s 			page 15


 205              		.section	.gnu.lto_.refs.a43516a03084634,"",%progbits
 206 0000 789C6362 		.ascii	"x\234cb`b`g\200\000&F bb\000\000\000\347\000\024"
 206      60626067 
 206      80002646 
 206      20626200 
 206      0000E700 
 207              		.text
 208              		.section	.gnu.lto_.decls.a43516a03084634,"",%progbits
 209 0000 789CBD5C 		.ascii	"x\234\275\\{t\024U\232\257\252\356<\232\304\020pt\321"
 209      7B741455 
 209      9AAFAAEE 
 209      3C9AC410 
 209      7074D1
 210 0013 71D69E75 		.ascii	"q\326\236u\306\3038J\036\240\342\272\243`\202C\316\360"
 210      C6C3384A 
 210      1EA0E2BA 
 210      A3608243 
 210      CEF0
 211 0025 70933007 		.ascii	"p\2230\007g\216\247-\223\012\3515I\307\352\012\204?"
 211      678EA72D 
 211      930AE935 
 211      49C7EA0A 
 211      843F
 212 0037 76A74824 		.ascii	"v\247H$*\010\304\000\022\020B\034\001\361\305\210\200"
 212      2A08C400 
 212      1210421C 
 212      01F1C588 
 212      80
 213 0048 120F4AE3 		.ascii	"\022\017J\343\213\010\310C\004I\360\321\316\012\202"
 213      8B08C843 
 213      0449F0D1 
 213      CE0A82
 214 0057 A82B4844 		.ascii	"\250+HD\014$\373\335\357Vu\337\252TuWe\334\255\303\275"
 214      0C24FBDD 
 214      EF5675DF 
 214      AA547557 
 214      65DCADC3 
 215 006c 75EBF6BD 		.ascii	"u\353\366\275\277\357q\277\357\276\203\300\011\334D"
 215      BFEF71BF 
 215      EFBE83C0 
 215      09DC44
 216 007b 0FC7F5C3 		.ascii	"\017\307\365\303\363\247?p\3347\351\034\007\377\270"
 216      F3A73F70 
 216      DC37E91C 
 216      07FFB8
 217 008a DB204036 		.ascii	"\333 @6\367$\2044\010[8\372\014\201p\245\300qc \214"
 217      F7248434 
 217      085B38FA 
 217      0C8170A5 
 217      C0716320 
 218 009f 833009C2 		.ascii	"\2030\011\3024\010\367@\250\202\360\000\204\377\204"
 218      3408F740 
 218      A882F000 
 218      84FF84
 219 00ae D0008187 		.ascii	"\320\000\201\207\262\017\013\234\341!u/\201\267\010"
 219      B20F0B9C 
 219      E121752F 
ARM GAS  /tmp/ccG7kTd2.s 			page 16


 219      81B708
 220 00bd EF2C7867 		.ascii	"\357,xgBh\340iY/\004R|\224F\357:\370\370g\010\277\200"
 220      4268E069 
 220      592F0452 
 220      7C9446EF 
 220      3AF8F867 
 221 00d4 701347CB 		.ascii	"p\023G\313\374F\303%8\244l\016Dy&\032\204\267\237i\345"
 221      FC46C325 
 221      38A46C0E 
 221      4479261A 
 221      84B79F69 
 222 00e9 751AC309 		.ascii	"u\032\303\011\177\220\241\300{\036\204\371\002\245q"
 222      7F90A1C0 
 222      7B1E84F9 
 222      02A571
 223 00f8 B940E912 		.ascii	"\271@\351\0229uZ\327\012\224\366\243\002\225}\001\274"
 223      39755AD7 
 223      0A94F6A3 
 223      02957D01 
 223      BC
 224 0109 6581EAE3 		.ascii	"e\201\352\343\032x\377Z\240|\010\032\255\0074\014\""
 224      1A78FF5A 
 224      A07C081A 
 224      AD07340C 
 224      22
 225 011a EBBF42B8 		.ascii	"\353\277B\270\025\302\357L<\215\323\260\010}\"/Ko!\204"
 225      15C2EF4C 
 225      3C8DD3B0 
 225      087D222F 
 225      4B6F2184 
 226 012e FFD2E4BA 		.ascii	"\377\322\344\272F\303\035\247\351\221\244'BTd\302#z"
 226      46C31DA7 
 226      E991A427 
 226      425464C2 
 226      237A
 227 0140 F7697844 		.ascii	"\367ixD\216k\031]\351\362,\202t\243\206Ax\326\261'i"
 227      8E6B195D 
 227      E9F22C82 
 227      74A38641 
 227      78D6B127 
 228 0155 ED43D2FF 		.ascii	"\355C\322\377\016Q\261\011\233\264\347P\255]t\3759\241"
 228      0E51B109 
 228      9BB4E750 
 228      AD5D74FD 
 228      39A1
 229 0167 930AE966 		.ascii	"\223\012\351fx\377\334D\323\243a\022\232z\273\375\011"
 229      78FFDC44 
 229      D3A36112 
 229      9A7ABBFD 
 229      09
 230 0178 A23F9BE8 		.ascii	"\242?\233\350\022\033\312\324l\200gt\345\345\006\322"
 230      121BCAD4 
 230      6C806774 
 230      E5E506D2 
 231 0188 4E24DF3D 		.ascii	"N$\337=\214|A\210*Mt\252~\":U\014\235\020D5&:\303\271"
 231      8C7C4188 
 231      2A4D74AA 
ARM GAS  /tmp/ccG7kTd2.s 			page 17


 231      7E223A55 
 231      0C9D1044 
 232 01a1 C75478FC 		.ascii	"\307Tx\374\235\240\304\351\274\310g\3718U\300T\246\217"
 232      9DA0C4E9 
 232      BCC867F9 
 232      3855C054 
 232      A68F
 233 01b3 F313306E 		.ascii	"\363\0230n\215\2526G\347.\342\375\"\377$?\034\220F\360"
 233      8DAA3647 
 233      E72EE2FD 
 233      22FF243F 
 233      1C9046F0 
 234 01c7 DC75DC33 		.ascii	"\334u\3343P\253YU\033.\345\006>IA\301\267\370\265\200"
 234      50AB5955 
 234      1B2EE506 
 234      3E4941C1 
 234      B7F8B580 
 235 01db 25F26BF8 		.ascii	"%\362k\370\353(\0115r\250\334Os9-\337\342\371%\327\016"
 235      EB280935 
 235      72A8DC4F 
 235      73392DDF 
 235      E2F925D7 
 236 01f0 34235D9B 		.ascii	"4#]\233;x\265)3\215k\202/5:\267aDk\234T\272N\211\217"
 236      3B78B529 
 236      338D6B82 
 236      2F353AB7 
 236      61446B9C 
 237 0209 B11F3990 		.ascii	"\261\0379\220.\210\374z>\015\270\377-o\200w\200A\370"
 237      2E88FC7A 
 237      3E0DB8FF 
 237      2D6F8077 
 237      8041F8
 238 021c 790EEA1A 		.ascii	"y\016\352\032\270\355\360\01247\001\267\036\0165\177"
 238      B8EDF00A 
 238      343701B7 
 238      1E0E357F 
 239 022c 2B8F685E 		.ascii	"+\217h^_<\2530\226\3053\005\213b\271z+\221O\336\027"
 239      5F3CAB30 
 239      96C53305 
 239      8B62B97A 
 239      2B914FDE 
 240 0241 4FF4F306 		.ascii	"O\364\363\006\002,_\"\377<\377k\210_\340=\226\325\004"
 240      022C5F22 
 240      FF3CFF6B 
 240      885FE03D 
 240      96D504
 241 0254 6E0AAFA9 		.ascii	"n\012\257\251\335JH-\031'\233\245\177\350J?zv+Q\272"
 241      DD4A482D 
 241      19279BA5 
 241      7FE84A3F 
 241      7A762B51 
 242 0269 8F7B1815 		.ascii	"\217{\030\025\266VM\242\364hW\323\013\277U\325t\221"
 242      B6564DA2 
 242      F46857D3 
 242      0BBF55D5 
 242      7491
 243 027b DFC21389 		.ascii	"\337\302\023\211f\033\025\357\034g\361\274\266\261\210"
ARM GAS  /tmp/ccG7kTd2.s 			page 18


 243      661B15EF 
 243      1C67F1BC 
 243      B6B188
 244 028a B315715E 		.ascii	"\263\025q^\346\215@\232\250\214R\340[/\220T\201I\312"
 244      E68D409A 
 244      A88C52E0 
 244      5B2F9054 
 244      8149CA
 245 029d 0A5C8477 		.ascii	"\012\\\204w\253\266tVm\321\267\347/\271Bm\177\203\317"
 245      ABB67456 
 245      6DD1B7E7 
 245      2FB9426D 
 245      7F83CF
 246 02b0 E0E61179 		.ascii	"\340\346\021y\333\233\324\211\235Y\026\036\022\361\350"
 246      DB9BD489 
 246      9D59161E 
 246      12F1E8
 247 02bf 6063E3A2 		.ascii	"`c\343\242o\334{h\035\337\250\252\360\303\353\350{\013"
 247      6FDC7B68 
 247      1DDFA8AA 
 247      F0C3EBE8 
 247      7B0B
 248 02d1 04A3F049 		.ascii	"\004\243\360I\201D>\302\013\020\3570\273\333\351\025"
 248      81443EC2 
 248      0B10EF30 
 248      BBDBE915 
 249 02e1 99AA97E6 		.ascii	"\231\252\227\346'w\270\363\335m\377\244F#\274c\217\213"
 249      2777B8F3 
 249      DD6DFFA4 
 249      4623BC63 
 249      8F8B
 250 02f3 7EFAFE87 		.ascii	"~\372\376\207y\330ho\241\327\355\022\006\345v;\315n"
 250      79D8686F 
 250      A1D7ED12 
 250      06E5763B 
 250      CD6E
 251 0305 77A06928 		.ascii	"w\240i(\341z\247#\307;$\014\364\274\250`\351z'\005\243"
 251      E17AA723 
 251      C73B240C 
 251      F4BCA860 
 251      E97A2705 
 252 031a EF69D9DF 		.ascii	"\357i\331\337\305\263=L\366\034O,\333\313d/\212g\247"
 252      C5B33D4C 
 252      F61C4F2C 
 252      DBCB642F 
 252      8A67A7
 253 032d 302691D0 		.ascii	"0&\221\320\376v2\016\334\211\016\374\256\215\003\213"
 253      FE76320E 
 253      DC890EFC 
 253      AE8D038B 
 254 033d FCA6584B 		.ascii	"\374\246XK\016\312\203\243\033\027~~\234_\334\250v\346"
 254      0ECA83A3 
 254      1B177E7E 
 254      9C5FDCA8 
 254      76E6
 255 034f 5A192314 		.ascii	"Z\031#\024\341\0313\272W\007\314\2145j\344\265n\336"
 255      E11933BA 
ARM GAS  /tmp/ccG7kTd2.s 			page 19


 255      5707CC8C 
 255      356AE4B5 
 255      6EDE
 256 0361 6F617186 		.ascii	"oaq\206\242\"\177\004\304HV\212\224\3536\233\344\252"
 256      A2227F04 
 256      C448568A 
 256      94EB369B 
 256      E4AA
 257 0373 6E34C96E 		.ascii	"n4\311nG&\271\261{\251;\223\214\234\376\220\214a\037"
 257      4726B9B1 
 257      7BA93B93 
 257      8C9CFE90 
 257      8C611F
 258 0386 A33DAEF0 		.ascii	"\243=\256\360\014\312\036\243f{\354Z\206\366\030ud\217"
 258      0CCA1EA3 
 258      667BEC5A 
 258      86F61875 
 258      648F
 259 0398 EB3C8CED 		.ascii	"\353<\214\355iy\033=\226\206\367\266\307hxNL)\312\230"
 259      69791B3D 
 259      9686F7B6 
 259      C768784E 
 259      4C29CA98 
 260 03ac D267684A 		.ascii	"\322ghJ\177\267\035\013>D\371\273\007=\030l\352^\212"
 260      7FB71D0B 
 260      3E44F9BB 
 260      073D186C 
 260      EA5E8A
 261 03bf BD9AD68B 		.ascii	"\275\232\326\213SC\212\225\365\353\010^\216\031\015"
 261      53438A95 
 261      F5EB085E 
 261      8E190D
 262 03ce DEDEC137 		.ascii	"\336\336\3017`W\366%\366\343\237z,\007\004\007P\213"
 262      6057F625 
 262      F6E39F7A 
 262      2C070407 
 262      508B
 263 03e0 E76DBB05 		.ascii	"\347m\273\005\373\226\257\021\350\204\307< \244\231"
 263      FB96AF11 
 263      E884C73C 
 263      20A499
 264 03ef 06843463 		.ascii	"\006\2044c'\237\346\213'\310\242b(\347\2668\364\014"
 264      279FE68B 
 264      27C8A262 
 264      28E7B638 
 264      F40C
 265 0401 66051A18 		.ascii	"f\005\032\030\265R\240\237U \370\342\336\227\3713\015"
 265      B552A09F 
 265      5520F8E2 
 265      DE97F933 
 265      0D
 266 0412 6A6BAE73 		.ascii	"jk\256s\003^\334M\014\370\014\032p\377\340\014\270\307"
 266      035EDC4D 
 266      0CF80C1A 
 266      70FFE00C 
 266      B8C7
 267 0424 6CC0BDD4 		.ascii	"l\300\275\324\200{\034\031\360B\357@\003^\345\2654\340"
ARM GAS  /tmp/ccG7kTd2.s 			page 20


 267      807B1C19 
 267      F042EF40 
 267      035EE5B5 
 267      34E0
 268 0436 BF79DD1B 		.ascii	"\277y\335\033p\017c\300\337\243\001\237\2635\340\267"
 268      700F63C0 
 268      DFA3019F 
 268      B335E0B7 
 269 0446 BC0E0C38 		.ascii	"\274\016\0148\335\302\200\031z\224\322Q\244\364\021"
 269      DDC28019 
 269      7A94D251 
 269      A4F411
 270 0455 FF4B884F 		.ascii	"\377K\210Ob|\032\342\330#p\373\274f\373\242=\024\203"
 270      627C1AE2 
 270      D82370FB 
 270      BC66FBA2 
 270      3D1483
 271 0468 14EFCAB8 		.ascii	"\024\357\312\270DXV\246B*\034\206\331A\214\\\027\222"
 271      445856A6 
 271      422A1C86 
 271      D9418C5C 
 271      1792
 272 047a DB3158CB 		.ascii	"\3331X\313\212,?\332\346\3165#\333\227]Fl`\216@\232"
 272      8A2C3FDA 
 272      E6CE3523 
 272      DB975D46 
 272      6C608E40 
 273 048f 303A40DA 		.ascii	"0:@\332/\315\363+'\376q\312\211\024V\355\203R\250\221"
 273      2FCDF32B 
 273      27FE71CA 
 273      891456ED 
 273      8352A891 
 274 04a3 4D47DB78 		.ascii	"MG\333x\"\205\325Z\202\327\353g\307d\210\036\372\342"
 274      2285D55A 
 274      82D7EB67 
 274      C764881E 
 274      FAE2
 275 04b5 C471AD7B 		.ascii	"\304q\255{i\022\310Li]J\322\231\222\021H\3406`\225G"
 275      6912C84C 
 275      695D4AD2 
 275      99921148 
 275      E0366095 
 276 04ca 04D3B0D4 		.ascii	"\004\323\260\324#\372in\262AI\215\234;\346S[2-H\215"
 276      23FA696E 
 276      B241498D 
 276      9C3BE653 
 276      5B322D48 
 277 04df 6345D67B 		.ascii	"cE\326{\304S\321+\336U\325l\221_\200\034\177m\315q\373"
 277      C453D12B 
 277      DE55D56C 
 277      915F801C 
 277      7F6DCD71 
 278 04f4 383B1C81 		.ascii	"8;\034\201\273\210U\232M\034G_;\323ye+\"7;`\273!r\250"
 278      BB88559A 
 278      4D1C475F 
 278      3BD37965 
 278      2B22373B 
ARM GAS  /tmp/ccG7kTd2.s 			page 21


 279 050d 6995A339 		.ascii	"i\225\2439j\273W'_\030\027\343\310\251\310\010\354\215"
 279      6ABB5727 
 279      5F1817E3 
 279      C8A9C808 
 279      EC8D
 280 051f 97A2146F 		.ascii	"\227\242\024o\246&\325\273\021F\340\366`\225\326\201"
 280      A626D5BB 
 280      1146E0F6 
 280      6095D681 
 281 052f 52447F4E 		.ascii	"RD\177N\245hu$E\257&\205\310/\0212\000\366p\014\326"
 281      A5687524 
 281      45AF2685 
 281      C82F1132 
 281      00F6700C 
 282 0544 A92319F1 		.ascii	"\251#\031\361\372\336\311l\026u\260\217]\203\371\015"
 282      FADEC96C 
 282      1675B08F 
 282      5D83F90D 
 283 0554 608B77AE 		.ascii	"`\213w\256t9`.?w\342\212\327P\374vt\314\027\322~\022"
 283      7439602E 
 283      3F77E28A 
 283      D750FC76 
 283      74CC17D2 
 284 056a C7DC92E6 		.ascii	"\307\334\222\346@\020{\307\204V\331\177U\307K\252\372"
 284      40107BC7 
 284      8456D97F 
 284      55C74BAA 
 284      FA
 285 057b 48AA6E9F 		.ascii	"H\252n\237\251v\202\010\3346$\266\326\334\262\313\373"
 285      A9768208 
 285      DC3624B6 
 285      D6DCB2CB 
 285      FB
 286 058c F6DF405B 		.ascii	"\366\337@[v\255\243\226}e\3672g\366\231\252\223/G\362"
 286      76ADA396 
 286      7D65F732 
 286      67F699AA 
 286      932F47F2 
 287 05a0 7D48FE59 		.ascii	"}H\376Y3\371-\177=y\033%\377\254#\362\237\356\263X\302"
 287      33F92D7F 
 287      3D791B25 
 287      FFAC23F2 
 287      9FEEB358 
 288 05b5 89FC6D97 		.ascii	"\211\374m\227%l\276\276oG\256F\"\033\320\200:\323\315"
 288      256CBEBE 
 288      6F47AE46 
 288      221BD080 
 288      3AD3CD
 289 05c8 CD777B06 		.ascii	"\315w{\006K\013\277\231\002\002w ]\347~P\366\013b\356"
 289      4B0BBF99 
 289      02027720 
 289      5DE77E50 
 289      F60B62EE 
 290 05dc B8FD196C 		.ascii	"\270\375\031l)\235\207C\256\021\215F|f\037z\004\005"
 290      299D8743 
 290      AE118D46 
 290      7C661F7A 
ARM GAS  /tmp/ccG7kTd2.s 			page 22


 290      0405
 291 05ee EB720266 		.ascii	"\353r\002fkH\015\221\263,\330\307\256\301\214\234}\317"
 291      6B480D91 
 291      B32CD8C7 
 291      AEC18C9C 
 291      7DCF
 292 0600 827DE604 		.ascii	"\202}\346\004,\333\236\263\037X\260c\256\301\214\234"
 292      2CDB9EB3 
 292      1F58B063 
 292      AEC18C9C 
 293 0610 FDC8829D 		.ascii	"\375\310\202\235t\0026\302\236\263\013,\330\327\256"
 293      740236C2 
 293      9EB30B2C 
 293      D8D7AE
 294 061f C18C9CF5 		.ascii	"\301\214\234\365\261`\247\235\200\371\3559k~\237\001"
 294      B160A79D 
 294      80F9ED39 
 294      6B7E9F01 
 295 062f EB710D66 		.ascii	"\353q\015f\344\254\205\005;\357\004l\244=gKX\260\213"
 295      E4AC8505 
 295      3BEF046C 
 295      A43D674B 
 295      58B08B
 296 0642 AEC18C9C 		.ascii	"\256\301\214\234=\316\202\315\3619\000\313\265\347\254"
 296      3DCE82CD 
 296      F13900CB 
 296      B5E7AC
 297 0651 95059BEB 		.ascii	"\225\005\233\353\032\314\310\331\012\026\354\021'`c"
 297      1ACCC8D9 
 297      0A16EC11 
 297      276063
 298 0660 ED395BC9 		.ascii	"\3559[\311\202-p\015f\344\354E\026\3541'`\343\3549{"
 298      822D700D 
 298      66E4EC45 
 298      16EC3127 
 298      60E3EC39 
 299 0675 89055BE2 		.ascii	"\211\005[\342\032\314\310\331f\026l\231\023\260\211"
 299      1ACCC8D9 
 299      66166C99 
 299      13B089
 300 0684 F69CBDCC 		.ascii	"\366\234\275\314\202\255p\015f\344l+\013\266\312\011"
 300      82AD700D 
 300      66E46C2B 
 300      0BB6CA09 
 301 0694 D85DF69C 		.ascii	"\330]\366\234\275\312\202\265\273\0063r\266\215\005"
 301      BDCA82B5 
 301      BB063372 
 301      B68D05
 302 06a3 7BCA09D8 		.ascii	"{\312\011\330t{\316^g\301\236v\015f\344l?\013\366\234"
 302      747BCE5E 
 302      67C19E76 
 302      0D66E46C 
 302      3F0BF69C 
 303 06b7 13B07B2D 		.ascii	"\023\260{-8\213=V\365\3100\375\214\300,\3266\370\364"
 303      388B3D56 
 303      F5C830FD 
 303      8CC02CD6 
ARM GAS  /tmp/ccG7kTd2.s 			page 23


 303      36F8F4
 304 06ca 098ECB31 		.ascii	"\011\216\3131\232\213c\274\344s;#3\310M\346\311W\275"
 304      9A8B63BC 
 304      E4733B23 
 304      33C84DE6 
 304      C957BD
 305 06dd AA8DF374 		.ascii	"\252\215\363t\262\272\325\011b\202\001p\305Nf\346\033"
 305      B2BAD509 
 305      62820170 
 305      C54E66E6 
 305      1B
 306 06ee 710D6632 		.ascii	"q\015f2e\002f\230:\305\266\376#\211w<\310\001\223\300"
 306      65026698 
 306      3AC5B6FE 
 306      2389773C 
 306      C80193C0 
 307 0702 9C138CB0 		.ascii	"\234\023\214\260.+\362\247\004\262\204\377J\360\305"
 307      2E2BF2A7 
 307      04B284FF 
 307      4AF0C5
 308 0711 B8A0693D 		.ascii	"\270\240i=E\267\014:}\306\015\207\330\223\254\252\235"
 308      45B70C3A 
 308      7DC60D87 
 308      D893ACAA 
 308      9D
 309 0722 259C642D 		.ascii	"%\234d-\341='jJ0\264\177\272s%\356g:?\027Y~n\277\266"
 309      E13D276A 
 309      4A30B47F 
 309      BA7325EE 
 309      673A3F17 
 310 073b 40F81617 		.ascii	"@\370\026\027\010\037\370\3143\314-.OF`\036f\226\302"
 310      081FF8CC 
 310      33CC2D2E 
 310      4F46601E 
 310      6696C2
 311 074e 6A5BC57E 		.ascii	"j[\305~N\001\266x\344\352\216\015\252\332\230\352F\216"
 311      4E01B678 
 311      E4EA8E0D 
 311      AADA98EA 
 311      468E
 312 0760 4E4D8E1E 		.ascii	"NM\216\036\224\343\330O \307\327\256\345\030i\222#2"
 312      94E3D84F 
 312      20C7D7AE 
 312      E5186992 
 312      2332
 313 0772 D2BD1C47 		.ascii	"\322\275\034G49~D9z~\0029.\272\226#\227\221\003Wk\243"
 313      34397E44 
 313      397A7E02 
 313      392EBA96 
 313      23979103 
 314 0789 E86AED52 		.ascii	"\350j\355R\256%\361j\215\360\323/\\j\332\337\336E\266"
 314      AE25F16A 
 314      8DF0D32F 
 314      5C6ADADF 
 314      DE45B6
 315 079c 1C49B683 		.ascii	"\034I\266\203\315\217]\314\022Wu\266\304\375V\323X\203"
 315      CD8F5DCC 
ARM GAS  /tmp/ccG7kTd2.s 			page 24


 315      125775B6 
 315      C4FD56D3 
 315      5883
 316 07ae 8768ECC1 		.ascii	"\207h\354\301!\026[\302\216\220\272\336yk\243\266\375"
 316      21165BC2 
 316      8E90BADE 
 316      796BA3B6 
 316      FD
 317 07bf 3317A1E6 		.ascii	"3\027\241\346\015\032j\361\256W\350q\343\303\010\324"
 317      0D1A6AF1 
 317      AE57E871 
 317      E3C308D4 
 318 07cf 32       		.ascii	"2"
 319 07d0 C4DC8AA9 		.ascii	"\304\334\212\251\246FL56\"|\022J?\220\0257\377\027-"
 319      A6464C35 
 319      36227C12 
 319      4A3F9015 
 319      37FF172D 
 320 07e4 877CA471 		.ascii	"\207|\244q\377\357\365\004n%\262O\032\320\345\000\025"
 320      FFEFF504 
 320      6E25B24F 
 320      1AD0E500 
 320      15
 321 07f5 37A0EB3B 		.ascii	"7\240\353;\264\301\2056\322S\377\020bCd\323|}\233\346"
 321      B4C18536 
 321      D253FF10 
 321      624364D3 
 321      7C7D9BE6 
 322 0809 7632BC3C 		.ascii	"v2\274<\377\017\302\035\330\355~c%r%\265\272\307P\240"
 322      FF0FC21D 
 322      D8ED7E63 
 322      257225B5 
 322      BAC750A0 
 323 081d 4D035A78 		.ascii	"M\003ZxP\033+\333\007+H\354\021\270w\2068\030D\374\211"
 323      501B2BDB 
 323      072B48EC 
 323      11B87786 
 323      381844FC 
 324 0832 5AEB8751 		.ascii	"Z\353\207Q\0167gb\233\220'Ft\2422\226y\310\366\335."
 324      0E376762 
 324      9B902746 
 324      74A23296 
 324      79C8F6DD 
 325 0847 93321C6C 		.ascii	"\2232\034l\362ta\225\025\236\001\333w\373\257\240\273"
 325      F2746195 
 325      159E01DB 
 325      77FBAFA0 
 325      BB
 326 0858 2CE42707 		.ascii	",\344'\007\233<\206\355;\221_)\010\032\354`\365ih\302"
 326      9B3C86ED 
 326      3B915F29 
 326      081AEC60 
 326      F56968C2 
 327 086c 387F00ED 		.ascii	"8\177\000\355!\363\205U\036\3036\377I\327\272\367\263"
 327      21F38555 
 327      1EC336FF 
 327      49D7BAF7 
ARM GAS  /tmp/ccG7kTd2.s 			page 25


 327      B3
 328 087d BA8FF4EE 		.ascii	"\272\217\364\356^\311S\376\351v\356wf\274q\354\\NK\332"
 328      5EC953FE 
 328      E976EE77 
 328      66BC71EC 
 328      5C4E4BDA 
 329 0891 AE5BD548 		.ascii	"\256[\325H\313^\234\204Q\247\353s\302\\\202\245f\033"
 329      CB5E9C84 
 329      51A7EB73 
 329      C25C82A5 
 329      661B
 330 08a3 05A306FF 		.ascii	"\005\243\006\377`\206[0\277\001\354\265\205\026\333"
 330      60865B30 
 330      BF01ECB5 
 330      8516DB
 331 08b2 C5748BDC 		.ascii	"\305t\213\334n`Y\347a\246J\213\234\320O\260:=\264w\245"
 331      6E6059E7 
 331      61A64A8B 
 331      9CD04FB0 
 331      3A3DB477 
 332 08c7 66297467 		.ascii	"f)tgt\271k<\243<\247\027\032z\2445N\340\30696\274\370"
 332      74B96B3C 
 332      A33CA717 
 332      1A7AA435 
 332      4EE0C639 
 333 08de BE361821 		.ascii	"\2766\030!NT\237\020\310\311\320*\214Wc\274\006\343"
 333      4E549F10 
 333      C8C9D02A 
 333      8C5763BC 
 333      06E3
 334 08f0 CF313E8E 		.ascii	"\3171>\216\361\011\214\377\007\343\263\030\237\307\270"
 334      F1098CFF 
 334      07E3B318 
 334      9FC7B8
 335 08ff 0FE3C73D 		.ascii	"\017\343\307=X\027\343'1~\012\343\265\030\257\307\370"
 335      5817E327 
 335      317E0AE3 
 335      B518AFC7 
 335      F8
 336 0910 59D6BCED 		.ascii	"Y\326\274\355\332\205\272Z\3141u\257k\036\364\246\371"
 336      DA85BA5A 
 336      CC3175AF 
 336      6B1EF4A6 
 336      F9
 337 0921 E1F8A6B9 		.ascii	"\341\370\246\271\310\267\271\006\363'\322d3\243\311"
 337      C8B7B906 
 337      F327D264 
 337      33A3C9
 338 0930 16D4E462 		.ascii	"\026\324\344b\324\306\363FG~>C?\306I\340x\366\"D?\370"
 338      D4C6F346 
 338      477E3E43 
 338      3FC649E0 
 338      78F62244 
 339 0946 E244DA72 		.ascii	"\342D\332r5\362\240G_\001m6\003&]\240\031u\322'\231"
 339      35F2A047 
 339      5F016D36 
 339      03265DA0 
ARM GAS  /tmp/ccG7kTd2.s 			page 26


 339      1975D227 
 340 095b 6E5CD033 		.ascii	"n\\\3203*\2736\331\310\372\3126\327\264\023\252\360"
 340      2ABB36D9 
 340      C8FACA36 
 340      D7B413AA 
 340      F0
 341 096c 114685F3 		.ascii	"\021F\205\363Q\205\217\242\0127\240\311\274\310*R\344"
 341      51858FA2 
 341      0A37A0C9 
 341      BCC82A52 
 341      E4
 342 097d E709A6FB 		.ascii	"\347\011\246\373&\306\003\263\004\304c\207\334=\207"
 342      26C603B3 
 342      04C46387 
 342      DC3D87
 343 098c 2D2E9CD0 		.ascii	"-.\234\320\243\242\004\203\322\262\327\273\256z\036"
 343      A3A20483 
 343      D2B2D7BB 
 343      AE7A1E
 344 099b 878ECD1E 		.ascii	"\207\216\315\036\322\000\275\031\346\021z\211`\332<"
 344      D200BD19 
 344      E6117A89 
 344      60DA3C
 345 09aa 3719B2C0 		.ascii	"7\031\262\300-\314tp\000\231`%\263q\341\271\303|c\243"
 345      2DCC7470 
 345      00996025 
 345      B371E1B9 
 345      C37C63A3 
 346 09be BA3E579B 		.ascii	"\272>W\233Y\250M\352\310\365\361A0[\307\020b|G\266\320"
 346      59A84DEA 
 346      C8F5F141 
 346      305BC710 
 346      627C47B6 
 347 09d3 83D40EEC 		.ascii	"\203\324\016\354e\227fZ\336oH\016\023\355jz\345z\234"
 347      6597665A 
 347      DE6F480E 
 347      13ED6A7A 
 347      E57A9C
 348 09e6 816E43A0 		.ascii	"\201nC\240\325\203\006Z<\357izQb;\002\255\3174\253\321"
 348      D583065A 
 348      3CEF697A 
 348      51623B02 
 348      ADCF34AB 
 349 09fb 639AE778 		.ascii	"c\232\347x\214\363\034\217/\236\350\357\367p\377\207"
 349      8CF31C8F 
 349      2F9EE8EF 
 349      F770FF87 
 350 0a0b 85611A66 		.ascii	"\205a\032fn0\203D\311\346>\244\301.j\306\246\3370\331"
 350      6E308344 
 350      C9E63EA4 
 350      C12E6AC6 
 350      A6DF30D9 
 351 0a1f EAC4040C 		.ascii	"\352\304\004\014\210\006\023\210\\8\212}\031\005{\303"
 351      88061388 
 351      5C388A7D 
 351      19057BC3 
 352 0a2f 0958826D 		.ascii	"\011X\202m\350\245m\253m\317\260\332\223^\275\212v\034"
ARM GAS  /tmp/ccG7kTd2.s 			page 27


 352      E8A56DAB 
 352      6DCFB0DA 
 352      935EBD8A 
 352      761C
 353 0a41 7FF7DFC8 		.ascii	"\177\367\337\310E\300\344\327\257vy\234]\277\332\343"
 353      45C0E4D7 
 353      AF76799C 
 353      5DBFDAE3 
 354 0a51 319F73EF 		.ascii	"1\237s\357\305\353W{\034\315\326\316Y\315\001\254n#"
 354      C5EB577B 
 354      1CCDD6CE 
 354      59CD01AC 
 354      6E23
 355 0a63 C6BA8C11 		.ascii	"\306\272\214\021qa>\374\362\335\333\350\255\306\375"
 355      71613EFC 
 355      F2DDDBE8 
 355      ADC6FD
 356 0a72 38E9DC77 		.ascii	"8\351\334wI\362[\215\006\034\302\337A3\377\233\366!"
 356      49F25B8D 
 356      061CC2DF 
 356      4133FF9B 
 356      F621
 357 0a84 FF0793F3 		.ascii	"\377\007\223\363\377`c\344\025\355L\017\235\2511\341"
 357      FF6063E4 
 357      15ED4C0F 
 357      9DA931E1 
 358 0a94 B241E44F 		.ascii	"\262A\344O\341\025\021'\213\200\277\243$\007\335OZ5"
 358      E1151127 
 358      8B80BFA3 
 358      2407DD4F 
 358      5A35
 359 0aa6 B6B6D233 		.ascii	"\266\266\3223\231\303\350\257\307\\\203\371\015`\257"
 359      99C3E8AF 
 359      C75C83F9 
 359      0D60AF
 360 0ab5 B2605F3A 		.ascii	"\262`_:\001\263\033\304\000l\033\013\366\215k0#g\257"
 360      01B31BC4 
 360      006C1B0B 
 360      F68D6B30 
 360      2367AF
 361 0ac8 B360DF39 		.ascii	"\263`\3379\001\263\333\255\004\260\375,\330\017\256"
 361      01B3DBAD 
 361      04B0FD2C 
 361      D80FAE
 362 0ad7 C1FC5656 		.ascii	"\301\374VV\302\01502\221\377\000W\015\207p\244<\202"
 362      C20D3032 
 362      91FF0057 
 362      0D8770A4 
 362      3C82
 363 0ae9 7137C61F 		.ascii	"q7\306\037a\374\011\306Q'\223\256}\354\000\177\001\031"
 363      61FC09C6 
 363      512793AE 
 363      7DEC007F 
 363      0119
 364 0afb DE33388B 		.ascii	"\33638\213\201n\257\343\370g\267\322\335_\323\030K\364"
 364      816EAFE3 
 364      F867B7D2 
ARM GAS  /tmp/ccG7kTd2.s 			page 28


 364      DD5FD318 
 364      4BF4
 365 0b0d 61C7C1E7 		.ascii	"a\307\301\347,\007\215Yn9\360\263\034Dz\367\322\235"
 365      2C078D59 
 365      6E39F0B3 
 365      1C447AF7 
 365      D29D
 366 0b1f 4BFDA2F7 		.ascii	"K\375\242\367\303f<\247W\263\364\351\322\336\214\027"
 366      C3663CA7 
 366      57B3F4E9 
 366      D2DE8C17 
 367 0b2f EFD5C116 		.ascii	"\357\325\301\026\271\0063\\\277\2164\357c\300\226\273"
 367      B906335C 
 367      BF8E34EF 
 367      63C096BB 
 368 0b3f 06CB1E60 		.ascii	"\006\313\036`\021\324\026\336C[\330\213m\376\337\030"
 368      11D416DE 
 368      435BD88B 
 368      6DFEDF18 
 369 0b4f 1FC7F804 		.ascii	"\037\307\370\004\306_\032'\244\355Y\346q\227\366\261"
 369      C65F1A27 
 369      A4ED59E6 
 369      7197F6B1 
 370 0b5f 0C6ABC33 		.ascii	"\014j\2743\346\234\342\332\265m'\333\266\233\262\334"
 370      E69CE2DA 
 370      B56D27DB 
 370      B69BB2DC 
 371 0b6f 8E5A86B6 		.ascii	"\216Z\206\266\205Au\347\027\372\240\332\211s\261\016"
 371      854175E7 
 371      17FAA0DA 
 371      8973B10E 
 372 0b7f 27880956 		.ascii	"'\210\011V\242\233?1\037\007X\365\366\002\313[l\324"
 372      A29B3F31 
 372      1F0758F5 
 372      F602CB5B 
 372      6CD4
 373 0b91 D871371D 		.ascii	"\330q7\0355\316\340\250\261=+\371\250!\030e\024\371"
 373      35CEE0A8 
 373      B13D2BF9 
 373      A8211865 
 373      14F9
 374 0ba3 1EF3A871 		.ascii	"\036\363\250q\376 \216\032=\216F\215\213\007\227h+E"
 374      FE208E1A 
 374      3D8E468D 
 374      8B079768 
 374      2B45
 375 0bb5 DADBEC46 		.ascii	"\332\333\354F\026z\006\335\335\367\035d\272\256}\256"
 375      167A06DD 
 375      DDF71D64 
 375      BAAE7DAE 
 376 0bc5 C1FC06B0 		.ascii	"\301\374\006\260\346\303\014\330A'`\011\272\373\026"
 376      E6C30CD8 
 376      41276009 
 376      BAFB16
 377 0bd4 16EC886B 		.ascii	"\026\354\210k0#gKX\260\217\235\200%\350\356\037g\301"
 377      3023674B 
 377      58B08F9D 
ARM GAS  /tmp/ccG7kTd2.s 			page 29


 377      8025E8EE 
 377      1F67C1
 378 0be7 A2AEC18C 		.ascii	"\242\256\301\214\234\265\262`\237;\001\263;\302\001"
 378      9CB5B260 
 378      9F3B01B3 
 378      3BC201
 379 0bf6 B0152CD8 		.ascii	"\260\025,\330\011\327`F\316V\262`_9\001\363\333s\326"
 379      09D76046 
 379      CE56B260 
 379      5F3901F3 
 379      DB73D6
 380 0c09 C6829D71 		.ascii	"\306\202\235q\015\346\267r\011\372\260\036%\362\337"
 380      0DE6B772 
 380      09FAB01E 
 380      25F2DF
 381 0c18 63B7780E 		.ascii	"c\267x\016;\253\363\030\367b|\021\343~\214\347xI\334"
 381      3BABF318 
 381      F7627C11 
 381      E37E8CE7 
 381      7849DC
 382 0c2b 88F15C8C 		.ascii	"\210\361\\\214\037\302\370\021\257\203\316\3554\333"
 382      1FC2F811 
 382      AF83CEED 
 382      34DB
 383 0c39 B99D73DD 		.ascii	"\271\235s\335\025%\024$\376'2\"\377\006\316\370\336"
 383      15251424 
 383      FE273222 
 383      FF06CEF8 
 383      DE
 384 0c4a C42BBC87 		.ascii	"\304+\274\2070Vq\235<\027\343M(\310V\214\337\304\370"
 384      3056719D 
 384      3C17E34D 
 384      28C8568C 
 384      DFC4F8
 385 0c5d 6D8C7762 		.ascii	"m\214wb\374\015\306\337:\351\253_\213_\374\205\365\270"
 385      FC0DC6DF 
 385      3AE9AB5F 
 385      8B5FFC85 
 385      F5B8
 386 0c6f 972CB7D7 		.ascii	"\227,\267\327\016\372J\371\261\335\213\334\336\311?"
 386      0EFA4AF9 
 386      B1DD8BDC 
 386      DEC93F
 387 0c7e 155DA79D 		.ascii	"\025]\247\235\232,\300\373\333\275\003F\252Am\205\317"
 387      9A2CC0FB 
 387      DBBD0346 
 387      AA416D85 
 387      CF
 388 0c8f 1DCA2797 		.ascii	"\035\312'\227$\301\035\303\271\013\027\360dF1\214k\306"
 388      24C11DC3 
 388      B90B17F0 
 388      6446318C 
 388      6BC6
 389 0ca1 1E7D043D 		.ascii	"\036}\004=\213\325\312N\327\02124\226Z\274\3030e8\343"
 389      8BD5CA4E 
 389      D7113234 
 389      965ABCC3 
ARM GAS  /tmp/ccG7kTd2.s 			page 30


 389      306538E3 
 390 0cb5 C112767A 		.ascii	"\301\022vz_\354\215\237\367f\372\342\211!1\333Z`\026"
 390      5FEC8D9F 
 390      F766FAE2 
 390      892131DB 
 390      5A6016
 391 0cc8 C1403549 		.ascii	"\301@5I\227\007\303\\\317\017\235\274\332\222i\232\223"
 391      9707C35C 
 391      CF0F9DBC 
 391      DA92699A 
 391      93
 392 0cd9 9169881D 		.ascii	"\221i\210\035O\217{\031\323nq\242\301\004\247\311\337"
 392      4F8F7B19 
 392      D36E71A2 
 392      C104A7C9 
 392      DF
 393 0cea 9793119B 		.ascii	"\227\223\021\233@\012\\\253k,\277\215\217p\306?\334"
 393      400A5CAB 
 393      6B2CBF8D 
 393      8F70C63F 
 393      DC
 394 0cfb 14F975E8 		.ascii	"\024\371u\350&O\243\203l\306x\033\306\217\242G?\206"
 394      264FA383 
 394      6CC6781B 
 394      C68FA247 
 394      3F86
 395 0d0d F1528C5B 		.ascii	"\361R\214[Y\357\276\232kS#\321\350\305\037\337\235\271"
 395      59EFBE9A 
 395      6B5323D1 
 395      E8C51FDF 
 395      9DB9
 396 0d1f BC39F2A0 		.ascii	"\2749\362\240\332\337\377\027\356rn\251\326x*\257\320"
 396      DADFFF17 
 396      EE726EA9 
 396      D6782AAF 
 396      D0
 397 0d30 6D6F3B4D 		.ascii	"mo;M=\341\275\034S\036\372\027\007\311&\023\321\330"
 397      3DE1BD1C 
 397      531EFA17 
 397      07C92613 
 397      D1D8
 398 0d42 24E0FAB8 		.ascii	"$\340\372\270\351\037\350=\177\015n\215\264y\311\\\342"
 398      E91FE83D 
 398      7F0D6E8D 
 398      B479C95C 
 398      E2
 399 0d53 8DA149E7 		.ascii	"\215\241I\347\022F\030\302\307\223^\363\012\232\374"
 399      124618C2 
 399      C7935EF3 
 399      0A9AFC
 400 0d62 092BC94D 		.ascii	"\011+\311M~Xz~\015\271)\256\377I\355n$Ojj\304T\303\337"
 400      7E587A7E 
 400      0DB929AE 
 400      FF49ED6E 
 400      244F6A6A 
 401 0d7a CB265B05 		.ascii	"\313&[\005\250\221\336\263\351jS\246\346/\355\343Z\223"
 401      A891DEB3 
ARM GAS  /tmp/ccG7kTd2.s 			page 31


 401      E96A53A6 
 401      E62FEDE3 
 401      5A93
 402 0d8c D8DA3AD7 		.ascii	"\330\332:\327\036\363\264\215\307\350\373<\002\367\276"
 402      1EF3B48D 
 402      C7E8FB3C 
 402      02F7BE
 403 0d9b 59063763 		.ascii	"Y\0067c\024\210p\301\333\232\253;\274\211\377\\\275"
 403      148870C1 
 403      DB9AAB3B 
 403      BC89FF5C 
 403      BD
 404 0dac 7AAAC6CD 		.ascii	"z\252\306\315\263\256\371\177\316\206\377\224\030\377"
 404      B3AEF97F 
 404      CE86FF94 
 404      18FF
 405 0dba 47CDFC1B 		.ascii	"G\315\374\033\250\272\036\026\343\306!\362\177\365\022"
 405      A8BA1E16 
 405      E3C621F2 
 405      7FF512
 406 0dc9 37790A1D 		.ascii	"7y\012\035a-\306\3178\031\354V\305{\004\315\324E\376"
 406      612DC6CF 
 406      3819EC56 
 406      C57B04CD 
 406      D445FE
 407 0ddc A60CFA9E 		.ascii	"\246\014\372\236\026\337`\203\211\213\311z\177\305="
 407      16DF6083 
 407      898BC97A 
 407      7FC53D
 408 0deb A5AA2DC4 		.ascii	"\245\252-\304\277\232\370\245\215\352D\012%p\015\331"
 408      BF9AF8A5 
 408      8DEA440A 
 408      25700DD9 
 409 0dfb 7852E7BD 		.ascii	"xR\347\275\332\222\244F\220VV\273\244\211HM\340\232"
 409      DA92A446 
 409      905656BB 
 409      A489484D 
 409      E09A
 410 0e0d 92D4A22C 		.ascii	"\222\324\242,]\313\255%\027v\376\32647\333K\335\227"
 410      5DCBAD25 
 410      1776FED6 
 410      3437DB4B 
 410      DD97
 411 0e1f 4B504B93 		.ascii	"KPK\223p\203\327\360\367\350\244_h\217F^9\222\331<'"
 411      7083D7F0 
 411      F7E8A45F 
 411      688F465E 
 411      3992D93C 
 412 0e34 DADF7FB5 		.ascii	"\332\337\177\265\251O\260\271p\2157+\214]\002\025%\366"
 412      A94FB0B9 
 412      708D372B 
 412      8C5D0215 
 412      25F6
 413 0e46 A10DB3B1 		.ascii	"\241\015\263\261o\355\036\206I\213\363\263\255\264\250"
 413      6FED1E86 
 413      498BF3B3 
 413      ADB4A8
ARM GAS  /tmp/ccG7kTd2.s 			page 32


 414 0e55 9E2FD7F4 		.ascii	"\236/\327\364'\362/\342\010\275\331\221\376:\210\376"
 414      27F22FE2 
 414      08BDD991 
 414      FE3A88FE 
 415 0e65 0861815B 		.ascii	"\010a\201[\206\300\366\325\220=\235\332=#\364\325j\233"
 415      86C0F6D5 
 415      903D9DDA 
 415      3D23F4D5 
 415      6A9B
 416 0e77 B99AE9D6 		.ascii	"\271\232\351\326\223&\005*^U\027\250s\263y\324\021\247"
 416      9326052A 
 416      5E5517A8 
 416      73B379D4 
 416      11A7
 417 0e89 D5329863 		.ascii	"\3252\230c\207\245\246\277\373\310Z\323\211z\337\035"
 417      87A5A6BF 
 417      FBC85AD3 
 417      897ADF1D 
 418 0e99 09549DCE 		.ascii	"\011T\235\316=D\377\012M\235\303?\300Y\362\035\277\331"
 418      3D44FF0A 
 418      4D9DC33F 
 418      C059F21D 
 418      BFD9
 419 0eab 25F26F79 		.ascii	"%\362oy\323\311\275\277l\236\263|h\001\362\220\3724"
 419      D3C9BDBF 
 419      6C9EB37C 
 419      6801F290 
 419      FA34
 420 0ebd ADA778CE 		.ascii	"\255\247x\316\242\005_\260n\301^s\013F\034\265\340j"
 420      A2055FB0 
 420      6EC15E73 
 420      0B461CB5 
 420      E06A
 421 0ecf D21494C5 		.ascii	"\322\024\224\305\016\004\216\3306\205\306\247\326\024"
 421      0E048ED8 
 421      3685C6A7 
 421      D614
 422 0edd 261FB0A3 		.ascii	"&\037\260\243\246I\260\323\242eNDZ\245N\365[\230N\271"
 422      A649B0D3 
 422      A2654E44 
 422      5AA54EF5 
 422      5B984EB9 
 423 0ef1 6898F712 		.ascii	"h\230\367\022\372\200\265\315\357\260\326\330r\311\244"
 423      FA80B5CD 
 423      EFB0D6D8 
 423      72C9A4
 424 0f00 B13D8E34 		.ascii	"\261=\2164v0n\274\037 \360\036\207\306k\322\230\035"
 424      76306EBC 
 424      1F20F01E 
 424      87C66BD2 
 424      981D
 425 0f12 354DD0FD 		.ascii	"5M\320\375\226\266\374>\325\330\"\277\013\225\035N\250"
 425      96B6FC3E 
 425      D5D822BF 
 425      0B951D4E 
 425      A8
 426 0f23 32CBBEB6 		.ascii	"2\313\276\266\333Zc\033\315\032;\344\252\227\025\371"
ARM GAS  /tmp/ccG7kTd2.s 			page 33


 426      DB5A631B 
 426      CD1A3BE4 
 426      AA9715F9 
 427 0f33 9792D462 		.ascii	"\227\222\324bz\331\001\372\262\253\245I\331e\251\257"
 427      7AD901FA 
 427      B2ABA549 
 427      D965A9AF 
 428 0f43 15EFB8F7 		.ascii	"\025\357\270\367\375O\022\350K\033\213\235\234o\275"
 428      FD4F12E8 
 428      4B1B8B9D 
 428      9C6FBD
 429 0f52 F332FD8F 		.ascii	"\3632\375\217!>\303E\307i\223F\235\003-\336\265\216"
 429      213EC345 
 429      C7699346 
 429      9D032DDE 
 429      B58E
 430 0f64 5ED5FA1C 		.ascii	"^\325\372\034\201\316g\233W/\202i\361\"\030\027/\002"
 430      81CE679B 
 430      572F8269 
 430      F1221817 
 430      2F02
 431 0f76 B93AD5D7 		.ascii	"\271:\325\327\337\037\277:En|\016\370\273T7\265L\326"
 431      DF1FBF3A 
 431      456E7C0E 
 431      F8BB5437 
 431      B54CD6
 432 0f89 D238CC66 		.ascii	"\3228\314fd>9b\367K\252\3523\332\314\307\016l\246Y="
 432      643E3962 
 432      F74BAAEA 
 432      33DACCC7 
 432      0E6CA659 
 433 0f9e 208E     		.ascii	" \216"
 434 0fa0 D455B714 		.ascii	"\324U\267\024\341\231j\006-\321R\266VcGM\223\343\013"
 434      E1996A06 
 434      2DD152B6 
 434      5663474D 
 434      93E30B
 435 0fb3 4BABF940 		.ascii	"K\253\371@\267\032j\014\002\267\332RBu\251\331\037\276"
 435      B71A6A0C 
 435      02B7DA52 
 435      4275A9D9 
 435      1FBE
 436 0fc5 7224DB76 		.ascii	"r$\333v]6Xy\232\253\271\221\315\216\232&\333\327\003"
 436      5D365879 
 436      9AABB991 
 436      CD8E9A26 
 436      DBD703
 437 0fd8 658B3647 		.ascii	"e\2136G\337^\264\233\177\270E\275@\016$\235O=\316$X"
 437      DF5EB49B 
 437      7FB845BD 
 437      400E249D 
 437      4F3DCE24 
 438 0fed 8DD0F9BD 		.ascii	"\215\320\371\275]\315\263\026\363;\233\251J\354[[%\332"
 438      5DCDB316 
 438      F33B9BA9 
 438      4AEC5B5B 
 438      25DA
ARM GAS  /tmp/ccG7kTd2.s 			page 34


 439 0fff 7E       		.ascii	"~"
 440 1000 2FF0FAEC 		.ascii	"/\360\372\354\231a\026\321\003\230\351\365\262'\352"
 440      996116D1 
 440      0398E9F5 
 440      B227EA
 441 100f 26337ED1 		.ascii	"&3~\321\324\310z\241\013Vz\214\364\177\364\250\312\273"
 441      D4C87AA1 
 441      0B567A8C 
 441      F47FF4A8 
 441      CABB
 442 1021 EE5BFACC 		.ascii	"\356[\372\314}\313Y\266/\326FX\023_\333m\370\232\223"
 442      7DCB59B6 
 442      2FD64658 
 442      135FDB6D 
 442      F89A93
 443 1034 62C557CB 		.ascii	"b\305W\31315\335\365\250\332\230\222\210-s\363X\217"
 443      3135DDF5 
 443      A8DA9892 
 443      882D73F3 
 443      588F
 444 1046 B27B6DD8 		.ascii	"\262{m\330|\310\310\346\277pO\252\352\373\3209,\037"
 444      7CC8C8E6 
 444      BF704FAA 
 444      EAFBD039 
 444      2C1F
 445 1058 B94C8DCC 		.ascii	"\271L\215\314Q\211%\362\274>\242\036\213\201X\215\250"
 445      518925F2 
 445      BC3EA21E 
 445      8B81588D 
 445      A8
 446 1069 78B94383 		.ascii	"x\271C\203\233\316\307\0301\031\000Y\367\331\011:/%"
 446      9BCEC718 
 446      31190059 
 446      F7D9093A 
 446      2F25
 447 107b 6600A65A 		.ascii	"f\000\246Z\317&\2505\337\266\026\361\013\273Z\217\332"
 447      CF26A835 
 447      DFB616F1 
 447      0BBB5A8F 
 447      DA
 448 108c D66A4940 		.ascii	"\326jI@k\201m\255\276\004\264\026\332\326\"MkWk\221"
 448      6B816DAD 
 448      BE04B416 
 448      DAD6224D 
 448      6B576B91 
 449 10a0 6DAD2712 		.ascii	"m\255'\022\320j\216\327\342.+\224\2033%9\234\023\314"
 449      D06A8ED7 
 449      E22E2B94 
 449      83332539 
 449      9C13CC
 450 10b3 2F0B84A5 		.ascii	"/\013\204\245\232pH\036U\311e\024\345\027\224\340G@"
 450      9A70481E 
 450      55C96514 
 450      E51794E0 
 450      4740
 451 10c5 49FDFD94 		.ascii	"I\375\375\224i\376\002nh<+\254\210\212\224^4e|Ai\321"
 451      69FE026E 
ARM GAS  /tmp/ccG7kTd2.s 			page 35


 451      683C2BAC 
 451      888A945E 
 451      34657C41 
 452 10db 1F27788B 		.ascii	"\037'x\213\012'M\360\3361\255\344\356\024\374\341W9"
 452      0A274DF0 
 452      DE31ADE4 
 452      EE14FCE1 
 452      5739
 453 10ed 75613947 		.ascii	"ua9G\224\253o\250\011\325H7H\342}\301\234`MYU]\271\224"
 453      94AB6FA8 
 453      09D54837 
 453      48E27DC1 
 453      9C604D59 
 454 1105 1356CA83 		.ascii	"\023V\312\2035\012\020H\253\203\367\330\2002&A\341j"
 454      350A1048 
 454      AB83F7D8 
 454      80322641 
 454      E16A
 455 1117 B1AC3258 		.ascii	"\261\2542X#\345\004\312\245\012\261\256J\011(\263k\245"
 455      23E504CA 
 455      A50AB1AE 
 455      4A0928B3 
 455      6BA5
 456 1129 3054F605 		.ascii	"0T\366\005\002Z\3654\261\274\\\226\302\341\302\234\312"
 456      025AF534 
 456      B1BC5C96 
 456      C2E1C29C 
 456      CA
 457 113a 50B59453 		.ascii	"P\265\224S\026*\237\235S.\315\314\201\212\367\005C\341"
 457      162A9F9D 
 457      532ECDCC 
 457      818AF705 
 457      43E1
 458 114c 1C45AEAB 		.ascii	"\034E\256\253\271?\007\022\225bUNmHV\3029%\245\223G"
 458      B93F0712 
 458      9562554E 
 458      6D4856C2 
 458      3925A593 
 459 1161 E7E74C9A 		.ascii	"\347\347L\232T\230\003\002\315\314C\271\253\252\312"
 459      54980302 
 459      CDCC43B9 
 459      ABAACA
 460 1170 092C6450 		.ascii	"\011,dPm\344;\201\323\331\004\000\250<\004^(~@\031\002"
 460      6DE43B81 
 460      D3D90400 
 460      A83C045E 
 460      287E4019 
 461 1185 38816953 		.ascii	"8\201iS\212\246\024\225\246\223dI\351\324\273\010v\240"
 461      8AA61495 
 461      A6936449 
 461      E9D4BB08 
 461      76A0
 462 1197 78C2F8C2 		.ascii	"x\302\370\302\273/!)\252\271@\351t\366\253x:\326\234"
 462      BB2F2129 
 462      AAB940E9 
 462      74F6AB78 
 462      3AD69C
ARM GAS  /tmp/ccG7kTd2.s 			page 36


 463 11aa 34B5E00F 		.ascii	"4\265\340\017\023\0123\000/T[\035*'\200S\357\232<\265"
 463      130A3300 
 463      2F545B1D 
 463      2A278053 
 463      EF9A3CB5 
 464 11be 7042007E 		.ascii	"pB\000~\275TK\226L\006\205\007\012'\374\261\250`\302"
 464      BD544B96 
 464      4C068507 
 464      0A27FCB1 
 464      A860C2
 465 11d1 3043DEC4 		.ascii	"0C\336\304\251%\245i\241\332\000\251\232N\3244:\037"
 465      A925A569 
 465      A1DA00A9 
 465      9A4ED434 
 465      3A1F
 466 11e3 10A8C648 		.ascii	"\020\250\306H2\243\254*Tv\177 \\+I\345Y@\244\274N\231"
 466      32A3AC2A 
 466      54767F20 
 466      5C2B49E5 
 466      5940A4BC 
 467 11f9 5D36BBAC 		.ascii	"]6\273\254\012\350d\225\224\026\006\012\247\225\336"
 467      0AE86495 
 467      9416060A 
 467      A795DE
 468 1208 1D28B8BB 		.ascii	"\035(\270\273`\322\204aw\216/)e\276\003\371?3\347\344"
 468      60D28461 
 468      778E2F29 
 468      65BE03F9 
 468      3F33E7E4 
 469 121c DD14B865 		.ascii	"\335\024\270e\010A\010 \004\221\262 TS\021\234\221Z"
 469      08410820 
 469      0491B220 
 469      5453119C 
 469      915A
 470 122e 862FA295 		.ascii	"\206/\242\225\212*qF\030\314H\222\345\220\034\036\235"
 470      8A2A7146 
 470      18CC4892 
 470      E5901C1E 
 470      9D
 471 123f 4CB5B212 		.ascii	"L\265\262\022\323lYe\265RO\214\245\272N\221\352\003"
 471      D36C5965 
 471      B5524F8C 
 471      A5BA4E91 
 471      EA03
 472 1251 4A0ABEC7 		.ascii	"J\012\276\307\272B\010\317\016\353f3T\251\224%\261<"
 472      BA4208CF 
 472      0EEB6633 
 472      54A99425 
 472      B13C
 473 1263 1C78A04E 		.ascii	"\034x\240N\252\003q\263\313*\003\206\2541\356\220\313"
 473      AA0371B3 
 473      CB2A0386 
 473      AC31EE90 
 473      CB
 474 1274 2A89D5A4 		.ascii	"*\211\325\244S\210\200\342\213\301\245\326\006j\244"
 474      538880E2 
 474      8BC1A5D6 
ARM GAS  /tmp/ccG7kTd2.s 			page 37


 474      066AA4
 475 1283 7A055EB5 		.ascii	"z\005^\265\2624s\242\003Tj\232\343\213'\027L\256\207"
 475      B23473A2 
 475      03546A9A 
 475      E38B2717 
 475      4CAE87
 476 1296 92D5B5C1 		.ascii	"\222\325\265\301*\342\223\277/(\200\342:\377iJ\255\034"
 476      2AE293BF 
 476      2F2880E2 
 476      3AFF694A 
 476      AD1C
 477 12a8 0C05286E 		.ascii	"\014\005(n0\224\006*\006u(\267\270\306\257,\013\311"
 477      3094062A 
 477      067528B7 
 477      B8C6AF2C 
 477      0BC9
 478 12ba 12F17292 		.ascii	"\022\361r\222\035\000\273(S\352\17778\224\300\314\233"
 478      1D00BB28 
 478      53EA7F37 
 478      3894C0CC 
 478      9B
 479 12cb AB891264 		.ascii	"\253\211\022di\0068q@\361\204\363n\202p3\204\261\020"
 479      69063871 
 479      40F184F3 
 479      6E827033 
 479      84B110
 480 12de 6EF184F3 		.ascii	"n\361\204\363s!\344A\310\2070\032\302\030\0107B\200"
 480      7321E441 
 480      C887301A 
 480      C2180837 
 480      4280
 481 12f0 72F9502E 		.ascii	"r\371P.\037\312\345C\271\321Pnt\236 \217\021\344\033"
 481      1FCAE543 
 481      B9D1506E 
 481      749E208F 
 481      11E41B
 482 1303 05F92641 		.ascii	"\005\371&A\276Y\220\307\012\362-\0369/\027B\236P%\303"
 482      BE5990C7 
 482      0AF22D1E 
 482      392F1742 
 482      9E5025C3 
 483 1317 6B744A6D 		.ascii	"ktJm\000\270M#\032\236%\311\360\016U\225K\262\267\254"
 483      00B84D23 
 483      1A9E25C9 
 483      F00E5595 
 483      4BB2B7AC 
 484 132b 529489DA 		.ascii	"R\224\211\332\305j)]\321\374\020~\304T\232B\335\010"
 484      C56A295D 
 484      D1FC107E 
 484      C4549A42 
 484      DD08
 485 133d BED116D3 		.ascii	"\276\321\026\323\024Y\252\010\243\036I\"\245:<\003~"
 485      1459AA08 
 485      A31E4922 
 485      A53A3C03 
 485      7E
 486 134e D4DC03FA 		.ascii	"\324\334\003\372\026-\225*\227\317\206\237\322\245\372"
ARM GAS  /tmp/ccG7kTd2.s 			page 38


 486      162D952A 
 486      97CF869F 
 486      D2A5FA
 487 135d A0026A91 		.ascii	"\240\002j\221Rg)\241\373\376\2436C\232)\325(\325b\370"
 487      526729A1 
 487      FBFEA336 
 487      439A29D5 
 487      28D562F8 
 488 1371 7E62D3B3 		.ascii	"~b\323\263H\302S\033\250\313\322-\251*\030\206\236j"
 488      48C2531B 
 488      A8CBD22D 
 488      A92A1886 
 488      9E6A
 489 1383 28635B24 		.ascii	"(c[$\307W\033\230%\006\225`\315\214!\340\232\341\031"
 489      C7571B98 
 489      25069560 
 489      CD8C21E0 
 489      9AE119
 490 1396 686F2998 		.ascii	"ho)\230\204\014\251V\252\201\216q\006\224\002\213'\345"
 490      840CA956 
 490      AA818E71 
 490      0694028B 
 490      27E5
 491 13a8 8710DEC4 		.ascii	"\207\020\336\304*lg\310\254\015\205\252\322\252\251"
 491      2A6C67C8 
 491      AC0D85AA 
 491      D2AAA9
 492 13b7 95C23B34 		.ascii	"\225\302;4\253F\222S\253\321\312nve\264\032O\320d\303"
 492      AB469253 
 492      ABD1CA6E 
 492      7665B41A 
 492      4FD064C3 
 493 13cb 35BB0515 		.ascii	"5\273\005\025H\262TS\006\012J\245Y>pZ\322\257\006\024"
 493      48B25453 
 493      060A4AA5 
 493      593E705A 
 493      D2AF0614 
 494 13df EC3FC0C7 		.ascii	"\354?\300\307\365\376\203$\275\344'\237\\_^-\022\265"
 494      F5FE8324 
 494      BDE4279F 
 494      5C5F5E2D 
 494      12B5
 495 13f1 FA143D75 		.ascii	"\372\024=u\247\333>\030\343;\307\324\327\303\260P\015"
 495      A7DB3E18 
 495      E33BC7D4 
 495      D7C3B050 
 495      0D
 496 1402 1A071CE0 		.ascii	"\032\007\034\340\353\326d0 sN\301\344\222\242\022\000"
 496      EBD66430 
 496      20734EC1 
 496      E492A212 
 496      00
 497 1413 A0352BC6 		.ascii	"\2405+\306\344\346\325\223Nxx\341\344\361\201\022h^"
 497      E4E6D593 
 497      4E7878E1 
 497      E4F18112 
 497      685E
ARM GAS  /tmp/ccG7kTd2.s 			page 39


 498 1425 B13A500A 		.ascii	"\261:P\012^S(U\010\005\305\336)\205\245\305\236\273"
 498      5E532855 
 498      0805C5DE 
 498      2985A5C5 
 498      9EBB
 499 1437 C6177B27 		.ascii	"\306\027{'\347\222(o|\261\347\316\202\342\3240\026\364"
 499      E792286F 
 499      7CB1E7CE 
 499      82E2D430 
 499      16F4
 500 1449 062BCAE4 		.ascii	"\006+\312\344\324`\2702X\241\370\302RUE\260\246\\\252"
 500      D460B832 
 500      58A1F8C2 
 500      525545B0 
 500      A65CAA
 501 145c 4F9D2995 		.ascii	"O\235)\225)!yx\214\263\000-\015\235\020|\310\365$V\352"
 501      29217978 
 501      8CB3002D 
 501      0D9D107C 
 501      C8F52456 
 502 1471 C930A913 		.ascii	"\3110\251\023\362\024\024\347A\310\367N\035_\234G\242"
 502      F21414E7 
 502      41C8F74E 
 502      1D5F9C47 
 502      A2
 503 1482 7CA1B0D8 		.ascii	"|\241\260\330S\002\231%\305\371\236\202\202\342\224"
 503      53029925 
 503      C5F99E82 
 503      82E294
 504 1491 D2E2A292 		.ascii	"\322\342\242\222\011\336;'\0013\240a\037\351\231\202"
 504      09DE3B27 
 504      0133A061 
 504      1FE99982 
 505 14a1 D5C42EC9 		.ascii	"\325\304.\311+T\247x\211\365\246(\365w\324U\244\310"
 505      2B54A778 
 505      89F5A628 
 505      F577D455 
 505      A4C8
 506 14b3 241EA68F 		.ascii	"$\036\246\217\315Jum\376\3157\216*\343\3149\244\373"
 506      CD4A756D 
 506      FECD378E 
 506      2AE3CC39 
 506      A4FB
 507 14c5 C114341E 		.ascii	"\301\0244\036\035\274\323\261>4i\272\254%~\241\225 "
 507      1DBCD3B1 
 507      3E3469BA 
 507      AC257EA1 
 507      9520
 508 14d7 4D5B2A55 		.ascii	"M[*U\327J\262\250\324\201\377\327\212\2622*\327\003"
 508      D74AB2A8 
 508      D481FFD7 
 508      8AB2322A 
 508      D703
 509 14e9 BF7A15C8 		.ascii	"\277z\025\310\316\320\212\005k\202Jj9\222I\277O\014"
 509      CED08A05 
 509      6B824A6A 
 509      399249BF 
ARM GAS  /tmp/ccG7kTd2.s 			page 40


 509      4F0C
 510 14fb 4BE3A1B9 		.ascii	"K\343\241\271S\002w\200\001\352%\302J\2506\215D \375"
 510      53027780 
 510      01EA25C2 
 510      4AA8368D 
 510      4420FD
 511 150e 702D6F96 		.ascii	"p-o\226\034T$\332\365\247\314\024\253\352\244\313\255"
 511      1C5424DA 
 511      F5A7CC14 
 511      ABEAA4CB 
 511      AD
 512 151f A9A66956 		.ascii	"\251\246iVD\335\214\244\206\261\010\245\023\2033*}\204"
 512      44DD8CA4 
 512      86B108A5 
 512      1383332A 
 512      7D84
 513 1531 9D49C1EA 		.ascii	"\235I\301\352\240\222m\370mRhVV|\022B\370\314b\347$"
 513      A0926DF8 
 513      6D526856 
 513      567C1242 
 513      F8CC62E7 
 514 1546 A1DACB99 		.ascii	"\241\332\313\231Y\213,\326\204\3052%p_]\205\217h\246"
 514      598B2CD6 
 514      84C53225 
 514      705F5D85 
 514      8F68A6
 515 1559 205457A3 		.ascii	" TW\243\374/\240\235_/"
 515      FC2FA09D 
 515      5F2F
 516              		.text
 517              		.section	.gnu.lto_.symtab.a43516a03084634,"",%progbits
 518 0000 746D7032 		.ascii	"tmp275_init\000\000\000\000\000\000\000\000\000\000"
 518      37355F69 
 518      6E697400 
 518      00000000 
 518      00000000 
 519 0015 00003402 		.ascii	"\000\0004\002\000\000tmp275_stop\000\000\000\000\000"
 519      0000746D 
 519      70323735 
 519      5F73746F 
 519      70000000 
 520 002b 00000000 		.ascii	"\000\000\000\000\000\000\000@\002\000\000tmp275_wri"
 520      00000040 
 520      02000074 
 520      6D703237 
 520      355F7772 
 521 0040 7465436F 		.ascii	"teConfig\000\000\000\000\000\000\000\000\000\000\000"
 521      6E666967 
 521      00000000 
 521      00000000 
 521      000000
 522 0053 004C0200 		.ascii	"\000L\002\000\000tmp275_readTemperature\000\000\000"
 522      00746D70 
 522      3237355F 
 522      72656164 
 522      54656D70 
 523 0071 00000000 		.ascii	"\000\000\000\000\000\000\000\000\000U\002\000\000tm"
ARM GAS  /tmp/ccG7kTd2.s 			page 41


 523      00000000 
 523      00550200 
 523      00746D
 524 0080 70323735 		.ascii	"p275_writeTHigh\000\000\000\000\000\000\000\000\000"
 524      5F777269 
 524      74655448 
 524      69676800 
 524      00000000 
 525 0098 0000005D 		.ascii	"\000\000\000]\002\000\000tmp275_writeTLow\000\000\000"
 525      02000074 
 525      6D703237 
 525      355F7772 
 525      69746554 
 526 00b2 00000000 		.ascii	"\000\000\000\000\000\000\000\000\000l\002\000\000I2"
 526      00000000 
 526      006C0200 
 526      004932
 527 00c1 4353656E 		.ascii	"CSensor_init\000\000\002\000\000\000\000\000\000\000"
 527      736F725F 
 527      696E6974 
 527      00000200 
 527      00000000 
 528 00d7 00007102 		.ascii	"\000\000q\002\000\000I2CSensor_stop\000\000\002\000"
 528      00004932 
 528      4353656E 
 528      736F725F 
 528      73746F70 
 529 00ef 00000000 		.ascii	"\000\000\000\000\000\000\000\000}\002\000\000I2CSen"
 529      00000000 
 529      7D020000 
 529      49324353 
 529      656E
 530 0101 736F725F 		.ascii	"sor_transact_buf\000\000\002\000\000\000\000\000\000"
 530      7472616E 
 530      73616374 
 530      5F627566 
 530      00000200 
 531 011a 00000082 		.ascii	"\000\000\000\202\002\000\000"
 531      020000
 532              		.text
 533              		.section	.gnu.lto_.opts,"",%progbits
 534 0000 272D6D63 		.ascii	"'-mcpu=cortex-m4' '-mfloat-abi=hard' '-mfpu=fpv4-sp"
 534      70753D63 
 534      6F727465 
 534      782D6D34 
 534      2720272D 
 535 0033 2D643136 		.ascii	"-d16' '-mno-thumb-interwork' '-mthumb' '-O2' '-fomi"
 535      2720272D 
 535      6D6E6F2D 
 535      7468756D 
 535      622D696E 
 536 0066 742D6672 		.ascii	"t-frame-pointer' '-falign-functions=16' '-ffunction"
 536      616D652D 
 536      706F696E 
 536      74657227 
 536      20272D66 
 537 0099 2D736563 		.ascii	"-sections' '-fdata-sections' '-fno-common' '-flto' "
ARM GAS  /tmp/ccG7kTd2.s 			page 42


 537      74696F6E 
 537      73272027 
 537      2D666461 
 537      74612D73 
 538 00cc 272D6673 		.ascii	"'-fsingle-precision-constant'\000"
 538      696E676C 
 538      652D7072 
 538      65636973 
 538      696F6E2D 
 539              		.text
 540              		.section	.text.tmp275_init,"ax",%progbits
 541              		.align	2
 542              		.p2align 4,,15
 543              		.global	tmp275_init
 544              		.thumb
 545              		.thumb_func
 546              		.type	tmp275_init, %function
 547              	tmp275_init:
 548              		@ args = 0, pretend = 0, frame = 16
 549              		@ frame_needed = 0, uses_anonymous_args = 0
 550 0000 2DE9F041 		push	{r4, r5, r6, r7, r8, lr}
 551 0004 154B     		ldr	r3, .L2
 552 0006 164D     		ldr	r5, .L2+4
 553 0008 0646     		mov	r6, r0
 554 000a 8846     		mov	r8, r1
 555 000c 1746     		mov	r7, r2
 556 000e 93E80700 		ldmia	r3, {r0, r1, r2}
 557 0012 88B0     		sub	sp, sp, #32
 558 0014 05AB     		add	r3, sp, #20
 559 0016 03C3     		stmia	r3!, {r0, r1}
 560 0018 2C78     		ldrb	r4, [r5]	@ zero_extendqisi2
 561 001a 1A70     		strb	r2, [r3]
 562 001c 3046     		mov	r0, r6
 563 001e 06F12403 		add	r3, r6, #36
 564 0022 4FF0280C 		mov	ip, #40
 565 0026 0DF1140E 		add	lr, sp, #20
 566 002a 3A46     		mov	r2, r7
 567 002c 04F13006 		add	r6, r4, #48
 568 0030 671C     		adds	r7, r4, #1
 569 0032 0093     		str	r3, [sp]
 570 0034 0024     		movs	r4, #0
 571 0036 4146     		mov	r1, r8
 572 0038 00F12003 		add	r3, r0, #32
 573 003c CDF804C0 		str	ip, [sp, #4]
 574 0040 CDF808E0 		str	lr, [sp, #8]
 575 0044 2F70     		strb	r7, [r5]
 576 0046 8DF81B60 		strb	r6, [sp, #27]
 577 004a 8DF81D40 		strb	r4, [sp, #29]
 578 004e 8DF81E40 		strb	r4, [sp, #30]
 579 0052 FFF7FEFF 		bl	I2CSensor_init
 580 0056 08B0     		add	sp, sp, #32
 581              		@ sp needed
 582 0058 BDE8F081 		pop	{r4, r5, r6, r7, r8, pc}
 583              	.L3:
 584              		.align	2
 585              	.L2:
 586 005c 00000000 		.word	.LANCHOR0
ARM GAS  /tmp/ccG7kTd2.s 			page 43


 587 0060 00000000 		.word	.LANCHOR1
 588              		.size	tmp275_init, .-tmp275_init
 589 0064 AFF30080 		.section	.text.tmp275_stop,"ax",%progbits
 589      AFF30080 
 589      AFF30080 
 590              		.align	2
 591              		.p2align 4,,15
 592              		.global	tmp275_stop
 593              		.thumb
 594              		.thumb_func
 595              		.type	tmp275_stop, %function
 596              	tmp275_stop:
 597              		@ args = 0, pretend = 0, frame = 0
 598              		@ frame_needed = 0, uses_anonymous_args = 0
 599              		@ link register save eliminated.
 600 0000 FFF7FEBF 		b	I2CSensor_stop
 601              		.size	tmp275_stop, .-tmp275_stop
 602 0004 AFF30080 		.section	.text.tmp275_writeConfig,"ax",%progbits
 602      AFF30080 
 602      AFF30080 
 603              		.align	2
 604              		.p2align 4,,15
 605              		.global	tmp275_writeConfig
 606              		.thumb
 607              		.thumb_func
 608              		.type	tmp275_writeConfig, %function
 609              	tmp275_writeConfig:
 610              		@ args = 0, pretend = 0, frame = 0
 611              		@ frame_needed = 0, uses_anonymous_args = 0
 612              		@ link register save eliminated.
 613 0000 0122     		movs	r2, #1
 614 0002 80F82110 		strb	r1, [r0, #33]
 615 0006 80F82020 		strb	r2, [r0, #32]
 616 000a 0221     		movs	r1, #2
 617 000c 0022     		movs	r2, #0
 618 000e FFF7FEBF 		b	I2CSensor_transact_buf
 619              		.size	tmp275_writeConfig, .-tmp275_writeConfig
 620 0012 00BFAFF3 		.section	.text.tmp275_readTemperature,"ax",%progbits
 620      0080AFF3 
 620      0080AFF3 
 620      0080
 621              		.align	2
 622              		.p2align 4,,15
 623              		.global	tmp275_readTemperature
 624              		.thumb
 625              		.thumb_func
 626              		.type	tmp275_readTemperature, %function
 627              	tmp275_readTemperature:
 628              		@ args = 0, pretend = 0, frame = 0
 629              		@ frame_needed = 0, uses_anonymous_args = 0
 630 0000 38B5     		push	{r3, r4, r5, lr}
 631 0002 0023     		movs	r3, #0
 632 0004 0D46     		mov	r5, r1
 633 0006 80F82030 		strb	r3, [r0, #32]
 634 000a 0121     		movs	r1, #1
 635 000c 0222     		movs	r2, #2
 636 000e 0446     		mov	r4, r0
ARM GAS  /tmp/ccG7kTd2.s 			page 44


 637 0010 FFF7FEFF 		bl	I2CSensor_transact_buf
 638 0014 80B9     		cbnz	r0, .L7
 639 0016 94F82420 		ldrb	r2, [r4, #36]	@ zero_extendqisi2
 640 001a 94F82530 		ldrb	r3, [r4, #37]	@ zero_extendqisi2
 641 001e 9FED077A 		flds	s14, .L9
 642 0022 43EA0223 		orr	r3, r3, r2, lsl #8
 643 0026 1BB2     		sxth	r3, r3
 644 0028 07EE903A 		fmsr	s15, r3	@ int
 645 002c F8EEE77A 		fsitos	s15, s15
 646 0030 67EE877A 		fmuls	s15, s15, s14
 647 0034 C5ED007A 		fsts	s15, [r5]
 648              	.L7:
 649 0038 38BD     		pop	{r3, r4, r5, pc}
 650              	.L10:
 651 003a 00BF     		.align	2
 652              	.L9:
 653 003c ABAAAA3D 		.word	1034594987
 654              		.size	tmp275_readTemperature, .-tmp275_readTemperature
 655              		.section	.text.tmp275_writeTHigh,"ax",%progbits
 656              		.align	2
 657              		.p2align 4,,15
 658              		.global	tmp275_writeTHigh
 659              		.thumb
 660              		.thumb_func
 661              		.type	tmp275_writeTHigh, %function
 662              	tmp275_writeTHigh:
 663              		@ args = 0, pretend = 0, frame = 0
 664              		@ frame_needed = 0, uses_anonymous_args = 0
 665              		@ link register save eliminated.
 666 0000 0A12     		asrs	r2, r1, #8
 667 0002 80F82020 		strb	r2, [r0, #32]
 668 0006 80F82110 		strb	r1, [r0, #33]
 669 000a 0022     		movs	r2, #0
 670 000c 0221     		movs	r1, #2
 671 000e FFF7FEBF 		b	I2CSensor_transact_buf
 672              		.size	tmp275_writeTHigh, .-tmp275_writeTHigh
 673 0012 00BFAFF3 		.section	.text.tmp275_writeTLow,"ax",%progbits
 673      0080AFF3 
 673      0080AFF3 
 673      0080
 674              		.align	2
 675              		.p2align 4,,15
 676              		.global	tmp275_writeTLow
 677              		.thumb
 678              		.thumb_func
 679              		.type	tmp275_writeTLow, %function
 680              	tmp275_writeTLow:
 681              		@ args = 0, pretend = 0, frame = 0
 682              		@ frame_needed = 0, uses_anonymous_args = 0
 683              		@ link register save eliminated.
 684 0000 0A12     		asrs	r2, r1, #8
 685 0002 80F82020 		strb	r2, [r0, #32]
 686 0006 80F82110 		strb	r1, [r0, #33]
 687 000a 0022     		movs	r2, #0
 688 000c 0221     		movs	r1, #2
 689 000e FFF7FEBF 		b	I2CSensor_transact_buf
 690              		.size	tmp275_writeTLow, .-tmp275_writeTLow
ARM GAS  /tmp/ccG7kTd2.s 			page 45


 691 0012 00BFAFF3 		.section	.rodata
 691      0080AFF3 
 691      0080AFF3 
 691      0080
 692              		.align	2
 693              		.set	.LANCHOR0,. + 0
 694              	.LC0:
 695 0000 544D5032 		.ascii	"TMP275-X\000"
 695      37352D58 
 695      00
 696 0009 0000     		.space	2
 697 000b 00       		.section	.bss.sensCount,"aw",%nobits
 698              		.set	.LANCHOR1,. + 0
 699              		.type	sensCount, %object
 700              		.size	sensCount, 1
 701              	sensCount:
 702 0000 00       		.space	1
 703              		.comm	__gnu_lto_v1,1,1
 704              		.ident	"GCC: (GNU Tools for ARM Embedded Processors) 4.8.4 20140526 (release) [ARM/embedded-4_8-br
ARM GAS  /tmp/ccG7kTd2.s 			page 46

