ARM GAS  /tmp/ccS9EfO0.s 			page 1


   1              		.syntax unified
   2              		.cpu cortex-m4
   3              		.eabi_attribute 27, 3
   4              		.eabi_attribute 28, 1
   5              		.fpu fpv4-sp-d16
   6              		.eabi_attribute 20, 1
   7              		.eabi_attribute 21, 1
   8              		.eabi_attribute 23, 3
   9              		.eabi_attribute 24, 1
  10              		.eabi_attribute 25, 1
  11              		.eabi_attribute 26, 1
  12              		.eabi_attribute 30, 2
  13              		.eabi_attribute 34, 1
  14              		.eabi_attribute 18, 4
  15              		.thumb
  16              		.file	"tmp275.c"
  17              		.section	.gnu.lto_.jmpfuncs.27b762d2f5a2692c,"",%progbits
  18 0000 789C9D8D 		.ascii	"x\234\235\215Q\016\2000\010C\3332\345\337Sx$\257\260"
  18      510E8030 
  18      0843DB32 
  18      E5DF5378 
  18      24AFB0
  19 0013 0BECFC6E 		.ascii	"\013\354\374n\220%\306\230}\310O\201>\212 |\325\301"
  19      9025C698 
  19      7DC84F81 
  19      3E8A207C 
  19      D5C1
  20 0025 5487D1AD 		.ascii	"T\207\321\255\240\306\254\213\225\324l\372\346\237\345"
  20      A0C6AC8B 
  20      95D46CFA 
  20      E69FE5
  21 0034 D332808D 		.ascii	"\3232\200\215C\324\362a0:\3034%\307\344\200b\213\320"
  21      43D4F261 
  21      303AC334 
  21      25C7E480 
  21      628BD0
  22 0047 CDD43134 		.ascii	"\315\32414L\372\305\362q\264\257\202|e\342\006\3620"
  22      4CFAC5F2 
  22      71B4AF82 
  22      7C65E206 
  22      F230
  23 0059 1286     		.ascii	"\022\206"
  24              		.text
  25              		.section	.gnu.lto_.inline.27b762d2f5a2692c,"",%progbits
  26 0000 789C8D4F 		.ascii	"x\234\215O\261\015\3020\020\274\177;8(!\001Q\200\020"
  26      B10DC230 
  26      10BC7F3B 
  26      38282101 
  26      518010
  27 0013 5252910E 		.ascii	"RR\221\016e\004&H\315\006@\315\006T)3BJF@\242\241\245"
  27      65042648 
  27      CD0640CD 
  27      06542933 
  27      424A4640 
  28 002a 630C4A46 		.ascii	"c\014JF\340\343\304\221\220R`\313\376\323\371|\177\317"
  28      E0E3C491 
  28      905260CB 
ARM GAS  /tmp/ccS9EfO0.s 			page 2


  28      FED3F97C 
  28      7FCF
  29 003c 600CAD33 		.ascii	"`\014\2553\265\325\000a@\036\035\367t\"%\004\035\034"
  29      B5D50061 
  29      401E1DF7 
  29      74222504 
  29      1D1C
  30 004e 824854CD 		.ascii	"\202HT\315\266\\\231\232\017\201\234Q\235\010\3676S"
  30      B65C999A 
  30      0F819C51 
  30      9D08F736 
  30      53
  31 005f 86BA2DA6 		.ascii	"\206\272-\246\015L-\221\202_q\016]';\350r\235k\320\305"
  31      0D4C2D91 
  31      825F710E 
  31      5D273BE8 
  31      729D6BD0 
  32 0074 68B6B7B5 		.ascii	"h\266\267\265\0136O\210Mc\304\313\307\235\020V\205M"
  32      0B364F88 
  32      4D63C4CB 
  32      C79D1056 
  32      854D
  33 0086 A727D2A2 		.ascii	"\247'\322\242*\206\200?\223\214U\341\266\2600\2613q"
  33      2A86803F 
  33      938C55E1 
  33      B6B030B1 
  33      3371
  34 0098 693A0B6E 		.ascii	"i:\013n\024\032\343\231{\227<\360?\333\337\036\036\242"
  34      141AE399 
  34      7B973CF0 
  34      3FDBDF1E 
  34      1EA2
  35 00aa 95137865 		.ascii	"\225\023xe\006SfV\240\302\316\301\213:\345\010\301\234"
  35      06536656 
  35      A0C2CEC1 
  35      8B3AE508 
  35      C19C
  36 00bc DAC1AD5C 		.ascii	"\332\301\255\\\365~\002\354H\275\324\374/\305\027Jn"
  36      F57E02EC 
  36      48BDD4FC 
  36      2FC5174A 
  36      6E
  37 00cd 2A52     		.ascii	"*R"
  38              		.text
  39              		.section	.gnu.lto_.pureconst.27b762d2f5a2692c,"",%progbits
  40 0000 789C6362 		.ascii	"x\234cb`b\340g\200\000v\006)F)f\011\026)V)6)v)\000\007"
  40      6062E067 
  40      80007606 
  40      29462966 
  40      09162956 
  41 001b BB00E9   		.ascii	"\273\000\351"
  42              		.text
  43              		.section	.gnu.lto_tmp275_readTemperature.part.0.27b762d2f5a2692c,"",%progbits
  44 0000 789C8D52 		.ascii	"x\234\215R\317k\023Q\020\236\357\375\330\335$\205V\360"
  44      CF6B1351 
  44      109EEFFD 
  44      D8DD2485 
ARM GAS  /tmp/ccS9EfO0.s 			page 3


  44      56F0
  45 0012 20E2A1E4 		.ascii	" \342\241\344\352/\020\324\203\327\376\011)\350q\015"
  45      EA2F10D4 
  45      83D7FE09 
  45      29E8710D 
  46 0022 65D943A0 		.ascii	"e\331C\240$Q\217}q{\020OA\004i\205b\220\026)\024\275"
  46      24518F7D 
  46      717B104F 
  46      41046985 
  46      62901629 
  47 0038 087AD38B 		.ascii	"\010z\323\213DP\301{\225\322\253Z\012E\301\213\353\314"
  47      4450C17B 
  47      95D2AB5A 
  47      0A45C18B 
  47      EBCC
  48 004a 5BB36972 		.ascii	"[\263ir\362\301\316\274\375\336\314|\337\2747\212\024"
  48      F2C1CEBC 
  48      FDDECC7C 
  48      DFBC378A 
  48      14
  49 005b 4DAF6BFC 		.ascii	"M\257k\374}`\270\316\036\001\301\366?\361\306By\257"
  49      7D60B8CE 
  49      1E01C1F6 
  49      3FF1C642 
  49      79AF
  50 006d 945E7F47 		.ascii	"\224^\177G\344\252\346WHnF\303\010\334\213\014 \033"
  50      E4AAE657 
  50      486E46C3 
  50      08DC8B0C 
  50      201B
  51 007f 02AD58A5 		.ascii	"\002\255X\245\015Vn@\212\251:\015\234\353\357m~}x\312"
  51      0D566E40 
  51      8AA93A0D 
  51      9CEBEF6D 
  51      7E7D78CA 
  52 0093 3DE9F5DD 		.ascii	"=\351\365\335\237<G\012\246=\011j\202\256\363\017\346"
  52      9F3C470A 
  52      A63D096A 
  52      82AEF30F 
  52      E6
  53 00a4 BC535352 		.ascii	"\274SSR\212\3147_~\014\341\036\270\336a\236\317\246"
  53      8ACC375F 
  53      7E0CE11E 
  53      B8DE619E 
  53      CFA6
  54 00b6 D08ACE8C 		.ascii	"\320\212\316\214\023\347\213D3\231\370\\\271\275<\377"
  54      13E78B44 
  54      3399F85C 
  54      B9BD3CFF 
  55 00c6 BD1FCD02 		.ascii	"\275\037\315\002-\241Ja4\033k\304X6A X(\273\210b\014"
  55      2DA14A61 
  55      341B6BC4 
  55      58364120 
  55      5828BB88 
  56 00dc 50A70A87 		.ascii	"P\247\012\207\242\312HX\023\303e,\2552\377|\214\247"
  56      A2CA4858 
  56      13C3652C 
ARM GAS  /tmp/ccS9EfO0.s 			page 4


  56      AD32FF7C 
  56      8CA7
  57 00ee 90AB68FA 		.ascii	"\220\253h\372~\032l\245\317\006\254x\275\010\345\375"
  57      7E1A6CA5 
  57      CF06AC78 
  57      BD08E5FD 
  58 00fe 47BABBFB 		.ascii	"G\272\273\373j\343J\2313\3609169\216W\002u\236\316\245"
  58      6AE34A99 
  58      33F03931 
  58      36398E57 
  58      02759ECE 
  59 0113 88CED2B6 		.ascii	"\210\316\322\266\343\365\222eW\036\323z\317\271\271"
  59      E3F59265 
  59      571ED37A 
  59      CFB9B9
  60 0122 14D50490 		.ascii	"\024\325\004\220Fj^\376M\024m\010b\217\265\305\024\007"
  60      466A5EFE 
  60      4D146D08 
  60      628FB5C5 
  60      1407
  61 0134 D9BE8EB1 		.ascii	"\331\276\216\261\305p\002\3155\005\314vJ\3100\352\263"
  61      C57002CD 
  61      3505CC76 
  61      4AC830EA 
  61      B3
  62 0145 A222FC5B 		.ascii	"\242\"\374[v\200\321\231\345c\017\356\276HFX0\241\351"
  62      7680D199 
  62      E5630FEE 
  62      BE484658 
  62      30A1E9
  63 0158 51F09F9A 		.ascii	"Q\360\237\2320\245iL\022rM\257\351u\266U\202\221'\347"
  63      30A5694C 
  63      12724DAF 
  63      E975B655 
  63      829127E7 
  64 016c 1B1DD2EA 		.ascii	"\033\035\322\352\367\267?[#\274\"\305f\216?\334\"4\361"
  64      F7B73F5B 
  64      23BC22C5 
  64      668E3FDC 
  64      2234F1
  65 017f 70C9653E 		.ascii	"p\311e>\313\216\216\312\276XK\344\313\336/\241\032\243"
  65      CB8E8ECA 
  65      BE584BE4 
  65      CBDE2FA1 
  65      1AA3
  66 0191 A769CDDD 		.ascii	"\247i\315\335s\375a\316#\305\0239Z(\236\217\213\274"
  66      73FD61CE 
  66      23C51339 
  66      5A289E8F 
  66      8BBC
  67 01a3 3FAC16F1 		.ascii	"?\254\026\361eW\341\004m\362\257;&6\376\025?\363 \217"
  67      6557E104 
  67      6DF2AF3B 
  67      2636FE15 
  67      3FF3208F 
  68 01b7 E5340041 		.ascii	"\3454\000Ae,O,\264\323\333K\355\316\305nk\371\322\325"
  68      652C4F2C 
ARM GAS  /tmp/ccS9EfO0.s 			page 5


  68      B4D3DB4B 
  68      EDCEC56E 
  68      6BF9D2D5 
  69 01cb CB179A14 		.ascii	"\313\027\232\024\266\343;\215\245\326r\320\351\306\335"
  69      B6E33B8D 
  69      A5D672D0 
  69      E9C6DD
  70 01da 5B9DBF79 		.ascii	"[\235\277y{\257\325"
  70      7BAFD5
  71              		.text
  72              		.section	.gnu.lto_tmp275_init.27b762d2f5a2692c,"",%progbits
  73 0000 789C9D54 		.ascii	"x\234\235TMHTQ\024>\347\276\371y\3438\376\224\203\004"
  73      4D485451 
  73      143EE7BE 
  73      F979E338 
  73      FE948304 
  74 0014 11E22A28 		.ascii	"\021\342*(M\255\010Z\005\265i\021\264P\260\345k\020"
  74      4DAD085A 
  74      05B56911 
  74      B450B0E5 
  74      6B10
  75 0026 798BB172 		.ascii	"y\213\261r\314E.\274\243a\322\"\206\026\"\206\224\014"
  75      CC452EBC 
  75      A361D222 
  75      86162286 
  75      940C
  76 0038 D28FA154 		.ascii	"\322\217\241T\233)\013\006%D\034\373\331I\233fW\021"
  76      9B290B06 
  76      25441CFB 
  76      D9499B66 
  76      5711
  77 004a 889B2025 		.ascii	"\210\233 %z\235{\357{3o\346\015\225^\230{\357\334{\276"
  77      7A9D7BEF 
  77      7B336FE6 
  77      0D955E98 
  77      7BEFDC7B 
  78 005f EF3BE7BB 		.ascii	"\357;\347\273\367>\006\014\312\333\001\372-\004\000"
  78      F73E060C 
  78      CADB01FA 
  78      2D0400
  79 006e 4ED3881A 		.ascii	"N\323\210\032 K\275\003H\352\014QL\000a\230\341\360"
  79      204BBD03 
  79      48EA0C51 
  79      4C006198 
  79      E1F0
  80 0080 2514A15A 		.ascii	"%\024\241Z3\314p~7\377v\345N\343\355<O\361\337\226\205"
  80      33CC707E 
  80      37FF76E5 
  80      4EE3ED3C 
  80      4FF1DF96 
  81 0095 26126903 		.ascii	"&\022i\003B\014\241\233\376\240.\007\206\245*\012\311"
  81      420CA19B 
  81      FEA02E07 
  81      86A52A0A 
  81      C9
  82 00a6 E71F8D68 		.ascii	"\347\037\215h\017\370/\313\322$\254\251\",\216\245\270"
  82      0FF82FCB 
ARM GAS  /tmp/ccS9EfO0.s 			page 6


  82      D224ACA9 
  82      222C8EA5 
  82      B8
  83 00b7 6C2ABBF8 		.ascii	"l*\273\370U'tr\313\262jM\324\030\034-\002\273\0250\\"
  83      55277472 
  83      CBB26A4D 
  83      D4181C2D 
  83      02BB1530 
  84 00cc AAB7C0B2 		.ascii	"\252\267\300\262y\313\312\245?D\017j`\340\0146\203\217"
  84      79CBCAA5 
  84      3F440F6A 
  84      60E00C36 
  84      838F
  85 00de C6348D01 		.ascii	"\3064\215\0010\321\247c\0341D3\177\025u\2010u\301jZ"
  85      30D1A763 
  85      1C314433 
  85      7F157581 
  85      3075C16A 
  86 00f3 6311EA34 		.ascii	"c\021\3524\"\360\303M\316SM\006\316\022\004\204\032"
  86      22F0C34D 
  86      CE534D06 
  86      CE120484 
  86      1A
  87 0104 B54EEA85 		.ascii	"\265N\352\205+]\310\304\250\255\303\310\233\314\255"
  87      2B5DC8C4 
  87      A8ADC3C8 
  87      9BCCAD
  88 0113 88810FD1 		.ascii	"\210\201\017\321\017*\364\020\264O\363\3113\246$\241"
  88      0F2AF410 
  88      B44FF3C9 
  88      33A624A1 
  89 0123 FDD58D95 		.ascii	"\375\325\215\225\032\265\337\213\332=\230Jr^g\242>\004"
  89      1AB5DF8B 
  89      DA3D984A 
  89      725E67A2 
  89      3E04
  90 0135 3B7C5CCC 		.ascii	";|\\\314B\252ZQC\310\316}\035F\3075\007\343#\230\330"
  90      42AA5A51 
  90      43C8CE7D 
  90      1D46C735 
  90      07E32398 
  91 014a D451F19D 		.ascii	"\324Q\361\235W\033\377\303D\3402\262\200M\346k+!k\201"
  91      571BFFC3 
  91      44E032B2 
  91      804DE66B 
  91      2B216B81 
  92 015e A79CDA71 		.ascii	"\247\234\332q\332PE\210\230\252\240\343%\341d\364\316"
  92      DA504588 
  92      98AAA0E3 
  92      25E164F4 
  92      CE
  93 016f A8B5C11C 		.ascii	"\250\265\301\034\252\320\020\334 \367\216\300\023\001"
  93      AAD010DC 
  93      20F78EC0 
  93      1301
  94 017d BD666298 		.ascii	"\275fb\230R\"Xu/\352\002\036\221\320\313\356k )\236"
  94      52225875 
ARM GAS  /tmp/ccS9EfO0.s 			page 7


  94      2FEA021E 
  94      91D0CBEE 
  94      6B20299E 
  95 0191 1792A992 		.ascii	"\027\222\251\222\014\001\233\3413aj*S`\031\305|\265"
  95      0C019BE1 
  95      33616A2A 
  95      536019C5 
  95      7CB5
  96 01a3 43119614 		.ascii	"C\021\226\024A\233b:`bme\012\327\265\177\017S<\343W"
  96      419B623A 
  96      60626D65 
  96      0AD7B57F 
  96      0F533CE3 
  97 01b8 0C0005F7 		.ascii	"\014\000\005\367\352b\266\016\225\326+\360\021\312\220"
  97      EA62B60E 
  97      95D62BF0 
  97      11CA90
  98 01c7 14044BFD 		.ascii	"\024\004K\375a\031Gm\233$\366)\217l\006\023\367\313"
  98      6119476D 
  98      9B24F629 
  98      8F6C0613 
  98      F7CB
  99 01d9 B4329313 		.ascii	"\2642\223\023\215\366\235q.\017Oo\223\256\212\213\251"
  99      8DF69D71 
  99      2E0F4F6F 
  99      93AE8A8B 
  99      A9
 100 01ea 1494D3D9 		.ascii	"\024\224\323\331g\217\305\211\332i\267\253\302\325q"
 100      678FC589 
 100      DA69B7AB 
 100      C2D571
 101 01f9 56A8DDC0 		.ascii	"V\250\335\300WBH\236\211*\301\265\342\\\213\265\314"
 101      5742489E 
 101      892AC1B5 
 101      E25C8BB5 
 101      CC
 102 020a 44A3812F 		.ascii	"D\243\201/\213\207\331\2657\001\364\010(\317\306\362"
 102      8B87D9B5 
 102      3701F408 
 102      28CFC6F2 
 103 021a 9F0615BF 		.ascii	"\237\006\025\277\313\263\206\030jv\250\364M\3063\007"
 103      CBB38618 
 103      6A76A8F4 
 103      4DC63307 
 104 022a 666254BD 		.ascii	"fbT\275\200\314\227-Vn\315,\026\235\361\271\234Y\034"
 104      80CC972D 
 104      566ECD2C 
 104      169DF1B9 
 104      9C591C
 105 023d 8BEE26F1 		.ascii	"\213\356&\361e\2173\205\025\260\320y\201\244o\340\322"
 105      658F3385 
 105      15B0D079 
 105      81A46FE0 
 105      D2
 106 024e 1EBD59F6 		.ascii	"\036\275Y\366xS\224\340h\233s?\215J\301\343\316\362"
 106      785394E0 
 106      689B733F 
ARM GAS  /tmp/ccS9EfO0.s 			page 8


 106      8D4AC1E3 
 106      CEF2
 107 0260 BFDCD9D8 		.ascii	"\277\334\331\330\364\2723\367\315uq\374.{~\354\316\236"
 107      F4BA33F7 
 107      CD7571FC 
 107      2E7B7EEC 
 107      CE9E
 108 0272 9CC79EC2 		.ascii	"\234\307\236\302\212\363\234V\177n\012w\326\366\350"
 108      8AF39C56 
 108      7F6E0A77 
 108      D6F6E8
 109 0281 4ECEE34E 		.ascii	"N\316\343NQa\3306\347\2650g\255\2229\271\277\233\263"
 109      5161D836 
 109      E7B53067 
 109      AD9239B9 
 109      BF9BB3
 110 0294 F49DB93F 		.ascii	"\364\235\271?\255'\340\005\037G\365e\375\010\311\374"
 110      AD27E005 
 110      1F47F565 
 110      FD08C9FC 
 111 02a4 1C735EB1 		.ascii	"\034s^\261j\235\224\022}\225\305C\253?\327o\016\366"
 111      6A9D9412 
 111      7D95C543 
 111      AB3FD76F 
 111      0EF6
 112 02b6 F4278E0D 		.ascii	"\364'\216\015\304\257v\234:\331\032\203p\242\247/q\366"
 112      C4AF769C 
 112      3AD91A83 
 112      70A2A72F 
 112      71F6
 113 02c8 CAF5BE81 		.ascii	"\312\365\276\201\3266\327\274\303\327g\304{B\235\027"
 113      D636D7BC 
 113      C3D767C4 
 113      7B429D17 
 114 02d8 2E52584B 		.ascii	".RXK7\374\001i\\\213\364"
 114      37FC0169 
 114      5C8BF4
 115              		.text
 116              		.section	.gnu.lto_tmp275_stop.27b762d2f5a2692c,"",%progbits
 117 0000 789C6362 		.ascii	"x\234cb`b@\007\222@|\031\210\205\201\230\221\231\201"
 117      60624007 
 117      92407C19 
 117      88858198 
 117      919981
 118 0013 9169C239 		.ascii	"\221i\3029\006\206F\016&FF\020\203\201\221\241\236\211"
 118      0686460E 
 118      26464610 
 118      838191A1 
 118      9E89
 119 0025 B13E9211 		.ascii	"\261>\222\021\254v=\323\201\007\377\377\257\373\321"
 119      AC763DD3 
 119      8107FFFF 
 119      AFFBD1
 120 0034 F289999D 		.ascii	"\362\211\231\235\2211\227\021h\\&#\003\013\220\305\310"
 120      91319711 
 120      685C2623 
 120      030B90C5 
ARM GAS  /tmp/ccS9EfO0.s 			page 9


 120      C8
 121 0045 06648114 		.ascii	"\006d\201\024\2612\26444LP``H\006k\011\001\222 sB\031"
 121      B132B434 
 121      344C5060 
 121      6048066B 
 121      09019220 
 122 005c 994034F3 		.ascii	"\231@4\363Y\206\246_\315\337/2'2.ddeHgd\252f\250\002"
 122      5986A65F 
 122      CDDF2F32 
 122      27322E64 
 122      64654867 
 123 0075 1AA1CDB0 		.ascii	"\032\241\315\260\252\001\010\3523\031\231f3\314b\314"
 123      AA0108EA 
 123      33199966 
 123      33CC62CC 
 124 0085 64644E67 		.ascii	"ddNgd\214\000\322,`{\223\030\221\034|\236\241\365\000"
 124      648C00D2 
 124      2C607B93 
 124      18911C7C 
 124      9EA1F500 
 125 0099 2B4C3F5B 		.ascii	"+L?[5\303\257\206\216\006\201LF\326dF\210*\240\241\351"
 125      35C3AF86 
 125      8E06814C 
 125      46D66446 
 125      882AA0A1 
 126 00ae 8C2C9940 		.ascii	"\214,\231@\0271\\d`\204+\204h\016\001*\002\272\003\024"
 126      17315C64 
 126      60842B84 
 126      680E012A 
 126      02BA0314 
 127 00c2 0C822E45 		.ascii	"\014\202.E\231e\251E\305\372%\271\005F\346\246z\311"
 127      9965A945 
 127      C5FA25B9 
 127      0546E6A6 
 127      7AC9
 128 00d4 0C0048BA 		.ascii	"\014\000H\2725\243"
 128      35A3
 129              		.text
 130              		.section	.gnu.lto_tmp275_writeConfig.27b762d2f5a2692c,"",%progbits
 131 0000 789CA591 		.ascii	"x\234\245\221\261KC1\020\306\277\357^\337kG\305A\334"
 131      B14B4331 
 131      10C6BFEF 
 131      5EDF6B47 
 131      C541DC
 132 0013 DC458B82 		.ascii	"\334E\213\2028\270\372'\264\240\243>\344\221\241 mq"
 132      38B8FA27 
 132      B4A0A33E 
 132      E491A120 
 132      6D71
 133 0025 B04353AB 		.ascii	"\260CS\253\342X\027\021\005\301UD\327\216\335\245\212"
 133      E2581711 
 133      05C15544 
 133      D78EDDA5 
 133      8A
 134 0036 6BBB74F7 		.ascii	"k\273t\367?\350R/I\333A\334<\310]\222\357\362K\356\""
 134      3FE8522F 
 134      49DB41DC 
ARM GAS  /tmp/ccS9EfO0.s 			page 10


 134      3CC85D92 
 134      EFF24BEE 
 135 004b 10FCB615 		.ascii	"\020\374\266\025\035m\002K\032\031\201\322\371\000Z"
 135      1D6D024B 
 135      1A1981D2 
 135      F9005A
 136 005a 0521DD04 		.ascii	"\005!\335\004DS\330<\240\317}\223\336h2y}\274\034\304"
 136      4453D83C 
 136      A0CF7D93 
 136      DE683279 
 136      7DBC1CC4 
 137 006e 9A502172 		.ascii	"\232P!r\352\230\300x9\306\205\265\235U \365\313\222"
 137      EA98C078 
 137      39C685B5 
 137      9D5520F5 
 137      CB92
 138 0080 7A872853 		.ascii	"z\207(S\\\214\3728\357\336\335.\037\362\2111\326\361"
 138      5C8CFA38 
 138      EFDEDD2E 
 138      1FF28931 
 138      D6F1
 139 0092 62D5CA86 		.ascii	"b\325\312\206\\\303\263\233n\032\312\003\356i\030e\224"
 139      5CC3B39B 
 139      6E1ACA03 
 139      EE691865 
 139      94
 140 00a3 7D8D397F 		.ascii	"}\2159\177\347Q\270\032n'\236\277\332\255\350\024\245"
 140      E751B81A 
 140      6E279EBF 
 140      DAADE814 
 140      A5
 141 00b4 BE77FF49 		.ascii	"\276w\377I\345\214\2329U\211\343\366\367 \012\310\214"
 141      E58C9A39 
 141      5589E3F6 
 141      F7200AC8 
 141      8C
 142 00c5 4903675A 		.ascii	"I\003gZ\340\024x\243\007\222\277\211s\014\360\211\253"
 142      E01478A3 
 142      0792BF89 
 142      730CF089 
 142      AB
 143 00d6 DE6E0000 		.ascii	"\336n\000\000\015\214\355\265]0\314\247\323\034\205"
 143      0D8CEDB5 
 143      5D30CCA7 
 143      D31C85
 144 00e5 FA0224D4 		.ascii	"\372\002$\324\001m`\001\370Bk4\224\331\251`%U\265y\356"
 144      016D6001 
 144      F8426B34 
 144      94D9A960 
 144      2555B579 
 145 00fa DB16F7AA 		.ascii	"\333\026\367\252\346\364\270Z+\326+'[;\333\033)~\000"
 145      E6F4B85A 
 145      2BD62B27 
 145      5B3BDB1B 
 145      297E00
 146 010d 97255775 		.ascii	"\227%Wu"
 147              		.text
ARM GAS  /tmp/ccS9EfO0.s 			page 11


 148              		.section	.gnu.lto_tmp275_readTemperature.27b762d2f5a2692c,"",%progbits
 149 0000 789C6D90 		.ascii	"x\234m\220\273J\003A\024\206\377\177v\022\223xAA\020"
 149      BB4A0341 
 149      1486FF7F 
 149      76129378 
 149      414110
 150 0013 1525D88A 		.ascii	"\025%\330\212\206\010\342\013\370\010\011h\031\203\204"
 150      8608E20B 
 150      F8080968 
 150      198384
 151 0022 2D0431D1 		.ascii	"-\0041\321B\013\307xA\013!\265i\024;Ql\003\012*(XxE"
 151      420BC778 
 151      410B21B5 
 151      69143B51 
 151      6C030A2A 
 152 003a 1BB1309D 		.ascii	"\033\2610\235\357\220\302\365\314n\214\027<\260{f\316"
 152      EF90C2F5 
 152      CC6E8C17 
 152      3CB07B66 
 152      CE
 153 004b E53BFF1C 		.ascii	"\345;\377\034\005\205\277\226\224\357\205@\217x\206"
 153      0585BF96 
 153      94EF8540 
 153      8F7886
 154 005a 4055BA03 		.ascii	"@U\272\003V\"J9\317\011\230\230>\355\207iq\250m\230"
 154      56224A39 
 154      CF099898 
 154      3EED8769 
 154      71A86D98 
 155 006e 9AB41EC4 		.ascii	"\232\264\036\304\262r4\227'i\021\034\300\2361\245\352"
 155      B2723497 
 155      2769111C 
 155      C09E31A5 
 155      EA
 156 007f D5EB76B7 		.ascii	"\325\353v\267\331-\226\314\207\347\321\245\014\353$"
 156      D92D96CC 
 156      87E7D1A5 
 156      0CEB24
 157 008e B2C4845C 		.ascii	"\262\304\204\\\030\367\235\322\277\247\037\253\363\252"
 157      18F79DD2 
 157      BFA71FAB 
 157      F3AA
 158 009c E7DD1C3D 		.ascii	"\347\335\034=\\1\2468Ch\270t\302\310pO\250Q\211\330"
 158      5C31A638 
 158      4368B874 
 158      C2C8704F 
 158      A85189D8 
 159 00b0 0921AC09 		.ascii	"\011!\254\011?\036\004a\221b)\371[1i*\353\235[\024+"
 159      3F1E0461 
 159      916229F9 
 159      5B31692A 
 159      EB9D5B14 
 160 00c5 95725786 		.ascii	"\225rW\206\373\362\214!\034\032\261\264K=\210\003{L"
 160      FBF28C21 
 160      1C1AB1B4 
 160      4B3D8803 
 160      7B4C
ARM GAS  /tmp/ccS9EfO0.s 			page 12


 161 00d7 BA0C95B1 		.ascii	"\272\014\225\261#\032\3029*\253\245\311W0\305@\211\215"
 161      231AC239 
 161      2AABA5C9 
 161      5730C540 
 161      898D
 162 00e9 441ABAEC 		.ascii	"D\032\272\354\315\227*\324\332\352\311S(\300\346\250"
 162      CD972AD4 
 162      DAEAC953 
 162      28C0E6A8 
 163 00f9 97B0280A 		.ascii	"\227\260(\012\353\3203)\213\376O\345\367#\357\261q\336"
 163      EBD03329 
 163      8BFE4FE5 
 163      F723EFB1 
 163      71DE
 164 010b FB05082F 		.ascii	"\373\005\010/\241f6M\273\313X\266^$T\177^\260)\255d"
 164      A166364D 
 164      BBCB58B6 
 164      5E24547F 
 164      5EB029AD 
 165 0120 05CDC035 		.ascii	"\005\315\3005.\337/\336\372\032}6\327\362swi:xN8\367"
 165      2EDF2FDE 
 165      FA1A7D36 
 165      D7F27377 
 165      693A784E 
 166 0136 588F0445 		.ascii	"X\217\004E@\203\335\232\245\252\263U\216Q\227m_=\332"
 166      4083DD9A 
 166      A5AAB355 
 166      8E51976D 
 166      5F3DDA
 167 0149 5FD62356 		.ascii	"_\326#V\252[\373l\300\203lJ\004I\326vv\214\317\271\013"
 167      AA5BFB6C 
 167      C0836C4A 
 167      0449D676 
 167      768CCFB9 
 168 015e D373F944 		.ascii	"\323s\371Dafvdlt8\213p\276\220)\314\347?\001\361\025"
 168      61667664 
 168      6C74388B 
 168      70BE9029 
 168      CCE73F01 
 169 0174 7207     		.ascii	"r\007"
 170              		.text
 171              		.section	.gnu.lto_tmp275_writeTHigh.27b762d2f5a2692c,"",%progbits
 172 0000 789CAD92 		.ascii	"x\234\255\222=H\003A\020\205\337\333u\315\235g\241X"
 172      3D480341 
 172      1085DFDB 
 172      75CD9D67 
 172      A158
 173 0012 D9D98B8A 		.ascii	"\331\331\213\212\202\250\275\225u\002Z\352!\307\025"
 173      82A8BD95 
 173      75025AEA 
 173      21C715
 174 0021 01896261 		.ascii	"\001\211ba\212\234\236\210E\212\324Z\250]\020\211\255"
 174      8A9C9E88 
 174      458AD45A 
 174      A85D1089 
 174      AD
 175 0032 652AC122 		.ascii	"e*\301\"\376t\226\366\202\255\020\213sv\223\213 \226"
ARM GAS  /tmp/ccS9EfO0.s 			page 13


 175      FE7496F6 
 175      82AD108B 
 175      7376938B 
 175      2096
 176 0044 2EECECEC 		.ascii	".\354\354\354\356\274of\177\024\024~\267I\351\257\004"
 176      EEBC6F66 
 176      7F14147E 
 176      B749E9AF 
 176      04
 177 0055 2664A406 		.ascii	"&d\244\006U\343\0218\364\024i\035\0205\305\332\006]"
 177      55E31138 
 177      F414691D 
 177      1035C5DA 
 177      065D
 178 0067 ECAD6ABF 		.ascii	"\354\255j\277eY\353\356\376\262I\216\222e\0120&\264"
 178      6559EBEE 
 178      FEB2498E 
 178      92650A30 
 178      26B4
 179 0079 181A99B2 		.ascii	"\030\032\231\262`=_\214\012\304h\321\030\034'Ic\012"
 179      603D5F8C 
 179      0AC468D1 
 179      181C2749 
 179      630A
 180 008b 081DA328 		.ascii	"\010\035\243(\326\202KTv\324\035\244\255\364\263\276"
 180      D6824B54 
 180      76D41DA4 
 180      ADF4B3BE 
 181 009b BCC92B1A 		.ascii	"\274\311+\032DT\021\271\316\230C\236\004wp\364\241\363"
 181      445411B9 
 181      CE98439E 
 181      047770F4 
 181      A1F3
 182 00ad 1D2D9B6E 		.ascii	"\035-\233n\351\3419\350\255\315\340&\221V\212i\246q"
 182      E9E139E8 
 182      ADCDE026 
 182      91568A69 
 182      A671
 183 00bf 6DDDF998 		.ascii	"m\335\371\230\303\3478\023}!\242\261\034\317\025\276"
 183      C3E73813 
 183      7D21A2B1 
 183      1CCF15BE 
 184 00cf D5AB1F8E 		.ascii	"\325\253\037\216<8zd\013\024\340{\372U_\311\323\210"
 184      3C387A64 
 184      0B14E07B 
 184      FA555FC9 
 184      D388
 185 00e1 90FF9286 		.ascii	"\220\377\222\206?i\012\016\330M\263\372Z\236\306\257"
 185      3F690A0E 
 185      D84DB3FA 
 185      5A9EC6AF 
 186 00f1 E2406EA9 		.ascii	"\342@n\251\017\274\020\201\3777q\200\001\236p\32269"
 186      0FBC1081 
 186      FF377180 
 186      019E70D2 
 186      3639
 187 0103 20A8A29B 		.ascii	" \250\242\233\234&c1G\302~\220P\255\322(W\200\201\274"
ARM GAS  /tmp/ccS9EfO0.s 			page 14


 187      9C266331 
 187      47C27E90 
 187      50ADD228 
 187      578081BC 
 188 0117 4000BC80 		.ascii	"@\000\274\200\003M\217S\224x\271{\373\027\306W+\361"
 188      034D8F53 
 188      9478B97B 
 188      FB17C657 
 188      2BF1
 189 0129 FE766577 		.ascii	"\376vewn\257\274\263\260\2648\033\342\033p+iZ"
 189      6EAFBCB3 
 189      B0B4381B 
 189      E21B702B 
 189      695A
 190              		.text
 191              		.section	.gnu.lto_tmp275_writeTLow.27b762d2f5a2692c,"",%progbits
 192 0000 789CAD92 		.ascii	"x\234\255\222\277K\303@\024\307\277\337\213g\022\343"
 192      BF4BC340 
 192      14C7BFDF 
 192      8B6712E3 
 193 0010 A038B9B9 		.ascii	"\2408\271\271\213\212\202\350\037\340\344\334\202\216"
 193      8B8A82E8 
 193      1FE0E4DC 
 193      828E
 194 001e 1A246428 		.ascii	"\032$d(H\025\007;4\032\021\227Bg\035\324U\244\376\005"
 194      4815073B 
 194      341A1197 
 194      42671DD4 
 194      55A4FE05 
 195 0032 4227C1A1 		.ascii	"B'\301\241\376\330\034\335\013\012\272u\251\357.M\012"
 195      FED81CDD 
 195      0B0ABA75 
 195      A9EF2E4D 
 195      0A
 196 0043 E2E841DE 		.ascii	"\342\350A\336\275\334\275\357\347}s\027\005\205\337"
 196      BDDCBDEF 
 196      E77D7317 
 196      0585DF
 197 0052 635A9E37 		.ascii	"cZ\2367\002S2\323\001U\363\0118\362\024i\022\020u\305"
 197      025332D3 
 197      0155F309 
 197      38F21469 
 197      121075C5 
 198 0066 FA266DED 		.ascii	"\372&m\355\235j\277\367\373\255\257\207\253{r\234\254"
 198      9D6ABFF7 
 198      FBADAF87 
 198      AB7B729C 
 198      AC
 199 0077 508031E1 		.ascii	"P\2001\341H\240\226W\272&\363%\250@\202#\032\215\223"
 199      48A09657 
 199      BA26F325 
 199      A8408223 
 199      1A8D93
 200 008a 2469CE00 		.ascii	"$i\316\000\241e\224$\032p\231\312\314N\007i+\3556V\267"
 200      A1659424 
 200      1A7099CA 
 200      CC4E0769 
ARM GAS  /tmp/ccS9EfO0.s 			page 15


 200      2BED3656 
 201 009f 784D8D88 		.ascii	"xM\215\210*\"7\030s\304\223\342\016\216?\234|\307\221"
 201      2A223718 
 201      73C493E2 
 201      0E8E3F9C 
 201      7CC791
 202 00b2 4DBBF4F8 		.ascii	"M\273\364\370\022dks\270Md\224c\352Y\334\230t1\346\350"
 202      12646B73 
 202      B84D6494 
 202      63EA59DC 
 202      987431E6 
 203 00c7 05CE45EF 		.ascii	"\005\316E\357F\324\206\343Y\343\333\231\177Xr\361\351"
 203      46D486E3 
 203      59E3DB99 
 203      7F5872F1 
 203      E9
 204 00d8 913128C0 		.ascii	"\2211(\300n\37294 B\376K\033\016\333\270\026\330K\277"
 204      6EFA3934 
 204      2042FE4B 
 204      1B0EDBB8 
 204      16D84BBF 
 205 00ec 1BEB791B 		.ascii	"\033\353y\033\277\206C9\245\001\360R\004\376\337\304"
 205      BF864339 
 205      A501F052 
 205      04FEDFC4 
 206 00fc 02033CE3 		.ascii	"\002\003<\343\264\255s@PC/9K&b\216\205\203\"\241\032"
 206      B4AD7340 
 206      50432F39 
 206      4B26628E 
 206      858322A1 
 207 0111 A556D680 		.ascii	"\245V\326\200\206\334@\000\274\202\205&\343\224\244"
 207      86DC4000 
 207      BC828526 
 207      E394A4
 208 0120 5ECEDEFC 		.ascii	"^\316\336\374\013\223k\325\370`\247\272\267\260_\331"
 208      0B936BD5 
 208      F860A7BA 
 208      B7B05FD9 
 209 0130 5D5A599E 		.ascii	"]ZY\236\017\361\003\336\212i\207"
 209      0FF103DE 
 209      8A6987
 210              		.text
 211              		.section	.gnu.lto_.symbol_nodes.27b762d2f5a2692c,"",%progbits
 212 0000 789C4DC8 		.ascii	"x\234M\310\275\021\202P\024D\341\275{\371\265\011K]"
 212      BD118250 
 212      1444E1BD 
 212      7BF9B509 
 212      4B5D
 213 0012 040534B2 		.ascii	"\004\0054\262\001M\210\254\303\234\032pL\251A}\012#"
 213      014D88AC 
 213      C39C1A70 
 213      4CA9417D 
 213      0A23
 214 0024 6C72E65B 		.ascii	"lr\346[\202\0301\217G\0128\367\200ti\215\005e3\257\255"
 214      8218318F 
 214      470A38F7 
 214      8074698D 
ARM GAS  /tmp/ccS9EfO0.s 			page 16


 214      056533AF 
 215 0039 C56F4324 		.ascii	"\305oC$\347\216\342\362\262\244|\305\212\212V\334S\361"
 215      E78EE2F2 
 215      B2A47CC5 
 215      8A8A56DC 
 215      53F1
 216 004b 8A072A59 		.ascii	"\212\007*Yh-\225N,\012\263\232\312\0265T\376\227[\216"
 216      682D954E 
 216      2C0AB39A 
 216      CA163554 
 216      FE975B8E 
 217 005f AE1EB76E 		.ascii	"\256\036\267n\031\252f\352s\356\375\024\352\033t\303"
 217      19AA66EA 
 217      73EEFD14 
 217      EA1B74C3 
 218 006f CB3C0AFF 		.ascii	"\313<\012\377\267q\370\177\005\312[o\236\004?\202\323"
 218      B771F87F 
 218      05CA5B6F 
 218      9E043F82 
 218      D3
 219 0080 A9F8009B 		.ascii	"\251\370\000\233\017F\346"
 219      0F46E6
 220              		.text
 221              		.section	.gnu.lto_.refs.27b762d2f5a2692c,"",%progbits
 222 0000 789C6362 		.ascii	"x\234cb`b`g\200\000&F bb\000\000\000\347\000\024"
 222      60626067 
 222      80002646 
 222      20626200 
 222      0000E700 
 223              		.text
 224              		.section	.gnu.lto_.decls.27b762d2f5a2692c,"",%progbits
 225 0000 789CBD5C 		.ascii	"x\234\275\\{t\024U\232\257\252\256\244\323$\206\200"
 225      7B741455 
 225      9AAFAAAE 
 225      A4D32486 
 225      80
 226 0011 238B8EB3 		.ascii	"#\213\216\263\366\3548\036\306Q\362\000\025\327\035"
 226      F6EC381E 
 226      C651F200 
 226      15D71D
 227 0020 05131C72 		.ascii	"\005\023\034r\206\207\233\2049\270{<m\231\256\220^\223"
 227      86879B84 
 227      39B87B3C 
 227      6D99AE90 
 227      5E93
 228 0032 74ACAE40 		.ascii	"t\254\256@\370k\212\004\242\202@\014 \001!\304\021\360"
 228      F86B8A04 
 228      A282400C 
 228      200121C4 
 228      11F0
 229 0044 CD888012 		.ascii	"\315\210\200\022\017j\343\213\010\310C\004I\360\321"
 229      0F6AE38B 
 229      08C84304 
 229      49F0D1
 230 0053 CE0A82A8 		.ascii	"\316\012\202\250\013H\014\210$\373\335\257\252\272o"
 230      0B480C88 
 230      24FBDDAF 
ARM GAS  /tmp/ccS9EfO0.s 			page 17


 230      AABA6F
 231 0062 55AABAAB 		.ascii	"U\252\272\2532\356\326\341~Uu\373\336\337\367\270\337"
 231      32EED6E1 
 231      7E5575FB 
 231      DEDFF7B8 
 231      DF
 232 0073 775F7503 		.ascii	"w_u\003\307pL\320\3030\375p\335\373'\206\371.\203a\340"
 232      C7704CD0 
 232      C330FD70 
 232      DDFB2786 
 232      F92E8361 
 233 0088 1F733B24 		.ascii	"\037s;$\036\322\223\220\266B\362B\272\231Q\257!\220"
 233      1ED29390 
 233      B642F242 
 233      BA9951AF 
 233      2190
 234 009a AEE21866 		.ascii	"\256\342\030f,\244\361\220&C\232\016\351^HU\220\036"
 234      2CA4F190 
 234      26439A0E 
 234      E95E4855 
 234      901E
 235 00ac 84540FA9 		.ascii	"\204T\017\251\021\022\013e\037\346\030\303E\352^\006"
 235      11120B65 
 235      1FE618C3 
 235      45EA5E06 
 236 00bc 7701EED9 		.ascii	"w\001\356\331p\317\202\324\300\252e\011OR|\264\306\367"
 236      70CF82D4 
 236      C0AA6509 
 236      4F527CB4 
 236      C6F7
 237 00ce 7A78F967 		.ascii	"zx\371gH\277\342T\376\244\314\3574\\\202C\312\346\002"
 237      48BFE254 
 237      FEA4CCEF 
 237      345C8243 
 237      CAE602
 238 00e1 C937F120 		.ascii	"\3117\361 \262\215\320\312\353<\206\023\371 C\206\373"
 238      B28DD0CA 
 238      EB3C8613 
 238      F9204386 
 238      FB
 239 00f2 02480B39 		.ascii	"\002H\0139\225\307\010.\241\253\316\353:N\345\375(\247"
 239      95C7082E 
 239      A1ABCEEB 
 239      3A4EE5FD 
 239      28A7
 240 0104 EABE08EE 		.ascii	"\352\276\010\356s -\206$A\002\2231\277\201\373o9U\236"
 240      73202D86 
 240      24410293 
 240      31BF81FB 
 240      6F39559E 
 241 0118 748D67BD 		.ascii	"t\215g\275f\217\007){\360\232\015\376\025\322m\220\376"
 241      668F0729 
 241      7BF09A0D 
 241      FE15D26D 
 241      90FE
 242 012a 609275BC 		.ascii	"`\222u\274\306\203\310E\354@\313\261\004\322<M\337\337"
 242      C683C845 
ARM GAS  /tmp/ccS9EfO0.s 			page 18


 242      EC40CBB1 
 242      04D23C4D 
 242      DFDF
 243 013c 68FA8ED7 		.ascii	"h\372\216\327lK\236'\001)6\341\021\376>\015\217\350"
 243      6C4B9E27 
 243      012936E1 
 243      11FE3E0D 
 243      8FE8
 244 014e 771D6543 		.ascii	"w\035eC]O]\017R\225\350\240c\353\262\223\347\177\007"
 244      5D4F5D0F 
 244      5295E8A0 
 244      63EBB293 
 244      E77F07
 245 0161 5262C226 		.ascii	"Rb\302&\355<Tk/\335\256N\370\020\3734\303\375\227&\236"
 245      ED3C546B 
 245      2FDDAE4E 
 245      F810FB34 
 245      C3FD9726 
 246 0176 1E0D93F0 		.ascii	"\036\015\223\360\324\333\363?\200\374\247\211/\261e"
 246      D4DBF33F 
 246      80FCA789 
 246      2FB165
 247 0185 96E61B2C 		.ascii	"\226\346\033,e+\236\031\310;\231~\367R\372\205\200T"
 247      652B9E19 
 247      C83B997E 
 247      F752FA85 
 247      8054
 248 0197 9AF854FD 		.ascii	"\232\370T\375L|\252(>a 5&>\303\231\307\024\270\374\235"
 248      4C7CAA28 
 248      3E612035 
 248      263EC399 
 248      C714B8FC 
 249 01ac 60C419AC 		.ascii	"`\304\031\254\300f\373\030\205\303\247,\037\343'`\314"
 249      C066FB18 
 249      85C3A72C 
 249      1FE32760 
 249      CC
 250 01bd 3A45698E 		.ascii	":Ei\216\315_\302\372\005\366Iv8 \215d\231\353\231g\241"
 250      CD5FC2FA 
 250      05F64976 
 250      38208D64 
 250      99EB9967 
 251 01d2 56B3A234 		.ascii	"V\263\2424\\\316\014\274R\202B\314\261\353\001K`\327"
 251      5CCE0CBC 
 251      528242CC 
 251      B1EB014B 
 251      60D7
 252 01e4 B1D7AB2C 		.ascii	"\261\327\253,\224\350\241\240_\315e\264|\213\353\327"
 252      94E8A1A0 
 252      5FCD65B4 
 252      7C8BEBD7 
 253 01f4 4C3BF08C 		.ascii	"L;\360\214vm\351`\225\246,/\323\004oJl~\303\310\326"
 253      766DE960 
 253      95A62C2F 
 253      D3046F4A 
 253      6C7EC3C8 
 254 0209 04AB0C9D 		.ascii	"\004\253\014\235\023\033\027?z \203\023\330gX/H\377"
ARM GAS  /tmp/ccS9EfO0.s 			page 19


 254      131B173F 
 254      7A208313 
 254      D867582F 
 254      48FF
 255 021b 7BD600EF 		.ascii	"{\326\000\357\000\203\310\363<\3245H\333\301sjn\022"
 255      0083C8F3 
 255      3CD43548 
 255      DBC1736A 
 255      6E12
 256 022d 693D0C5A 		.ascii	"i=\014Z\3766\026\321x_\"\253(\236\305R\005\213\343\271"
 256      FE3616D1 
 256      785F22AB 
 256      289EC552 
 256      058BE3B9 
 257 0241 7A2B9157 		.ascii	"z+\221W\326\227x\350g\015\014h\271\004\366\005\366\267"
 257      D69778E8 
 257      670D0C68 
 257      B904F605 
 257      F6B7
 258 0253 405F643D 		.ascii	"@_d=\226\3258f*\253\231\335JI\3551\3016[\177\321\215"
 258      96D53866 
 258      2AAB99DD 
 258      4A49ED31 
 258      C1365B7F 
 259 0269 7EF4DC36 		.ascii	"~\364\3346bt\037\3630\032l\275\222\302\350\261\256\246"
 259      62741FF3 
 259      301A6CBD 
 259      92C2E8B1 
 259      AEA6
 260 027b 177FAF28 		.ascii	"\027\177\257(\031\002\273\225%\032\3151\032\3369\316"
 260      1902BB95 
 260      251ACD31 
 260      1ADE39CE 
 261 028b D2056DE3 		.ascii	"\322\005m\343\020g\033\342\274\302\032\2014U)\243\300"
 261      10671BE2 
 261      BCC21A81 
 261      345529A3 
 261      C0
 262 029c BB5E20A5 		.ascii	"\273^ \245\001S\224\345\230(\353\326l\031\264\331b\357"
 262      015394E5 
 262      9828EBD6 
 262      6C19B4D9 
 262      62EF
 263 02ae 2E5C76A5 		.ascii	".\\v\245\322\376\026\233\311, \372\2667)\223:\263-\""
 263      D2FE169B 
 263      C92C20FA 
 263      B6372993 
 263      3AB32D22 
 264 02c2 24EAD1C1 		.ascii	"$\352\321\301\306%T\337\264\367\320\006\266QQ\340\207"
 264      C62554DF 
 264      B4F7D006 
 264      B65151E0 
 264      87
 265 02d3 3730F616 		.ascii	"70\366\026qF\345S\002\011l\224\345\200\3560\207\333"
 265      7146E553 
 265      02096C94 
 265      E580EE30 
ARM GAS  /tmp/ccS9EfO0.s 			page 20


 265      87DB
 266 02e5 9955590A 		.ascii	"\231UY\012\257\346\247\016\270\013\335m\377\244\304"
 266      AFE6A70E 
 266      B80BDD6D 
 266      FFA4C4
 267 02f4 A2ACE388 		.ascii	"\242\254\343\210\213}\376\341\307\371\330h\357`\324"
 267      8B7DFEE1 
 267      C7F9D868 
 267      EF60D4
 268 0303 EDE20615 		.ascii	"\355\342\006\025v;\315aw\240i(\221z\247\243\300;\304"
 268      763BCD61 
 268      77A06928 
 268      917AA7A3 
 268      C03BC4
 269 0316 0D8CBC18 		.ascii	"\015\214\274\030g\031z'9c\354i\331\337'\262=T\366\\"
 269      67197A27 
 269      3963EC69 
 269      D9DF27B2 
 269      3D54F65C 
 270 032a 4F3C9BA7 		.ascii	"O<\233\247\262\227$\262\323(\227H\352\177;\251\000\356"
 270      B29724B2 
 270      D3289748 
 270      EA7F3BA9 
 270      00EE
 271 033c C4007EDF 		.ascii	"\304\000~\337&\200\005vs\274%\007\025\301\261M\213\277"
 271      26800576 
 271      73BC2507 
 271      15C1B14D 
 271      8BBF
 272 034e 3CCE2E6D 		.ascii	"<\316.mT:\363\254\234\021\212\260\224\033\335\247\003"
 272      543AF3AC 
 272      9C118AB0 
 272      941BDDA7 
 272      03
 273 035f 66C51B35 		.ascii	"f\305\0335\372z7\353\267\3608CQ\201=\002j\244*E\312"
 273      FA7A37EB 
 273      B7F03843 
 273      51813D02 
 273      6AA42A45 
 274 0374 759B5D72 		.ascii	"u\233]rM7\272d\267#\227\334\324\275\334\235KF\317|L"
 274      4D37BA64 
 274      B72397DC 
 274      D4BDDC9D 
 274      4B46CF7C 
 275 0389 C6B04FD1 		.ascii	"\306\260O\321\037Wy\006\345\2171\263?v\255@\177\214"
 275      1F577906 
 275      E58F31B3 
 275      3F76AD40 
 275      7F8C
 276 039b 39F2C70D 		.ascii	"9\362\307\015\036\312\367\264\274M\036K\307{\327ct<"
 276      1ECAF7B4 
 276      BC4D1E4B 
 276      C77BD763 
 276      743C
 277 03ad 27AE14A3 		.ascii	"'\256\024\243\\\351\013t\245\277\333\216\005\037\243"
 277      5CE90B74 
 277      A5BFDB8E 
ARM GAS  /tmp/ccS9EfO0.s 			page 21


 277      051FA3
 278 03bc FEDD831E 		.ascii	"\376\335\203\036\0146w/\307^M\353\305UG\212\227\365"
 278      0C36772F 
 278      C75E4DEB 
 278      C555478A 
 278      97F5
 279 03ce EB083C43 		.ascii	"\353\010<C\215\006\357\356`\033\260+\373\032\373\361"
 279      8D06EFEE 
 279      601BB02B 
 279      FB1AFBF1 
 280 03de CF3D9603 		.ascii	"\317=\226\003\202\003\250\245\013\266\337\212}\313\267"
 280      8203A8A5 
 280      0BB6DF8A 
 280      7DCBB7
 281 03ed 0874C263 		.ascii	"\010t\302c\036\020\274\246\001\301k\354\344\275\276"
 281      1E10BCA6 
 281      01C16BEC 
 281      E4BDBE
 282 03fc C4035970 		.ascii	"\304\003Yp\014e\334\026\207\236\301l@\203\240V\006\364"
 282      0C65DC16 
 282      879EC16C 
 282      4083A056 
 282      06F4
 283 040e D3068458 		.ascii	"\323\006\204X\334\373\012{\266Ai\315s\356\300K\273\211"
 283      DCFB0A7B 
 283      B64169CD 
 283      73EEC04B 
 283      BB89
 284 0420 039F4507 		.ascii	"\003\237E\007\356\037\234\003\367\230\035\370\242\352"
 284      EE1F9C03 
 284      F7981DF8 
 284      A2EA
 285 042e C03D8E1C 		.ascii	"\300=\216\034x1?\320\201\327\360\226\016\3747\336\275"
 285      78313FD0 
 285      81D7F096 
 285      0EFC37DE 
 285      BD
 286 043f 03F7500E 		.ascii	"\003\367P\016\374\003:p\257\255\003\277\303;p\340\014"
 286      FC033A70 
 286      AFAD03BF 
 286      C33B70E0 
 286      0C
 287 0450 0B07A6F8 		.ascii	"\013\007\246\370\251\234\216\"\247O\330_\003=\211\364"
 287      A99C8E22 
 287      A74FD85F 
 287      033D89F4 
 288 0460 0CD0F8C5 		.ascii	"\014\320\370\3051\373x\263\177\251=\024\205\224\350"
 288      31FB78B3 
 288      7FA93D14 
 288      8594E8
 289 046f CA986458 		.ascii	"\312\230dXV\256B*\034\206\331A\234]\027\262\3331X\317"
 289      56AE422A 
 289      1C86D941 
 289      9C5D17B2 
 289      DB3158CF 
 290 0483 8AAE3CDA 		.ascii	"\212\256<\332\346.4\243o\256\270\202\370\300\\\2164"
 290      E62E34A3 
ARM GAS  /tmp/ccS9EfO0.s 			page 22


 290      6FAEB882 
 290      F8C05C8E 
 290      34
 291 0494 616C80B6 		.ascii	"al\200\266_\233\347WN\342\343\224\023-\254\332\007\265"
 291      5F9BE757 
 291      4EE2E394 
 291      132DACDA 
 291      07B5
 292 04a6 50A29B8F 		.ascii	"P\242\233\217\266\261D\013\253\265\004\253\327\317\211"
 292      B6B1440B 
 292      ABB504AB 
 292      D7CF89
 293 04b5 EB103BF4 		.ascii	"\353\020;\364\325\211\343Z\367\322\304\221\231\322\206"
 293      D589E35A 
 293      F7D2C491 
 293      99D286
 294 04c4 B4943325 		.ascii	"\264\2243%#\020\307l\304*\217p\246a\251G\360\253\271"
 294      2310C76C 
 294      C42A8F70 
 294      A661A947 
 294      F0ABB9
 295 04d7 A9062525 		.ascii	"\251\006%%\332{\314\247\264dY\260\032O\253\254\367\210"
 295      DA7BCCA7 
 295      B46459B0 
 295      1A4FABAC 
 295      F788
 296 04e9 A76257BE 		.ascii	"\247bW\276\257(9\002\273\010%\376\326Z\342\366\361v"
 296      AF283902 
 296      BB0825FE 
 296      D65AE2F6 
 296      F176
 297 04fb 381C7309 		.ascii	"8\034s\011\2534\233$\216\275~\266\363\252VDnv vC\364"
 297      AB349B24 
 297      8EBD7EB6 
 297      F3AA5644 
 297      6E762076 
 298 0511 50D31A47 		.ascii	"P\323\032Gs\324v^g_\224P\343\310\251\350H\354\215\227"
 298      73D4765E 
 298      675F9450 
 298      E3C8A9E8 
 298      48EC8D97 
 299 0525 A3166FA7 		.ascii	"\243\026o\247\247\264\273\021\206c\366`\225\326\201"
 299      A7B4BB11 
 299      8663F660 
 299      95D681
 300 0534 5AC47EA9 		.ascii	"Z\304~\251j\321\352H\213\213\232\026\002\273\214\313"
 300      6AD1EA48 
 300      8B8B9A16 
 300      02BB8CCB 
 301 0544 04D8C371 		.ascii	"\004\330\303qX\247\201d\304\353{/\253Y\320\301>u\015"
 301      58A78164 
 301      C4EB7B2F 
 301      AB59D0C1 
 301      3E750D
 302 0557 E637802D 		.ascii	"\3467\200-\335\271\332\345\200\271\262\367\304\225\257"
 302      DDB9DAE5 
 302      80B9B2F7 
ARM GAS  /tmp/ccS9EfO0.s 			page 23


 302      C495AF
 303 0566 A3FAED18 		.ascii	"\243\372\355\030\230/z\177\226\300\334\352u\240\210"
 303      982F7A7F 
 303      96C0DCEA 
 303      75A088
 304 0575 7D6042AB 		.ascii	"}`B\253\354\277\272\343eEy$]\367\317t;E8f;2[on\331\225"
 304      ECBFBAE3 
 304      65457924 
 304      5DF7CF74 
 304      3B453866 
 305 0590 7DFB6F54 		.ascii	"}\373oT[v\275\243\226}u\367\012g\376\231\256\263\017"
 305      5B76BDA3 
 305      967D75F7 
 305      0A67FE99 
 305      AEB30F
 306 05a3 22FB3E64 		.ascii	"\"\373>d\377\234\231\375\326\277\236\274]e\377\234#"
 306      FF9C99FD 
 306      D6BF9EBC 
 306      5D65FF9C 
 306      23
 307 05b4 F69FEFB3 		.ascii	"\366\237\357\263X\302\011\354\355W$m\276\276\323\243"
 307      58C209EC 
 307      ED57246D 
 307      BEBED3A3 
 308 05c4 D622938D 		.ascii	"\326\"\223\215\350@\235\031\346\346\273#\223\346\205"
 308      E8409D19 
 308      E6E6BB23 
 308      93E685
 309 05d3 EF54018E 		.ascii	"\357T\001\2169\220\241K?(\377\0055w\334\361,\266\224"
 309      3990A14B 
 309      3F28FF05 
 309      3577DCF1 
 309      2CB694
 310 05e6 2EC321D7 		.ascii	".\303!\327\210F'>\273\017#B\005\353r\002f\353H\015\321"
 310      8846273E 
 310      BB0F2342 
 310      05EB7202 
 310      66EB480D 
 311 05fb 7334D8A7 		.ascii	"s4\330\247\256\301\214\222\375@\203}\341\004,\307^\262"
 311      AEC18C92 
 311      FD40837D 
 311      E1042CC7 
 311      5EB2
 312 060d F334D831 		.ascii	"\3634\3301\327`F\311~\244\301N:\001\033i/\331O4\330"
 312      D76046C9 
 312      7EA4C14E 
 312      3A011B69 
 312      2FD94F34 
 313 0622 B7AEC18C 		.ascii	"\267\256\301\214\222\365\321`g\234\200\371\355%k\376"
 313      92F5D160 
 313      679C80F9 
 313      ED256BFE 
 314 0632 9002EB71 		.ascii	"\220\002\353q\015f\224\254\205\006\273\340\004l\224"
 314      0D6694AC 
 314      8506BBE0 
 314      046C94
 315 0641 BD64CB68 		.ascii	"\275d\313h\260K\256\301\214\222=N\203\315\3659\000\313"
ARM GAS  /tmp/ccS9EfO0.s 			page 24


 315      B04BAEC1 
 315      8C923D4E 
 315      83CDF539 
 315      00CB
 316 0653 B397AC95 		.ascii	"\263\227\254\225\006\233\357\032\314(\331*\032\354\021"
 316      069BEF1A 
 316      CC28D92A 
 316      1AEC11
 317 0662 2760E3EC 		.ascii	"'`\343\354%[M\203-r\015f\224\354%\032\3541'`\343\355"
 317      255B4D83 
 317      2D720D66 
 317      94EC251A 
 317      EC312760 
 318 0678 257B9906 		.ascii	"%{\231\006[\346\032\314(\331\026\032l\205\023\260I\366"
 318      5BE61ACC 
 318      28D9161A 
 318      6C8513B0 
 318      49F6
 319 068a 92BD4283 		.ascii	"\222\275B\203\255r\015f\224l\033\015\266\306\011\330"
 319      AD720D66 
 319      946C1B0D 
 319      B6C609D8 
 320 069a DDF692BD 		.ascii	"\335\366\222\275F\203\265\273\0063J\266\235\006{\312"
 320      4683B5BB 
 320      06334AB6 
 320      9D067BCA 
 321 06aa 09D80C7B 		.ascii	"\011\330\014{\311\336\240\301\236v\015f\224l?\015\366"
 321      C9DEA0C1 
 321      9E760D66 
 321      946C3F0D 
 321      F6
 322 06bb BC13B0FB 		.ascii	"\274\023\260\373,$\213_V\365\3100\375,G-\3266\372\364"
 322      2C248B5F 
 322      56F5C830 
 322      FD2C472D 
 322      D636FAF4 
 323 06cf 098ECB31 		.ascii	"\011\216\3131\232I`\274\354s;#3\350M\346\311W\277\246"
 323      9A4960BC 
 323      EC733B23 
 323      33E84DE6 
 323      C957BFA6 
 324 06e3 8DF3EA64 		.ascii	"\215\363\352du\233\023\304$\003\340\252\235\324\314"
 324      759B13C4 
 324      2403E0AA 
 324      9DD4CC
 325 06f2 37EA1ACC 		.ascii	"7\352\032\314\344\312\004\3140u\212o\375G\223\357x\220"
 325      E4CA04CC 
 325      30758A6F 
 325      FD4793EF 
 325      7890
 326 0704 0F4C1CF5 		.ascii	"\017L\034\365\235`\244uY\201=\305\221%\3747\234/.\205"
 326      9D60A475 
 326      59813DC5 
 326      9125FC37 
 326      9C2F2E85 
 327 0718 FAAC3FA9 		.ascii	"\372\254?\251[\006\235>\343\206C\374JU\325\316\023N"
 327      5B069D3E 
ARM GAS  /tmp/ccS9EfO0.s 			page 25


 327      E38643FC 
 327      4A55D5CE 
 327      134E
 328 072a D29EF081 		.ascii	"\322\236\360\201\0233%\031\332?\337\271\032\3673\235"
 328      13332519 
 328      DA3FDFB9 
 328      1AF7339D 
 329 073a 7F1759D9 		.ascii	"\177\027Y\331\273_[ \234\306\005\302G>\363\014s\253"
 329      BB5F5B20 
 329      9CC605C2 
 329      473EF30C 
 329      73AB
 330 074c CB2F2330 		.ascii	"\313/#0\0173ka\265\255b?\247\000_<rM\307FEiLw\243G\247"
 330      0F336B61 
 330      B5AD623F 
 330      A7005F3C 
 330      724DC746 
 331 0767 A6470FEA 		.ascii	"\246G\017\352q\354g\320\343[\327z\2142\351\021\035\345"
 331      71EC67D0 
 331      E35BD77A 
 331      8C32E911 
 331      1DE5
 332 0779 5E8F239A 		.ascii	"^\217#\232\036?\242\036=?\203\036\227\\\353\221G\351"
 332      1E3FA21E 
 332      3D3F831E 
 332      975CEB91 
 332      47E9
 333 078b 81ABB5D1 		.ascii	"\201\253\265\321\352j\355r\246%\371j\215\310\323\317"
 333      EA6AED72 
 333      A625F96A 
 333      8DC8D3CF 
 334 079b 5D6EDADF 		.ascii	"]n\332\337\336E\266\034I\266\203\315\217]\324\022Wq"
 334      DE45B61C 
 334      49B683CD 
 334      8F5DD412 
 334      5771
 335 07ad B6C43DAD 		.ascii	"\266\304=\255Y\254\301C,6o\210\305\226\260#\244\256"
 335      59ACC143 
 335      2C366F88 
 335      C596B023 
 335      A4AE
 336 07bf F7DED9A4 		.ascii	"\367\336\331\244m\377\314G\250\005\203\206Z\272\353"
 336      6DFFCC47 
 336      A8058386 
 336      5ABAEB
 337 07ce 55F5     		.ascii	"U\365"
 338 07d0 73E3C308 		.ascii	"s\343\303\010\3242\304\334\212\351\246FL76\"\274\022"
 338      D432C4DC 
 338      8AE9A646 
 338      4C373622 
 338      BC12
 339 07e2 4EE7C98A 		.ascii	"N\347\311\212\233\375\213\226C^\274\314\377{=\216Y\215"
 339      9BFD8B96 
 339      435EBCCC 
 339      FF7B3D8E 
 339      598D
 340 07f4 E2930674 		.ascii	"\342\223\006t9@%\034\350\206\016mpQ\033\351\251\177"
ARM GAS  /tmp/ccS9EfO0.s 			page 26


 340      3940251C 
 340      E8860E6D 
 340      70511BE9 
 340      A97F
 341 0806 08B121BA 		.ascii	"\010\261!\272y\241\276Ms\007\031^^\370\007\341\016\354"
 341      79A1BE4D 
 341      7307195E 
 341      5EF807E1 
 341      0EEC
 342 0818 76BFB112 		.ascii	"v\277\261\022\275J\365\272\307P\241\315\003ZxP\033+"
 342      BD4AF5BA 
 342      C750A1CD 
 342      035A7850 
 342      1B2B
 343 082a 6F0E5691 		.ascii	"o\016V\221\370\3051\357\015q0\210\370\223\265\326\371"
 343      F8C531EF 
 343      0D713088 
 343      F893B5D6 
 343      F9
 344 083b D10E3767 		.ascii	"\321\0167g\342\233\220'Fv\2421Vx\310\366\335.\2231\034"
 344      E29B9027 
 344      4676A231 
 344      5678C8F6 
 344      DD2E9331 
 345 0850 6CF27461 		.ascii	"l\362ta\225U\236\001\333w\373\257TwY\310O\0166y\014"
 345      95559E01 
 345      DB77FBAF 
 345      547759C8 
 345      4F0E3679 
 346 0865 DB7702BB 		.ascii	"\333w\002\273\232\3434\330\301\332\323\320\204\011\371"
 346      9AE334D8 
 346      C1DAD3D0 
 346      8409F9
 347 0874 00DA43E6 		.ascii	"\000\332C\346\013k<\206m\376\223\256m\357\247m\037\275"
 347      0B6B3C86 
 347      6DFE93AE 
 347      6DEFA76D 
 347      1FBD
 348 0886 B87B35AB 		.ascii	"\270{5\253\312\257n\347~o\306\033O\317\345\264G\333"
 348      CAAF6EE7 
 348      7E6FC61B 
 348      4FCFE5B4 
 348      47DB
 349 0898 75AB126D 		.ascii	"u\253\022m\331\213\22305\350\372\234\010\227d\251\331"
 349      D98B9330 
 349      35E8FA9C 
 349      089764A9 
 349      D9
 350 08a9 A682A90E 		.ascii	"\246\202\251\016?/\323-\230\337\000\366\372b\213\355"
 350      3F2FD32D 
 350      98DF00F6 
 350      FA628BED 
 351 08b9 62758BDC 		.ascii	"bu\213\334n`\331\340\241\246JK\234\360O\262:=\264w\265"
 351      6E60D9E0 
 351      A1A64A4B 
 351      9CF04FB2 
 351      3A3DB477 
ARM GAS  /tmp/ccS9EfO0.s 			page 27


 352 08ce E629EACE 		.ascii	"\346)\352\316\350J\327xF}\316,6\364H\353\234\300\215"
 352      E84AD778 
 352      467DCE2C 
 352      36F448EB 
 352      9CC08D
 353 08e1 77EC7889 		.ascii	"w\354x\211}mpB\234\250>\301\221/Ck\220\256E\272\016"
 353      7D6D7042 
 353      9CA83EC1 
 353      912F436B 
 353      90AE45BA 
 354 08f6 E997488F 		.ascii	"\351\227H\217#=\201\364\177\220\236Cz\001i\037\322\307"
 354      233D81F4 
 354      7F909E43 
 354      7A01691F 
 354      D2C7
 355 0908 3D5817E9 		.ascii	"=X\027\351\223H\237B\272\036\3513H\237\243\335\333\256"
 355      93489F42 
 355      BA1EE933 
 355      489FA3DD 
 355      DBAE
 356 091a 5DD4508B 		.ascii	"]\324P\213\007\246\036u\315\203\3364?\234\3304\027\330"
 356      07A61E75 
 356      CD83DE34 
 356      3F9CD834 
 356      17D8
 357 092c 36D760FE 		.ascii	"6\327`\376d\226l\246,\331\202\226\\\212\326x\301\030"
 357      64966CA6 
 357      2CD98296 
 357      5C8AD678 
 357      C118
 358 093e C82F64EA 		.ascii	"\310/d\352\237q\222\004\236\275\012\261\217\276:\341"
 358      9F719204 
 358      9EBD0AB1 
 358      8FBE3AE1 
 359 094e 5DA944E7 		.ascii	"]\251D\347y\364\025\320\0263`\312\005\232\321&}\242"
 359      79F415D0 
 359      163360CA 
 359      059AD126 
 359      7DA2
 360 0960 E9C485FA 		.ascii	"\351\304\205\372\215\312\256M6\321\261\262\3355\357"
 360      8DCAAE4D 
 360      36D1B1B2 
 360      DD35EF
 361 096f A4267C84 		.ascii	"\244&|\2042\341B4\341\243h\302\215\3502/\321\206\024"
 361      32E14234 
 361      E1A368C2 
 361      8DE8322F 
 361      D18614
 362 0982 D8059CE9 		.ascii	"\330\005\234\351\274\211\361\203Y\022\346\361\217\334"
 362      BC89F183 
 362      5912E6F1 
 362      8FDC
 363 0990 3D872D0E 		.ascii	"=\207-\016\234\250\237\212\222\014J+\336\350\272\372"
 363      9CA89F8A 
 363      920C4A2B 
 363      DEE8BAFA 
 364 09a0 051C3AB6 		.ascii	"\005\034:\266xH\003\\\3144\217\320\3138\323\346\271"
ARM GAS  /tmp/ccS9EfO0.s 			page 28


 364      7848035C 
 364      CC348FD0 
 364      CB38D3E6 
 364      B9
 365 09b1 C9913966 		.ascii	"\311\2219fq\226\203\017\220IV2\233\026\367\036f\033"
 365      7196830F 
 365      90495632 
 365      9B16F71E 
 365      661B
 366 09c3 1B9567F2 		.ascii	"\033\225g\362\264\231\205\322\244\214z&1\010\346\350"
 366      B49985D2 
 366      A48C7A26 
 366      3108E6E8 
 367 09d3 185C5CEE 		.ascii	"\030\\\\\356\350V\365Cj\007\366\262\313\263,\3177\244"
 367      E856F543 
 367      6A07F6B2 
 367      CBB32CCF 
 367      37A4
 368 09e5 86897535 		.ascii	"\206\211u5\275z\003\316@\267#\320\332A\003-]\360\264"
 368      BD7A03CE 
 368      40B723D0 
 368      DA41032D 
 368      5DF0B4
 369 09f8 7A50E24D 		.ascii	"zP\342M\004z&\313lF\217i\236\3431\316s<\276\304C\177"
 369      047A26CB 
 369      6C468F69 
 369      9EE331CE 
 369      733CBEC4 
 370 0a0e BF87F93F 		.ascii	"\277\207\371?,\014\3230s\203\0314J5\367!\015vIs6\375"
 370      2C0CD330 
 370      73831934 
 370      4A35F721 
 370      0D764973 
 371 0a24 84C93627 		.ascii	"\204\3116'.`@4\270@\364\247\243\330\227\251`o9\001K"
 371      2E604034 
 371      B840F4A7 
 371      A3D897A9 
 371      606F3901 
 372 0a39 B20DBDBC 		.ascii	"\262\015\275\274m\255\3557\254\366\224G\257b\035\307"
 372      6DADED37 
 372      ACF69447 
 372      AF621DC7 
 373 0a49 DFFF3772 		.ascii	"\337\3777r\0200\365\361\253]\036g\307\257\366x\314\337"
 373      1030F5F1 
 373      AB5D1E67 
 373      C7AFF678 
 373      CCDF
 374 0a5b B9F7E2F1 		.ascii	"\271\367\342\361\253=\216fk\275Vs\000\253\323\210\361"
 374      AB3D8E66 
 374      6BBD5673 
 374      00ABD388 
 374      F1
 375 0a6c 2E636442 		.ascii	".cdB\231\217\277~\377v\365T\343~\234t\356\273,\365\251"
 375      998FBF7E 
 375      FF76F554 
 375      E37E9C74 
 375      EEBB2CF5 
ARM GAS  /tmp/ccS9EfO0.s 			page 29


 376 0a81 46030E91 		.ascii	"F\003\016\221\357\240Y\376\315\373P\376\203\251\345"
 376      EFA059FE 
 376      CDFB50FE 
 376      83A9E5
 377 0a90 9FD7187D 		.ascii	"\237\327\030}U\373\246\207\301\324\230t\331 \260\247"
 377      55FBA687 
 377      C1D49874 
 377      D920B0A7 
 378 0aa0 F0888893 		.ascii	"\360\210\210\223E\300\337Q\223\203\356'\255\232X\333"
 378      45C0DF51 
 378      9383EE27 
 378      AD9A58DB 
 379 0ab0 D46F3287 		.ascii	"\324o2\2071^\217\271\006\363\033\300^\243\301\276v\002"
 379      315E8FB9 
 379      06F31BC0 
 379      5EA3C1BE 
 379      7602
 380 0ac2 66378801 		.ascii	"f7\210\001\330v\032\354;\327`F\311\336\240\301\276w"
 380      D8761AEC 
 380      3BD76046 
 380      C9DEA0C1 
 380      BE77
 381 0ad4 0266B75B 		.ascii	"\002f\267[\011`\373i\260\363\256\301\374V^\302\014p"
 381      0960FB69 
 381      B0F3AEC1 
 381      FC565EC2 
 381      0C70
 382 0ae6 3281FD08 		.ascii	"2\201\375\010W\015\207p\244<\202\264\033\351'H?C\032"
 382      570D8770 
 382      A43C82B4 
 382      1BE92748 
 382      3F431A
 383 0af9 7332E9DA 		.ascii	"s2\351\332G\017\360?\241\300{\006\3471\320\355u\034"
 383      470FF03F 
 383      A1C07B06 
 383      E731D0ED 
 383      751C
 384 0b0b FFE23675 		.ascii	"\377\3426u\367\3274\306\022{\330I\360%-Ac\266[\011\374"
 384      F7D734C6 
 384      127BD849 
 384      F0252D41 
 384      63B65B09 
 385 0b20 B404D18B 		.ascii	"\264\004\321\213{\325\235K\375\240\367\303f<\247G\263"
 385      7BD59D4B 
 385      FDA0F7C3 
 385      663CA747 
 385      B3
 386 0b31 F4E9D2DE 		.ascii	"\364\351\322\336\314\227\356\323\301\226\270\0063\034"
 386      CC97EED3 
 386      C196B806 
 386      331C
 387 0b3f BF8E36EF 		.ascii	"\277\2166\357\243\300V\272\006\313\031\340\021\252/"
 387      A3C056BA 
 387      06CB19E0 
 387      11AA2F
 388 0b4e 7C80BEB0 		.ascii	"|\200\276\260\027\333\374\277\221\036Gz\002\351\327"
 388      17DBFCBF 
ARM GAS  /tmp/ccS9EfO0.s 			page 30


 388      911E477A 
 388      02E9D7
 389 0b5d C609697B 		.ascii	"\306\011i{\266y\334U\373X\0125\321\0313Nq\355\332\266"
 389      B679DC55 
 389      FB580A35 
 389      D119334E 
 389      71EDDAB6 
 390 0b71 936EDBCD 		.ascii	"\223n\333\315\331nG-C\333\302\240\272\363+}P\355\304"
 390      D96E472D 
 390      43DBC2A0 
 390      BAF32B7D 
 390      50EDC4
 391 0b84 B9588713 		.ascii	"\271X\207\023\304$+\321-\237\231?\007X\365\366\034-"
 391      C4242BD1 
 391      2D9F993F 
 391      0758F5F6 
 391      1C2D
 392 0b96 5B7CD4D8 		.ascii	"[|\324\330q\217:j\234\305Q\343\315\354\324\243\006g"
 392      718F3A6A 
 392      9CC551E3 
 392      CDECD4A3 
 392      0667
 393 0ba8 D451607B 		.ascii	"\324Q`{\314\243\306\205\2038j\3648\0325.\035\\\246\255"
 393      CCA3C685 
 393      83386AF4 
 393      381A352E 
 393      1D5CA6AD 
 394 0bbc 14D5DE66 		.ascii	"\024\325\336f7\212\3203\350\356\276\357 \325u\355s\015"
 394      378AD033 
 394      E8EEBEEF 
 394      20D575ED 
 394      730D
 395 0bce E6378035 		.ascii	"\3467\2005\037\246\300\016:\001K\322\335\267\320`G\\"
 395      1FA6C00E 
 395      3A014BD2 
 395      DDB7D060 
 395      475C
 396 0be0 8319255B 		.ascii	"\203\031%[F\203}\352\004,Iw\3778\015\026s\015f\224\254"
 396      46837DEA 
 396      042C4977 
 396      FF380D16 
 396      730D6694 
 397 0bf5 9506FBD2 		.ascii	"\225\006\373\322\011\230\335'\034\000[E\203\235p\015"
 397      0998DD27 
 397      1C005B45 
 397      839D700D 
 398 0c05 66946C35 		.ascii	"f\224l5\015\366\215\0230\277\275dm4\330Y\327`~\253\220"
 398      0DF68D13 
 398      30BFBD64 
 398      6D34D859 
 398      D7607EAB 
 399 0c1a 502F3AA2 		.ascii	"P/:\242\004\366\007\354\026{\261\263\272\200\364\"\322"
 399      04F607EC 
 399      167BB1B3 
 399      BA80F422 
 399      D2
 400 0c2b 4B48FB91 		.ascii	"KH\373\221\316\345\011mD:\037\351CH\037\341\035tng\350"
ARM GAS  /tmp/ccS9EfO0.s 			page 31


 400      CEE5096D 
 400      443A1FE9 
 400      43481FE1 
 400      1D746E67 
 401 0c40 CEADD775 		.ascii	"\316\255\327uW\224T\221\304\237\310\010\354[8\343{\033"
 401      57945491 
 401      C49FC808 
 401      EC5B38E3 
 401      7B1B
 402 0c52 8FF01E42 		.ascii	"\217\360\036B\252\340:y>\322\315\250\3106\244o#}\027"
 402      AAE03A79 
 402      3ED2CDA8 
 402      C836A46F 
 402      237D17
 403 0c65 E94EA4DF 		.ascii	"\351N\244\337!=\355\244\257~=q\360\027\326\343<Yn\257"
 403      213DEDA4 
 403      AF7E3D71 
 403      F017D6E3 
 403      3C596EAF 
 404 0c79 1FF491F2 		.ascii	"\037\364\221\362c\273\227\270=\223\177*\266A\373j\262"
 404      63BB97B8 
 404      3D937F2A 
 404      B641FB6A 
 404      B2
 405 0c8a 08CF6F5F 		.ascii	"\010\317o_\0340R\015j+|\376P6\265&I\316\030\316_\274"
 405      1C30520D 
 405      6A2B7CFE 
 405      5036B526 
 405      49CE18CE 
 406 0ca0 8825338A 		.ascii	"\210%3\212aL3\366\350#\325o\261Z\331\031:B\246&R\013"
 406      614C33F6 
 406      E823D56F 
 406      B15AD919 
 406      3A42A626 
 407 0cb6 3F0C9F0C 		.ascii	"?\014\237\014\337x\260\204\235\335\227\362\211\357\275"
 407      DF78B084 
 407      9DDD97F2 
 407      89EFBD
 408 0cc5 59BEC4C3 		.ascii	"Y\276\304\303\220\270o-2\253`\340\232\242\313\203a\256"
 408      90B86F2D 
 408      32AB60E0 
 408      9AA2CB83 
 408      61AE
 409 0cd7 E77C27AB 		.ascii	"\347|'\253\264d\231\346dd\032b'\323\343<\345\332-N,"
 409      B46499E6 
 409      64641A62 
 409      27D3E33C 
 409      E5DA2D4E 
 410 0cec 98E46BF2 		.ascii	"\230\344k\362\017A2b\023H\216iu\215\345\267\211\021"
 410      0F413262 
 410      13488E69 
 410      758DE5B7 
 410      8911
 411 0cfe C6F8879B 		.ascii	"\306\370\207\233\002\273\001\303\344i\014\220-H\267"
 411      02BB01C3 
 411      E4690C90 
 411      2D48B7
ARM GAS  /tmp/ccS9EfO0.s 			page 32


 412 0d0d 237D1423 		.ascii	"#}\024#\3721\244\313\221\266\322\321}\015\323\246Dc"
 412      FA31A4CB 
 412      91B6D2D1 
 412      7D0DD3A6 
 412      4463
 413 0d1f B14B3F76 		.ascii	"\261K?v\315Z\331\034\235\247\364\367\377\205\031\301"
 413      CD5AD91C 
 413      9DA7F4F7 
 413      FF8519C1 
 414 0d2f 2CD71A4F 		.ascii	",\327\032Oaeu\333\333\316RO\360#\360\311\243\376\305"
 414      616575DB 
 414      DBCE524F 
 414      F023F0C9 
 414      A3FEC5
 415 0d42 41AAC944 		.ascii	"A\252\311D,>\011\270!\341\372\007.\356\270\026\267F"
 415      2C3E09B8 
 415      21E1FA07 
 415      2EEEB816 
 415      B746
 416 0d54 DA783297 		.ascii	"\332x2\227xkh\312\271\204\021\206\310\361$o\232K\364"
 416      786B68CA 
 416      B9841186 
 416      C8F1246F 
 416      9A4BF4
 417 0d67 923F6125 		.ascii	"\222?a%\271\251?\226^\\GN\212\353\177R\273\033\331\223"
 417      B9A93F96 
 417      5E5C474E 
 417      8AEB7F52 
 417      BB1BD993 
 418 0d7b 9A1A33C5 		.ascii	"\232\0323\305\360\367\262\251V\001J\364\322\271\014"
 418      F0F7B2A9 
 418      56014AF4 
 418      D2B90C
 419 0d8a A5294B8B 		.ascii	"\245)K\213\227\366\361\255)|m\203\353\210y\332&b\364"
 419      97F6F1AD 
 419      297C6D83 
 419      EB8879DA 
 419      2662F4
 420 0d9d 7D1E8EF9 		.ascii	"}\036\216\371\320\254\203\2331\012T\350\343[\363\364"
 420      D0AC839B 
 420      310A54E8 
 420      E35BF3F4 
 421 0dad 8037C99F 		.ascii	"\2007\311\237\247WO\327\244y\316\265\374\317\333\310"
 421      A7574FD7 
 421      A479CEB5 
 421      FCCFDBC8 
 422 0dbd 9F1697FF 		.ascii	"\237\026\227\377\250Y~\003W\327\303b\3029\004\366\257"
 422      A8597E03 
 422      57D7C362 
 422      C23904F6 
 422      AF
 423 0dce 3C0993A7 		.ascii	"<\011\223\2470\020\326#}\326\311`\267&\321#h\256.\260"
 423      3010D623 
 423      7DD6C960 
 423      B726D123 
 423      68AE2EB0 
 424 0de2 3767AAF7 		.ascii	"7g\252\367\351\211\0156\230\270\230\274\367Z\346)Ei"
ARM GAS  /tmp/ccS9EfO0.s 			page 33


 424      E9890D36 
 424      98B898BC 
 424      F75AE629 
 424      4569
 425 0df4 21F1D5C4 		.ascii	"!\361\325\304.oT&\251P\034\323\220\203_\352\370k,Yj"
 425      2E6F5426 
 425      A9501CD3 
 425      90835FEA 
 425      F86B2C59 
 426 0e09 0CD5CA4A 		.ascii	"\014\325\312J\2278\011\271qLS\212Z\252H\3271\353\311"
 426      973809B9 
 426      714C538A 
 426      5AAA48D7 
 426      31EBC9
 427 0e1c 819DBF35 		.ascii	"\201\235\2775\315\317\341\325\360e\222\324\3224\334"
 427      CDCFE1D5 
 427      F06592D4 
 427      D234DC
 428 0e2b C81BFE1E 		.ascii	"\310\033\376\036\235\364\013\355\261\350\253G\262\232"
 428      9DF40BED 
 428      B1E8AB47 
 428      B29A
 429 0e39 E7C6FAFB 		.ascii	"\347\306\372\373\2571\365\0116\007\256\361d\205\261"
 429      AF31F509 
 429      3607AEF1 
 429      6485B1
 430 0e48 4B505589 		.ascii	"KPU\211\277h\303l\374];\207a\262\342\302\034++*\027"
 430      BF68C36C 
 430      FC5D3B87 
 430      61B2E2C2 
 430      1C2B2B2A 
 431 0e5d 829AFD04 		.ascii	"\202\232\375\004\366%\034\241\2678\262_\007\261\037"
 431      F6251CA1 
 431      B738B25F 
 431      07B11F
 432 0e6c 61CC312B 		.ascii	"a\3141+\020\330\276\032\212\247s\273w\244\276Zm3W3\235"
 432      10D8BE1A 
 432      8AA773BB 
 432      77A4BE5A 
 432      6D335733 
 433 0e81 7AD2B440 		.ascii	"z\322\264@\303+\312\"e~\016\2136b\264Z\006w\354\260"
 433      C32BCA22 
 433      657E0E8B 
 433      3662B45A 
 433      0677ECB0 
 434 0e95 B474EF27 		.ascii	"\264t\357'\326\226N\326\373\356Hb\352\014\346!\365\257"
 434      D6964ED6 
 434      FBEE4862 
 434      EA0CE621 
 434      F5AF
 435 0ea7 D094B9EC 		.ascii	"\320\224\271\354\203\214\245\334\211\223]\002\373\016"
 435      838CA5DC 
 435      89935D02 
 435      FB0E
 436 0eb5 9F41CEFD 		.ascii	"\237A\316\375\345\260\214\345\245\026 \027\251\257>"
 436      E5B08CE5 
 436      A5162017 
ARM GAS  /tmp/ccS9EfO0.s 			page 34


 436      A9AF3E
 437 0ec4 EB4F2C63 		.ascii	"\353O,c\321\202/Z\267\340Es\013F\035\265\340Z\322\024"
 437      D1822F5A 
 437      B7E04573 
 437      0B461DB5 
 437      E05AD214 
 438 0ed8 AA881D08 		.ascii	"\252\210\035\010\034\265m\012MN\255)L1`\307M\323`\347"
 438      1CB56D0A 
 438      4D4EAD29 
 438      4C3160C7 
 438      4DD360E7 
 439 0eec C096899D 		.ascii	"\300\226\211\235\217\256\026;\225\323\375\375K\374."
 439      8FAE163B 
 439      95D3FDFD 
 439      4BFC2E
 440 0efb 5AE683A4 		.ascii	"Z\346\203\244A`\355\364;\254M\266R4\231l\217#\223\035"
 440      4160EDF4 
 440      3BAC4DB6 
 440      5234996C 
 440      8F23931D 
 441 0f0f 4C78EF47 		.ascii	"Lx\357G\010\274\307\241\367\232Lf\307MSt\277\2453\037"
 441      08BCC7A1 
 441      F79A4C66 
 441      C74D5374 
 441      BFA5331F 
 442 0f23 1E84C90E 		.ascii	"\036\204\311\016'5\231eg\333mm\261Mf\213\035r\325\315"
 442      27359965 
 442      67DB6D6D 
 442      B14D668B 
 442      1D72D5CD 
 443 0f37 0AECCB29 		.ascii	"\012\354\313)jQ\335\354\000{\331\325\322\264\354\262"
 443      6A51DDEC 
 443      007BD9D5 
 443      D2B4ECB2 
 444 0f47 70B1D3D1 		.ascii	"p\261\323\321W\336S\203\177\355x\027\006\373,\211\301"
 444      57DE5383 
 444      7FED7817 
 444      06FB2C89 
 444      C1
 445 0f58 B4D1D8C9 		.ascii	"\264\321\330\311\027\256\367^Q\377k\210/p\331q\306d"
 445      17AEF75E 
 445      51FF6B88 
 445      2F70D971 
 445      C664
 446 0f6a 52E7404B 		.ascii	"R\347@KwmP\017k}\211@\027r\314\353\027\316\264|\341"
 446      776D500F 
 446      6B7D8940 
 446      1772CCEB 
 446      17CEB47C 
 447 0f7f 8CCB178E 		.ascii	"\214\313\027\216\034\236\352\353\357O\034\236\"g>\007"
 447      1C9EEAEB 
 447      EF4F1C9E 
 447      22673E07 
 448 0f8f FC65AA9B 		.ascii	"\374e\252\233Z&wi\034f76_\271\373eE"
 448      5A267769 
 448      1C663736 
 448      5FB9FB65 
ARM GAS  /tmp/ccS9EfO0.s 			page 35


 448      45
 449 0fa0 F1199DE6 		.ascii	"\361\031\235\346S\007N\323\254\034\020F\351\246[\216"
 449      53074ED3 
 449      AC1C1046 
 449      E9A65B8E 
 450 0fb0 F0543583 		.ascii	"\360T5\203\225\324R\266nc\307M\323\343+K\2679\035w\033"
 450      95D452B6 
 450      6E63C74D 
 450      D3E32B4B 
 450      B7391D77 
 451 0fc5 D51B3866 		.ascii	"\325\0338f\255\245\212\312rsD|\343H\2717u\345`\361i"
 451      ADA58ACA 
 451      7273447C 
 451      E348B937 
 451      75E560F1 
 452 0fda AEE64639 		.ascii	"\256\346F9;n\232r\337Z(\327\034[\367\341\243\012\353"
 452      3B6E9A72 
 452      DF5A28D7 
 452      1C5BF7E1 
 452      A30AEB
 453 0fed 7A483C9B 		.ascii	"zH<\233dA\242N\361\355j\236\263\230\342i=c\212"
 453      6441A24E 
 453      F1ED6A9E 
 453      B398E269 
 453      3D638A
 454 1000 8EFB2593 		.ascii	"\216\373%\223\321u\275z\255\364\212^:b\247W\222I\325"
 454      D175BD7A 
 454      ADF48A5E 
 454      3A62A757 
 454      9249D5
 455 1013 0573AC9F 		.ascii	"\005s\254\237s0\251\212\277k\353Y\333\367E<]\336d3j"
 455      7330A98A 
 455      BF6BEB59 
 455      DBF7453C 
 455      5DDE6433 
 456 1028 B93F40AC 		.ascii	"\271?@\254\271i\364\267\177\223Yv\332\230\245!\315\312"
 456      B969F4B7 
 456      7F935976 
 456      DA98A521 
 456      CDCA
 457 103a 2CFD9F0C 		.ascii	",\375\237\014\246\271\347\245%\263\2136\0270\311u\330"
 457      A6B9E7A5 
 457      25B38B36 
 457      1730C975 
 457      D8
 458 104b 46AE878C 		.ascii	"F\256\207\214r\375\013\363\244\242|\010\275\303\312"
 458      72FD0BF3 
 458      A4A27C08 
 458      BDC3CA
 459 105a 512B94E8 		.ascii	"Q+\224\350\\E\371\011\272\025V\037S\217\305A\254\306"
 459      5C45F909 
 459      BA15561F 
 459      538FC541 
 459      ACC6
 460 106c 543CDFA1 		.ascii	"T<\337\241\301\315`\343\015b\262,Y\372\331)\266 aYS"
 460      C1CD60E3 
 460      0D62B22C 
ARM GAS  /tmp/ccS9EfO0.s 			page 36


 460      59FAD929 
 460      B6206159 
 461 1081 ADE792D4 		.ascii	"\255\347\222\324Zh[\2138\220]\255Gmk\265$\341\265\310"
 461      5A685B8B 
 461      38905DAD 
 461      476D6BB5 
 461      24E1B5C8 
 462 1095 B6D6D924 		.ascii	"\266\326\331$\274\026\333\326\"MiWk\211m\255'\222\360"
 462      BC16DBD6 
 462      224D6957 
 462      6B896DAD 
 462      2792F0
 463 10a8 6AA6BCF3 		.ascii	"j\246\274\363\212\")4K\224\"\271\241\202\362@D\254\211"
 463      8A222934 
 463      4B9422B9 
 463      A182F240 
 463      44AC89
 464 10bb 84A5D195 		.ascii	"\204\245\321\225LfqAa)\276\004\344\364?N\235\356/d\206"
 464      4C667141 
 464      6129BE04 
 464      E4F43F4E 
 464      9DEE2F64 
 465 10d0 26B222B2 		.ascii	"&\262\"\262 \213\031\305S'\024\226\025\377y\"_\\4y\""
 465      208B19C5 
 465      53271496 
 465      15FF7922 
 465      5F5C3479 
 466 10e5 7FE7F4D2 		.ascii	"\177\347\364\322{\322\360\207ks\353\"R\256 U\337X\023"
 466      7BD2F087 
 466      6B73EB22 
 466      52AE2055 
 466      DF5813
 467 10f8 AE116F14 		.ascii	"\256\021o\024\205\373C\271\241\232\362\252\272\240\230"
 467      85FB43B9 
 467      A19AF2AA 
 467      BAA098
 468 1107 1B9183A1 		.ascii	"\033\221\203\241\032\031\030x\353\340>. \217MR\270Z"
 468      1A191878 
 468      EBE03E2E 
 468      208F4D52 
 468      B85A
 469 1119 28AF0CD5 		.ascii	"(\257\014\325\210\271\201\240X!\324U\311\001yN\255\030"
 469      88B981A0 
 469      5821D455 
 469      C901794E 
 469      AD18
 470 112b 81CABE40 		.ascii	"\201\312\276@@\253\356\025\202AI\214D\212r+\303\325"
 470      40ABEE15 
 470      8241498C 
 470      448A722B 
 470      C3D5
 471 113d 626E7938 		.ascii	"bny88'7(\316\312\205\212\367\207\302\221\\Y\252\253"
 471      38273728 
 471      CECA858A 
 471      F787C291 
 471      5C59AAAB 
 472 1151 7920171E 		.ascii	"y \027\036*\205\252\334\332\260$GrK\313\246\214)\310"
ARM GAS  /tmp/ccS9EfO0.s 			page 37


 472      2A85AADC 
 472      DAB02447 
 472      724BCBA6 
 472      8C29C8
 473 1164 9D3CB928 		.ascii	"\235<\271(\027\024\232\225\217zWU\005\011,d\250\326"
 473      17149A95 
 473      8F7A5755 
 473      05092C64 
 473      A8D6
 474 1176 287002A7 		.ascii	"(p\002\247\213\011\000Py\010\334P\375\200<\004p\002"
 474      8B090050 
 474      7908DC50 
 474      FD803C04 
 474      7002
 475 1188 D3A7164F 		.ascii	"\323\247\026O-.\313 \217\245e\323\356&\330\201\222\211"
 475      2D2ECB20 
 475      8FA565D3 
 475      EE26D881 
 475      9289
 476 119a 138AEEB9 		.ascii	"\023\212\356\271\214<\251\226\013\224\315\240\337Jf"
 476      8C3CA996 
 476      0B94CDA0 
 476      DF4A66
 477 11a9 60CDC9D3 		.ascii	"`\315\311\323\012\3774\261(\023\360\302\265\325\341"
 477      0AFF34B1 
 477      2813F0C2 
 477      B5D5E1
 478 11b8 20019C76 		.ascii	" \001\234v\367\224iE\023\003\360\353\345\332c\351\024"
 478      F7946945 
 478      1303F0EB 
 478      E5DA63E9 
 478      14
 479 11c9 3078A068 		.ascii	"0x\240h\342\237\213\013'\0163\344M\232VZ\346\015\327"
 479      E29F8B0B 
 479      270E33E4 
 479      4D9A565A 
 479      E60DD7
 480 11dc 0648D50C 		.ascii	"\006H\325\014b\2461\005\200\240Z\214<f\226W\205\313"
 480      62A63105 
 480      80A05A8C 
 480      3C669657 
 480      85CB
 481 11ee 1F08446A 		.ascii	"\037\010DjE1\230\015L\202u\362\234\3629\345U\300'\273"
 481      4531980D 
 481      4C8275F2 
 481      9CF239E5 
 481      55C027BB 
 482 1202 B4AC2850 		.ascii	"\264\254(P4\275\354\236@\341=\205\223'\016\273kBi\031"
 482      34BDEC9E 
 482      40E13D85 
 482      93270EBB 
 482      6B426919 
 483 1216 F51E28F8 		.ascii	"\365\036(\370\2059'\377\346\300\255C\010B\000!\210\226"
 483      853927FF 
 483      E6C0AD43 
 483      08420021 
 483      8896
ARM GAS  /tmp/ccS9EfO0.s 			page 38


 484 1228 85E19A8A 		.ascii	"\205\341\232\212\320\314\364r\274\021\253TT\0113#\340"
 484      D0CCF472 
 484      BC11AB54 
 484      54093323 
 484      E0
 485 1239 46A22485 		.ascii	"F\242$\205\245\310\230T\246\225\344\270e\313+\253\345"
 485      A5C89854 
 485      A695E4B8 
 485      65CB2BAB 
 485      E5
 486 124a 7AE22CD5 		.ascii	"z\342,\325u\262X\037\220\323\360>\316\025BdNDw\233\241"
 486      75B2581F 
 486      90D3F03E 
 486      CE154264 
 486      4E44779B 
 487 125f 72A5240A 		.ascii	"r\245$\012\301H\340\301:\261\016\324\315)\257\014\030"
 487      C148E0C1 
 487      3AB10ED4 
 487      CD29AF0C 
 487      18
 488 1270 B2C6BA43 		.ascii	"\262\306\272C.\257$^\223\241B\004d_\034.\2756P#\326"
 488      2EAF245E 
 488      93A14204 
 488      645F1C2E 
 488      BD365023 
 489 1285 CB70AB95 		.ascii	"\313p\253\225\304Y\223\034\240\252\2569\241dJ\341\224"
 489      C459931C 
 489      A0AAAE39 
 489      A1644AE1 
 489      94
 490 1296 7A28595D 		.ascii	"z(Y]\033\252\"1\371\307\302B(\256\313\357\225k\245P"
 490      1BAA2231 
 490      F9C7C242 
 490      28AECBEF 
 490      956BA550 
 491 12aa 38A0E286 		.ascii	"8\240\342\206\302^01\230C\276\3255~eyX\022I\224\223"
 491      C25E3031 
 491      9843BED5 
 491      357E6579 
 491      58124994 
 492 12bf EC00F845 		.ascii	"\354\000\370E\271\\\377\207\301\241\004f\335RM\214 "
 492      B95CFF87 
 492      C1A10466 
 492      DD524D8C 
 492      20
 493 12d0 89332188 		.ascii	"\2113!\210\003\262'\222\1773\244[ \215\203t\253'R\220"
 493      03B22792 
 493      7F33A45B 
 493      208D8374 
 493      AB275290 
 494 12e4 07291F52 		.ascii	"\007)\037R\001\2441\220\306B\272\011\022\224+\200r\005"
 494      01A43190 
 494      C642BA09 
 494      12942B80 
 494      7205
 495 12f6 50AE00CA 		.ascii	"P\256\000\312\215\201rc\3629i,'\335\304I7s\322-\234"
 495      8D817263 
ARM GAS  /tmp/ccS9EfO0.s 			page 39


 495      F239692C 
 495      27DDC449 
 495      3773D22D 
 496 130b 348E936E 		.ascii	"4\216\223n\365H\371y\220\362\271*\011nc\322j\003 \255"
 496      F548F979 
 496      90F2B92A 
 496      096E63D2 
 496      6A0320AD 
 497 131f 975878B6 		.ascii	"\227Xx\266(\301=\\\025\024%\276\274R\220\210\331\205"
 497      28C13D5C 
 497      151425BE 
 497      BC529088 
 497      D985
 498 1331 6A3143D6 		.ascii	"j1C\326\342\020~\304'\257\254\206\021\274\243/zeI\254"
 498      E2107EC4 
 498      27AFAC86 
 498      11BCA32F 
 498      7A6549AC 
 499 1345 88A01DC9 		.ascii	"\210\240\035\311CZud&\374\250\205\007\364-\332S\272"
 499      435A7564 
 499      26FCA885 
 499      07F42DDA 
 499      53BA
 500 1357 149C033F 		.ascii	"\024\234\003?e\210\365!\031\314\"\246\317\226\303\367"
 500      6588F521 
 500      19CC22A6 
 500      CF96C3F7 
 501 1367 FF576DA6 		.ascii	"\377Wm\2468K\254\221\253\205\310\003\304\247g\223\007"
 501      384BAC91 
 501      AB85C803 
 501      C4A76793 
 501      07
 502 1378 4F6DA02E 		.ascii	"Om\240.[\367\244\252P\004z\252\241\224o\221\034_m`\266"
 502      5BF7A4AA 
 502      50047AAA 
 502      A1946F91 
 502      1C5F6D60 
 503 138d 10924335 		.ascii	"\020\222C53\207@hFf\242\277\245\341#d\210\265b\015t"
 503      33874068 
 503      4666A2BF 
 503      A5E12364 
 503      88B5620D 
 504 13a2 8C33A114 		.ascii	"\2143\241\024x<)?\204\310&Ta;Cfm8\\\345\255V\275\024"
 504      783C293F 
 504      84C82654 
 504      613B4366 
 504      6D385CE5 
 505 13ba EEE1D935 		.ascii	"\356\341\3315\242\224^\215^v\213+\247\325d\202&\033"
 505      A2945E8D 
 505      5E768B2B 
 505      A7D56482 
 505      261B
 506 13cc AEF92D98 		.ascii	"\256\371-\230@\224\304\232r0P\272\232\345\203\240%\375"
 506      4094C49A 
 506      723050BA 
 506      9AE583A0 
 506      25FD
ARM GAS  /tmp/ccS9EfO0.s 			page 40


 507 13de 6A40C6FE 		.ascii	"j@\306\376\003b\\\357?\310#O~\362I\365\301j\201\230"
 507      03625CEF 
 507      3FC8234F 
 507      7EF249F5 
 507      C16A8198 
 508 13f2 D527EB4F 		.ascii	"\325'\353Ow\271\355\203\221\3365\266\276\036\206\205"
 508      77B9ED83 
 508      91DE35B6 
 508      BE1E8685 
 509 1402 6AB038E0 		.ascii	"j\2608\340\200\\\267\245\202\001\235s\013\247\224\026"
 509      805CB7A5 
 509      82019D73 
 509      0BA79416 
 510 1412 9702805A 		.ascii	"\227\002\200Z\263bl^~=\351\204\207\027M\231\020(\205"
 510      B3626C5E 
 510      7E3DE984 
 510      87174D99 
 510      102885
 511 1425 E615AA03 		.ascii	"\346\025\252\003e\0205Eb\005WX\302O-*+\361\334=\241"
 511      65103545 
 511      62055758 
 511      C24F2D2A 
 511      2BF1DC3D 
 512 143a 849F9247 		.ascii	"\204\237\222GH\376\204\022\317]\205%\351\021,\310\207"
 512      48FE8412 
 512      CF5D8525 
 512      E9112CC8 
 512      87
 513 144b 2ACAA5F4 		.ascii	"*\312\245\364P\2442T!\373\"bUE\250&(\326\247\317\022"
 513      50A43254 
 513      21FB2262 
 513      5545A826 
 513      28D6A7CF 
 514 1460 CBE5B034 		.ascii	"\313\345\2604<.Y@-\015\235\020\274H\365\204\312\365"
 514      3C2E5940 
 514      2D0D9D10 
 514      BC48F584 
 514      CAF5
 515 1472 6498D419 		.ascii	"d\230\324\031y\012K\362!\025\360\323&\224\344\023R\300"
 515      790A4BF2 
 515      2115F0D3 
 515      2694E413 
 515      52C0
 516 1484 1595784A 		.ascii	"\025\225xJ!\263\264\244\300SXX\222VVR\\:\221\277k2\010"
 516      21B3B4A4 
 516      C0535858 
 516      92565652 
 516      5C3A91BF 
 517 149b 0316F691 		.ascii	"\003\026\366\221\236)TM\374\222\334\302u2O\2747M\256"
 517      9E29544D 
 517      FC92DCC2 
 517      75324FBC 
 517      374DAE
 518 14ae BFB3AE22 		.ascii	"\277\263\256\"M\"t\230>6\313\325\265\005\267\3344\272"
 518      4D227498 
 518      3E36CBD5 
 518      B505B7DC 
ARM GAS  /tmp/ccS9EfO0.s 			page 41


 518      34BA
 519 14c0 9C31E790 		.ascii	"\2341\347\220\356\007\237\240\361\324\301;\003\353C"
 519      EE079FA0 
 519      F1D4C13B 
 519      03EB43
 520 14cf 936648DA 		.ascii	"\223fH\332\303\257\264\022\244i\313\304\352ZQ\022\344"
 520      C3AFB412 
 520      A469CBC4 
 520      EA5A5112 
 520      E4
 521 14e0 3A88FF5A 		.ascii	":\210\377ZA\222G\347y\340W^\206\354L\255X\250&$\247"
 521      419247E7 
 521      79E0575E 
 521      86EC4CAD 
 521      58A82624 
 522 14f5 07914DC6 		.ascii	"\007\221M\306\375BD\234\000\315\235\026\270\023\034"
 522      FD42449C 
 522      00CD9D16 
 522      B8131C
 523 1504 502F1191 		.ascii	"P/\021\221\303\265^B@\373\341Z\336l)$\213j\327\2376"
 523      C3B55E42 
 523      40FBE15A 
 523      DE6C2924 
 523      8B6AD79F 
 524 1519 4BA8AA13 		.ascii	"K\250\252\023GXs\365j^\244\206\031y\032F#\224M\012\315"
 524      475873F5 
 524      6A5EA486 
 524      19791A46 
 524      23944D0A 
 525 152e ACF41171 		.ascii	"\254\364\021q&\207\252Cr\216\341\267\311\341\331#\250"
 525      2687AA43 
 525      728EE1B7 
 525      C9E1D923 
 525      A8
 526 153f 798924D4 		.ascii	"y\211$\324D\204r9p\177]Ev\"\233\210\237MOU\302\265>"
 526      44847239 
 526      707F5D45 
 526      76229B88 
 526      9F4D4F55 
 527 1556 6299C270 		.ascii	"b\231\302p]\215\374\277\216\377d\357"
 527      5D8DFCBF 
 527      8EFF64EF 
 528              		.text
 529              		.section	.gnu.lto_.symtab.27b762d2f5a2692c,"",%progbits
 530 0000 746D7032 		.ascii	"tmp275_init\000\000\000\000\000\000\000\000\000\000"
 530      37355F69 
 530      6E697400 
 530      00000000 
 530      00000000 
 531 0015 00003402 		.ascii	"\000\0004\002\000\000tmp275_stop\000\000\000\000\000"
 531      0000746D 
 531      70323735 
 531      5F73746F 
 531      70000000 
 532 002b 00000000 		.ascii	"\000\000\000\000\000\000\000@\002\000\000tmp275_wri"
 532      00000040 
 532      02000074 
ARM GAS  /tmp/ccS9EfO0.s 			page 42


 532      6D703237 
 532      355F7772 
 533 0040 7465436F 		.ascii	"teConfig\000\000\000\000\000\000\000\000\000\000\000"
 533      6E666967 
 533      00000000 
 533      00000000 
 533      000000
 534 0053 004C0200 		.ascii	"\000L\002\000\000tmp275_readTemperature\000\000\000"
 534      00746D70 
 534      3237355F 
 534      72656164 
 534      54656D70 
 535 0071 00000000 		.ascii	"\000\000\000\000\000\000\000\000\000U\002\000\000tm"
 535      00000000 
 535      00550200 
 535      00746D
 536 0080 70323735 		.ascii	"p275_writeTHigh\000\000\000\000\000\000\000\000\000"
 536      5F777269 
 536      74655448 
 536      69676800 
 536      00000000 
 537 0098 0000005D 		.ascii	"\000\000\000]\002\000\000tmp275_writeTLow\000\000\000"
 537      02000074 
 537      6D703237 
 537      355F7772 
 537      69746554 
 538 00b2 00000000 		.ascii	"\000\000\000\000\000\000\000\000\000l\002\000\000I2"
 538      00000000 
 538      006C0200 
 538      004932
 539 00c1 4353656E 		.ascii	"CSensor_transact_buf\000\000\002\000\000\000\000\000"
 539      736F725F 
 539      7472616E 
 539      73616374 
 539      5F627566 
 540 00dd 00000000 		.ascii	"\000\000\000\000q\002\000\000I2CSensor_init\000\000"
 540      71020000 
 540      49324353 
 540      656E736F 
 540      725F696E 
 541 00f5 02000000 		.ascii	"\002\000\000\000\000\000\000\000\000\000x\002\000\000"
 541      00000000 
 541      00007802 
 541      0000
 542 0103 49324353 		.ascii	"I2CSensor_stop\000\000\002\000\000\000\000\000\000\000"
 542      656E736F 
 542      725F7374 
 542      6F700000 
 542      02000000 
 543 011b 00008302 		.ascii	"\000\000\203\002\000\000"
 543      0000
 544              		.text
 545              		.section	.gnu.lto_.opts,"",%progbits
 546 0000 272D6D63 		.ascii	"'-mcpu=cortex-m4' '-mfloat-abi=hard' '-mfpu=fpv4-sp"
 546      70753D63 
 546      6F727465 
 546      782D6D34 
ARM GAS  /tmp/ccS9EfO0.s 			page 43


 546      2720272D 
 547 0033 2D643136 		.ascii	"-d16' '-mno-thumb-interwork' '-mthumb' '-O2' '-fomi"
 547      2720272D 
 547      6D6E6F2D 
 547      7468756D 
 547      622D696E 
 548 0066 742D6672 		.ascii	"t-frame-pointer' '-falign-functions=16' '-ffunction"
 548      616D652D 
 548      706F696E 
 548      74657227 
 548      20272D66 
 549 0099 2D736563 		.ascii	"-sections' '-fdata-sections' '-fno-common' '-flto' "
 549      74696F6E 
 549      73272027 
 549      2D666461 
 549      74612D73 
 550 00cc 272D6673 		.ascii	"'-fsingle-precision-constant'\000"
 550      696E676C 
 550      652D7072 
 550      65636973 
 550      696F6E2D 
 551              		.text
 552              		.section	.text.tmp275_init,"ax",%progbits
 553              		.align	2
 554              		.p2align 4,,15
 555              		.global	tmp275_init
 556              		.thumb
 557              		.thumb_func
 558              		.type	tmp275_init, %function
 559              	tmp275_init:
 560              		@ args = 0, pretend = 0, frame = 16
 561              		@ frame_needed = 0, uses_anonymous_args = 0
 562 0000 F0B5     		push	{r4, r5, r6, r7, lr}
 563 0002 254B     		ldr	r3, .L2
 564 0004 254E     		ldr	r6, .L2+4
 565 0006 0446     		mov	r4, r0
 566 0008 8E46     		mov	lr, r1
 567 000a 1746     		mov	r7, r2
 568 000c 93E80700 		ldmia	r3, {r0, r1, r2}
 569 0010 89B0     		sub	sp, sp, #36
 570 0012 05AB     		add	r3, sp, #20
 571 0014 03C3     		stmia	r3!, {r0, r1}
 572 0016 3078     		ldrb	r0, [r6]	@ zero_extendqisi2
 573 0018 1A70     		strb	r2, [r3]
 574 001a 4FF0280C 		mov	ip, #40
 575 001e 04F12403 		add	r3, r4, #36
 576 0022 05AD     		add	r5, sp, #20
 577 0024 CDF804C0 		str	ip, [sp, #4]
 578 0028 7146     		mov	r1, lr
 579 002a 3A46     		mov	r2, r7
 580 002c 00F1010E 		add	lr, r0, #1
 581 0030 00F13007 		add	r7, r0, #48
 582 0034 0093     		str	r3, [sp]
 583 0036 2046     		mov	r0, r4
 584 0038 04F12003 		add	r3, r4, #32
 585 003c 0295     		str	r5, [sp, #8]
 586 003e 0025     		movs	r5, #0
ARM GAS  /tmp/ccS9EfO0.s 			page 44


 587 0040 86F800E0 		strb	lr, [r6]
 588 0044 8DF81B70 		strb	r7, [sp, #27]
 589 0048 8DF81D50 		strb	r5, [sp, #29]
 590 004c 8DF81E50 		strb	r5, [sp, #30]
 591 0050 FFF7FEFF 		bl	I2CSensor_init
 592 0054 0123     		movs	r3, #1
 593 0056 84F82030 		strb	r3, [r4, #32]
 594 005a 2A46     		mov	r2, r5
 595 005c 84F82150 		strb	r5, [r4, #33]
 596 0060 2046     		mov	r0, r4
 597 0062 0221     		movs	r1, #2
 598 0064 FFF7FEFF 		bl	I2CSensor_transact_buf
 599 0068 8023     		movs	r3, #128
 600 006a FF22     		movs	r2, #255
 601 006c 84F82020 		strb	r2, [r4, #32]
 602 0070 84F82130 		strb	r3, [r4, #33]
 603 0074 2A46     		mov	r2, r5
 604 0076 2046     		mov	r0, r4
 605 0078 0221     		movs	r1, #2
 606 007a FFF7FEFF 		bl	I2CSensor_transact_buf
 607 007e 7F23     		movs	r3, #127
 608 0080 84F82050 		strb	r5, [r4, #32]
 609 0084 2A46     		mov	r2, r5
 610 0086 84F82130 		strb	r3, [r4, #33]
 611 008a 2046     		mov	r0, r4
 612 008c 0221     		movs	r1, #2
 613 008e FFF7FEFF 		bl	I2CSensor_transact_buf
 614 0092 09B0     		add	sp, sp, #36
 615              		@ sp needed
 616 0094 F0BD     		pop	{r4, r5, r6, r7, pc}
 617              	.L3:
 618 0096 00BF     		.align	2
 619              	.L2:
 620 0098 00000000 		.word	.LANCHOR0
 621 009c 00000000 		.word	.LANCHOR1
 622              		.size	tmp275_init, .-tmp275_init
 623              		.section	.text.tmp275_stop,"ax",%progbits
 624              		.align	2
 625              		.p2align 4,,15
 626              		.global	tmp275_stop
 627              		.thumb
 628              		.thumb_func
 629              		.type	tmp275_stop, %function
 630              	tmp275_stop:
 631              		@ args = 0, pretend = 0, frame = 0
 632              		@ frame_needed = 0, uses_anonymous_args = 0
 633              		@ link register save eliminated.
 634 0000 FFF7FEBF 		b	I2CSensor_stop
 635              		.size	tmp275_stop, .-tmp275_stop
 636 0004 AFF30080 		.section	.text.tmp275_writeConfig,"ax",%progbits
 636      AFF30080 
 636      AFF30080 
 637              		.align	2
 638              		.p2align 4,,15
 639              		.global	tmp275_writeConfig
 640              		.thumb
 641              		.thumb_func
ARM GAS  /tmp/ccS9EfO0.s 			page 45


 642              		.type	tmp275_writeConfig, %function
 643              	tmp275_writeConfig:
 644              		@ args = 0, pretend = 0, frame = 0
 645              		@ frame_needed = 0, uses_anonymous_args = 0
 646              		@ link register save eliminated.
 647 0000 0122     		movs	r2, #1
 648 0002 80F82110 		strb	r1, [r0, #33]
 649 0006 80F82020 		strb	r2, [r0, #32]
 650 000a 0221     		movs	r1, #2
 651 000c 0022     		movs	r2, #0
 652 000e FFF7FEBF 		b	I2CSensor_transact_buf
 653              		.size	tmp275_writeConfig, .-tmp275_writeConfig
 654 0012 00BFAFF3 		.section	.text.tmp275_readTemperature,"ax",%progbits
 654      0080AFF3 
 654      0080AFF3 
 654      0080
 655              		.align	2
 656              		.p2align 4,,15
 657              		.global	tmp275_readTemperature
 658              		.thumb
 659              		.thumb_func
 660              		.type	tmp275_readTemperature, %function
 661              	tmp275_readTemperature:
 662              		@ args = 0, pretend = 0, frame = 0
 663              		@ frame_needed = 0, uses_anonymous_args = 0
 664 0000 38B5     		push	{r3, r4, r5, lr}
 665 0002 0023     		movs	r3, #0
 666 0004 0D46     		mov	r5, r1
 667 0006 80F82030 		strb	r3, [r0, #32]
 668 000a 0121     		movs	r1, #1
 669 000c 0222     		movs	r2, #2
 670 000e 0446     		mov	r4, r0
 671 0010 FFF7FEFF 		bl	I2CSensor_transact_buf
 672 0014 68B9     		cbnz	r0, .L7
 673 0016 94F82420 		ldrb	r2, [r4, #36]	@ zero_extendqisi2
 674 001a 94F82530 		ldrb	r3, [r4, #37]	@ zero_extendqisi2
 675 001e 43EA0223 		orr	r3, r3, r2, lsl #8
 676 0022 35B1     		cbz	r5, .L7
 677 0024 1BB2     		sxth	r3, r3
 678 0026 07EE903A 		fmsr	s15, r3	@ int
 679 002a FAEECC7A 		vcvt.f32.s32	s15, s15, #8
 680 002e C5ED007A 		fsts	s15, [r5]
 681              	.L7:
 682 0032 38BD     		pop	{r3, r4, r5, pc}
 683              		.size	tmp275_readTemperature, .-tmp275_readTemperature
 684 0034 AFF30080 		.section	.text.tmp275_writeTHigh,"ax",%progbits
 684      AFF30080 
 684      AFF30080 
 685              		.align	2
 686              		.p2align 4,,15
 687              		.global	tmp275_writeTHigh
 688              		.thumb
 689              		.thumb_func
 690              		.type	tmp275_writeTHigh, %function
 691              	tmp275_writeTHigh:
 692              		@ args = 0, pretend = 0, frame = 0
 693              		@ frame_needed = 0, uses_anonymous_args = 0
ARM GAS  /tmp/ccS9EfO0.s 			page 46


 694              		@ link register save eliminated.
 695 0000 0A12     		asrs	r2, r1, #8
 696 0002 80F82020 		strb	r2, [r0, #32]
 697 0006 80F82110 		strb	r1, [r0, #33]
 698 000a 0022     		movs	r2, #0
 699 000c 0221     		movs	r1, #2
 700 000e FFF7FEBF 		b	I2CSensor_transact_buf
 701              		.size	tmp275_writeTHigh, .-tmp275_writeTHigh
 702 0012 00BFAFF3 		.section	.text.tmp275_writeTLow,"ax",%progbits
 702      0080AFF3 
 702      0080AFF3 
 702      0080
 703              		.align	2
 704              		.p2align 4,,15
 705              		.global	tmp275_writeTLow
 706              		.thumb
 707              		.thumb_func
 708              		.type	tmp275_writeTLow, %function
 709              	tmp275_writeTLow:
 710              		@ args = 0, pretend = 0, frame = 0
 711              		@ frame_needed = 0, uses_anonymous_args = 0
 712              		@ link register save eliminated.
 713 0000 0A12     		asrs	r2, r1, #8
 714 0002 80F82020 		strb	r2, [r0, #32]
 715 0006 80F82110 		strb	r1, [r0, #33]
 716 000a 0022     		movs	r2, #0
 717 000c 0221     		movs	r1, #2
 718 000e FFF7FEBF 		b	I2CSensor_transact_buf
 719              		.size	tmp275_writeTLow, .-tmp275_writeTLow
 720 0012 00BFAFF3 		.section	.rodata
 720      0080AFF3 
 720      0080AFF3 
 720      0080
 721              		.align	2
 722              		.set	.LANCHOR0,. + 0
 723              	.LC0:
 724 0000 544D5032 		.ascii	"TMP275-X\000"
 724      37352D58 
 724      00
 725 0009 0000     		.space	2
 726 000b 00       		.section	.bss.sensCount,"aw",%nobits
 727              		.set	.LANCHOR1,. + 0
 728              		.type	sensCount, %object
 729              		.size	sensCount, 1
 730              	sensCount:
 731 0000 00       		.space	1
 732              		.comm	__gnu_lto_v1,1,1
 733              		.ident	"GCC: (GNU Tools for ARM Embedded Processors) 4.8.4 20140526 (release) [ARM/embedded-4_8-br
ARM GAS  /tmp/ccS9EfO0.s 			page 47


DEFINED SYMBOLS
                            *ABS*:0000000000000000 tmp275.c
     /tmp/ccS9EfO0.s:553    .text.tmp275_init:0000000000000000 $t
     /tmp/ccS9EfO0.s:559    .text.tmp275_init:0000000000000000 tmp275_init
     /tmp/ccS9EfO0.s:620    .text.tmp275_init:0000000000000098 $d
     /tmp/ccS9EfO0.s:624    .text.tmp275_stop:0000000000000000 $t
     /tmp/ccS9EfO0.s:630    .text.tmp275_stop:0000000000000000 tmp275_stop
     /tmp/ccS9EfO0.s:637    .text.tmp275_writeConfig:0000000000000000 $t
     /tmp/ccS9EfO0.s:643    .text.tmp275_writeConfig:0000000000000000 tmp275_writeConfig
     /tmp/ccS9EfO0.s:655    .text.tmp275_readTemperature:0000000000000000 $t
     /tmp/ccS9EfO0.s:661    .text.tmp275_readTemperature:0000000000000000 tmp275_readTemperature
     /tmp/ccS9EfO0.s:685    .text.tmp275_writeTHigh:0000000000000000 $t
     /tmp/ccS9EfO0.s:691    .text.tmp275_writeTHigh:0000000000000000 tmp275_writeTHigh
     /tmp/ccS9EfO0.s:703    .text.tmp275_writeTLow:0000000000000000 $t
     /tmp/ccS9EfO0.s:709    .text.tmp275_writeTLow:0000000000000000 tmp275_writeTLow
     /tmp/ccS9EfO0.s:721    .rodata:0000000000000000 $d
     /tmp/ccS9EfO0.s:730    .bss.sensCount:0000000000000000 sensCount
     /tmp/ccS9EfO0.s:731    .bss.sensCount:0000000000000000 $d
                            *COM*:0000000000000001 __gnu_lto_v1

UNDEFINED SYMBOLS
I2CSensor_init
I2CSensor_transact_buf
I2CSensor_stop
