ARM GAS  /tmp/ccarMPtk.s 			page 1


   1              		.syntax unified
   2              		.cpu cortex-m4
   3              		.eabi_attribute 27, 3
   4              		.eabi_attribute 28, 1
   5              		.fpu fpv4-sp-d16
   6              		.eabi_attribute 20, 1
   7              		.eabi_attribute 21, 1
   8              		.eabi_attribute 23, 3
   9              		.eabi_attribute 24, 1
  10              		.eabi_attribute 25, 1
  11              		.eabi_attribute 26, 1
  12              		.eabi_attribute 30, 2
  13              		.eabi_attribute 34, 1
  14              		.eabi_attribute 18, 4
  15              		.thumb
  16              		.file	"uart.c"
  17              		.section	.gnu.lto_.jmpfuncs.73eb5185e1000939,"",%progbits
  18 0000 789C758C 		.ascii	"x\234u\214\013\012\2000\014C\223V\355\374\036ww\361"
  18      0B0A8030 
  18      0C439356 
  18      EDFC1E77 
  18      77F1
  19 0012 B666630E 		.ascii	"\266fc\016A-\245\011!\257\006\303\327\234M\017\220."
  19      412DA509 
  19      21AF06C3 
  19      D79C4D0F 
  19      902E
  20 0024 CD94B99D 		.ascii	"\315\224\271\235\020\347\340\004F\352L\241\\\313\\\305"
  20      10E7E004 
  20      46EA4CA1 
  20      5CCB5CC5 
  21 0034 2411DEBA 		.ascii	"$\021\336\272\317\234H\245?\367G\313\233\\\177\310\255"
  21      CF9C48A5 
  21      3FF747CB 
  21      9B5C7FC8 
  21      AD
  22 0045 907B2771 		.ascii	"\220{'q\001jY\007\364"
  22      016A5907 
  22      F4
  23              		.text
  24              		.section	.gnu.lto_.inline.73eb5185e1000939,"",%progbits
  25 0000 789C8590 		.ascii	"x\234\205\220=\022\2020\020F\277\015\201\204\000\032"
  25      3D128230 
  25      1046BF0D 
  25      8184001A 
  26 0010 BD002556 		.ascii	"\275\000%V\224\224\266v\324\336@\275\011%G\340(\216"
  26      9494B676 
  26      D4DE40BD 
  26      092547E0 
  26      288E
  27 0022 17B0E508 		.ascii	"\027\260\345\010vr\004\227\340\017\343\010&Ev\366%_"
  27      76720497 
  27      E00FE308 
  27      264576F6 
  27      255F
  28 0034 5E2220F0 		.ascii	"^\" \360k\\hX\027\200Z\022\004\335\024T\225\271\315"
  28      6B5C6858 
ARM GAS  /tmp/ccarMPtk.s 			page 2


  28      17805A12 
  28      04DD1454 
  28      95B9CD
  29 0047 5E0C505D 		.ascii	"^\014P]\322$\021\2201\271\340\240I\035 \323S\250\200"
  29      D2241190 
  29      31B9E0A0 
  29      491D20D3 
  29      53A880
  30 005a DBB24961 		.ascii	"\333\262Ia\316[\327\227\010W\334\012\272\034\272\313"
  30      CE5BD797 
  30      0857DC0A 
  30      BA1CBACB 
  31 006a 5D4B442E 		.ascii	"]KD.\303\207Y3Qm\201\260-\306$\030\210_e\357{e\302\351"
  31      C3875933 
  31      516D81B0 
  31      2DC62418 
  31      885F65EF 
  32 0082 75D94F05 		.ascii	"u\331O\005m\277\254FT#6L\315}\007}\335\214\235C\204"
  32      6DBFAC46 
  32      5423364C 
  32      CD7D077D 
  32      DD8C9D43 
  33 0097 8A3C1CF6 		.ascii	"\212<\034\366t\"\020<\215\343\247\344\317\360\264|\275"
  33      7422103C 
  33      8DE3A7E4 
  33      CFF0B47C 
  33      BD
  34 00a8 87B3AD00 		.ascii	"\207\263\255\000\337o\237\347e\037`f\265\242Y\255xR"
  34      DF6F9FE7 
  34      651F6066 
  34      B5A259AD 
  34      7852
  35 00ba 2B196911 		.ascii	"+\031i\021\273\330Ak({-\373G\013\017\017\0223\375"
  35      BBD8416B 
  35      287B2DFB 
  35      470B0F0F 
  35      1233FD
  36              		.text
  37              		.section	.gnu.lto_.pureconst.73eb5185e1000939,"",%progbits
  38 0000 789C6362 		.ascii	"x\234cb`b\220e\200\000>\006)F)&\011f)\026+V+6+v)\016"
  38      60629065 
  38      80003E06 
  38      29462926 
  38      09662916 
  39 001c 2B4E492E 		.ascii	"+NI.+n)\036+^I\000&\316\002\263"
  39      2B6E291E 
  39      2B5E4900 
  39      26CE02B3 
  40              		.text
  41              		.section	.gnu.lto_uartStopSendI.part.0.73eb5185e1000939,"",%progbits
  42 0000 789C5D50 		.ascii	"x\234]P\261J\003A\020\235\267{\347ig\341\007\004\333"
  42      B14A0341 
  42      109DB77B 
  42      E76967E1 
  42      0704DB
  43 0013 800B4AFE 		.ascii	"\200\013J\376$\001-/\227`\016M\016.\211 \026\331\310"
  43      24012D2F 
ARM GAS  /tmp/ccarMPtk.s 			page 3


  43      97600E4D 
  43      0E2E8920 
  43      16D9C8
  44 0026 8196C14E 		.ascii	"\201\226\301Nm\014jcckaak\241bg\272\313/\304J\021\316"
  44      6D0C6A63 
  44      636B6161 
  44      6BA16267 
  44      BACB2FC4 
  45 003d 998D163A 		.ascii	"\231\215\026:\260\373f\207yo\336\254\"E\377\243\314"
  45      B0FB6687 
  45      796FDEAC 
  45      2245FFA3 
  45      CC
  46 004e A702A20D 		.ascii	"\247\002\242\015F\370\004o\364\314\211\007\345PA\013"
  46      46F8046F 
  46      F4CC8907 
  46      E550410B 
  47 005e 0E173520 		.ascii	"\016\0275 \011\201\006\236\322\030lA\310X\245\261\265"
  47      0981069E 
  47      D2186C41 
  47      C858A5B1 
  47      B5
  48 006f 27F9F56C 		.ascii	"'\371\365l\212S\373\220]\330\257\242\000b\360\240uP"
  48      8A53FB90 
  48      5DD8AFA2 
  48      0062F0A0 
  48      7550
  49 0081 04DAE407 		.ascii	"\004\332\344\007J\016\224\367w\362\255\262yQL\336\227"
  49      4A0E94F7 
  49      77F2ADB2 
  49      79514CDE 
  49      97
  50 0092 02A02D8C 		.ascii	"\002\240-\214\020c\026\324\024;m\2372kG%\022\025\216"
  50      106316D4 
  50      143B6D9F 
  50      326B4725 
  50      12158E
  51 00a5 2ADFE2A0 		.ascii	"*\337\342\240\012OP\327\240\034\276P\226?\036\005?\335"
  51      0A4F50D7 
  51      A01CBE50 
  51      963F1E05 
  51      3FDD
  52 00b7 730962A9 		.ascii	"s\011b\251K^\206c\033\352\200>\355\261]\216\241#8)."
  52      4B5E8663 
  52      1BEA803E 
  52      EDB15D8E 
  52      A1233829 
  53 00cc B21D76F3 		.ascii	"\262\035v\363D\207wo\263\251\012q\305\335e\272\261\034"
  53      4487776F 
  53      B3A90A71 
  53      C5DD65BA 
  53      B11C
  54 00de 9518FE39 		.ascii	"\225\030\3769\235\015\255P\026\270U\274\007\216W\237"
  54      9D0DAD50 
  54      16B855BC 
  54      078E579F 
  55 00ee D3DD36FE 		.ascii	"\323\3356\376\357\0325hg\344\225\177I\244\265\024'\244"
ARM GAS  /tmp/ccarMPtk.s 			page 4


  55      EF1A3568 
  55      67E4957F 
  55      49A4B514 
  55      27A4
  56 0100 79B2BAFF 		.ascii	"y\262\272\377X\021\307\220\006\371zcZI\273i\242\244"
  56      5811C790 
  56      06F97A63 
  56      5A49BB69 
  56      A2A4
  57 0112 B16F1ACD 		.ascii	"\261o\032\315=\023\265\342z\234tM/\355wv\014'\255p\327"
  57      3D13B5E2 
  57      7A9C744D 
  57      2FED7776 
  57      0C27AD70 
  58 0127 74D3C8F4 		.ascii	"t\323\310\364\303\264\267\026\021:\337\266\273\\k"
  58      C3B4B716 
  58      113ADFB6 
  58      BB5C6B
  59              		.text
  60              		.section	.gnu.lto_uartStopReceiveI.part.1.73eb5185e1000939,"",%progbits
  61 0000 789C5D50 		.ascii	"x\234]P\261J\003A\020\235\267{\347\211\225\215}\260"
  61      B14A0341 
  61      109DB77B 
  61      E789958D 
  61      7DB0
  62 0012 0DB8A0E4 		.ascii	"\015\270\240\344O\022\320\362r\011\346\320\344\340\222"
  62      4F12D0F2 
  62      7209E6D0 
  62      E4E092
  63 0021 0862918D 		.ascii	"\010b\221\215\\!\330\004\273hcP\033\033\013\033\013"
  63      5C21D804 
  63      BB686350 
  63      1B1B0B1B 
  63      0B
  64 0032 0B7F40C5 		.ascii	"\013\177@\305\316tG\212\370\017\"\2343\033-t`\367\315"
  64      CE74478A 
  64      F80F229C 
  64      331B2D74 
  64      60F7CD
  65 0045 0EF3DEBC 		.ascii	"\016\363\336\274YE\212\376G\231O\005D[\214\360\011\336"
  65      59458AFE 
  65      47994F05 
  65      445B8CF0 
  65      09DE
  66 0057 E885130F 		.ascii	"\350\205\023\017\312\241\202\026\034.k@\022\002\015"
  66      CAA18216 
  66      1C2E6B40 
  66      12020D
  67 0066 3CA531D8 		.ascii	"<\2451\330\201\220\261N\023k\317\362\233\371\014c\373"
  67      8190B14E 
  67      136BCFF2 
  67      9BF90C63 
  67      FB
  68 0077 945DDAAF 		.ascii	"\224]\332\257\242\000b\360\240MP\004\332\346\007J\016"
  68      A20062F0 
  68      A04D5004 
  68      DAE6074A 
ARM GAS  /tmp/ccarMPtk.s 			page 5


  68      0E
  69 0088 94F777F2 		.ascii	"\224\367w\362\235\262yQL?V\002\240-\214\020\023\026"
  69      9DB27951 
  69      4C3F5602 
  69      A02D8C10 
  69      1316
  70 009a D4143B6D 		.ascii	"\324\024;m\2372kG%\022\025\216*\337\342\240\012OP\327"
  70      9F326B47 
  70      2512158E 
  70      2ADFE2A0 
  70      0A4F50D7 
  71 00ae A01CBE52 		.ascii	"\240\034\276R\226\217O\203\237\356\205\004\261\324\025"
  71      968F4F83 
  71      9FEE8504 
  71      B1D415
  72 00bd 2FC3B10B 		.ascii	"/\303\261\013uD\237\366\304\256\306\320\021\234\024"
  72      75449FF6 
  72      C4AEC6D0 
  72      119C14
  73 00cc 17D90EBB 		.ascii	"\027\331\016\273y\246\343\207\367\371L\205\270\346\356"
  73      79A6E387 
  73      F7F94C85 
  73      B8E6EE
  74 00db 32DD5A8E 		.ascii	"2\335Z\216J\014\377\202\316\207V(K\334*\336\003\307"
  74      4A0CFF82 
  74      CE875628 
  74      4BDC2ADE 
  74      03C7
  75 00ed AB2FE86E 		.ascii	"\253/\350n\033\377w\215\032\2643\362\306\277$\322Z\212"
  75      1BFF778D 
  75      1AB433F2 
  75      C6BF24D2 
  75      5A8A
  76 00ff 53D23C59 		.ascii	"S\322<Y=\336\257\211cH\203|\2751\255\244\3354Q\3228"
  76      3DDEAF89 
  76      6348837C 
  76      BD31ADA4 
  76      DD3451D2 
  77 0114 348DE681 		.ascii	"4\215\346\201\211Zq=N\272\246\227\366;{\206\223V\270"
  77      895A713D 
  77      4EBAA697 
  77      F63B7B86 
  77      9356B8
  78 0127 6FBA6964 		.ascii	"o\272id\372a\332\333\210\010\235o]\243[\331"
  78      FA61DADB 
  78      88089D6F 
  78      5DA35BD9 
  79              		.text
  80              		.section	.gnu.lto_uartInit.73eb5185e1000939,"",%progbits
  81 0000 789C6362 		.ascii	"x\234cb`b@\007\222@\\\011\304\206@\314\310\314\300\310"
  81      60624007 
  81      92405C09 
  81      C48640CC 
  81      C8CCC0C8 
  82 0014 34E11C03 		.ascii	"4\341\034\003C#\007\023##\210\301\300\310P\317\304X"
  82      43230713 
  82      232388C1 
ARM GAS  /tmp/ccarMPtk.s 			page 6


  82      C0C850CF 
  82      C458
  83 0026 1FC90856 		.ascii	"\037\311\010V\273\236\351\300\203\377\377\327\375\330"
  83      BB9EE9C0 
  83      83FFFFD7 
  83      FDD8
  84 0034 FAB01EA8 		.ascii	"\372\260\036\250\224\201\201\225\241\245\241a\202\002"
  84      94818195 
  84      A1A5A161 
  84      8202
  85 0042 03433258 		.ascii	"\003C2X>\004H\2024\20522\201h\346\363\014\315\017\376"
  85      3E044882 
  85      34853232 
  85      8168E6F3 
  85      0CCD0FFE 
  86 0056 0524322E 		.ascii	"\005$2.dd\005\312V3\374j\350h\020\310d\004\252\206\030"
  86      646405CA 
  86      5633FC6A 
  86      E86810C8 
  86      6404AA86 
  87 006b 9709A22F 		.ascii	"\227\011\242/24>\370\317\004S\004\001!@\011\240\001"
  87      32343EF8 
  87      CF045304 
  87      01214009 
  87      A001
  88 007d 20C7EAEB 		.ascii	" \307\352\353g\344\347\246\352'\347\247T\352\247\244"
  88      67E4E7A6 
  88      EA27E7A7 
  88      54EAA7A4 
  89 008d 96E92767 		.ascii	"\226\351'gd&e\346\027\353\227\024\225\346e\353\003\031"
  89      642665E6 
  89      17EB9714 
  89      95E665EB 
  89      0319
  90 009f 198939FA 		.ascii	"\031\2119\372\305E\311\372\245\211E%z\311\014\000\343"
  90      C545C9FA 
  90      A5894525 
  90      7AC90C00 
  90      E3
  91 00b0 B0337B   		.ascii	"\2603{"
  92              		.text
  93              		.section	.gnu.lto_uartObjectInit.73eb5185e1000939,"",%progbits
  94 0000 789C6DD0 		.ascii	"x\234m\320\261J\003A\020\006\340\377\237\315\241\257"
  94      B14A0341 
  94      1006E0FF 
  94      9FCDA1AF 
  95 0010 6027580A 		.ascii	"`'X\012\016y\026#hy\331\004\357\320\344\340\222\010"
  95      0E791623 
  95      6879D904 
  95      EFD0E4E0 
  95      9208
  96 0022 56B98858 		.ascii	"V\271\210X\247\224X\331\206\240\226)}\001E;\313T\372"
  96      A79458D9 
  96      86A09629 
  96      7D01453B 
  96      CB54FA
  97 0035 0A7671F7 		.ascii	"\012vq\367\316\\\241;\260;\263\303~\354\260\002\301"
ARM GAS  /tmp/ccarMPtk.s 			page 7


  97      CE5CA13B 
  97      B03BB3C3 
  97      7EECB002 
  97      C1
  98 0046 DFD871EB 		.ascii	"\337\330q\353\220@\323e\032P\246\257\300d[H_\200\030"
  98      9040D365 
  98      1A50A6AF 
  98      C0645B48 
  98      5F8018
  99 0059 0BC7272C 		.ascii	"\013\307',\357>\312\363j\275~x\272Y,8\223-a\257\354"
  99      EF3ECAF3 
  99      6ABD7E78 
  99      BA592C38 
  99      932D61AF 
 100 006e 47B82E8A 		.ascii	"G\270.\212\351.`\313c\313\355\336\036Q|6/\270Z~|\276"
 100      E92E60CB 
 100      63CBEDDE 
 100      1E517C36 
 100      2FB85A7E 
 101 0084 49CC7B46 		.ascii	"I\314{F\330\307\274p\321L\211;\314\230\222\247\224c"
 101      D8C7BC70 
 101      D14C893B 
 101      CC9892A7 
 101      9463
 102 0096 97ABD1DA 		.ascii	"\227\253\321\332\325K\360\035\370\332\353\357\2006a"
 102      D54BF01D 
 102      F8DAEBEF 
 102      803661
 103 00a5 CD5A1BFC 		.ascii	"\315Z\033\374\352\333\257\377\272\021\326R\353\306F"
 103      EADBAFFF 
 103      BA11D652 
 103      EBC646
 104 00b4 2F033A0A 		.ascii	"/\003:\012kS\353\310\027\357\230\254\346{\225\335D\313"
 104      6B53EBC8 
 104      17EF98AC 
 104      E67B95DD 
 104      44CB
 105 00c6 0DE8FEC4 		.ascii	"\015\350\376\304\013\325$\353u\325f\235K\355t/\324&"
 105      0BD524EB 
 105      75D5669D 
 105      4BED742F 
 105      D426
 106 00d8 693BCD06 		.ascii	"i;\315\006:\314G\3753uE\022\237\353 \267:\212\363\341"
 106      3ACC47FD 
 106      33754512 
 106      9FEB20B7 
 106      3A8AF3E1 
 107 00ec 81C50F37 		.ascii	"\201\305\0177j^\335"
 107      6A5EDD
 108              		.text
 109              		.section	.gnu.lto_uartStart.73eb5185e1000939,"",%progbits
 110 0000 789C8D50 		.ascii	"x\234\215P\261J\003A\020}\263\227h\320\306R\033\271"
 110      B14A0341 
 110      107DB397 
 110      68D0C652 
 110      1BB9
 111 0012 C6421457 		.ascii	"\306B\024W\377  \010\0266FA+\271l\216d1\227\223\273"
ARM GAS  /tmp/ccarMPtk.s 			page 8


 111      FF202008 
 111      16364641 
 111      2BB96C8E 
 111      64319793 
 112 0027 9C182C3C 		.ascii	"\234\030,<C@\013\021\013\013Q,\304\200`\241\226\202"
 112      43400B11 
 112      0B0B512C 
 112      C48060A1 
 112      9682
 113 0039 205636A2 		.ascii	" V6\242bga\021\260\263Rl\304Fo\357b\224 \350\300\356"
 113      62676111 
 113      B0B3526C 
 113      C4466FEF 
 113      629420E8 
 114 004f 0CCC9B79 		.ascii	"\014\314\233y\357\015\003Cst\005\257J\300z\220I\003"
 114      EF0D0343 
 114      737405AF 
 114      4AC07A90 
 114      4903
 115 0061 B18D1B60 		.ascii	"\261\215\033`9\301\210T\001\302\022\243\245i\012\261"
 115      39C18854 
 115      01C212A3 
 115      A5690AB1 
 116 0071 C7ECA2F6 		.ascii	"\307\354\242\366\361q\364vy\276F\273\254]#\213\020\013"
 116      F171F476 
 116      79BE46BB 
 116      AC5D238B 
 116      100B
 117 0083 3ED58DA3 		.ascii	">\325\215\243\342\373\033: B\354D\360\253\005\223\304"
 117      E2FB1B3A 
 117      2042EC44 
 117      F0AB0593 
 117      C4
 118 0094 54D66E50 		.ascii	"T\326nP~y\332|\354l\300\014\332\2438B\006\202\253)e"
 118      7E79DA7C 
 118      EC6CC00C 
 118      DAA33842 
 118      0682AB29 
 119 00a9 5A24AF1B 		.ascii	"Z$\257\033\025\332\365\267\2222\"\235\"I\244\253\252"
 119      15DAF5B7 
 119      9232229D 
 119      2249A4AB 
 119      AA
 120 00ba D15FA9F7 		.ascii	"\321_\251\367\353n\256Q\276z8Y\357\215V\366\341\320"
 120      EB6EAE51 
 120      BE7A3859 
 120      EF8D56F6 
 120      E1D0
 121 00cc 0F624892 		.ascii	"\017bH\222\266\203\355`8\226%M-\011\331\220\216\266"
 121      B683ED60 
 121      3896254D 
 121      2D09D990 
 121      8EB6
 122 00de 224B31E0 		.ascii	"\"K1\340\026\225\332\365~\333\227\226E\274\373\253~"
 122      1695DAF5 
 122      7EDB9796 
 122      45BCFBAB 
ARM GAS  /tmp/ccarMPtk.s 			page 9


 122      7E
 123 00ef 87A41641 		.ascii	"\207\244\026ATGi\222ZC\212\323\373\327\013\326L\221"
 123      54476992 
 123      5A438AD3 
 123      FBD70BD6 
 123      4C91
 124 0101 F89DE25B 		.ascii	"\370\235\342[yBi\374\217y\203\252\301\371C\263\370a"
 124      794269FC 
 124      8F7983AA 
 124      C1F943B3 
 124      F861
 125 0113 D6A003EA 		.ascii	"\326\240\003\352\216\024\337a\371\271|\026k\314\"\272"
 125      8E14DF61 
 125      F9B97C16 
 125      6BCC22BA 
 126 0123 33A9FB2A 		.ascii	"3\251\373*,\3479\3332\271\2603%\2361\347\271\310\311"
 126      2CE739DB 
 126      32B9B033 
 126      259E31E7 
 126      B9C8C9
 127 0136 B4B45D5E 		.ascii	"\264\264]^t\274\302,\017\212\234\221\347\256#\270g8"
 127      74BCC22C 
 127      0F8A9C91 
 127      E7AE23B8 
 127      6738
 128 0148 C50181E4 		.ascii	"\305\001\201\344_xs\241\310\207\307R\243).\013\"\357"
 128      5F7873A1 
 128      C887C752 
 128      A3292E0B 
 128      22EF
 129 015a 6514D631 		.ascii	"e\024\3261g\2045\342\025\304@\016\035c\251q=m\270\346"
 129      678435E2 
 129      15C4400E 
 129      1D63A971 
 129      3D6DB8E6 
 130 016e 9C23FBF5 		.ascii	"\234#\373\365\236A0\007\255\226i\331N\011\237\322T\212"
 130      9E413007 
 130      AD9669D9 
 130      4E099FD2 
 130      548A
 131 0180 09       		.ascii	"\011"
 132              		.text
 133              		.section	.gnu.lto_uartStop.73eb5185e1000939,"",%progbits
 134 0000 789C8D91 		.ascii	"x\234\215\221\317K\002A\024\307\337\233\325T\272x\254"
 134      CF4B0241 
 134      14C7DF9B 
 134      D554BA78 
 134      AC
 135 0011 8B78E954 		.ascii	"\213x\351T8\365\037\010A\320\301K\026\324)\326q\311"
 135      38F51F08 
 135      41D0C14B 
 135      16D429D6 
 135      71C9
 136 0023 21576375 		.ascii	"!Wcu#\011r\025\301N!\321A\212\250\240\010:\324\265\233"
 136      23097215 
 136      C14E21D1 
 136      418AA8A0 
ARM GAS  /tmp/ccarMPtk.s 			page 10


 136      083AD4B5 
 137 0038 1DBB643F 		.ascii	"\035\273d?\376\002\251[t\260[t\310fvm\013\023j`w\276"
 137      FE02A95B 
 137      74B05B74 
 137      C866766D 
 137      0B136A60 
 138 004e BBF3FDBC 		.ascii	"\273\363\375\274\367\346=\002\004z\327\260xZ\010\260"
 138      F7E63D02 
 138      047AD7B0 
 138      785A08B0 
 139 005e 25765400 		.ascii	"%vT\000I\255\011P\362\023D)\000\241H\260\270\200\266"
 139      49AD0950 
 139      F2134429 
 139      00A148B0 
 139      B880B6
 140 0071 F7825CB5 		.ascii	"\367\202\\\265:\235\363\207\352\311\013\036\220A\005"
 140      3A9DF387 
 140      EAC90B1E 
 140      904105
 141 0080 75FBBF17 		.ascii	"u\373\277\027*\226U\013\0030\373sV\274%;\207D\356J\023"
 141      2A96550B 
 141      0330FB73 
 141      56BC253B 
 141      8744EE4A 
 142 0095 CAAFCF3B 		.ascii	"\312\257\317;OC\256M\305#\364\202\035\034!\247\310\242"
 142      4F43AE4D 
 142      C523F482 
 142      1D1C21A7 
 142      C8A2
 143 00a7 14A7B210 		.ascii	"\024\247\262\020Tp\337\252G\271\223o\0369bX*\367\274"
 143      5470DFAA 
 143      47B9936F 
 143      1E396258 
 143      2AF7BC
 144 00ba DA3DEF5E 		.ascii	"\332=\357^\344\026*\355\355\306!~\205\\\207wk\323\012"
 144      E4162AED 
 144      EDC6217E 
 144      855C8777 
 144      6BD30A
 145 00cd 7254183A 		.ascii	"rT\030:1\226P\341\350\001\270\201\362\345\365\206\343"
 145      319650E1 
 145      E801B881 
 145      F2E5F586 
 145      E3
 146 00de 1B85334B 		.ascii	"\033\2053K\254\011\216\336=\330\025I\006\204K&\363\331"
 146      AC098EDE 
 146      3DD81549 
 146      06844B26 
 146      F3D9
 147 00f0 48C221ED 		.ascii	"H\302!\355\364^\251%\373\366qGzi\177\177\372\273x?t"
 147      F45EA925 
 147      FBF67147 
 147      7A697F7F 
 147      FABB783F 
 148 0105 E97AE737 		.ascii	"\351z\3477\035\350O\023\227\016H\361\237\356\251x,F"
 148      1DE84F13 
 148      970E48F1 
ARM GAS  /tmp/ccarMPtk.s 			page 11


 148      9FEEA978 
 148      2C46
 149 0117 67770B7E 		.ascii	"gw\013~tK\305S\0149W\271\207R\373\261\341qYp\006\205"
 149      744BC553 
 149      0C3957B9 
 149      8752FBB1 
 149      E1715970 
 150 012d 7240D24B 		.ascii	"r@\322Ki*\253k\224e\223\005\232\324V)K\361\004\317\346"
 150      692AAB6B 
 150      94659305 
 150      9AD45629 
 150      4BF104CF 
 151 0142 68DE3033 		.ascii	"h\33603\313T\210\224\232\2469\203QS5\362\021\006\321"
 151      CB548894 
 151      9AA63983 
 151      515335F2 
 151      1106D1
 152 0155 BFFCDA5A 		.ascii	"\277\374\332Z\236N\306\342\323q\3123,m&\245\327\320"
 152      9E4EC6E2 
 152      D371CA33 
 152      2C6D26A5 
 152      D7D0
 153 0167 16993E65 		.ascii	"\026\231>efX$\005\301X|&\234Ps\332\212\301\307\302#"
 153      66582405 
 153      C1587C26 
 153      9C5073DA 
 153      8AC1C7C2 
 154 017c E3400CF0 		.ascii	"\343@\014\360\351\232\2365\012\360\011\374Z\227)"
 154      E99A9E35 
 154      0AF009FC 
 154      5A9729
 155              		.text
 156              		.section	.gnu.lto_uartStartSend.73eb5185e1000939,"",%progbits
 157 0000 789C8D50 		.ascii	"x\234\215P1K\303P\020\276{I\254\340\322Q\227\322\245"
 157      314BC350 
 157      10BE7B49 
 157      ACE0D251 
 157      97D2A5
 158 0013 93D2A7FF 		.ascii	"\223\322\247\377\240 \010\016]\254\202N\222\276\206"
 158      A020080E 
 158      5DAC824E 
 158      92BE86
 159 0022 E661D348 		.ascii	"\346a\323H\322\024\213C\323RT\034\244\203CQ\034\004"
 159      D2148B43 
 159      D352541C 
 159      A4834351 
 159      1C04
 160 0034 4150A8E0 		.ascii	"AP\250\340 \035uq\263\322\241\273\350\346TW\227\372"
 160      201D7571 
 160      B3D2A1BB 
 160      E8E65457 
 160      97FA
 161 0046 5E528BB8 		.ascii	"^R\213\270\350\301\273;\270\357\276\357{G\200\300\357"
 161      E8C1BB3B 
 161      B8EFBEEF 
 161      7B4780C0 
 161      EF
ARM GAS  /tmp/ccarMPtk.s 			page 12


 162 0057 9811AF8C 		.ascii	"\230\021\257\214\000G\242\242\002H\232]\200\332$A\224"
 162      0047A2A2 
 162      02489A5D 
 162      80DA2441 
 162      94
 163 0068 0D205409 		.ascii	"\015 T\011V70\300\336\220\373\227\341\260}w\370\370"
 163      563730C0 
 163      DE90FB97 
 163      E1B07D77 
 163      F8F8
 164 007a 80EDC494 		.ascii	"\200\355\304\224\202\026\202*\022j\"Ij\015\032\276\337"
 164      8216822A 
 164      126A2249 
 164      6A0D1ABE 
 164      DF
 165 008b 8C03B060 		.ascii	"\214\003\260`aUd\311\262&\206\242*]\250\177\274\037"
 165      615564C9 
 165      B22686A2 
 165      2A5DA87F 
 165      BC1F
 166 009d BF4D8F61 		.ascii	"\277M\217a:\236\243\006\201\014\202\253H{J\3501\006"
 166      3A9EA306 
 166      810C82AB 
 166      487B4AE8 
 166      3106
 167 00af 0D3CF35B 		.ascii	"\015<\363[)\036*\257#G\214\313n<\337\037\315G_z\206"
 167      291E2AAF 
 167      23478CCB 
 167      6E3CDF1F 
 167      CD475F7A 
 168 00c4 BDC16DBF 		.ascii	"\275\301m\277\203\337\224\273\360\351\037\370Q\216\012"
 168      83DF94BB 
 168      F0E91FF8 
 168      518E0A
 169 00d3 C390238F 		.ascii	"\303\220#\217J\036\325<j\034U\200'\250wZ\327=\022\342"
 169      4A1ED53C 
 169      6A1C5580 
 169      27A8775A 
 169      D73D12E2 
 170 00e7 67E1CA17 		.ascii	"g\341\312\027\261\300Q;\205\023!6!\320R4\022\254fC\206"
 170      B1C0513B 
 170      85132136 
 170      21D05234 
 170      12AC6643 
 171 00fc C08626FB 		.ascii	"\300\206&\373\377\374D\307\013q\320\3009\374p\256\343"
 171      FFFC44C7 
 171      0B71D0C0 
 171      39FC70AE 
 171      E3
 172 010d 25C642BA 		.ascii	"%\306B\272\036\324\006\257}u\274\013\341\321P\036Kb"
 172      1ED406AF 
 172      7D75BC0B 
 172      E1D1501E 
 172      4B62
 173 011f 29356DCB 		.ascii	")5m\313\240\314\316Uh\316(Sf\362,\267]Zr\274\342\026"
 173      A0CCCE55 
 173      68CE2853 
ARM GAS  /tmp/ccarMPtk.s 			page 13


 173      66F22CB7 
 173      5D5A72BC 
 174 0135 158DA917 		.ascii	"\025\215\251\027\250\3530\352\351N)\311 \365\027\336"
 174      A8EB30EA 
 174      E94E29C9 
 174      20F517DE 
 175 0145 D829D1C5 		.ascii	"\330)\321\305tf9Cy\221\025\274\234\304:\306&\263\226"
 175      74663943 
 175      799115BC 
 175      9CC43AC6 
 175      26B396
 176 0158 BC224B9A 		.ascii	"\274\"K\232\020MgV\342Y\3355\266\035>\027O\314\003q"
 176      104D6756 
 176      E259DD35 
 176      B61D3E17 
 176      4FCC0371 
 177 016c 20621996 		.ascii	" b\031\226\355T\340\013]\305\177o"
 177      ED54E00B 
 177      5DC57F6F 
 178              		.text
 179              		.section	.gnu.lto_uartStartSendI.73eb5185e1000939,"",%progbits
 180 0000 789C5D4E 		.ascii	"x\234]N\261J\003Q\020\234\331\273\240`ckg\223J\360\221"
 180      B14A0351 
 180      109CD9BB 
 180      A060636B 
 180      67934AF0 
 181 0015 7F89A0E5 		.ascii	"\177\211\240\345\345%\334=4\036\\\022A,\362\"\"\226"
 181      E525DC3D 
 181      341E5C12 
 181      412CF222 
 181      2296
 182 0027 298356B6 		.ascii	")\203V\266\026Zj\251\2056b$\266\022\270\357\260\211"
 182      165A6AA9 
 182      85366224 
 182      B612B8EF 
 182      B089
 183 0039 FBEEB071 		.ascii	"\373\356\260qav\207\335\331\331\025\010\376\307\226"
 183      617687DD 
 183      D9D91508 
 183      FEC796
 184 0048 E24BD152 		.ascii	"\342K\321R0\002e:\007&\353B\006\002b,\034\037\260\322"
 184      3002653A 
 184      0726EB42 
 184      0602622C 
 184      1C1FB0D2 
 185 005c 3EC873B9 		.ascii	">\310s\271Z\335\317\336\337^\270l\256\011\373D\244\211"
 185      5ADDCFDE 
 185      DF5EB86C 
 185      AE09FB44 
 185      A489
 186 006e B1A660DD 		.ascii	"\261\246`\335\300\205\367\323m\300V\013m\315\301eO\207"
 186      C085F7D3 
 186      6DC0560B 
 186      6DCDC165 
 186      4F87
 187 0080 5AA34F5C 		.ascii	"Z\243O\\\226\337\257\033\011o\331\320\361\031~\374\225"
 187      96DFAF1B 
ARM GAS  /tmp/ccarMPtk.s 			page 14


 187      096FD9D0 
 187      F1197EFC 
 187      95
 188 0091 DF745479 		.ascii	"\337tTy} \245\244\214R\306.4>p\3764{\\H\255\337\301"
 188      7D20A5A4 
 188      8C52C62E 
 188      343E70FE 
 188      347B5C48 
 189 00a8 9DD76839 		.ascii	"\235\327h9\312\015\256\351\202N\366\265\306\325j\247"
 189      CA0DAEE9 
 189      824EF6B5 
 189      C6D56AA7 
 190 00b8 7640E848 		.ascii	"v@\350H\340\013L\312e\363\357V\035m\265\325G\302\253"
 190      E00B4CCA 
 190      65F3EF56 
 190      1D6DB5D5 
 190      47C2AB
 191 00cb C66479BF 		.ascii	"\306dy\277gl\336=5\335\336\211\261\231\353\270|`\206"
 191      676CDE3D 
 191      35DDDE89 
 191      B199EBB8 
 191      7C6086
 192 00de C5E8F8D0 		.ascii	"\305\350\370\320(\311\222#3(\254\031%\305p\327\342\027"
 192      28C99223 
 192      3328AC19 
 192      25C570D7 
 192      E217
 193 00f0 39F44453 		.ascii	"9\364DS"
 194              		.text
 195              		.section	.gnu.lto_uartStopSend.73eb5185e1000939,"",%progbits
 196 0000 789C8D51 		.ascii	"x\234\215Q=h\024A\024~\337\314\356\335\031\015\011\330"
 196      3D681441 
 196      147EDFCC 
 196      EEDD190D 
 196      09D8
 197 0012 5884B008 		.ascii	"X\204\260\0106F2\022\020\254$\020\020,\322x\012Z\311"
 197      36463212 
 197      10AC2410 
 197      102CD278 
 197      0A5AC9
 198 0025 DEDC921B 		.ascii	"\336\334\222\033\314\336\311\356m0Xd.\234\242`q\210"
 198      CCDEC9EE 
 198      6D305864 
 198      2E9CA260 
 198      7188
 199 0037 851A05A3 		.ascii	"\205\032\005\243 (\202\226)\004SH\020\321HJE\3604E\032"
 199      20288296 
 199      29045348 
 199      10D1484A 
 199      45F03445 
 200 004c 9BB4229C 		.ascii	"\233\264\"\2343\273w\347O\223<\330}o\336\373\336\367"
 200      33BB77E7 
 200      4F933CD8 
 200      7D6FDEFB 
 200      DEF7
 201 005e BE79C388 		.ascii	"\276y\303\210\321\3776a\276\343&\3352\036.\201\265\326"
 201      D1FF3661 
ARM GAS  /tmp/ccarMPtk.s 			page 15


 201      BEE326DD 
 201      321E2E81 
 201      B5D6
 202 0070 891A05C6 		.ascii	"\211\032\005\306\370\332\020\351\001\347\335\011\322"
 202      F8DA10E9 
 202      01E7DD09 
 202      D2
 203 007d FB389C2C 		.ascii	"\3738\234,\355\0006 \320\002\343\016\026\316\303r\340"
 203      ED003620 
 203      D002E30E 
 203      16CEC372 
 203      E0
 204 008e 202D6B7D 		.ascii	" -k}\253}\365\365\006\356\352\325\346C\375\253\323\001"
 204      AB7DF5F5 
 204      06EEEAD5 
 204      E643FDAB 
 204      D301
 205 00a0 14CCBC09 		.ascii	"\024\314\274\011\220\004\2353\007x\251c\316\277\002"
 205      90049D33 
 205      0778A963 
 205      CEBF02
 206 00af 5EB0D576 		.ascii	"^\260\325v\247\363\352k\373\373\022\366\017\202|,\033"
 206      A7F3EA6B 
 206      FBFB12F6 
 206      0F827C2C 
 206      1B
 207 00c0 3E172128 		.ascii	">\027!(G\012\274\320\315\030s\251\251u\313\353\235e"
 207      470ABCD0 
 207      CD1873A9 
 207      A975CBEB 
 207      9D65
 208 00d2 3AFC8CF9 		.ascii	":\374\214\371[Mg\301\254\347\353\264\270\375\343\366"
 208      5B4D67C1 
 208      ACE7EBB4 
 208      B8FDE3F6 
 209 00e2 E6812E98 		.ascii	"\346\201.\230L\373cs\261T4(\341v\007<[\304(]\303\003"
 209      4CFB6373 
 209      B1543428 
 209      E176073C 
 209      5BC4285D 
 210 00f8 7D675221 		.ascii	"}gR!\325d\325\271\236\215\372\365\033\335z.\323\372"
 210      D564D5B9 
 210      9E8DFAF5 
 210      1BDD7A2E 
 210      D3FA
 211 010a 81163F7F 		.ascii	"\201\026?\177y~\177$\243\234An\214\016+\344\227\350"
 211      797E7F24 
 211      A39C416E 
 211      8C0E2BE4 
 211      97E8
 212 011c 9E692DCC 		.ascii	"\236i-\314\300\265\024{Rh\011\275\013\276\2457[\215"
 212      C0B5147B 
 212      526809BD 
 212      0BBEA537 
 212      5B8D
 213 012e C17E8B85 		.ascii	"\301~\213\205\344\373E\262\3029\255\015\361\217\324"
 213      E4FB45B2 
ARM GAS  /tmp/ccarMPtk.s 			page 16


 213      C239AD0D 
 213      F18FD4
 214 013d 6CDFDC42 		.ascii	"l\337\334B\017W\270B?\365u=\2540 \221\301\015\277\302"
 214      0F57B842 
 214      3FF5753D 
 214      AC302091 
 214      C10DBFC2 
 215 0151 DE54C5CA 		.ascii	"\336T\305\312\312\3467\226A\307\350\2316vl\007\035\351"
 215      CAE63796 
 215      41C7E899 
 215      36766C07 
 215      1DE9
 216 0163 D83F239D 		.ascii	"\330?#\235]\357\312\307\023#0\335\015\375\265\033\037"
 216      5DEFCAC7 
 216      132330DD 
 216      0DFDB51B 
 216      1F
 217 0174 4F319AB1 		.ascii	"O1\232\261mP\343\345\243\270'<\235\367\211`\256\300"
 217      6D50E3E5 
 217      A3B8273C 
 217      9DF78960 
 217      AEC0
 218 0186 DF6F8FD8 		.ascii	"\337o\217\330F\223`\315\330>\025\354X\333/D\245\026"
 218      469360CD 
 218      D83E15EC 
 218      58DB2F44 
 218      A516
 219 0198 0642D6CA 		.ascii	"\006B\326\312\363\242\034\314\011YQ%U\213E=J\252\027"
 219      F3A21CCC 
 219      09595125 
 219      558B453D 
 219      4AAA17
 220 01ab 85092AFE 		.ascii	"\205\011*\376\254\210#)\022?\252\217KBur\247\216\340"
 220      AC882329 
 220      123FAA8F 
 220      4B427572 
 220      A78EE0
 221 01be 725D4C4D 		.ascii	"r]LM\027O\025\205\252\312\331\244l\261QpA\206'\223\252"
 221      174F1585 
 221      AACAD9A4 
 221      6CB15170 
 221      41862793 
 222 01d3 1CAFD0F0 		.ascii	"\034\257\320\360t\361\264W\362\343\340R\244\216x\207"
 222      74F1B457 
 222      F2E3E052 
 222      A48E7887 
 223 01e3 8E128B28 		.ascii	"\216\022\213(\037\006a-\232\247\337\226\274\253\336"
 223      1F06612D 
 223      9AA7DF96 
 223      BCABDE
 224              		.text
 225              		.section	.gnu.lto_uartStopSendI.73eb5185e1000939,"",%progbits
 226 0000 789C5D50 		.ascii	"x\234]P=KC1\024\275\347&O\037R\251?\301Y\301\340\037"
 226      3D4B4331 
 226      14BDE726 
 226      4F1F52A9 
 226      3FC159C1 
ARM GAS  /tmp/ccarMPtk.s 			page 17


 227 0016 F05758D0 		.ascii	"\360WX\320\261MK_\320\372\340\265\025\304\241\251tp"
 227      B14D4B5F 
 227      D0FAE0B5 
 227      15C4A1A9 
 227      7470
 228 0028 EC283AB9 		.ascii	"\354(:\271\213\376\001\007\007)\"XqT\034trq\022\027"
 228      8BFE0107 
 228      07292258 
 228      71541C74 
 228      72711217 
 229 003c 5DEACD2B 		.ascii	"]\352\315+O\304@rn\222s\316\375`b\372\277Ve\317b\212"
 229      4FC44072 
 229      6E9273CE 
 229      FD6062FA 
 229      BF5665CF 
 230 0052 88083C1C 		.ascii	"\210\010<\034\023\365cf5*\223\237\323\267k\344K\012"
 230      13F56366 
 230      352A939F 
 230      D3B76BE4 
 230      4B0A
 231 0064 3A3C4303 		.ascii	":<C\003\001\011\324c\245\321\333D\356q\301W/\223\311"
 231      0109D463 
 231      A5D1DB44 
 231      EE71C157 
 231      2F93C9
 232 0077 F9E7F8EC 		.ascii	"\371\347\370\354\035\227\034\203\034$\223\034\032-P"
 232      1D971C83 
 232      1C24931C 
 232      1A2D50
 233 0086 2451E045 		.ascii	"$Q\340E4\360~\270Hds\325\272\234\301\254\002\016\250"
 233      34F07EB8 
 233      486473D5 
 233      BA9CC1AC 
 233      020EA8
 234 0099 EEE8E0E9 		.ascii	"\356\350\340\351\350\343\025U\234J\035MD\313\264\344"
 234      E8E31555 
 234      9C4A1D4D 
 234      44CBB4E4 
 235 00a9 C027740C 		.ascii	"\300't\014\007\325\204\336\020\324y\276\032\212\352"
 235      07D584DE 
 235      10D479BE 
 235      1A8AEA
 236 00b8 6FE8FAAD 		.ascii	"o\350\372\255?\377+\011\024\306\237\356*P4*\253{\032"
 236      3FFF2B09 
 236      14C69FEE 
 236      2A50342A 
 236      AB7B1A
 237 00cb C40589F7 		.ascii	"\304\005\211\367\351\333\037\372\005\207\310b\312\025"
 237      E9DB1FFA 
 237      0587C862 
 237      CA15
 238 00d9 73879942 		.ascii	"s\207\231B\241\363r\036d\010\341'g<\022D\250\020\374"
 238      A1F3721E 
 238      6408E127 
 238      673C1244 
 238      A810FC
 239 00ec E5CACF5F 		.ascii	"\345\312\317_\245\320\000\0023\214\324\230$m5\214M\353"
ARM GAS  /tmp/ccarMPtk.s 			page 18


 239      A5D00002 
 239      338CD498 
 239      246D358C 
 239      4DEB
 240 00fe 7BA6DED8 		.ascii	"{\246\336\33056q5\227\266M'\353\356l\031\011\222\352"
 240      35367135 
 240      97B64D27 
 240      EBEE6C19 
 240      0992EA
 241 0111 B66967D6 		.ascii	"\266ig\326t\253Yg\305\322\017N\211L\272"
 241      74AB5967 
 241      C5D20F4E 
 241      894CBA
 242              		.text
 243              		.section	.gnu.lto_uartStartReceive.73eb5185e1000939,"",%progbits
 244 0000 789C8D50 		.ascii	"x\234\215P1K\303P\020\276{I\254\340\322Q\227\222E\034"
 244      314BC350 
 244      10BE7B49 
 244      ACE0D251 
 244      9792451C 
 245 0014 943EFD07 		.ascii	"\224>\375\007\005Ap\350b\025t\222\36454\017\233F\222"
 245      054170E8 
 245      62157492 
 245      F435340F 
 245      9B4692
 246 0027 462C0E4D 		.ascii	"F,\016MKQ'\351\340P\024\007A\020\034\024\234\034\025"
 246      4B5127E9 
 246      E0501407 
 246      41101C14 
 246      9C1C15
 247 003a 5C6DE9E2 		.ascii	"\\m\351\342,\352\344TW\007\343{I-\342\242\007\357\356"
 247      2CEAE454 
 247      5707E37B 
 247      492DE2A2 
 247      07EFEE
 248 004d E0BEFBBE 		.ascii	"\340\276\373\276\357\035\001\002\277cB\274-\0048\020"
 248      EF1D0102 
 248      BF6342BC 
 248      2D043810 
 249 005d 151540D2 		.ascii	"\025\025@\322\352\000\324G\011\242l\000\241F\260\266"
 249      EA00D447 
 249      09A26C00 
 249      A146B0B6 
 250 006d 8611F68A 		.ascii	"\206\021\366\212\334>\205\341\345c\367\376\016?\247"
 250      DC3E85E1 
 250      E563F7FE 
 250      0E3FA7
 251 007c C614B411 		.ascii	"\306\024\264\021T\221P\023IRk\320\014\202\226\016\300"
 251      54915013 
 251      49526BD0 
 251      0C82960E 
 251      C0
 252 008d A2856591 		.ascii	"\242\205e\221%\313\212\030\212\252t\240\361\376v\370"
 252      25CB8A18 
 252      8AAA74A0 
 252      F1FE76F8 
 253 009d 323E8419 		.ascii	"2>\204\031x\212\032D2\010\236\"\355)\261\307\0244\361"
ARM GAS  /tmp/ccarMPtk.s 			page 19


 253      788A1A44 
 253      32089E22 
 253      ED29B1C7 
 253      1434F1
 254 00b0 24686778 		.ascii	"$hgx\254\274\212\034Q\227\335p\2767\230\017\276\324"
 254      ACBC8A1C 
 254      5197DD70 
 254      BE37980F 
 254      BED4
 255 00c2 85DDFE75 		.ascii	"\205\335\376u\370\212\337\224;\360\021\354\007I\216"
 255      F88ADF94 
 255      3BF011EC 
 255      07498E
 256 00d1 0AC398A3 		.ascii	"\012\303\230\243\210J\021\325\"j\034U\200\007h\334\264"
 256      884A11D5 
 256      226A1C55 
 256      800768DC 
 256      B4
 257 00e2 C31E89F1 		.ascii	"\303\036\211\361\323p\021\210\230\343\250\035\303\221"
 257      D3701188 
 257      98E3A81D 
 257      C391
 258 00f0 101B1168 		.ascii	"\020\033\021h)\232\210V\3631CdC\223\375\177~b\340\231"
 258      299A8856 
 258      F3314364 
 258      4393FD7F 
 258      7E62E099 
 259 0104 3868E41C 		.ascii	"8h\344\034~87\360\034S1]\017\352\375\347P\035\356B|"
 259      7E3837F0 
 259      1C53315D 
 259      0FEAFDE7 
 259      501DEE42 
 260 0119 3494C792 		.ascii	"4\224\307\222XJ-\3076)s\012UZ0\267(\263x\236;\036\255"
 260      584A2DC7 
 260      3629730A 
 260      555A30B7 
 260      28B3789E 
 261 0130 B87E7983 		.ascii	"\270~y\203\212\3062J\324s\031\365\015\267\222f\220\371"
 261      8AC6324A 
 261      D47319F5 
 261      0DB79266 
 261      90F9
 262 0142 0B6F6E57 		.ascii	"\013onW\350|6\267\230\243\274\314J~Ab]s\235\331\013"
 262      E87C36B7 
 262      98A3BCCC 
 262      4A7E4162 
 262      5D739DD9 
 263 0157 7E99A52D 		.ascii	"~\231\245-HfsKz\336\360\314M\227\317\350\223\263@\\"
 263      4866734B 
 263      7ADEF0CC 
 263      4D97CFE8 
 263      93B3405C 
 264 016b 48D8A6ED 		.ascii	"H\330\246\355\270U\370\002\261\260\200\370"
 264      B855F802 
 264      B1B080F8 
 265              		.text
 266              		.section	.gnu.lto_uartStartReceiveI.73eb5185e1000939,"",%progbits
ARM GAS  /tmp/ccarMPtk.s 			page 20


 267 0000 789C5D4E 		.ascii	"x\234]N\261J\003Q\020\234\331\273\240\225\330\332\331"
 267      B14A0351 
 267      109CD9BB 
 267      A095D8DA 
 267      D9
 268 0011 06C147FE 		.ascii	"\006\301G\376%\202\226\227\227p\367\320xpI\004\261\310"
 268      25829697 
 268      9770F7D0 
 268      78704904 
 268      B1C8
 269 0023 8B885806 		.ascii	"\213\210X\006+\321\312RC\264M\251\205e\024\363\005\367"
 269      2BD1CA52 
 269      43B44DA9 
 269      856514F3 
 269      05F7
 270 0035 1D3671DF 		.ascii	"\0356q\337\0356.\314\356\260;;\273\002\301\377\330Q"
 270      1D362ECC 
 270      EEB03B3B 
 270      BB02C1FF 
 270      D851
 271 0047 AC142D05 		.ascii	"\254\024-\005#P\246\237\300dS\310@@\214\205\343#V\332"
 271      2350A69F 
 271      C06453C8 
 271      40408C85 
 271      E32356DA 
 272 005b 57792BD7 		.ascii	"Wy+\327\353\227\305\355\307;\347\315\015a\237\21041"
 272      EB97C5ED 
 272      C73BE7CD 
 272      0D619F88 
 272      3431
 273 006d D614AC1B 		.ascii	"\326\024\254\033\270\362~\272\013\330j\241\2559\270"
 273      B8F27EBA 
 273      0BD86AA1 
 273      AD39B8
 274 007c 1CE8506B 		.ascii	"\034\350Pk\364\205\353r\366\264\225\360\221\015\035"
 274      F485EB72 
 274      F6B495F0 
 274      910D1D
 275 008b 5FE0C7DF 		.ascii	"_\340\307\337\370mG\225\327\007RJ\312(e\354Bc\211\313"
 275      F86D4795 
 275      D707524A 
 275      CA2865EC 
 275      426389CB 
 276 009f C5DD6C25 		.ascii	"\305\335l%\265~\017\317^\243\345(\017\270\247\013:9"
 276      B57E0FCF 
 276      5EA3E528 
 276      0FB8A70B 
 276      3A39
 277 00b1 D41A57AB 		.ascii	"\324\032W\253\235\332\001\241#\201\177cR\316\233\177"
 277      9DDA01A1 
 277      23817F63 
 277      52CE9B7F 
 278 00c1 B7EA68AB 		.ascii	"\267\352h\253\255>\022^5&\313\373=c\363\356\271\351"
 278      AD3E125E 
 278      3526CBFB 
 278      3D63F3EE 
 278      B9E9
ARM GAS  /tmp/ccarMPtk.s 			page 21


 279 00d3 F6CE8CCD 		.ascii	"\366\316\214\315\\\307\345\0033,F\247\307FI\226\234"
 279      5CC7E503 
 279      332C46A7 
 279      C7464996 
 279      9C
 280 00e4 984161CD 		.ascii	"\230Aa\315()\206\373\026\277\260\327C\215"
 280      282986FB 
 280      16BFB0D7 
 280      438D
 281              		.text
 282              		.section	.gnu.lto_uartStopReceive.73eb5185e1000939,"",%progbits
 283 0000 789C8D51 		.ascii	"x\234\215Q=h\024A\024~\337\314\356\335\031\015Iaa\241"
 283      3D681441 
 283      147EDFCC 
 283      EEDD190D 
 283      496161A1 
 284 0014 61116C8C 		.ascii	"a\021l\214d$`\223B\002\202`\221\306S\320J\366\346\226"
 284      64246093 
 284      42028260 
 284      91C653D0 
 284      4AF6E696 
 285 0028 DC60F64E 		.ascii	"\334`\366N\366n\203!E\346\302)\332\035ba\014\007F!\240"
 285      F66E8321 
 285      45E6C229 
 285      DA1D6261 
 285      0C074621 
 286 003d 8D828529 		.ascii	"\215\202\205),RH\020\321\210vJ\212#\026\"\306\302V\204"
 286      2C524810 
 286      D188764A 
 286      8A231622 
 286      C6C25684 
 287 0051 7366F7EE 		.ascii	"sf\367\356\374i\342\203\335\367\346\275\357}\357\233"
 287      FC69E283 
 287      DDF7E6BD 
 287      EF7DEF9B 
 288 0061 378C18FD 		.ascii	"7\214\030\375k\343\346\2330\351\246\361p\011\254\271"
 288      6BE3E69B 
 288      30E9A6F1 
 288      7009ACB9 
 289 0071 4954CF31 		.ascii	"IT\3171\3067\206H\0178\257N\222\336\307\341\244i\007"
 289      C6378648 
 289      0F38AF4E 
 289      92DEC7E1 
 289      A46907
 290 0084 B0018116 		.ascii	"\260\001\201\026\030w\260p\021\226\003\207iE\353[\355"
 290      1877B070 
 290      11960387 
 290      6945EB5B 
 290      ED
 291 0095 6B4FDF63 		.ascii	"kO\337cI\2577\356\351\237\235\016\240`\346\215\203$"
 291      49AF37EE 
 291      E99F9D0E 
 291      A060E68D 
 291      8324
 292 00a7 E88239C0 		.ascii	"\350\2029\300K\034s\376\026\360\230\255\267;\235\347"
 292      4B1C73FE 
 292      16F098AD 
ARM GAS  /tmp/ccarMPtk.s 			page 22


 292      B73B9DE7 
 293 00b7 4BDFB6BF 		.ascii	"K\337\266\277b\377 \310\307\212\341s\021\2022\244\300"
 293      62FF20C8 
 293      C78AE173 
 293      118232A4 
 293      C0
 294 00c8 73DD8C31 		.ascii	"s\335\2141\227\032Z7\275\336Y&\303\317\231\277\325t"
 294      971A5A37 
 294      BDDE5926 
 294      C3CF99BF 
 294      D574
 295 00da 1ECC7ABE 		.ascii	"\036\314z\276I\213\337wn\177:\320\005\223i\177`.\226"
 295      498BDF77 
 295      6E7F3AD0 
 295      0593697F 
 295      602E96
 296 00ed 8806C5DC 		.ascii	"\210\006\305\334\356\200\247\213\030\241\353h\351;\223"
 296      EE80A78B 
 296      18A1EB68 
 296      E93B93
 297 00fc 0A8926AB 		.ascii	"\012\211&\253\316\365l\324\257\337\354\3263\251\326"
 297      CEF56CD4 
 297      AFDFECD6 
 297      33A9D6
 298 010b 37B4F871 		.ascii	"7\264\370qkg\365`J9\215\314(\035U\310.\323]\323\232"
 298      6B67F560 
 298      4A398DCC 
 298      281D55C8 
 298      2ED35DD3 
 299 0120 9B866B29 		.ascii	"\233\206k)\366$\320\002z\027|I/>\327\007\373-\026\222"
 299      F624D002 
 299      7A177C49 
 299      2F3ED707 
 299      FB2D1692 
 300 0134 ED17C90A 		.ascii	"\355\027\311\012\347\2641\304\337R\243\275\365\005="
 300      E7B431C4 
 300      DF52A3BD 
 300      F5053D
 301 0143 5C6E9E7E 		.ascii	"\\n\236~\350\033zXa@\"\205\033~\205\275\211\212\265"
 301      E81B7A58 
 301      61402285 
 301      1B7E85BD 
 301      898AB5
 302 0156 B567DB2C 		.ascii	"\265g\333,\205\216\322#m\354\304.:\222\261\277G:\377"
 302      858ED223 
 302      6DECC42E 
 302      3A92B1BF 
 302      473AFF
 303 0169 BD2B1FAB 		.ascii	"\275+\037\253F`\262\033\372c7>\036b$e{G\365'\367[}\345"
 303      4660B21B 
 303      FA63373E 
 303      1E622465 
 303      7B47F527 
 304 0181 C9C00F04 		.ascii	"\311\300\017\004s\007\376z\371\220\3554\011\326h\301"
 304      7307FE7A 
 304      F990ED34 
 304      09D668C1 
ARM GAS  /tmp/ccarMPtk.s 			page 23


 305 0191 3E16EC60 		.ascii	">\026\354`\313 D\251\022\006BV\212s\242\030\314\012"
 305      CB2044A9 
 305      12064256 
 305      8A73A218 
 305      CC0A
 306 01a3 59520555 		.ascii	"YR\005U\251\212Z\024\227/\013\023\224\374\031Q\215\244"
 306      A98A5A14 
 306      972F0B13 
 306      94FC1951 
 306      8DA4
 307 01b5 88FDA836 		.ascii	"\210\375\2506&\011\345\311\335:\202\2535qj*\177&/TY"
 307      2609E5C9 
 307      DD3A82AB 
 307      35716A2A 
 307      7F262F54 
 308 01ca CEC4458B 		.ascii	"\316\304E\213\215\202K2<\035\227\345X\211\206\247\362"
 308      8D824B32 
 308      3C1D97E5 
 308      588986A7 
 308      F2
 309 01db 67BD825F 		.ascii	"g\275\202_\015\256D\352\230w\3448\261\210\262a\020V"
 309      0DAE44EA 
 309      9877E438 
 309      B188B261 
 309      1056
 310 01ed A239FA05 		.ascii	"\2429\372\005q\347\254_"
 310      71E7AC5F 
 311              		.text
 312              		.section	.gnu.lto_uartStopReceiveI.73eb5185e1000939,"",%progbits
 313 0000 789C5D50 		.ascii	"x\234]P\273J\003A\024\275\347\316\254.b\210\237`\255"
 313      BB4A0341 
 313      14BDE7CE 
 313      AC2E6288 
 313      9F60AD
 314 0013 E0E00FF8 		.ascii	"\340\340\017\370\025\006\264L&!;h\\\330$\202Xd\"),S"
 314      1506B44C 
 314      26213B68 
 314      5CD82482 
 314      58642229 
 315 0029 888856FE 		.ascii	"\210\210V\376@,\374\001\013\011\"\250XF,\304B\033\277"
 315      402CFC01 
 315      0B0922A8 
 315      58462CC4 
 315      421BBF
 316 003c C026DED9 		.ascii	"\300&\336\331\260\"\016\314\234;3\347\234\373`b\372"
 316      B0220ECC 
 316      9C3B33E7 
 316      9CFB6062 
 316      FA
 317 004d BFD665CF 		.ascii	"\277\326e\317c\206\210\010<|$\352\307\314j\\&\277\240"
 317      63868808 
 317      3C7C24EA 
 317      C7CC6A5C 
 317      26BFA0
 318 0060 EF37C82F 		.ascii	"\3577\310/*\350\360\014\015\004$P\217\225Fo\033\271"
 318      2AE8F00C 
 318      0D042450 
ARM GAS  /tmp/ccarMPtk.s 			page 24


 318      8F95466F 
 318      1BB9
 319 0072 C715DFBC 		.ascii	"\307\025\337\274M\247\243\223\323\321\027&\034\203\034"
 319      4DA7A393 
 319      D3D11726 
 319      1C831C
 320 0081 24931C1A 		.ascii	"$\223\034\032-P$Q\340E4\360~\270Lds\325\246\234\301"
 320      2D502451 
 320      E04534F0 
 320      7EB84C64 
 320      73D5A69C 
 321 0096 AC020EA8 		.ascii	"\254\002\016\250\036\350\350\345\354\343\035U\\J\035"
 321      1EE8E8E5 
 321      ECE31D55 
 321      5C4A1D
 322 00a5 4D44ABB4 		.ascii	"MD\253\264\342\300\027t\016\007\325\204\336\022\324"
 322      E2C01774 
 322      0E07D584 
 322      DE12D4
 323 00b4 79BE1A8A 		.ascii	"y\276\032\212\352\357\350\366\263_\372\225\004\012\343"
 323      EAEFE8F6 
 323      B35FFA95 
 323      040AE3
 324 00c3 4F771528 		.ascii	"Ow\025(\032\227\325\023\015\342\202\304\207\364\355"
 324      1A97D513 
 324      0DE282C4 
 324      87F4ED
 325 00d2 8FFD9243 		.ascii	"\217\375\222Cd1\343\212\271\303\\\241\320y9\3172\204"
 325      6431E38A 
 325      B9C35CA1 
 325      D07939CF 
 325      3284
 326 00e4 F0933326 		.ascii	"\360\2233&\004\021*\004\177\271\362\353u)4\200\300\014"
 326      04112A04 
 326      7FB9F2EB 
 326      75293480 
 326      C00C
 327 00f6 23352649 		.ascii	"#5&I[\015c\323\372\201\2517\366\215M\\\315\245m\323"
 327      5B0D63D3 
 327      FA81A937 
 327      F68D4D5C 
 327      CDA56DD3 
 328 010a C9BA7B3B 		.ascii	"\311\272{;F\202\244\272k\332\2315\335j\326Y\263\364"
 328      4682A4BA 
 328      6BDA9935 
 328      DD6AD659 
 328      B3F4
 329 011c 03A6594B 		.ascii	"\003\246YK\361"
 329      F1
 330              		.text
 331              		.section	.gnu.lto_.symbol_nodes.73eb5185e1000939,"",%progbits
 332 0000 789C4DC9 		.ascii	"x\234M\311I\012\302P\020\204\341\356\212\363\220\250"
 332      490AC250 
 332      1084E1EE 
 332      8AF390A8 
 333 0010 C9D2BB56 		.ascii	"\311\322\273V\234GPA\020\004\335\010\202wp\245{\317"
 333      9C475041 
ARM GAS  /tmp/ccarMPtk.s 			page 25


 333      1004DD08 
 333      827770A5 
 333      7BCF
 334 0022 20780F87 		.ascii	" x\017\207\370\304\327\265\371\371(\010d\253\342\206"
 334      F8C4D7B5 
 334      F9F92808 
 334      64ABE286 
 335 0032 2328B2BC 		.ascii	"#(\262\274\211\220\273\261\342\004\252\341K\211\037"
 335      8990BBB1 
 335      E204AAE1 
 335      4B891F
 336 0041 F71FA660 		.ascii	"\367\037\246``\330\001s\206]0o\330\003\013\206}\260"
 336      60D80173 
 336      865D306F 
 336      D8030B86 
 336      7DB0
 337 0053 6838004B 		.ascii	"h8\000K\206C\260l8\002+\206c\260j8\001k\206S\260\356"
 337      8643B06C 
 337      38022B86 
 337      63B06A38 
 337      016B8653 
 338 0069 A96B3074 		.ascii	"\251k0tLS\325-\030y\315\300\206\327\034lz-\300\226\327"
 338      4C53D52D 
 338      1879CDC0 
 338      86D71C6C 
 338      7A2DC096 
 339 007e 0A8CBD36 		.ascii	"\012\214\2756`\362W \241\364\356O\0154rE\3035\327\224"
 339      60F25720 
 339      A1F4EE4F 
 339      0D347245 
 339      C335D794 
 340 0092 6BD67C4B 		.ascii	"k\326|K\016Y\013\261k1v\177)\224\307\271\035\224E.\237"
 340      0E590BB1 
 340      6B31767F 
 340      2994C7B9 
 340      1D94452E 
 341 00a7 5412F756 		.ascii	"T\022\367V\023\367\326\242\357[\327\354\2257l\202{["
 341      13F7D6A2 
 341      EF5BD7EC 
 341      95376C82 
 341      7B5B
 342              		.text
 343              		.section	.gnu.lto_.refs.73eb5185e1000939,"",%progbits
 344 0000 789C6362 		.ascii	"x\234cb`b`d\200\002\000\000F\000\006"
 344      60626064 
 344      80020000 
 344      460006
 345              		.text
 346              		.section	.gnu.lto_.decls.73eb5185e1000939,"",%progbits
 347 0000 789CB55A 		.ascii	"x\234\265Z{p\024E\032\357\236\311k!\204\310\211b\325"
 347      7B701445 
 347      1AEF9EC9 
 347      6B2184C8 
 347      8962D5
 348 0013 5519EBE4 		.ascii	"U\031\353\344\352\312;Y\003\224e\225Wb.AI\035 \265\011"
 348      EACA3B59 
 348      03946595 
ARM GAS  /tmp/ccarMPtk.s 			page 26


 348      57622E41 
 348      491D20B5 
 349 0028 57FACFAD 		.ascii	"W\372\317\255\223\315\006\366\314\203\332\335p\361\274"
 349      93CD06F6 
 349      CC83DADD 
 349      70F1BC
 350 0037 2AC784A7 		.ascii	"*\307\204\247\310;\230 \217\0201\207\212\234\011\317"
 350      C83B9820 
 350      8F103187 
 350      8A9C09CF 
 351 0047 9083B022 		.ascii	"\220\203\260\"\217\240U\200 \301C\201\275\370\302\307"
 351      8FA05580 
 351      20C14381 
 351      BDF8C2C7 
 352 0057 69AA2215 		.ascii	"i\252\"\025\250\240{_\367\364\354\316tzfgc\335VuO\317"
 352      A8A07B5F 
 352      F7F4ECCE 
 352      747A6667 
 352      63DD5675 
 353 006d 6C7FBFFE 		.ascii	"l\177\277\376}_\377\3725\273\022\222\320\2554\204b\360"
 353      7D5FFFFA 
 353      35BB1292 
 353      D0AD3484 
 353      62F0
 354 007f 59753F42 		.ascii	"Yu?BO\245#4\026!\364\010$\011R+\244]H\373\214\207\324"
 354      4FA52334 
 354      1621F408 
 354      2409522B 
 354      A45D48FB 
 355 0096 0949C108 		.ascii	"\011I\301\010\315\203\364\014\244\032H\177\205\364\034"
 355      CD83F40C 
 355      A41A487F 
 355      85F41C
 356 00a5 A4A59056 		.ascii	"\244\245\220VBZ\017\251\011R+\244\035\220vBz\033R\007"
 356      425A0FA9 
 356      09522BA4 
 356      1D907642 
 356      7A1B5207 
 357 00b9 A43D90F6 		.ascii	"\244=\220\366A:\000\351 \244\177a4\354C\332\310\202"
 357      413A00E9 
 357      20A47F61 
 357      34EC43DA 
 357      C882
 358 00cb D4052907 		.ascii	"\324\005)\007R6\244\303Po\025\326\370\034\201\324\015"
 358      5236A4C3 
 358      506F15D6 
 358      F81C81D4 
 358      0D
 359 00dc 89987EC0 		.ascii	"\211\230~\300x\022\033\322\006y\366g\016\223\360\265"
 359      78121BD2 
 359      0679F667 
 359      0E93F0B5 
 360 00ec C2DBC5E1 		.ascii	"\302\333\305\341\235gx\012\343K\236\3719<\342;\251\323"
 360      9D67780A 
 360      E34B9EF9 
 360      393CE23B 
 360      A9D3
ARM GAS  /tmp/ccarMPtk.s 			page 27


 361 00fe 0DD7F9EC 		.ascii	"\015\327\371\354;\211=\337#\360\207\304)\003\256\307"
 361      3B893DDF 
 361      23F087C4 
 361      2903AEC7 
 362 010e 0D6DE971 		.ascii	"\015m\351q\355\205\004\341G\307\230/\244\375\013\214"
 362      ED8504E1 
 362      47C7982F 
 362      A4FD0B8C 
 363 011e CB33ACFD 		.ascii	"\3133\254\375*\016\223\304\334E\260\340\032#\266X\303"
 363      2A0E93C4 
 363      DC45B0E0 
 363      1A23B658 
 363      C3
 364 012f D1B1FB20 		.ascii	"\321\261\373 ]a\355I\014\357\030+\327\260\370\223r\030"
 364      5D61ED49 
 364      0CEF182B 
 364      D7B0F893 
 364      7218
 365 0141 AEB51C36 		.ascii	"\256\265\0346\351\313Q\034\266\021\217\347/s\334%\206"
 365      E9CB511C 
 365      B6118FE7 
 365      2F73DC25 
 365      86
 366 0152 7180717F 		.ascii	"q\200q\177\226\303\177\216\365\205\021\377\004\244\277"
 366      96C37F8E 
 366      F58511FF 
 366      04A4BF
 367 0161 DBF4ED73 		.ascii	"\333\364\355sL+\244\255\027\340Z\017i\021\207K\264\007"
 367      4C2BA4AD 
 367      17E05A0F 
 367      6911874B 
 367      B407
 368 0173 D24D8AB5 		.ascii	"\322M\212\265\324\200\265\034\256/BZ\301a\021\015\023"
 368      D480B51C 
 368      AE2F425A 
 368      C161110D 
 368      13
 369 0184 8D18F5D2 		.ascii	"\215\030\365\322\306q6\342\353Z2\266\263\022'\364\270"
 369      C67136E2 
 369      EB5A32B6 
 369      B31227F4 
 369      B8
 370 0195 96C327E3 		.ascii	"\226\303'\343#\223\341\267!3\326I\302\217\343L\352w"
 370      2393E1B7 
 370      2133D649 
 370      C28FE34C 
 370      EA77
 371 01a7 B2671B38 		.ascii	"\262g\0338\254&A<{ 5\333h\273\211\215;\022\203-p\335"
 371      AC26413C 
 371      7B2035DB 
 371      68BB898D 
 371      3B12832D 
 372 01bd 0AA985C3 		.ascii	"\012\251\205\303me\361L\206\325j\300\332\016\327\327"
 372      6D65F14C 
 372      86D56AC0 
 372      DA0ED7D7 
 373 01cd 20B57158 		.ascii	" \265qX;\004\361l\3478\033\361\215\361\324\333\331a"
ARM GAS  /tmp/ccarMPtk.s 			page 28


 373      3B04F16C 
 373      E7381BF1 
 373      8DF1D4DB 
 373      D961
 374 01df 188F6F70 		.ascii	"\030\217op\370;\015\361$\270F\254S\360]\031\207E\352"
 374      F83B0DF1 
 374      24B846AC 
 374      53F05D19 
 374      8745EA
 375 01f2 2BECD92E 		.ascii	"+\354\331.\016+\023-Q\325z5\272\270~B3p}\022+8\307\005"
 375      0E2B132D 
 375      51D57A35 
 375      BAB87E42 
 375      33707D12 
 376 020a 1126856C 		.ascii	"\021&\205l\0275\231\210^S\3255\321\343_NP\323\024\334"
 376      17359988 
 376      5E53D535 
 376      D1E35F4E 
 376      50D314DC 
 377 021e 8A3301F4 		.ascii	"\2123\001\364A\214\356Co\250\360\034\254\177%\230\003"
 377      418CEE43 
 377      6FA8F01C 
 377      AC7F2598 
 377      03
 378 022f 9C001356 		.ascii	"\234\000\023Vm\000\247\340\327\360}Z3jd\337\222\261"
 378      6D00A7E0 
 378      D7F07D5A 
 378      336A64DF 
 378      92B1
 379 0241 A419F21C 		.ascii	"\244\031\362\034\261o\004\037\2318&\241?b\212\227\346"
 379      B16F041F 
 379      993826A1 
 379      3F628A97 
 379      E6
 380 0252 4A3C7A32 		.ascii	"J<z2\376\010\033*\316\213?\225\030\002\271\305\256D"
 380      FE081B2A 
 380      CE8B3F95 
 380      1802B9C5 
 380      AE44
 381 0264 216676C2 		.ascii	"!fv\302\310L\301\377\300\023!\337\201e\241\231\343\030"
 381      C84CC1FF 
 381      C01321DF 
 381      8165A199 
 381      E318
 382 0276 46AE9EC0 		.ascii	"F\256\236\300y\012\336ECX\207M\3569\214W;\037\257\213"
 382      790ADE45 
 382      4358874D 
 382      EE398C57 
 382      3B1FAF8B 
 383 028a 5ABCDA1D 		.ascii	"Z\274\332\035\305k\011\036\036\260\365X\030\261Wq\352"
 383      C56B091E 
 383      1EB0F558 
 383      18B15771 
 383      EA
 384 029b 216B3784 		.ascii	"!k7\204\254\203\206l\267E\310\356F[\325H4zq\305\345"
 384      AC83866C 
 384      B745C8EE 
ARM GAS  /tmp/ccarMPtk.s 			page 29


 384      465BD548 
 384      347A71C5 
 385 02b0 06BCB6A1 		.ascii	"\006\274\266\241\276G\355\217\305\306\242;\320\006p"
 385      BE47ED8F 
 385      C5C6A23B 
 385      D00670
 386 02bf 49DD0691 		.ascii	"I\335\006\221\300a\027ZF\002\00273z\022\001\311\323"
 386      C061175A 
 386      46020237 
 386      337A1201 
 386      C9D3
 387 02d1 03929650 		.ascii	"\003\222\226Pf\323\352\336\001\\\0176\012\356\302\204"
 387      66D3EADE 
 387      015C0F36 
 387      0AEEC284 
 388 02e1 EECB9239 		.ascii	"\356\313\2229\266\012Nw\231\231\302\275^\201\340\245"
 388      B60A4E77 
 388      9999C2BD 
 388      5E81E0A5 
 389 02f1 BB1205B2 		.ascii	"\273\022\005\2623\030+n\217X\036\304w$\"\212\320h\364"
 389      33182B6E 
 389      8F581EC4 
 389      7724228A 
 389      D068F4
 390 0304 6282E538 		.ascii	"b\202\3458\264\226\360\3173\360\215b\035\340\227\011"
 390      B496F0CF 
 390      33F08D62 
 390      1DE09709 
 391 0314 C243EB06 		.ascii	"\302C\353\006\367\343\006J\370\010\036\007@\237s\204"
 391      F7E3064A 
 391      F8081E07 
 391      409F7384 
 392 0324 930229F8 		.ascii	"\223\002)\370\035,A~\024\314Mr\370\261%\233\310\201"
 392      1D2C417E 
 392      14CC4D72 
 392      F8B1259B 
 392      C881
 393 0336 3CB791C3 		.ascii	"<\267\221\303=h\033\260\216l\350\273&7\251\221\027d"
 393      3D681BB0 
 393      8E6CE8BB 
 393      2637A991 
 393      1764
 394 0348 E7B340DB 		.ascii	"\347\263@\333\247t\0268N%\334/\215H\303=\274\206\327"
 394      A7741638 
 394      4E25DC2F 
 394      8D48C33D 
 394      BC86D7
 395 035b 6B1AEE71 		.ascii	"k\032\356q\244\341[\322p\015/\223\205\032^'\247\256"
 395      A4E15BD2 
 395      700D2F93 
 395      851A5E27 
 395      A7AE
 396 036d E11E8386 		.ascii	"\341\036\203\206OQ\015\277g\241a\011m\2211\353\003\221"
 396      4F510DBF 
 396      67A16109 
 396      6D9131EB 
 396      0391
ARM GAS  /tmp/ccarMPtk.s 			page 30


 397 037f ABAC9868 		.ascii	"\253\254\230h7'.B-\376\240\203\223\023\016\377SU\033"
 397      37272E42 
 397      2DFEA083 
 397      93130EFF 
 397      53551B
 398 0392 32F47975 		.ascii	"2\364yu{\312\210Y\246\036\335\333\327\211\325%\331\372"
 398      7BCA8859 
 398      A61EDDDB 
 398      D789D525 
 398      D9FA
 399 03a4 1CB33365 		.ascii	"\034\2633e\270\\\023\334\341\276~y\243\032Y$\213d\016"
 399      B85C13DC 
 399      E1BE7E79 
 399      A31A5924 
 399      8B640E
 400 03b7 35B041A0 		.ascii	"5\260A\240\252\244\003\346\305\345\022\031\270\212\363"
 400      AAA403E6 
 400      C5E51219 
 400      B88AF3
 401 03c6 046236D7 		.ascii	"\004b6\327U\360G\020\350\244\325H\305K\274\336/^\241"
 401      55F04710 
 401      E8A4D548 
 401      C54BBCDE 
 401      2F5EA1
 402 03d9 7ABFE448 		.ascii	"z\277\344H\357W\257l\275K\335v\024\233\2741M:\012~d"
 402      EF57AF6C 
 402      BD4BDD76 
 402      149BBC31 
 402      4D3A0A7E 
 403 03ee BCE5D0BF 		.ascii	"\274\345\320\277b\036\372\012\356\006$\005\317\225\343"
 403      621EFA0A 
 403      EE062405 
 403      CF95E3
 404 03fd ED584F52 		.ascii	"\355XOR\221\241M\267\023\242\227\301DB{d\363\3001\021"
 404      91A14DB7 
 404      13A297C1 
 404      44427B64 
 404      F3C03111 
 405 0411 D21AB222 		.ascii	"\322\032\262\"\321G\333\024\3719\354;\011\035\242\355"
 405      D147DB14 
 405      F939EC3B 
 405      091DA2ED 
 406 0421 5C4AF4BF 		.ascii	"\\J\364\277\011.\251@#\203,`:\357\023)\343\345\231\360"
 406      092EA940 
 406      23832C60 
 406      3AEF1329 
 406      E3E599F0 
 407 0435 7EBA92BD 		.ascii	"~\272\222\275F\321\301\316:\001\313\262&\367\362U\000"
 407      46D1C1CE 
 407      3A01CBB2 
 407      26F7F255 
 407      00
 408 0446 1B61577E 		.ascii	"\033aW~-\352Jv\303\026\036u\211\372\233\327s\014\003"
 408      2DEA4A76 
 408      C3161E75 
 408      89FA9BD7 
 408      730C03
ARM GAS  /tmp/ccarMPtk.s 			page 31


 409 0459 834148F1 		.ascii	"\203AH\361>\215\016l=\360;U\315R\360\177\351\262\363"
 409      3E8D0E6C 
 409      3DF03B55 
 409      CD52F07F 
 409      E9B2F3
 410 046c 13D7ABCE 		.ascii	"\023\327\253\316\201Z\372\372\033\331\202\320O\241\016"
 410      815AFAFA 
 410      1BD982D0 
 410      4FA10E
 411 047b A5F12B98 		.ascii	"\245\361+\230\314\255`\262y\005\223]\211B,&\243\224"
 411      CCAD60B2 
 411      7905935D 
 411      89422C26 
 411      A394
 412 048d 2B3BD471 		.ascii	"+;\324qt\350\334\211\245l\261\375\212v\343\3114[-\177"
 412      74E8DC89 
 412      A56CB1FD 
 412      8A76E3C9 
 412      345B2D7F 
 413 04a1 6DA3E5EB 		.ascii	"m\243\345\3536Z\276\316k\371\203\264T\345b\326^\313"
 413      365ABECE 
 413      6BF983B4 
 413      54E562D6 
 413      5ECB
 414 04b3 D59F35F8 		.ascii	"\325\2375\370o&WL\362\255J\344\374\246\361d\026\270"
 414      6F26574C 
 414      F2AD4AE4 
 414      FCA6F164 
 414      16B8
 415 04c5 453BF9E3 		.ascii	"E;\371\3434\241^\034\354x\006\266\036\177\207uB\214"
 415      34A15E1C 
 415      EC7806B6 
 415      1E7F8775 
 415      428C
 416 04d7 427D3962 		.ascii	"B}9b\250\226\276H\023\223^\275D\240\372\207I/\223\223"
 416      A896BE48 
 416      13935EBD 
 416      44A0FA87 
 416      492F9393 
 417 04eb 5EA6594D 		.ascii	"^\246YM\231\256D\201m\236\376\357\325\235\253\365\264"
 417      99AE4481 
 417      6D9EFEEF 
 417      D59DABF5 
 417      B4
 418 04fc AED61B54 		.ascii	"\256\326\033T\255C\366j\275i\243\326\245\222\265Z\271"
 418      AD43F66A 
 418      BD69A3D6 
 418      A592B55A 
 418      B9
 419 050d EF24B438 		.ascii	"\357$\2648\335\201Zs\215\364\221I\255\007\257\3523\257"
 419      DD815A73 
 419      8DF49149 
 419      AD07AFEA 
 419      33AF
 420 051f D6C1AB52 		.ascii	"\326\301\253R\3063\253\377lK\366\331\247\365\211\252"
 420      C633ABFF 
 420      6C4BF6D9 
ARM GAS  /tmp/ccarMPtk.s 			page 32


 420      A7F589AA 
 421 052f 910733CD 		.ascii	"\221\0073\315I\2548\301\232\334GF\260\346\224\301\314"
 421      49AC38C1 
 421      9ADC4746 
 421      B0E694C1 
 421      CC
 422 0540 7B8C7E23 		.ascii	"{\214~#\330\346\224\301\362\206\365\205\266w\373\230"
 422      D8E694C1 
 422      F286F585 
 422      B677FB98 
 423 0550 EEDD3EC1 		.ascii	"\356\335>\301\367@\376\031\315\277\240\3715\232\017"
 423      F740FE19 
 423      CDBFA0F9 
 423      359A0F
 424 055f D27CB944 		.ascii	"\322|\271D\362\0254_I\363\325\220\307?\022\332\226\316"
 424      F215345F 
 424      49F3D590 
 424      C73F12DA 
 424      96CE
 425 0571 8F056DA3 		.ascii	"\217\005m\243ah-\261#A?\267=+\341\365\202r\343\224v"
 425      61682DB1 
 425      23413FB7 
 425      3D2BE1F5 
 425      8272E394 
 426 0586 A6735BBA 		.ascii	"\246s[\272\024\227\340\313v[\272\244'\227\013\337\334"
 426      1497E0CB 
 426      765BBAA4 
 426      27970BDF 
 426      DC
 427 0597 588E3B54 		.ascii	"X\216;T5W\301\033$rr\371\216\213PR \342P\263\304\355"
 427      3557C11B 
 427      247272F9 
 427      8E8B5052 
 427      20E250B3 
 428 05ad E2B6F4F5 		.ascii	"\342\266\364\365`\272\220\222o\222\354\343\0265D:\372"
 428      60BA9092 
 428      6F92ECE3 
 428      1635443A 
 428      FA
 429 05be 7A24EA03 		.ascii	"z$\352\003\235\346\032l\2479\005\253\322DG\323\012\034"
 429      9DE61A6C 
 429      A73905AB 
 429      D24447D3 
 429      0A1C
 430 05d0 2DA83384 		.ascii	"-\2503\204\303\010\266K\300k7qc\035\354\2767\321\231"
 430      C308B64B 
 430      C06B3771 
 430      631DECBE 
 430      37D199
 431 05e3 3496325C 		.ascii	"4\2262\\\236\011n\257\031\256>\303\001\234\325~\011"
 431      9E096EAF 
 431      19AE3EC3 
 431      019CD57E 
 431      09
 432 05f4 E0F69BE1 		.ascii	"\340\366\233\341\226\244\014gf\327i\206{\321\011\234"
 432      96A40C67 
 432      66D76986 
ARM GAS  /tmp/ccarMPtk.s 			page 33


 432      7BD1099C 
 433 0604 D5840770 		.ascii	"\325\204\007p]f\270U)\303\231\331\0352\303\255s\002"
 433      5D66B855 
 433      29C399D9 
 433      1D32C3AD 
 433      7302
 434 0616 279AF144 		.ascii	"'\232\361D\037\243\200\025\274\221\312\353\025:\234"
 434      1FA38015 
 434      BC91CAEB 
 434      153A9C
 435 0625 B7D0BC85 		.ascii	"\267\320\274\205\346\2554\337N\3636\232\357p2\330\033"
 435      E6AD34DF 
 435      4EF3369A 
 435      EF7032D8 
 435      1B
 436 0636 25C3606F 		.ascii	"%\303`o\312p0\330\255\267\310p\300\274<\341\360nU]\236"
 436      CA7030D8 
 436      ADB7C870 
 436      C0BC3CE1 
 436      F06E555D 
 437 064b A1AF235B 		.ascii	"\241\257#[RF\3143\"F~L\341D\370\264\216G^\200\262\011"
 437      5246CC33 
 437      22467E4C 
 437      E144F8B4 
 437      8E475E80 
 438 0661 64D340CF 		.ascii	"d\323@\317\357\311nC0O\230\252+\370mIx&4\325\"\365:"
 438      EFC96E43 
 438      304F98AA 
 438      2BF86D49 
 438      782634D5 
 439 0678 F8C9E4FA 		.ascii	"\370\311\344\372iz$\354H>\225\220\023\316\252-\303w"
 439      697A24EC 
 439      483E9590 
 439      13CEAA2D 
 439      C377
 440 068a 85826623 		.ascii	"\205\202f#\330\250\222\370l\330\363\210\266u\332G'\303"
 440      D8A892F8 
 440      6CD8F388 
 440      B675DA47 
 440      27C3
 441 069c 6F33924E 		.ascii	"o3\222N\206f\034\302\257\223\347\277\347\014\345\337"
 441      86661CC2 
 441      AF93E7BF 
 441      E70CE5DF 
 442 06ac E9682A3C 		.ascii	"\351h*<p\246\221\355\023\330\234C)t\216x\012\353<CO"
 442      70A691ED 
 442      13D89C43 
 442      29748E78 
 442      0AEB3C43 
 443 06c1 686CC6C9 		.ascii	"hl\306\311L\025,\317\004\326e\004[\352\004\314f\372"
 443      4C152CCF 
 443      04D66504 
 443      5BEA04CC 
 443      66FA
 444 06d3 3A64045B 		.ascii	":d\004[\2212\230\231Y\267\021l\215\0230\233\251\353"
 444      91329899 
 444      59B7116C 
ARM GAS  /tmp/ccarMPtk.s 			page 34


 444      8D13309B 
 444      A9EB
 445 06e5 AC116C43 		.ascii	"\254\021lC\312`y\242\356E\303\324\241\340\203t\246\351"
 445      CA6079A2 
 445      EE45C3D4 
 445      A1E08374 
 445      A6E9
 446 06f7 A273C921 		.ascii	"\242s\311!\232w\323<B\363\2434?\346d\216\331k\234c6"
 446      9A77D33C 
 446      42F3A334 
 446      3FE6648E 
 446      D96B9C63 
 447 070c 52C21D23 		.ascii	"R\302\035#S\014\3141\233\006\242\017w\3219\206\333K"
 447      530CCC31 
 447      9B06A20F 
 447      77D13986 
 447      DB4B
 448 071e 93785831 		.ascii	"\223xX1\35012\330\2262\203<#\203\310\320\351\315w\252"
 448      E83132D8 
 448      9632833C 
 448      2383C8D0 
 448      E9CD77AA 
 449 0732 D1086687 		.ascii	"\321\010f\207\236h\233\232\354-\346\300\326]\277\245"
 449      9E689B9A 
 449      EC2DE6C0 
 449      D65DBFA5 
 450 0742 FB8DF769 		.ascii	"\373\215\367i\237\265e\012OO\016\200Z\372\242\015\354"
 450      9FB5650A 
 450      4F4F0E80 
 450      5AFAA20D 
 450      EC
 451 0753 F4749A42 		.ascii	"\364t\232B\355\342\240\330kCC\217b\363F\304\366ed\222"
 451      EDE2A0D8 
 451      6B43438F 
 451      62F346C4 
 451      F6656492 
 452 0767 BA123AC0 		.ascii	"\272\022:\300\207N\364\202\317f\201\3304p\343\341\203"
 452      874EF482 
 452      CF6681D8 
 452      3470E3E1 
 452      83
 453 0778 EC0DA416 		.ascii	"\354\015\244\026\213\356\224\021\315o \327\234\031\335"
 453      8BEE9411 
 453      CD6F20D7 
 453      9C19DD
 454 0787 FEB40ED6 		.ascii	"\376\264\016\326\2232X\356\260\021\240i\1777\325\376"
 454      933258EE 
 454      B011A069 
 454      7F37D5FE 
 455 0797 1EAAF193 		.ascii	"\036\252\361\2234\177\217\346\347h\376\241y\333~fX'"
 455      347F8FE6 
 455      E768FEA1 
 455      79DB7E66 
 455      5827
 456 07a9 688B8101 		.ascii	"h\213\201\0015\261j \247\270VZ\336e\324r_\246\203\365"
 456      35B16A20 
 456      A7B8565A 
ARM GAS  /tmp/ccarMPtk.s 			page 35


 456      DE65D472 
 456      5FA683F5 
 457 07bd D5FADC07 		.ascii	"\325\372\334\007+\366\347\023\272\331\212M\200%t-e\304"
 457      2BF6E713 
 457      BAD98A4D 
 457      8025742D 
 457      65C4
 458 07cf BC       		.ascii	"\274"
 459 07d0 0422CC4E 		.ascii	"\004\"\314N[>\275&7\253\221z}\263l\367:J\301\337\321"
 459      5B3EBD26 
 459      37AB917A 
 459      7DB36CF7 
 459      3A4AC1DF 
 460 07e5 6353B2F7 		.ascii	"cS\262\367E\260\357\347Y9=B\212>\306\3371\024\374.\245"
 460      45B0EFE7 
 460      59393D42 
 460      8A3EC6DF 
 460      3114FC2E 
 461 07fa 708C9E98 		.ascii	"p\214\236\230>\240\371y\232_\240\371z\3321o\322\374"
 461      3EA0F979 
 461      9A5FA0F9 
 461      7ADA316F 
 461      D2FC
 462 080c 2D9A7F44 		.ascii	"-\232\177D\363KN\272\252;q\2222\275A\220\320\017\234"
 462      F34B4EBA 
 462      AA3B7192 
 462      32BD4190 
 462      D00F9C
 463 081f 64EE45DB 		.ascii	"d\356E\333Uu\035\371\201j;nlPgh\266\022Z\236E\247w|"
 463      55751DF9 
 463      816A3B6E 
 463      6C506768 
 463      B6125A9E 
 464 0837 B7C56183 		.ascii	"\267\305a\203\265\360k\324\006\346j\307gsfh?J!\033+"
 464      B5F06BD4 
 464      06E66AC7 
 464      67736668 
 464      3F4A211B 
 465 084c C6E7B224 		.ascii	"\306\347\262$!\303G\373\211,\322\330\373R\326\232\027"
 465      21C347FB 
 465      892CD2D8 
 465      FB52D69A 
 465      17
 466 085d A2B1D8DD 		.ascii	"\242\261\330\335\334\273*\202j\345g\237\224\354M\265"
 466      DCBB2A82 
 466      6AE5679F 
 466      94EC4DB5 
 467 086d 84566789 		.ascii	"\204Vg\211<V7\371g\350\325\257J\344'\246\377H#\361\325"
 467      3C5637F9 
 467      67E8D5AF 
 467      4AE427A6 
 467      FF4823F1 
 468 0882 CA8A11FC 		.ascii	"\312\212\021\374l\270\257\333\242\221\233\377\316\026"
 468      6CB8AFDB 
 468      A2919BFF 
 468      CE16
 469 0890 BA6AF35A 		.ascii	"\272j\363Z\356\032\3634\341\234\204vp\2361\212\360y"
ARM GAS  /tmp/ccarMPtk.s 			page 36


 469      EE1AF334 
 469      E19C8476 
 469      709E318A 
 469      F079
 470 08a2 5D95291A 		.ascii	"]\225)\032\251\377%04i\360+!\247\366\023\214\223\366"
 470      A9FF2530 
 470      3469F02B 
 470      21A7F613 
 470      8C93F6
 471 08b5 5A5E42ED 		.ascii	"Z^B\355\342\270\255\347\343\366\215\243\270\251\352"
 471      E2B8ADE7 
 471      E3F68DA3 
 471      B8A9EA
 472 08c4 4A75712E 		.ascii	"Juq.\216\263\372\206g\365\255\220\325\215\023)G\252"
 472      8EB3FA86 
 472      67F5AD90 
 472      D58D1329 
 472      47AA
 473 08d6 5FA489F8 		.ascii	"_\244\211\370\015{\307\300i\344\210\330\327\233\345"
 473      0D7BC7C0 
 473      69E488D8 
 473      D79BE5
 474 08e5 9CAFDFDB 		.ascii	"\234\257\337\333\373\312\314>&!\352\245f\353\222\230"
 474      FBCACC3E 
 474      2621EAA5 
 474      66EB9298 
 475 08f5 F5DA84E8 		.ascii	"\365\332\204\350{>D\003\302\020\235;\311u\334)\2613"
 475      7B3E4403 
 475      C2109D3B 
 475      C975DC29 
 475      B133
 476 0907 83BC3383 		.ascii	"\203\2743\203#\352\270A\236\325\015!\253\375\357\245"
 476      23EAB841 
 476      9ED50D21 
 476      ABFDEFA5 
 477 0917 DC71B76C 		.ascii	"\334q\267l;N\033p\211\373\002Q?\236\023\273\276\226"
 477      3B4E1B70 
 477      89FB0251 
 477      3F9E13BB 
 477      BE96
 478 0929 D7EC90A3 		.ascii	"\327\354\220\243~<\354\237\241\377\322\036\245\300\326"
 478      7E3CEC9F 
 478      A1FFD21E 
 478      A5C0D6
 479 0938 66941D33 		.ascii	"f\224\0353\033\"f\005d\022\355KbU`\035\346!>\314\252"
 479      1B226605 
 479      6412ED4B 
 479      6255601D 
 479      E6213ECC 
 480 094d 2C0A73F3 		.ascii	",\012s\363\373\361\316'\341\203U\324\341\250]*;\211"
 480      FBF1CE27 
 480      E18355D4 
 480      E1A85D2A 
 480      3B89
 481 095f C0113D02 		.ascii	"\300\021=\002\012n\220\355\315\214\021\370\221E@\301"
 481      0A6E90ED 
 481      CD8C11F8 
ARM GAS  /tmp/ccarMPtk.s 			page 37


 481      914540C1 
 482 096f 8B9358D9 		.ascii	"\213\223X\331D\200\030\231\"\260L\030\201\301\025/\301"
 482      44801899 
 482      22B04C18 
 482      81C1152F 
 482      C1
 483 0980 C1B03E12 		.ascii	"\301\260>\022\213MC)\254\034\253\344\344+\307\240\303"
 483      8B4D4329 
 483      AC1CABE4 
 483      E42BC7A0 
 483      C3
 484 0991 58AEB48F 		.ascii	"X\256\264\217%\363\257\236[9\254\254\030\3015Bo\177"
 484      25F3AF9E 
 484      5B39ACAC 
 484      18C13542 
 484      6F7F
 485 09a3 38ADF577 		.ascii	"8\255\365w\313\243\232\013\022Z\344\022\222\334\300"
 485      CBA39A0B 
 485      125AE412 
 485      92DCC0
 486 09b2 935C3F22 		.ascii	"\223\\?\"\222VV\214d\243\220\344\305\325\357c\240p\213"
 486      9256568C 
 486      64A390E4 
 486      C5D5EF63 
 486      A0708B
 487 09c5 6CA19C0F 		.ascii	"l\241\234\017\377fQ\217X\016\377i\242\341\277N\034\213"
 487      FF66518F 
 487      580EFF69 
 487      A2E1BF4E 
 487      1C8B
 488 09d7 263E164D 		.ascii	"&>\026M\216\304\177\236\027\277\265\231Q\374\327\211"
 488      8EC47F9E 
 488      17BFB599 
 488      51FCD789 
 489 09e7 D934D2D8 		.ascii	"\3314\322\330'I\032\233f-\376&^\374\233\205\221\356"
 489      27491A9B 
 489      662DFE26 
 489      5EFC9B85 
 489      91EE
 490 09f9 3C171FFE 		.ascii	"<\027\037\376\315T\015\333\305\021\330\310G\240\325"
 490      CD540DDB 
 490      C511D8C8 
 490      47A0D5
 491 0a08 51042EF0 		.ascii	"Q\004.\360\021\26063F`\220\213\200\265\225M\004Z\371"
 491      11B03633 
 491      4660908B 
 491      80B5954D 
 491      045AF9
 492 0a1b 08BC2A8C 		.ascii	"\010\274*\214@\323\372\304\360\327\207\304>\207A\330"
 492      40D3FAC4 
 492      F0D787C4 
 492      3E8741D8 
 493 0a2b 31A22161 		.ascii	"1\242!ae\305h\276.\244\331\330\313\217\333\343b\222"
 493      65C568BE 
 493      2EA4D9D8 
 493      CB8FDBE3 
 493      6292
ARM GAS  /tmp/ccarMPtk.s 			page 38


 494 0a3d C3B6A53B 		.ascii	"\303\266\245;GD\322\312\212\221|k8\311(\371\273\326"
 494      4744D2CA 
 494      8A917C6B 
 494      38C928F9 
 494      BBD6
 495 0a4f 8777BDB2 		.ascii	"\207w\275\262[]\264\\\375)\366<\326\211\366\272\370"
 495      5B5DB45C 
 495      FD29F63C 
 495      D689F6BA 
 495      F8
 496 0a60 5DA686D1 		.ascii	"]\246\206\321.\302\210|\370E\017^\306\306\276\216\360"
 496      2EC2887C 
 496      F8450F5E 
 496      C6C6BE8E 
 496      F0
 497 0a71 9505C26E 		.ascii	"\225\005\302n!\302\301/\"x\243zt\221\032\213=\3176\276"
 497      21C2C12F 
 497      2278A37A 
 497      74911A8B 
 497      3DCF36BE 
 498 0a85 128A5940 		.ascii	"\022\212Y@\354\025Bt\231Hh\273\242\225\243\304\010\373"
 498      EC154274 
 498      994868BB 
 498      A295A3C4 
 498      08FB
 499 0a97 85088704 		.ascii	"\205\010\207\004\010\233-\020:\205\010\335&\004mq~\323"
 499      089B2D10 
 499      3A8508DD 
 499      26046D71 
 499      7ED3
 500 0aa9 02A14B88 		.ascii	"\002\241K\210p\316\204\240\215\357n\013\204Cf\004\356"
 500      70CE84A0 
 500      8DEF6E0B 
 500      84436604 
 500      EE
 501 0aba 0D15E906 		.ascii	"\015\025\351\006\253i\367\260<\332\302\212D\336\362"
 501      AB69F7B0 
 501      3CDAC28A 
 501      44DEF2
 502 0ac9 8099B0BA 		.ascii	"\200\231\260\272\015\255\2413\374\243\3159\206\367I"
 502      0DADA133 
 502      FCA3CD39 
 502      86F749
 503 0ad8 136C5E27 		.ascii	"\023l^'\221?\323J\012\216\310dgua\224\371e\220\301\251"
 503      913FD34A 
 503      0A8EC864 
 503      67756194 
 503      F96590C1 
 504 0aed 08FB2F08 		.ascii	"\010\373/\010\261\217\304\317\346\244D^\012\211\316"
 504      B18FC4CF 
 504      E6A4445E 
 504      0A89CE
 505 0afc E3C4EA88 		.ascii	"\343\304\352\210|\033-Q2j\334\233l\353\275\300\273\206"
 505      7C1B2D51 
 505      326ADC9B 
 505      6CEBBDC0 
 505      BB86
ARM GAS  /tmp/ccarMPtk.s 			page 39


 506 0b0e 76B25D89 		.ascii	"v\262]\211\202N\214y\230\327\234\243\265\316p\036\322"
 506      824E8C79 
 506      98D79CA3 
 506      B5CE701E 
 506      D2
 507 0b1f EB65329C 		.ascii	"\353e2\234c)\267|\334\242\345\014q\217\334\262\351\221"
 507      6329B77C 
 507      DCA2E50C 
 507      718FDCB2 
 507      E991
 508 0b31 1396FD78 		.ascii	"\023\226\375x\320\346\267\376\223\226V\3156\232\351"
 508      D0E6B7FE 
 508      939656CD 
 508      369AE9
 509 0b40 B1B4EAB3 		.ascii	"\261\264\352\263ax*a\205\246\270\347\327T\371\335\276"
 509      61782A61 
 509      85A6B8E7 
 509      D754F9DD 
 509      BE
 510 0b51 9AF267DD 		.ascii	"\232\362g\335\345\376\205n\337\374@Y\240&\344\016\007"
 510      E5FE856E 
 510      DFFC4059 
 510      A026E40E 
 510      07
 511 0b62 6BAB9F71 		.ascii	"k\253\237qCa\276R\351\016T\373*k\313\375\356Z%\030\236"
 511      4361BE52 
 511      E90E54FB 
 511      2A6BCBFD 
 511      EE5A2518 
 512 0b77 341F8D21 		.ascii	"4\037\215!\327p](\254\204\375\336p\306\343\263\347\346"
 512      D7705D28 
 512      AC84FDDE 
 512      70C6E3B3 
 512      E7E6
 513 0b89 15A2ECB9 		.ascii	"\025\242\354\271\005\236Ro\351\223\336\342\242\231\323"
 513      059E526F 
 513      E993DEE2 
 513      A299D3
 514 0b98 73F49B82 		.ascii	"s\364\233\202\302\322\342?M\317\325o\013\237\2305g\346"
 514      C2D2E23F 
 514      4DCFD56F 
 514      0B9F9835 
 514      67E6
 515 0baa F4D2E914 		.ascii	"\364\322\351\024!\250#h\246\036\243\251\307l\352I\230"
 515      21A82368 
 515      A61EA3A9 
 515      C76CEA49 
 515      98
 516 0bbb BA9D100E 		.ascii	"\272\235\020\016\005}\032Y\037\232\354\256\015\005\335"
 516      057D1A59 
 516      1F9AECAE 
 516      0D05DD
 517 0bca 958132F7 		.ascii	"\225\2012\367<\237\317\255\004\253\356\257\256\251\366"
 517      3C9FCFAD 
 517      04ABEEAF 
 517      AEA9F6
 518 0bd9 DFEF57CA 		.ascii	"\337\357W\312\002\356\251\223\036\23245\356](\\^\356"
ARM GAS  /tmp/ccarMPtk.s 			page 40


 518      02EEA993 
 518      1E9A3435 
 518      EE5D285C 
 518      5EEE
 519 0beb AF00FF32 		.ascii	"\257\000\3772B\201\277\001\255\307\235\264\264\240&"
 519      4281BF01 
 519      ADC79DB4 
 519      B4A026
 520 0bfa 180EB94B 		.ascii	"\030\016\271KJgM\231\354\2369\263\310=\267\004\370."
 520      4A674D99 
 520      EC9E39B3 
 520      C83DB704 
 520      F82E
 521 0c0c CCA7AD7B 		.ascii	"\314\247\255{++\313\001n\024q\241(\030X\350\017\216"
 521      2B2BCB01 
 521      6E1471A1 
 521      281858E8 
 521      0F8E
 522 0c1e 268F99D7 		.ascii	"&\217\231\327\243\251gsg\027\317..u\321rI\351\023sF"
 522      A3A96773 
 522      6717CF2E 
 522      2E75D172 
 522      49E91373 
 523 0c33 69FE4E2F 		.ascii	"i\376N/(z*\235V\314d\201\316d\341\312\"\020\2762o\330"
 523      287A2A9D 
 523      56CC6481 
 523      CE64E1CA 
 523      2210BE32 
 524 0c49 15AEF357 		.ascii	"\025\256\363W\227\347{}eZi2\224\262\202\244\004\205"
 524      97E77B7D 
 524      655A6932 
 524      94B282A4 
 524      0485
 525 0c5b 7BA9D766 		.ascii	"{\251\327fo\015~\006\252I?f\325\3025\377Aox\252M\355"
 525      6F0D7E06 
 525      AA493F66 
 525      D5C235FF 
 525      416F78AA 
 526 0c71 2A05FCAE 		.ascii	"*\005\374\256\366\273\275\020\033\245\2662\354\015?"
 526      F6BBBD10 
 526      1BA5B632 
 526      EC0D3F
 527 0c80 BBC01F22 		.ascii	"\273\300\037\"ny\275\272\275\213r\242\244\202u\276\371"
 527      6E79BDBA 
 527      BD8B72A2 
 527      A48275BE 
 527      F9
 528 0c91 4A101850 		.ascii	"J\020\030PW+*\225y!o\23064e\2627\314lH\221\332\370\211"
 528      572B2A95 
 528      79216F98 
 528      363465B2 
 528      37CC6C48 
 529 0ca9 0D211D24 		.ascii	"\015!\035$&\351\241\005~\177\271\354\013\346C\232\014"
 529      26E9A105 
 529      7E7FB9EC 
 529      0BE6439A 
 529      0C
ARM GAS  /tmp/ccarMPtk.s 			page 41


 530 0cba 690A8D46 		.ascii	"i\012\215FaMuE`^\206\217^\036N\326)\376\272\260\273"
 530      614D7545 
 530      605E868F 
 530      5E1E4ED6 
 530      29FEBAB0 
 531 0ccf 70564971 		.ascii	"pVIq\011t\012\270Z5er\305\324\007\362\353|D\267\264"
 531      09740AB8 
 531      5A356572 
 531      C5D407F2 
 531      EB7C44B7 
 532 0ce4 73BCA5E0 		.ascii	"s\274\245\340@\221\277B*\361HE\036\371\017\036\217\\"
 532      4091BF42 
 532      2AF14845 
 532      1EF90F1E 
 532      8F5C
 533 0cf6 E8C98734 		.ascii	"\350\311\2074\031\322\224\264\307K\347x\322kC@.\263"
 533      19D294B4 
 533      C74BE778 
 533      D26B4340 
 533      2EB3
 534 0d08 BC4AA9AA 		.ascii	"\274J\251\252)\367?\226\252\016h\376\330\324\272:\255"
 534      29F73F96 
 534      AA0E68FE 
 534      D8D4BA3A 
 534      AD
 535 0d19 7D2FE040 		.ascii	"}/\340@\353\343\212f\025xK\302A\277R\025\247P\350I\233"
 535      EBE38A66 
 535      15784BC2 
 535      41BF5215 
 535      A750E849 
 536 0d2e 5D54EA91 		.ascii	"]T\352\221\347\024x\322f=@\262\374\002\217\374X\241"
 536      E71478D2 
 536      663D40B2 
 536      FC028FFC 
 536      58A1
 537 0d40 2723442B 		.ascii	"'#D+\246\005*|\301L\022\262\207 bZ\360\240\224\021\010"
 537      A6052A7C 
 537      C14C12B2 
 537      8720625A 
 537      F0A09411 
 538 0d55 CD0F5484 		.ascii	"\315\017T\204]!\177eE\240\272\334_\227\261\320\357\013"
 538      5D217F65 
 538      45A0BADC 
 538      5F97B1D0 
 538      EF0B
 539 0d67 D704C7C5 		.ascii	"\327\004\307\305\333\363j\366\336p:\334\004\353H\036"
 539      DBF36AF6 
 539      DE703ADC 
 539      04EB481E 
 540 0d77 AE4B0FD6 		.ascii	"\256K\017\326\225\325V\334N\002_\022\256YP\002R)\236"
 540      95D556DC 
 540      4E025F12 
 540      AE595002 
 540      52299E
 541 0d8a B4800C93 		.ascii	"\264\200\014\223\007\322\311\303\005w\352_y\374>?\350"
 541      07D2C9C3 
 541      0577EA5F 
ARM GAS  /tmp/ccarMPtk.s 			page 42


 541      79FC3E3F 
 541      E8
 542 0d9b 957D9B4F 		.ascii	"\225}\233O5W\\\035\010\347\220\302\023e\177\201\326"
 542      35575C1D 
 542      08E790C2 
 542      13657F81 
 542      D6
 543 0dac C8AD4BAB 		.ascii	"\310\255K\253\017Y\226n9&\376\210\300\343\352\3640i"
 543      0F59966E 
 543      3926FE88 
 543      C0E3EAF4 
 543      3069
 544 0dbe 33C7F4B4 		.ascii	"3\307\364\2648\333Ha\214\211On\274&\343p\033\377\240"
 544      38DB4861 
 544      8C894F6E 
 544      BC26E370 
 544      1BFFA0
 545 0dd1 782CC732 		.ascii	"x,\3072\227g=N\037|\020\205\232\005\336\020\340\216"
 545      97673D4E 
 545      1F7C1085 
 545      9A05DE10 
 545      E08E
 546 0de3 373F0A6A 		.ascii	"7?\012j5\307\304\237\006t\347X\035(\2151\231\374\302"
 546      35C7C49F 
 546      0674E758 
 546      1D288D31 
 546      99FCC2
 547 0df6 FC2505BD 		.ascii	"\374%\005\275\203{\306P\323\310\010\370\0378\263\237"
 547      837BC650 
 547      D3C808F8 
 547      1F38B39F 
 548 0e06 7A       		.ascii	"z"
 549              		.text
 550              		.section	.gnu.lto_.symtab.73eb5185e1000939,"",%progbits
 551 0000 75617274 		.ascii	"uartInit\000\000\000\000\000\000\000\000\000\000\000"
 551      496E6974 
 551      00000000 
 551      00000000 
 551      000000
 552 0013 00670100 		.ascii	"\000g\001\000\000uartObjectInit\000\000\000\000\000"
 552      00756172 
 552      744F626A 
 552      65637449 
 552      6E697400 
 553 002b 00000000 		.ascii	"\000\000\000\000\000\000\000k\001\000\000uartStart\000"
 553      0000006B 
 553      01000075 
 553      61727453 
 553      74617274 
 554 0040 00000000 		.ascii	"\000\000\000\000\000\000\000\000\000\000\000o\001\000"
 554      00000000 
 554      0000006F 
 554      0100
 555 004e 00756172 		.ascii	"\000uartStop\000\000\000\000\000\000\000\000\000\000"
 555      7453746F 
 555      70000000 
 555      00000000 
ARM GAS  /tmp/ccarMPtk.s 			page 43


 555      000000
 556 0061 00007701 		.ascii	"\000\000w\001\000\000uartStartSend\000\000\000\000\000"
 556      00007561 
 556      72745374 
 556      61727453 
 556      656E6400 
 557 0079 00000000 		.ascii	"\000\000\000\000\000\000\000{\001\000\000uartStartS"
 557      0000007B 
 557      01000075 
 557      61727453 
 557      74617274 
 558 008e 656E6449 		.ascii	"endI\000\000\000\000\000\000\000\000\000\000\000\000"
 558      00000000 
 558      00000000 
 558      00000000 
 559 009e 87010000 		.ascii	"\207\001\000\000uartStopSend\000\000\000\000\000\000"
 559      75617274 
 559      53746F70 
 559      53656E64 
 559      00000000 
 560 00b4 00000000 		.ascii	"\000\000\000\000\000\000\215\001\000\000uartStopSen"
 560      00008D01 
 560      00007561 
 560      72745374 
 560      6F705365 
 561 00c9 64490000 		.ascii	"dI\000\000\000\000\000\000\000\000\000\000\000\000\223"
 561      00000000 
 561      00000000 
 561      000093
 562 00d8 01000075 		.ascii	"\001\000\000uartStartReceive\000\000\000\000\000\000"
 562      61727453 
 562      74617274 
 562      52656365 
 562      69766500 
 563 00f1 00000000 		.ascii	"\000\000\000\000\000\000\227\001\000\000uartStartRe"
 563      00009701 
 563      00007561 
 563      72745374 
 563      61727452 
 564 0106 63656976 		.ascii	"ceiveI\000\000\000\000\000\000\000\000\000\000\000\000"
 564      65490000 
 564      00000000 
 564      00000000 
 564      0000
 565 0118 A1010000 		.ascii	"\241\001\000\000uartStopReceive\000\000\000\000\000"
 565      75617274 
 565      53746F70 
 565      52656365 
 565      69766500 
 566 0130 00000000 		.ascii	"\000\000\000\000\000\000\000\247\001\000\000uartSto"
 566      000000A7 
 566      01000075 
 566      61727453 
 566      746F
 567 0142 70526563 		.ascii	"pReceiveI\000\000\000\000\000\000\000\000\000\000\000"
 567      65697665 
 567      49000000 
ARM GAS  /tmp/ccarMPtk.s 			page 44


 567      00000000 
 567      00000000 
 568 0156 00AB0100 		.ascii	"\000\253\001\000\000uart_lld_stop_send\000\000\002\000"
 568      00756172 
 568      745F6C6C 
 568      645F7374 
 568      6F705F73 
 569 0171 00000000 		.ascii	"\000\000\000\000\000\000\000\000\257\001\000\000uar"
 569      00000000 
 569      AF010000 
 569      756172
 570 0180 745F6C6C 		.ascii	"t_lld_stop_receive\000\000\002\000\000\000\000\000\000"
 570      645F7374 
 570      6F705F72 
 570      65636569 
 570      76650000 
 571 019b 000000B1 		.ascii	"\000\000\000\261\001\000\000uart_lld_init\000\000\002"
 571      01000075 
 571      6172745F 
 571      6C6C645F 
 571      696E6974 
 572 01b2 00000000 		.ascii	"\000\000\000\000\000\000\000\000\000\263\001\000\000"
 572      00000000 
 572      00B30100 
 572      00
 573 01bf 75617274 		.ascii	"uart_lld_start\000\000\002\000\000\000\000\000\000\000"
 573      5F6C6C64 
 573      5F737461 
 573      72740000 
 573      02000000 
 574 01d7 0000B501 		.ascii	"\000\000\265\001\000\000uart_lld_stop\000\000\002\000"
 574      00007561 
 574      72745F6C 
 574      6C645F73 
 574      746F7000 
 575 01ee 00000000 		.ascii	"\000\000\000\000\000\000\000\000\267\001\000\000uar"
 575      00000000 
 575      B7010000 
 575      756172
 576 01fd 745F6C6C 		.ascii	"t_lld_start_send\000\000\002\000\000\000\000\000\000"
 576      645F7374 
 576      6172745F 
 576      73656E64 
 576      00000200 
 577 0216 000000B9 		.ascii	"\000\000\000\271\001\000\000uart_lld_start_receive\000"
 577      01000075 
 577      6172745F 
 577      6C6C645F 
 577      73746172 
 578 0234 00020000 		.ascii	"\000\002\000\000\000\000\000\000\000\000\000\273\001"
 578      00000000 
 578      000000BB 
 578      01
 579 0241 0000     		.ascii	"\000\000"
 580              		.text
 581              		.section	.gnu.lto_.opts,"",%progbits
 582 0000 272D6D63 		.ascii	"'-mcpu=cortex-m4' '-mfloat-abi=hard' '-mfpu=fpv4-sp"
ARM GAS  /tmp/ccarMPtk.s 			page 45


 582      70753D63 
 582      6F727465 
 582      782D6D34 
 582      2720272D 
 583 0033 2D643136 		.ascii	"-d16' '-mno-thumb-interwork' '-mthumb' '-O2' '-fomi"
 583      2720272D 
 583      6D6E6F2D 
 583      7468756D 
 583      622D696E 
 584 0066 742D6672 		.ascii	"t-frame-pointer' '-falign-functions=16' '-ffunction"
 584      616D652D 
 584      706F696E 
 584      74657227 
 584      20272D66 
 585 0099 2D736563 		.ascii	"-sections' '-fdata-sections' '-fno-common' '-flto' "
 585      74696F6E 
 585      73272027 
 585      2D666461 
 585      74612D73 
 586 00cc 272D6673 		.ascii	"'-fsingle-precision-constant'\000"
 586      696E676C 
 586      652D7072 
 586      65636973 
 586      696F6E2D 
 587              		.text
 588              		.section	.text.uartInit,"ax",%progbits
 589              		.align	2
 590              		.p2align 4,,15
 591              		.global	uartInit
 592              		.thumb
 593              		.thumb_func
 594              		.type	uartInit, %function
 595              	uartInit:
 596              		@ args = 0, pretend = 0, frame = 0
 597              		@ frame_needed = 0, uses_anonymous_args = 0
 598              		@ link register save eliminated.
 599 0000 FFF7FEBF 		b	uart_lld_init
 600              		.size	uartInit, .-uartInit
 601 0004 AFF30080 		.section	.text.uartObjectInit,"ax",%progbits
 601      AFF30080 
 601      AFF30080 
 602              		.align	2
 603              		.p2align 4,,15
 604              		.global	uartObjectInit
 605              		.thumb
 606              		.thumb_func
 607              		.type	uartObjectInit, %function
 608              	uartObjectInit:
 609              		@ args = 0, pretend = 0, frame = 0
 610              		@ frame_needed = 0, uses_anonymous_args = 0
 611              		@ link register save eliminated.
 612 0000 0023     		movs	r3, #0
 613 0002 0122     		movs	r2, #1
 614 0004 0270     		strb	r2, [r0]
 615 0006 4370     		strb	r3, [r0, #1]
 616 0008 8370     		strb	r3, [r0, #2]
 617 000a 4360     		str	r3, [r0, #4]
ARM GAS  /tmp/ccarMPtk.s 			page 46


 618 000c 7047     		bx	lr
 619              		.size	uartObjectInit, .-uartObjectInit
 620 000e 00BF     		.section	.text.uartStart,"ax",%progbits
 621              		.align	2
 622              		.p2align 4,,15
 623              		.global	uartStart
 624              		.thumb
 625              		.thumb_func
 626              		.type	uartStart, %function
 627              	uartStart:
 628              		@ args = 0, pretend = 0, frame = 0
 629              		@ frame_needed = 0, uses_anonymous_args = 0
 630 0000 10B5     		push	{r4, lr}
 631 0002 2023     		movs	r3, #32
 632 0004 0446     		mov	r4, r0
 633              	@ 546 "/home/cody/dev/chibios/trunk/os/ext/CMSIS/include/core_cmFunc.h" 1
 634 0006 83F31188 		MSR basepri, r3
 635              	@ 0 "" 2
 636              		.thumb
 637 000a 4160     		str	r1, [r0, #4]
 638 000c FFF7FEFF 		bl	uart_lld_start
 639 0010 0223     		movs	r3, #2
 640 0012 2370     		strb	r3, [r4]
 641 0014 0023     		movs	r3, #0
 642              	@ 546 "/home/cody/dev/chibios/trunk/os/ext/CMSIS/include/core_cmFunc.h" 1
 643 0016 83F31188 		MSR basepri, r3
 644              	@ 0 "" 2
 645              		.thumb
 646 001a 10BD     		pop	{r4, pc}
 647              		.size	uartStart, .-uartStart
 648 001c AFF30080 		.section	.text.uartStop,"ax",%progbits
 649              		.align	2
 650              		.p2align 4,,15
 651              		.global	uartStop
 652              		.thumb
 653              		.thumb_func
 654              		.type	uartStop, %function
 655              	uartStop:
 656              		@ args = 0, pretend = 0, frame = 0
 657              		@ frame_needed = 0, uses_anonymous_args = 0
 658 0000 10B5     		push	{r4, lr}
 659 0002 2023     		movs	r3, #32
 660 0004 0446     		mov	r4, r0
 661              	@ 546 "/home/cody/dev/chibios/trunk/os/ext/CMSIS/include/core_cmFunc.h" 1
 662 0006 83F31188 		MSR basepri, r3
 663              	@ 0 "" 2
 664              		.thumb
 665 000a FFF7FEFF 		bl	uart_lld_stop
 666 000e 0023     		movs	r3, #0
 667 0010 0122     		movs	r2, #1
 668 0012 2270     		strb	r2, [r4]
 669 0014 6370     		strb	r3, [r4, #1]
 670 0016 A370     		strb	r3, [r4, #2]
 671              	@ 546 "/home/cody/dev/chibios/trunk/os/ext/CMSIS/include/core_cmFunc.h" 1
 672 0018 83F31188 		MSR basepri, r3
 673              	@ 0 "" 2
 674              		.thumb
ARM GAS  /tmp/ccarMPtk.s 			page 47


 675 001c 10BD     		pop	{r4, pc}
 676              		.size	uartStop, .-uartStop
 677 001e 00BF     		.section	.text.uartStartSend,"ax",%progbits
 678              		.align	2
 679              		.p2align 4,,15
 680              		.global	uartStartSend
 681              		.thumb
 682              		.thumb_func
 683              		.type	uartStartSend, %function
 684              	uartStartSend:
 685              		@ args = 0, pretend = 0, frame = 0
 686              		@ frame_needed = 0, uses_anonymous_args = 0
 687 0000 10B5     		push	{r4, lr}
 688 0002 2023     		movs	r3, #32
 689 0004 0446     		mov	r4, r0
 690              	@ 546 "/home/cody/dev/chibios/trunk/os/ext/CMSIS/include/core_cmFunc.h" 1
 691 0006 83F31188 		MSR basepri, r3
 692              	@ 0 "" 2
 693              		.thumb
 694 000a FFF7FEFF 		bl	uart_lld_start_send
 695 000e 0123     		movs	r3, #1
 696 0010 6370     		strb	r3, [r4, #1]
 697 0012 0023     		movs	r3, #0
 698              	@ 546 "/home/cody/dev/chibios/trunk/os/ext/CMSIS/include/core_cmFunc.h" 1
 699 0014 83F31188 		MSR basepri, r3
 700              	@ 0 "" 2
 701              		.thumb
 702 0018 10BD     		pop	{r4, pc}
 703              		.size	uartStartSend, .-uartStartSend
 704              		.section	.text.uartStartSendI,"ax",%progbits
 705              		.align	2
 706              		.p2align 4,,15
 707              		.global	uartStartSendI
 708              		.thumb
 709              		.thumb_func
 710              		.type	uartStartSendI, %function
 711              	uartStartSendI:
 712              		@ args = 0, pretend = 0, frame = 0
 713              		@ frame_needed = 0, uses_anonymous_args = 0
 714 0000 10B5     		push	{r4, lr}
 715 0002 0446     		mov	r4, r0
 716 0004 FFF7FEFF 		bl	uart_lld_start_send
 717 0008 0123     		movs	r3, #1
 718 000a 6370     		strb	r3, [r4, #1]
 719 000c 10BD     		pop	{r4, pc}
 720              		.size	uartStartSendI, .-uartStartSendI
 721 000e 00BF     		.section	.text.uartStopSend,"ax",%progbits
 722              		.align	2
 723              		.p2align 4,,15
 724              		.global	uartStopSend
 725              		.thumb
 726              		.thumb_func
 727              		.type	uartStopSend, %function
 728              	uartStopSend:
 729              		@ args = 0, pretend = 0, frame = 0
 730              		@ frame_needed = 0, uses_anonymous_args = 0
 731 0000 10B5     		push	{r4, lr}
ARM GAS  /tmp/ccarMPtk.s 			page 48


 732 0002 2023     		movs	r3, #32
 733 0004 0446     		mov	r4, r0
 734              	@ 546 "/home/cody/dev/chibios/trunk/os/ext/CMSIS/include/core_cmFunc.h" 1
 735 0006 83F31188 		MSR basepri, r3
 736              	@ 0 "" 2
 737              		.thumb
 738 000a 4378     		ldrb	r3, [r0, #1]	@ zero_extendqisi2
 739 000c 012B     		cmp	r3, #1
 740 000e 04D0     		beq	.L11
 741 0010 0020     		movs	r0, #0
 742 0012 0023     		movs	r3, #0
 743              	@ 546 "/home/cody/dev/chibios/trunk/os/ext/CMSIS/include/core_cmFunc.h" 1
 744 0014 83F31188 		MSR basepri, r3
 745              	@ 0 "" 2
 746              		.thumb
 747 0018 10BD     		pop	{r4, pc}
 748              	.L11:
 749 001a FFF7FEFF 		bl	uart_lld_stop_send
 750 001e 0023     		movs	r3, #0
 751 0020 6370     		strb	r3, [r4, #1]
 752 0022 0023     		movs	r3, #0
 753              	@ 546 "/home/cody/dev/chibios/trunk/os/ext/CMSIS/include/core_cmFunc.h" 1
 754 0024 83F31188 		MSR basepri, r3
 755              	@ 0 "" 2
 756              		.thumb
 757 0028 10BD     		pop	{r4, pc}
 758              		.size	uartStopSend, .-uartStopSend
 759 002a 00BFAFF3 		.section	.text.uartStopSendI,"ax",%progbits
 759      0080
 760              		.align	2
 761              		.p2align 4,,15
 762              		.global	uartStopSendI
 763              		.thumb
 764              		.thumb_func
 765              		.type	uartStopSendI, %function
 766              	uartStopSendI:
 767              		@ args = 0, pretend = 0, frame = 0
 768              		@ frame_needed = 0, uses_anonymous_args = 0
 769 0000 4378     		ldrb	r3, [r0, #1]	@ zero_extendqisi2
 770 0002 012B     		cmp	r3, #1
 771 0004 10B5     		push	{r4, lr}
 772 0006 0446     		mov	r4, r0
 773 0008 01D0     		beq	.L15
 774 000a 0020     		movs	r0, #0
 775 000c 10BD     		pop	{r4, pc}
 776              	.L15:
 777 000e FFF7FEFF 		bl	uart_lld_stop_send
 778 0012 0023     		movs	r3, #0
 779 0014 6370     		strb	r3, [r4, #1]
 780 0016 10BD     		pop	{r4, pc}
 781              		.size	uartStopSendI, .-uartStopSendI
 782 0018 AFF30080 		.section	.text.uartStartReceive,"ax",%progbits
 782      AFF30080 
 783              		.align	2
 784              		.p2align 4,,15
 785              		.global	uartStartReceive
 786              		.thumb
ARM GAS  /tmp/ccarMPtk.s 			page 49


 787              		.thumb_func
 788              		.type	uartStartReceive, %function
 789              	uartStartReceive:
 790              		@ args = 0, pretend = 0, frame = 0
 791              		@ frame_needed = 0, uses_anonymous_args = 0
 792 0000 10B5     		push	{r4, lr}
 793 0002 2023     		movs	r3, #32
 794 0004 0446     		mov	r4, r0
 795              	@ 546 "/home/cody/dev/chibios/trunk/os/ext/CMSIS/include/core_cmFunc.h" 1
 796 0006 83F31188 		MSR basepri, r3
 797              	@ 0 "" 2
 798              		.thumb
 799 000a FFF7FEFF 		bl	uart_lld_start_receive
 800 000e 0123     		movs	r3, #1
 801 0010 A370     		strb	r3, [r4, #2]
 802 0012 0023     		movs	r3, #0
 803              	@ 546 "/home/cody/dev/chibios/trunk/os/ext/CMSIS/include/core_cmFunc.h" 1
 804 0014 83F31188 		MSR basepri, r3
 805              	@ 0 "" 2
 806              		.thumb
 807 0018 10BD     		pop	{r4, pc}
 808              		.size	uartStartReceive, .-uartStartReceive
 809              		.section	.text.uartStartReceiveI,"ax",%progbits
 810              		.align	2
 811              		.p2align 4,,15
 812              		.global	uartStartReceiveI
 813              		.thumb
 814              		.thumb_func
 815              		.type	uartStartReceiveI, %function
 816              	uartStartReceiveI:
 817              		@ args = 0, pretend = 0, frame = 0
 818              		@ frame_needed = 0, uses_anonymous_args = 0
 819 0000 10B5     		push	{r4, lr}
 820 0002 0446     		mov	r4, r0
 821 0004 FFF7FEFF 		bl	uart_lld_start_receive
 822 0008 0123     		movs	r3, #1
 823 000a A370     		strb	r3, [r4, #2]
 824 000c 10BD     		pop	{r4, pc}
 825              		.size	uartStartReceiveI, .-uartStartReceiveI
 826 000e 00BF     		.section	.text.uartStopReceive,"ax",%progbits
 827              		.align	2
 828              		.p2align 4,,15
 829              		.global	uartStopReceive
 830              		.thumb
 831              		.thumb_func
 832              		.type	uartStopReceive, %function
 833              	uartStopReceive:
 834              		@ args = 0, pretend = 0, frame = 0
 835              		@ frame_needed = 0, uses_anonymous_args = 0
 836 0000 10B5     		push	{r4, lr}
 837 0002 2023     		movs	r3, #32
 838 0004 0446     		mov	r4, r0
 839              	@ 546 "/home/cody/dev/chibios/trunk/os/ext/CMSIS/include/core_cmFunc.h" 1
 840 0006 83F31188 		MSR basepri, r3
 841              	@ 0 "" 2
 842              		.thumb
 843 000a 8378     		ldrb	r3, [r0, #2]	@ zero_extendqisi2
ARM GAS  /tmp/ccarMPtk.s 			page 50


 844 000c 012B     		cmp	r3, #1
 845 000e 04D0     		beq	.L21
 846 0010 0020     		movs	r0, #0
 847 0012 0023     		movs	r3, #0
 848              	@ 546 "/home/cody/dev/chibios/trunk/os/ext/CMSIS/include/core_cmFunc.h" 1
 849 0014 83F31188 		MSR basepri, r3
 850              	@ 0 "" 2
 851              		.thumb
 852 0018 10BD     		pop	{r4, pc}
 853              	.L21:
 854 001a FFF7FEFF 		bl	uart_lld_stop_receive
 855 001e 0023     		movs	r3, #0
 856 0020 A370     		strb	r3, [r4, #2]
 857 0022 0023     		movs	r3, #0
 858              	@ 546 "/home/cody/dev/chibios/trunk/os/ext/CMSIS/include/core_cmFunc.h" 1
 859 0024 83F31188 		MSR basepri, r3
 860              	@ 0 "" 2
 861              		.thumb
 862 0028 10BD     		pop	{r4, pc}
 863              		.size	uartStopReceive, .-uartStopReceive
 864 002a 00BFAFF3 		.section	.text.uartStopReceiveI,"ax",%progbits
 864      0080
 865              		.align	2
 866              		.p2align 4,,15
 867              		.global	uartStopReceiveI
 868              		.thumb
 869              		.thumb_func
 870              		.type	uartStopReceiveI, %function
 871              	uartStopReceiveI:
 872              		@ args = 0, pretend = 0, frame = 0
 873              		@ frame_needed = 0, uses_anonymous_args = 0
 874 0000 8378     		ldrb	r3, [r0, #2]	@ zero_extendqisi2
 875 0002 012B     		cmp	r3, #1
 876 0004 10B5     		push	{r4, lr}
 877 0006 0446     		mov	r4, r0
 878 0008 01D0     		beq	.L25
 879 000a 0020     		movs	r0, #0
 880 000c 10BD     		pop	{r4, pc}
 881              	.L25:
 882 000e FFF7FEFF 		bl	uart_lld_stop_receive
 883 0012 0023     		movs	r3, #0
 884 0014 A370     		strb	r3, [r4, #2]
 885 0016 10BD     		pop	{r4, pc}
 886              		.size	uartStopReceiveI, .-uartStopReceiveI
 887              		.comm	__gnu_lto_v1,1,1
 888 0018 AFF30080 		.ident	"GCC: (GNU Tools for ARM Embedded Processors) 4.8.4 20140526 (release) [ARM/embedded-4_8-br
 888      AFF30080 
ARM GAS  /tmp/ccarMPtk.s 			page 51

