ARM GAS  /tmp/ccGRgGWO.s 			page 1


   1              		.syntax unified
   2              		.cpu cortex-m4
   3              		.eabi_attribute 27, 3
   4              		.eabi_attribute 28, 1
   5              		.fpu fpv4-sp-d16
   6              		.eabi_attribute 20, 1
   7              		.eabi_attribute 21, 1
   8              		.eabi_attribute 23, 3
   9              		.eabi_attribute 24, 1
  10              		.eabi_attribute 25, 1
  11              		.eabi_attribute 26, 1
  12              		.eabi_attribute 30, 2
  13              		.eabi_attribute 34, 1
  14              		.eabi_attribute 18, 4
  15              		.thumb
  16              		.file	"umath.c"
  17              		.section	.gnu.lto_.jmpfuncs.d78510f456cea90f,"",%progbits
  18 0000 789C6362 		.ascii	"x\234cb`b\300\0064\2404\013\0033#3\023\020\002\331e"
  18      6062C006 
  18      34A0340B 
  18      03332333 
  18      131002D9 
  19 0015 0C0C408A 		.ascii	"\014\014@\212\021D\241\0130\000\000*\211\002-"
  19      1144A10B 
  19      3000002A 
  19      89022D
  20              		.text
  21              		.section	.gnu.lto_.inline.d78510f456cea90f,"",%progbits
  22 0000 789C6362 		.ascii	"x\234cb`b\300\006\336Ai\026\006\006N5Ff\306\344\010"
  22      6062C006 
  22      DE416916 
  22      06064E35 
  22      4666C6E4 
  23 0015 C64C4690 		.ascii	"\306LF\220\000c\032\234\305\010\221g`[ \317\304\300"
  23      00631A9C 
  23      C5089167 
  23      605B20CF 
  23      C4C0
  24 0027 B2405E80 		.ascii	"\262@^\200\201c\301\014\026\016\006\001\016\220,\003"
  24      8163C10C 
  24      160E0601 
  24      0E902C03 
  25 0037 EF7106A0 		.ascii	"\357q\006\240\306T\270\362\024\024\215\254\250\032\237"
  25      C654B8F2 
  25      14148DAC 
  25      A81A9F
  26 0046 6D026AE4 		.ascii	"m\002j\344\350x\302\314\002\324\0162\224\211\201\223"
  26      E878C2CC 
  26      02D40E32 
  26      94898193 
  27 0056 07A83D1D 		.ascii	"\007\250=\035\256)\003E;3\212v\220Cx\0318\030\230&\370"
  27      AE290345 
  27      3B338A76 
  27      90437819 
  27      38189826 
  28 006b 4DF06326 		.ascii	"M\360c&['\003\000\236\304\032^"
  28      5B270300 
ARM GAS  /tmp/ccGRgGWO.s 			page 2


  28      9EC41A5E 
  29              		.text
  30              		.section	.gnu.lto_.pureconst.d78510f456cea90f,"",%progbits
  31 0000 789C6362 		.ascii	"x\234cb`b\340d\200\000\026\006\006F \227\231\001\000"
  31      6062E064 
  31      80001606 
  31      06462097 
  31      990100
  32 0013 01360018 		.ascii	"\0016\000\030"
  33              		.text
  34              		.section	.gnu.lto_pow.part.0.d78510f456cea90f,"",%progbits
  35 0000 789C8552 		.ascii	"x\234\205R=K\303P\024\275\347}\246V\034t\022\034J\177"
  35      3D4BC350 
  35      14BDE77D 
  35      A6561C74 
  35      121C4A7F 
  36 0014 807FA1BB 		.ascii	"\200\177\241\273\253\026t,Ub\301.\332\316Mm\007\221"
  36      AB16742C 
  36      5562C12E 
  36      DACE4D6D 
  36      0791
  37 0026 221D1D2D 		.ascii	"\"\035\035-\245\233\340\242\340hAh\035\024\034\003\016"
  37      A59BE0A2 
  37      E0684168 
  37      1D141C03 
  37      0E
  38 0037 05D1C9C1 		.ascii	"\005\321\311\301Q\021\214\367\245\211\250\213\017\222"
  38      51118CF7 
  38      A589A88B 
  38      0F92
  39 0045 93733FCE 		.ascii	"\223s?\316;\357\276\010\022\364w\255\362\363\012\242"
  39      3BEFBE08 
  39      12F477AD 
  39      F2F30AA2 
  40 0055 05467804 		.ascii	"\005Fx\004\333\275\343\017\013\021\243\020\346m\216"
  40      DBBDE30F 
  40      0B11A310 
  40      E66D8E
  41 0064 8219795C 		.ascii	"\202\031y\\\240`VB\307Q5\305\241\247\205\352\214\210"
  41      A0605642 
  41      C75135C5 
  41      A1A785EA 
  41      8C88
  42 0076 F3A66D39 		.ascii	"\363\246m9o\000\027'P\303\012\251\264Ac\003n\023\221"
  42      6F001727 
  42      50C30AA9 
  42      B4416303 
  42      6E1391
  43 0089 A75E1074 		.ascii	"\247^\020t'\203\321\321bp\262\337\015>\243\010\025\260"
  43      2783D1D1 
  43      6270B2DF 
  43      0D3EA308 
  43      15B0
  44 009b 9D2CA80C 		.ascii	"\235,\250\014Zg\202\\\014B\375\3667\355\274\272\334"
  44      5A67825C 
  44      0C42FDF6 
  44      37EDBCBA 
ARM GAS  /tmp/ccGRgGWO.s 			page 3


  44      DC
  45 00ac 1C07EDAB 		.ascii	"\034\007\355\253(*\304]\363\377u\235\211`\022E\357+"
  45      282AC45D 
  45      F3FF759D 
  45      89601245 
  45      EF2B
  46 00be 59A0EA1A 		.ascii	"Y\240\352\032J\350!O\222\011TB4c\237\321$h\211\245\275"
  46      4AE8214F 
  46      92095442 
  46      34639FD1 
  46      246889A5 
  47 00d3 84649222 		.ascii	"\204d\222\"^\232\332l 7\215\247\321r|\2545~\207\036"
  47      5E9ADA6C 
  47      20378DA7 
  47      D1727CAC 
  47      357E871E 
  48 00e7 83659045 		.ascii	"\203e\220E\010\007c\272~\032^,\2250\200&\037p\366\344"
  48      080763BA 
  48      7E1A5E2C 
  48      95308026 
  48      1F70F6E4 
  49 00fb 4F6F45A6 		.ascii	"OoE\246m\313\241\220<\227t\363yy4!eb\306v\037\372\326"
  49      6DCBA190 
  49      3C9774F3 
  49      79793421 
  49      6562C676 
  50 0112 9529E2E1 		.ascii	"\225)\342\341\312[j\035\266\3727H\005\225\017\341;E"
  50      CA5B6A1D 
  50      B6FA3748 
  50      05950FE1 
  50      3B45
  51 0124 4E1CB43E 		.ascii	"N\034\264>&2M\030\037:QH7\322\304\367\341\034=7\263"
  51      26324D18 
  51      1F3A5148 
  51      37D2C4F7 
  51      E11C3D37 
  52 0139 DF86B82C 		.ascii	"\337\206\270,\265\022\222\366\341I\016\0315\266!\261"
  52      B51292F6 
  52      E1490E19 
  52      35B621B1 
  53 0149 70C631A5 		.ascii	"p\3061\245:\003\343\004\214;\321=5=\342N;m\261\251\351"
  53      3A03E304 
  53      8C3BD13D 
  53      353DE24E 
  53      3B6DB1A9 
  54 015e 73C956F4 		.ascii	"s\311V\364\351\000n\022\340J\367wy\365j\251\266\275"
  54      E9006E12 
  54      E04AF777 
  54      79F56AA9 
  54      B6BD
  55 0170 5C26B3BB 		.ascii	"\\&\263\273\265W\337\251\241\362\005\026\215v\331"
  55      B557DFA9 
  55      A1F20516 
  55      8D76D9
  56              		.text
  57              		.section	.gnu.lto_powf.part.1.d78510f456cea90f,"",%progbits
  58 0000 789C8553 		.ascii	"x\234\205S=k\024Q\024\275\347\275y\0373\263\037\250"
ARM GAS  /tmp/ccGRgGWO.s 			page 4


  58      3D6B1451 
  58      14BDE7BD 
  58      791F33B3 
  58      1FA8
  59 0012 D82C0A21 		.ascii	"\330,\012!?\300\306\312\237`oP\313e\221q\3014\232\330"
  59      3FC0C6CA 
  59      9F606F50 
  59      CB659171 
  59      C1349AD8 
  60 0026 E6ADBB45 		.ascii	"\346\255\273E\224\025V+-\004\203\030\220\015XX\331\271"
  60      9415562B 
  60      2D048318 
  60      900D5858 
  60      D9B9
  61 0038 20B88444 		.ascii	" \270\204DI#l\027\024\025\214\205`Ju\274\357\355\314"
  61      49236C17 
  61      14158C85 
  61      604A75BC 
  61      EFEDCC
  62 004b E6A3F1C1 		.ascii	"\346\243\361\301\314\231{\336=o\316\275wF\220\240\343"
  62      CC997BDE 
  62      3D6FCEBD 
  62      774690A0 
  62      E3
  63 005c EB365F1F 		.ascii	"\3536_\037\231>\305\210\224\220\014\336\363C\002\021"
  63      993EC588 
  63      94900CDE 
  63      F3430211 
  64 006c 5088A877 		.ascii	"P\210\250w\201\\\"\373\247\311U$l`#\350\200j\212#\253"
  64      815C22FB 
  64      A7C95524 
  64      6C6023E8 
  64      806A8A23 
  65 0081 85EABF23 		.ascii	"\205\352\277#\316\213{\206\363\3144od\2550\207\371\030"
  65      CE8B7B86 
  65      F3CC346F 
  65      64AD3087 
  65      F918
  66 0093 F03C8156 		.ascii	"\360<\201V\022!#\245\215\215\261r\025\336\207\230\247"
  66      122123A5 
  66      8D8DB172 
  66      15DE8798 
  66      A7
  67 00a4 35E706BB 		.ascii	"5\347\006\273_>\334?\357\236\336\031\270\277y\2166\330"
  67      5F3EDC3F 
  67      EF9EDE19 
  67      B8BF798E 
  67      36D8
  68 00b6 710A6A81 		.ascii	"q\012j\201\256p\200\271\000\":Z\302T\371\346\317\376"
  68      AE7080B9 
  68      00223A5A 
  68      C254F9E6 
  68      CFFE
  69 00c8 18EEA1EB 		.ascii	"\030\356\241\353\374\314\363z\033R\320\311\377\011_"
  69      FCCCF37A 
  69      1B52D0C9 
  69      FF095F
ARM GAS  /tmp/ccGRgGWO.s 			page 5


  70 00d7 0AB79BE7 		.ascii	"\012\267\233\347\257/\237\000\026\375\233\232X\303<"
  70      AF2F9F00 
  70      16FD9B9A 
  70      58C33C
  71 00e6 490E1015 		.ascii	"I\016\020\025\201b|\306\250\0134\005o\013\214\013>)"
  71      81627CC6 
  71      A80B3405 
  71      6F0B8C0B 
  71      3E29
  72 00f8 3025F65C 		.ascii	"0%\366\\)\202j\221T+\342z\021\363R\324c\317sS\276d["
  72      29826A91 
  72      542BE27A 
  72      11F352D4 
  72      63CF7353 
  73 010f A11397F8 		.ascii	"\241\023\227\370\276\0233$\014r\001\302\303\230\336"
  73      BE133324 
  73      0C7201C2 
  73      C398DE
  74 011e 7E1D3D38 		.ascii	"~\035=8\333\304s(\312\000_\316\221j\026 i[H\242\011"
  74      DBC47328 
  74      CA005FCE 
  74      916A1620 
  74      695B48A2 
  75 0133 55FC263F 		.ascii	"U\374&?\211\376\236\236P\265A\217\335\252\033X\236C"
  75      89FE9E9E 
  75      50B5418F 
  75      DDAA1B58 
  75      9E43
  76 0145 B97C6349 		.ascii	"\271|cI\354\033/\213\250g\202\254V\3126\356\262\254"
  76      EC1B2F8B 
  76      A86782AC 
  76      56CA36EE 
  76      B2AC
  77 0157 DEC43A1A 		.ascii	"\336\304:\032$~\177\323>K\021\017RnS\367^\367\325w\224"
  77      247E7FD3 
  77      3E4B110F 
  77      526E53F7 
  77      5EF7D577 
  78 016c 36A20C22 		.ascii	"6\242\014\"\363\032\336X\355\0167e\271\2413\250p\034"
  78      F31ADE58 
  78      ED0E3765 
  78      B9A133A8 
  78      701C
  79 017e 66F634F1 		.ascii	"f\3664\361\354C\035\0355+\203\323\312\002&\2442\324"
  79      EC431D1D 
  79      352B83D3 
  79      CA0226A4 
  79      32D4
  80 0190 22A6B47A 		.ascii	"\"\246\264zd&\304\007\327}\024\251\255\027\301\250\241"
  80      6426C407 
  80      D77D14A9 
  80      AD17C1A8 
  80      A1
  81 01a1 F58677F0 		.ascii	"\365\206w\360\244\273\2679s`3\230\003\007\237?\315\034"
  81      A4BBB739 
  81      73603398 
  81      03079F3F 
ARM GAS  /tmp/ccGRgGWO.s 			page 6


  81      CD1C
  82 01b3 2419E263 		.ascii	"$\031\342c\016,\375:35\220\0362\020\037\030\2103\360"
  82      0E2CFD3A 
  82      3335901E 
  82      32101F18 
  82      8833F0
  83 01c6 37CE5A33 		.ascii	"7\316Z3f\003|n\325G\326l\014C\017b?\210\035\352p'3\376"
  83      66037C6E 
  83      D547D66C 
  83      0C430F62 
  83      3F881DEA 
  84 01de 558224E5 		.ascii	"U\202$\345\016\350\037\027\331\205\335\032\302\017\017"
  84      0EE81F17 
  84      D985DD1A 
  84      C20F0F
  85 01ed 9CE57F33 		.ascii	"\234\345\1773\273\274\330\\\272~\256E\372\346\265[\313"
  85      BBBCD85C 
  85      BA7EAE45 
  85      FAE6B55B 
  85      CB
  86 01fe 3796D0FE 		.ascii	"7\226\320\376\007>\210\257l"
  86      073E88AF 
  86      6C
  87              		.text
  88              		.section	.gnu.lto_pow.d78510f456cea90f,"",%progbits
  89 0000 789C5D50 		.ascii	"x\234]P=k\002A\024\234yo\225\343\010b\223N\304_\240"
  89      3D6B0241 
  89      149C796F 
  89      95E30862 
  89      934EC45F 
  90 0015 E4BFE440 		.ascii	"\344\277\344@K\271B\257\260\323\312\302\025\264\277"
  90      4BB942AF 
  90      B0D3CAC2 
  90      15B4BF
  91 0024 32458A84 		.ascii	"2E\212\204\364J\372\024\011XX\371\001i\354\322\345?"
  91      F44AFA14 
  91      095858F9 
  91      0169ECD2 
  91      E53F
  92 0036 D8E8DB43 		.ascii	"\330\350\333CA|0\3571\273\363\206\331\025\010\356\353"
  92      417C30EF 
  92      31BBF386 
  92      D91508EE 
  92      EB
  93 0047 C9B031C4 		.ascii	"\311\2601\304\006\226@\311\215M#\021\367U\207\217\365"
  93      069640C9 
  93      8D4D2311 
  93      F755878F 
  93      F5
  94 0058 B705FFA0 		.ascii	"\267\005\377\240t\341\230\216\014\023\304D\324q\322"
  94      74E1988E 
  94      0C13C444 
  94      D471D2
  95 0067 61E1B194 		.ascii	"a\341\261\224\357\277\323i\261\330=\226\211\214\020"
  95      EFBFD369 
  95      B1D83D96 
  95      898C10
ARM GAS  /tmp/ccGRgGWO.s 			page 7


  96 0076 0E08B546 		.ascii	"\016\010\265F\027\250U\0113\357\363\006\220\026\364"
  96      17A85509 
  96      33EFF306 
  96      9016F4
  97 0085 D9FA5B05 		.ascii	"\331\372[\005\011\305\206\256\261\372\377\371\254u\371"
  97      09C586AE 
  97      B1FAFFF9 
  97      AC75F9
  98 0094 6E017A94 		.ascii	"n\001z\22463\3626cB\305!\322-\346\321U\344\3068\372"
  98      3633F236 
  98      6342C521 
  98      D22DE6D1 
  98      55E4C638 
  99 00a9 175FCD28 		.ascii	"\027_\315(\351E\334\243\332rf\332\313\222\013\346{{"
  99      E945DCA3 
  99      DA7266DA 
  99      CB920BE6 
  99      7B7B
 100 00bb 4CB82B34 		.ascii	"L\270+4\0070\230[~y\375\240\271(C\030\2320\374L4\032"
 100      0730985B 
 100      7E79FDA0 
 100      B9284318 
 100      9A30FC4C 
 101 00d1 7487FD66 		.ascii	"t\207\375f\2123\033\3260x"
 101      8A331BD6 
 101      3078
 102              		.text
 103              		.section	.gnu.lto_powf.d78510f456cea90f,"",%progbits
 104 0000 789C5D50 		.ascii	"x\234]P\261J\003Q\020\234\331}'g\010\230ZD\374\002\305"
 104      B14A0351 
 104      109CD97D 
 104      27670898 
 104      5A44FC02 
 105 0015 AFC80F24 		.ascii	"\257\310\017$\020\313pErE\272XYd\205\010\226Wj\231\037"
 105      10CB7045 
 105      7245BA58 
 105      59648508 
 105      96576A99 
 106 002a 487E2045 		.ascii	"H~ E\002\026\026!\022Hce\032\021,\005\033\233\270\357"
 106      02161621 
 106      12486365 
 106      1A112C05 
 106      1B9BB8EF 
 107 003e 48401C98 		.ascii	"H@\034\230]v\337\3542\373\004\202\377\270t\2769+N&\240"
 107      5D76DFEC 
 107      32FB0482 
 107      FFB874BE 
 107      392B4E26 
 108 0053 144BE036 		.ascii	"\024K\3406\025\011\323SXE\327\027\260\2522\3046\003"
 108      1509D353 
 108      5845D717 
 108      B0AA32C4 
 108      3603
 109 0065 19338881 		.ascii	"\0313\210\201h\340\340\212\345\216\211\3146\333\355"
 109      68E0E08A 
 109      E58E89CC 
 109      36DBED
ARM GAS  /tmp/ccGRgGWO.s 			page 8


 110 0074 F86BF899 		.ascii	"\370k\370\231\034\0209!\354\021\352\201!\226\216\004"
 110      1C103921 
 110      EC11EA81 
 110      21968E04 
 111 0084 43B3E20C 		.ascii	"C\263\342\014\310\312\262\341\361\375\010M\212'}\306"
 111      C8CAB2E1 
 111      F1FD084D 
 111      8A277DC6 
 112 0094 D3C7FCFB 		.ascii	"\323\307\374\373\244\315\221;\350PZ\314\311\277&\233"
 112      A4CD913B 
 112      E8505ACC 
 112      C9BF269B 
 113 00a4 54AC0EF5 		.ascii	"T\254\016\365\005w\351^\024n\360c\017V\313)\331N\334"
 113      0577E95E 
 113      146EF063 
 113      0F56CB29 
 113      D94EDC
 114 00b7 A1FA70EE 		.ascii	"\241\372p\356\332\335P\210\313W~M|+5\257\3401\036\355"
 114      DADD5088 
 114      CB577E4D 
 114      7C2B35AF 
 114      E0311EED 
 115 00cb DE0AEFD9 		.ascii	"\336\012\357\331\036\214\036eQ\367\255\312h\216>\030"
 115      1E8C1E65 
 115      51F7ADCA 
 115      688E3E18 
 116 00db BF2ABDEE 		.ascii	"\277*\275\356\265\373\335\363\014\277W\2219}"
 116      B5FBDDF3 
 116      0CBF5791 
 116      397D
 117              		.text
 118              		.section	.gnu.lto_.symbol_nodes.d78510f456cea90f,"",%progbits
 119 0000 789C4DC7 		.ascii	"x\234M\307\261\015\200@\000\303@'\331\216\245\322R\262"
 119      B10D8040 
 119      00C34027 
 119      D98EA5D2 
 119      52B2
 120 0012 0014544C 		.ascii	"\000\024TL\3633\201\320K\340\306:c\026fva\033\320\356"
 120      F33381D0 
 120      4BE0C63A 
 120      63166676 
 120      611BD0EE 
 121 0026 AB9CEA27 		.ascii	"\253\234\352'\352\251\343\221\232O1\234\327P\242\367"
 121      EAA9E391 
 121      9A4F319C 
 121      D750A2F7 
 122 0036 DC034214 		.ascii	"\334\003B\024\247"
 122      A7
 123              		.text
 124              		.section	.gnu.lto_.refs.d78510f456cea90f,"",%progbits
 125 0000 789C6362 		.ascii	"x\234cb`b`d\200\002\000\000F\000\006"
 125      60626064 
 125      80020000 
 125      460006
 126              		.text
 127              		.section	.gnu.lto_.decls.d78510f456cea90f,"",%progbits
 128 0000 789C9D94 		.ascii	"x\234\235\224Mh\023Q\020\307g6i\232mB\021\017=\232\036"
ARM GAS  /tmp/ccGRgGWO.s 			page 9


 128      4D681351 
 128      10C76736 
 128      699A6D42 
 128      110F3D9A 
 129 0015 AA874A37 		.ascii	"\252\207J7U\213G\021<\230\223x)x\013\257\315\226\004"
 129      558B4711 
 129      3C989378 
 129      29780BAF 
 129      CD9604
 130 0028 9AB4241B 		.ascii	"\232\264$\033\304\213\276\012\212J\220 z\325\246i\375"
 130      C48BBE0A 
 130      8A4A9020 
 130      7AD5A669 
 130      FD
 131 0039 00AB2501 		.ascii	"\000\253%\001+\0255\244\264\326\326\203 \336z\310A\317"
 131      2B1535A4 
 131      B4D6D683 
 131      20DE7AC8 
 131      41CF
 132 004b D2930A42 		.ascii	"\322\223\012B\234\335}\251\331MvM\372\340\237\367\261"
 132      9CDD7DA9 
 132      D94D764D 
 132      FAE09FF7 
 132      B1
 133 005c EF3793F9 		.ascii	"\3577\223\371\357\260\022H0\206\000u\032\247}\000O\001"
 133      EFB01248 
 133      30860075 
 133      1AA77D00 
 133      4F01
 134 006e A0877486 		.ascii	"\240\207t\206D\307\340\005s\350s\201T\"\255\221\252"
 134      44C7E005 
 134      73E87381 
 134      5422AD91 
 134      AA
 135 007f D03A0AE2 		.ascii	"\320:\012\342^\221\324O\0126\361(\236K\244\227\244e"
 135      5E91D44F 
 135      0A36F128 
 135      9E4BA497 
 135      A465
 136 0091 1B5B1279 		.ascii	"\033[\022y\225&\266h\343K\202\177MZ\265\361kM\271\365"
 136      9526B668 
 136      E34B827F 
 136      4D5AB5F1 
 136      6B4DB9F5 
 137 00a5 799BB420 		.ascii	"y\233\264 \236I\342y#\177\205\364\336\306W\005\247\210"
 137      9E49E279 
 137      237F85F4 
 137      DEC65705 
 137      A788
 138 00b7 7987546E 		.ascii	"y\207Tn\342\253M\371\267H\037l|\010\036\362\317\265"
 138      E2AB4DF9 
 138      B7481F6C 
 138      7C081EF2 
 138      CFB5
 139 00c9 DAC6F7AD 		.ascii	"\332\306\367\2559\344\367\370\237z\335\003\003\360\200"
 139      39E4F7F8 
 139      9F7ADD03 
ARM GAS  /tmp/ccGRgGWO.s 			page 10


 139      03F080
 140 00d8 D398BFC9 		.ascii	"\323\230\277\3119j2\334\022\233\310\026\025x\011\031"
 140      396A32DC 
 140      129BC816 
 140      15780919 
 141 00e8 F6CB3068 		.ascii	"\366\3130h,\202\262\221\363(,r\236\257\255.\346\216"
 141      2C82B291 
 141      F3282C72 
 141      9EAFAD2E 
 141      E68E
 142 00fa 73EE6758 		.ascii	"s\356gXD\231\362\215\"\014\3033B\363\234_?\322b:@\347"
 142      4499F28D 
 142      220CC333 
 142      42F39C5F 
 142      3FD2623A 
 143 0110 91EB6FD7 		.ascii	"\221\353o\327=F\344'Fd\015\201\341c\034\026q\030\372"
 143      3D46E427 
 143      46640D81 
 143      E1631C16 
 143      7118FA
 144 0123 E4E6B8C6 		.ascii	"\344\346\270\306\276qA\017F[=\321/\275W\360\2328\321"
 144      BE71410F 
 144      465B3DD1 
 144      2FBD57F0 
 144      9A38D1
 145 0136 37BD7060 		.ascii	"7\275p`\256\335\277\325C,\340\200\261\362\030\216\323"
 145      AEDDBFD5 
 145      432CE080 
 145      B1F2188E 
 145      D3
 146 0147 8157B6AC 		.ascii	"\201W\266\254\215y\334\263\237T\202\253\326j\206\240"
 146      8D79DCB3 
 146      9F5482AB 
 146      D66A86A0 
 147 0157 A897BCB1 		.ascii	"\250\227\274\261\364\021\371a\003\221\3406\352w\012"
 147      F411F961 
 147      0391E036 
 147      EA770A
 148 0166 186A9BD6 		.ascii	"\030j\233\326\214kr\374g,\"\240\273\035@\000\307`I\307"
 148      8C6B72FC 
 148      672C22A0 
 148      BB1D4000 
 148      C76049C7 
 149 017a CADF2E46 		.ascii	"\312\337.F\314\027\007.\220\250\3619J\255-T\331\333"
 149      CC17072E 
 149      90A8F139 
 149      4AAD2D54 
 149      D9DB
 150 018c CDF9F373 		.ascii	"\315\371\363s\265z=d\351\037\206J\237\243[e\273[t\327"
 150      B57A3D64 
 150      E91F864A 
 150      9FA35B65 
 150      BB5B74D7 
 151 01a0 DDADFBD8 		.ascii	"\335\255\373\330\316.\376\365\023F\014\232\341\013\372"
 151      CE2EFEF5 
 151      13460C9A 
 151      E10BFA
ARM GAS  /tmp/ccGRgGWO.s 			page 11


 152 01af 770C4B8E 		.ascii	"w\014K\216u\323\245\006\365[\230\305p\345?\220\305\254"
 152      75D3A506 
 152      F55B98C5 
 152      70E53F90 
 152      C5AC
 153 01c1 1FB91B87 		.ascii	"\037\271\033\207\274f \027H\224\370\252\325\254\225"
 153      BC662017 
 153      4894F8AA 
 153      D5AC95
 154 01d0 5A657933 		.ascii	"Zey3hx\365\350\254\315,\375\0258\271\365\246\353\336"
 154      6878F5E8 
 154      ACCD2CFD 
 154      1538B9F5 
 154      A6EBDE
 155 01e3 9A6FEFD6 		.ascii	"\232o\357\326\227\375\272M\263\326\272\351\254\206Y"
 155      97FDBA4D 
 155      B3D6BAE9 
 155      AC8659
 156 01f2 EE90308B 		.ascii	"\356\2200\213\333:\313\011\022\025\276kk\326\336\256"
 156      DB3ACB09 
 156      1215BE6B 
 156      6BD6DEAE 
 157 0202 83592E9D 		.ascii	"\203Y.\235\265\336ug-v\330Y\325\203t\2263d1\313\332"
 157      B5DE7567 
 157      2D76D859 
 157      D5837496 
 157      336431CB 
 158 0217 594E9028 		.ascii	"YN\220(q\323jV\000\356\320\207V|N\315\017\221\2239\333"
 158      71D36A56 
 158      00EED087 
 158      567C4ECD 
 158      0F919339 
 159 022c 1870A0CA 		.ascii	"\030p\240\312.\324\316?\012\374\331$\323\342\312$\014"
 159      2ED4CE3F 
 159      0AFCD924 
 159      D3E2CA24 
 159      0C
 160 023d 85B39974 		.ascii	"\205\263\231t\230\245\223#\251\231\224:\242\262\211"
 160      98A59323 
 160      A999943A 
 160      A2B289
 161 024c 4438919A 		.ascii	"D8\221\232\234\316\306\324pF\213%R\232\022\207^\232"
 161      9CCEC6D4 
 161      70468B25 
 161      529A1287 
 161      5E9A
 162 025e 4E9D8C6A 		.ascii	"N\235\214j\276\363\027\306\007\317\301\230\013\223d"
 162      BEF317C6 
 162      07CFC198 
 162      0B9364
 163 026d 93F1444A 		.ascii	"\223\361DJ\015Gc\352\024\313NkQ\355\312\254\232\241"
 163      0D4763EA 
 163      14CB4E6B 
 163      51EDCAAC 
 163      9AA1
 164 027f 1872342A 		.ascii	"\030r4*\242\364\315\316\\VfYZSF\275\023,\243\366\320"
 164      A2F4CDCE 
ARM GAS  /tmp/ccGRgGWO.s 			page 12


 164      5C566659 
 164      5A5346BD 
 164      132CA3F6 
 165 0294 5E4D07E8 		.ascii	"^M\007\350w\312<>\341\241\265W\337\377\005\374\353w"
 165      77CA3C3E 
 165      E1A1B557 
 165      DFFF05FC 
 165      EB77
 166 02a6 60       		.ascii	"`"
 167              		.text
 168              		.section	.gnu.lto_.symtab.d78510f456cea90f,"",%progbits
 169 0000 706F7700 		.ascii	"pow\000\000\000\000\000\000\000\000\000\000\000\000"
 169      00000000 
 169      00000000 
 169      000000
 170 000f BA000000 		.ascii	"\272\000\000\000powf\000\000\000\000\000\000\000\000"
 170      706F7766 
 170      00000000 
 170      00000000 
 171 001f 00000000 		.ascii	"\000\000\000\000\302\000\000\000"
 171      C2000000 
 172              		.text
 173              		.section	.gnu.lto_.opts,"",%progbits
 174 0000 272D6D63 		.ascii	"'-mcpu=cortex-m4' '-mfloat-abi=hard' '-mfpu=fpv4-sp"
 174      70753D63 
 174      6F727465 
 174      782D6D34 
 174      2720272D 
 175 0033 2D643136 		.ascii	"-d16' '-mno-thumb-interwork' '-mthumb' '-O2' '-fomi"
 175      2720272D 
 175      6D6E6F2D 
 175      7468756D 
 175      622D696E 
 176 0066 742D6672 		.ascii	"t-frame-pointer' '-falign-functions=16' '-ffunction"
 176      616D652D 
 176      706F696E 
 176      74657227 
 176      20272D66 
 177 0099 2D736563 		.ascii	"-sections' '-fdata-sections' '-fno-common' '-flto' "
 177      74696F6E 
 177      73272027 
 177      2D666461 
 177      74612D73 
 178 00cc 272D6673 		.ascii	"'-fsingle-precision-constant'\000"
 178      696E676C 
 178      652D7072 
 178      65636973 
 178      696F6E2D 
 179              		.text
 180              		.section	.text.pow,"ax",%progbits
 181              		.align	2
 182              		.p2align 4,,15
 183              		.global	pow
 184              		.thumb
 185              		.thumb_func
 186              		.type	pow, %function
 187              	pow:
ARM GAS  /tmp/ccGRgGWO.s 			page 13


 188              		@ args = 0, pretend = 0, frame = 0
 189              		@ frame_needed = 0, uses_anonymous_args = 0
 190              		@ link register save eliminated.
 191 0000 0029     		cmp	r1, #0
 192 0002 09D0     		beq	.L5
 193 0004 0ADB     		blt	.L6
 194 0006 0023     		movs	r3, #0
 195 0008 0122     		movs	r2, #1
 196              	.L4:
 197 000a 0133     		adds	r3, r3, #1
 198 000c 9942     		cmp	r1, r3
 199 000e 00FB02F2 		mul	r2, r0, r2
 200 0012 FADC     		bgt	.L4
 201 0014 1046     		mov	r0, r2
 202 0016 7047     		bx	lr
 203              	.L5:
 204 0018 0120     		movs	r0, #1
 205 001a 7047     		bx	lr
 206              	.L6:
 207 001c 0020     		movs	r0, #0
 208 001e 7047     		bx	lr
 209              		.size	pow, .-pow
 210              		.section	.text.powf,"ax",%progbits
 211              		.align	2
 212              		.p2align 4,,15
 213              		.global	powf
 214              		.thumb
 215              		.thumb_func
 216              		.type	powf, %function
 217              	powf:
 218              		@ args = 0, pretend = 0, frame = 0
 219              		@ frame_needed = 0, uses_anonymous_args = 0
 220              		@ link register save eliminated.
 221 0000 0028     		cmp	r0, #0
 222 0002 0BD0     		beq	.L14
 223 0004 0ADD     		ble	.L14
 224 0006 0023     		movs	r3, #0
 225 0008 F7EE007A 		fconsts	s15, #112
 226              	.L13:
 227 000c 0133     		adds	r3, r3, #1
 228 000e 8342     		cmp	r3, r0
 229 0010 67EE807A 		fmuls	s15, s15, s0
 230 0014 FAD1     		bne	.L13
 231 0016 B0EE670A 		fcpys	s0, s15
 232 001a 7047     		bx	lr
 233              	.L14:
 234 001c B7EE000A 		fconsts	s0, #112
 235 0020 7047     		bx	lr
 236              		.size	powf, .-powf
 237              		.comm	__gnu_lto_v1,1,1
 238 0022 00BFAFF3 		.ident	"GCC: (GNU Tools for ARM Embedded Processors) 4.8.4 20140526 (release) [ARM/embedded-4_8-br
 238      0080AFF3 
 238      0080AFF3 
 238      0080
ARM GAS  /tmp/ccGRgGWO.s 			page 14


DEFINED SYMBOLS
                            *ABS*:0000000000000000 umath.c
     /tmp/ccGRgGWO.s:181    .text.pow:0000000000000000 $t
     /tmp/ccGRgGWO.s:187    .text.pow:0000000000000000 pow
     /tmp/ccGRgGWO.s:211    .text.powf:0000000000000000 $t
     /tmp/ccGRgGWO.s:217    .text.powf:0000000000000000 powf
                            *COM*:0000000000000001 __gnu_lto_v1

NO UNDEFINED SYMBOLS
