ARM GAS  /tmp/ccZRJiNJ.s 			page 1


   1              		.syntax unified
   2              		.cpu cortex-m4
   3              		.eabi_attribute 27, 3
   4              		.eabi_attribute 28, 1
   5              		.fpu fpv4-sp-d16
   6              		.eabi_attribute 20, 1
   7              		.eabi_attribute 21, 1
   8              		.eabi_attribute 23, 3
   9              		.eabi_attribute 24, 1
  10              		.eabi_attribute 25, 1
  11              		.eabi_attribute 26, 1
  12              		.eabi_attribute 30, 2
  13              		.eabi_attribute 34, 1
  14              		.eabi_attribute 18, 4
  15              		.thumb
  16              		.file	"ustr.c"
  17              		.section	.gnu.lto_.jmpfuncs.92379f0e429615d2,"",%progbits
  18 0000 789C6362 		.ascii	"x\234cb`b\300\006\204\2404\007\003##3\023333\013;+3"
  18      6062C006 
  18      84A03407 
  18      03232333 
  18      13333333 
  19 0018 1B333B3B 		.ascii	"\0333;;\003\000\004\376\000Y"
  19      030004FE 
  19      0059
  20              		.text
  21              		.section	.gnu.lto_.inline.92379f0e429615d2,"",%progbits
  22 0000 789C6362 		.ascii	"x\234cb`b\300\006\266Ci\016 \262dd`\342\332v\205\215"
  22      6062C006 
  22      B643690E 
  22      20B26464 
  22      60E2DA76 
  23 0016 816D813C 		.ascii	"\201m\201<X5#\003\177##PP\342\304Q~\270 \023\003\217"
  23      58352303 
  23      7F232350 
  23      50E2C451 
  23      7EB82013 
  24 002c 2D504CE8 		.ascii	"-PL\350\333$v\270\0303\203P/H\241\354\277_\002\014\354"
  24      DB2476B8 
  24      18338350 
  24      2F48A1EC 
  24      BF5F020C 
  25 0041 1DEA6041 		.ascii	"\035\352`A\026\006\341>FF&&F\210Q@Ur\317\232\004!z\230"
  25      1606E13E 
  25      46462626 
  25      46885140 
  25      5572CF9A 
  26 0059 2EF0F380 		.ascii	".\360\363\200\204Y\031D\017\2014\252\374\331.\0167\215"
  26      84591944 
  26      0F8134AA 
  26      FCD92E0E 
  26      378D
  27 006b 8D81EB02 		.ascii	"\215\201\353\002P\003\023\337\274\335\234pAv\006\336"
  27      500313DF 
  27      BCDD9C70 
  27      417606DE 
  28 007b 17204191 		.ascii	"\027 A\221W{y\340\202\014\000\273\203\032\351"
ARM GAS  /tmp/ccZRJiNJ.s 			page 2


  28      577B79E0 
  28      820C00BB 
  28      831AE9
  29              		.text
  30              		.section	.gnu.lto_.pureconst.92379f0e429615d2,"",%progbits
  31 0000 789C6362 		.ascii	"x\234cb`b\020d\200\000\016\006VF)&)f)\026)V)6VvV\000"
  31      60621064 
  31      80000E06 
  31      56462926 
  31      29662916 
  32 001c 085700CB 		.ascii	"\010W\000\313"
  33              		.text
  34              		.section	.gnu.lto_uStrLen.92379f0e429615d2,"",%progbits
  35 0000 789C8552 		.ascii	"x\234\205R=K\003A\020}o\367\276\010\202\202X\330\205"
  35      3D4B0341 
  35      107D6FF7 
  35      BE088282 
  35      58D885
  36 0013 FC802058 		.ascii	"\374\200 X\373/\022\3202\004\011\001\265\360\243\316"
  36      FB2F12D0 
  36      32040901 
  36      B5F0A3CE 
  37 0023 5DEE04D1 		.ascii	"]\356\004\321 GJm\014\301\302\306\364\202\020\253\244"
  37      20474A6D 
  37      0CC1C2C6 
  37      F48210AB 
  37      A4
  38 0034 51B00C58 		.ascii	"Q\260\014X\\\023\260\010\342/\360\234M.\021m\034\330"
  38      5C13B008 
  38      E22FF09C 
  38      4D2E116D 
  38      1CD8
  39 0046 99D99937 		.ascii	"\231\331\23173o\226UP\370+[rz\004V\305\322\001U\374"
  39      336F9655 
  39      50F82B5B 
  39      727A0456 
  39      C5D20155 
  40 005b 02049EA2 		.ascii	"\002\004\236\2425s\364\314y\362,\245[\003\300\317\331"
  40      3573F4CC 
  40      79F22CA5 
  40      5B03C0CF 
  40      D9
  41 006c 910B7FC9 		.ascii	"\221\013\177\311&M\034DCi\313fc\207\246\235*\240\343"
  41      264D1C44 
  41      4369CB66 
  41      6387A69D 
  41      2AA0E3
  42 007f FBED643C 		.ascii	"\373\355d<\270\\?\277i\306\376W\232\262N\031\234#\252"
  42      B85C3FBF 
  42      69C6FE57 
  42      9AB24E19 
  42      9C23AA
  43 0092 C4B65C98 		.ascii	"\304\266\\\230\237\032X\277\231L+\343\376c2\244\337"
  43      9F1A58BF 
  43      994C2BE3 
  43      FE6332A4 
  43      DF
ARM GAS  /tmp/ccZRJiNJ.s 			page 3


  44 00a3 F683CF34 		.ascii	"\366\203\3174]\256S)\254\374W\330S\375$M\337\272\361"
  44      5DAE5329 
  44      ACFC57D8 
  44      53FD244D 
  44      DFBAF1
  45 00b6 9A4754D8 		.ascii	"\232GT\330eA\306U\330\021\253\271o\340ujG\224\345fi"
  45      6541C655 
  45      D811ABB9 
  45      6FE0756A 
  45      4794E566 
  46 00cb 111B914C 		.ascii	"\021\033\221L\313\317\357\325)\373\222h\331\256D%F\227"
  46      CBCFEFD5 
  46      29FB9268 
  46      D9AE4425 
  46      4697
  47 00dd A9212BEB 		.ascii	"\251!+\353g\204gaw\304\012oi\243F\267F\032\036\212\031"
  47      67846761 
  47      77C40A6F 
  47      69A346B7 
  47      461A1E8A 
  48 00f2 81322DC8 		.ascii	"\2012-\310c\010\260\371\021\246\357\013\240\022  \345"
  48      6308B0F9 
  48      11A6EF0B 
  48      A0122020 
  48      E5
  49 0103 177A1EB2 		.ascii	"\027z\036\262j\324\2220\321\346\303\351\375\002\352"
  49      6AD49230 
  49      D1E6C3E9 
  49      FD02EA
  50 0112 5CE34A5A 		.ascii	"\\\343JZ\332\2020\255u\326y\210h\022l.@&\345\374,>\302"
  50      DA8230AD 
  50      75D67988 
  50      68126C2E 
  50      4026E5FC 
  51 0129 8C873CFB 		.ascii	"\214\207<\373$t\204\230n\215\035C\3076\364_\021$w\336"
  51      24748498 
  51      6E8D1D43 
  51      C736F45F 
  51      112477DE 
  52 013d BC36E35A 		.ascii	"\2746\343Z\022'r\3157pO\216\216\017\213U\330{\273\007"
  52      122772CD 
  52      37704F8E 
  52      8E0F8B55 
  52      D87BBB07 
  53 0151 C50D2DFA 		.ascii	"\305\015-\372\033\217\275jl"
  53      1B8FBD6A 
  53      6C
  54              		.text
  55              		.section	.gnu.lto_uStrCpy.92379f0e429615d2,"",%progbits
  56 0000 789C8552 		.ascii	"x\234\205R=o\023A\020\235\267{{w\211\215\355$PP\021"
  56      3D6F1341 
  56      109DB77B 
  56      7B77898D 
  56      ED245050 
  57 0015 E5074420 		.ascii	"\345\007D \376\005u\"AG\024\241\223%\240\340\243%{>"
  57      FE057522 
  57      414714A1 
ARM GAS  /tmp/ccZRJiNJ.s 			page 4


  57      9325A0E0 
  57      A3257B3E 
  58 0029 2345E0C2 		.ascii	"#E\340\302J\011\015V\024\005Q@C\201h\342T\204\202(\224"
  58      4A090D56 
  58      14055140 
  58      438168E2 
  58      54848228 
  59 003e EEDC8028 		.ascii	"\356\334\200(\"\240\000A\305\361\366\366\316\016\010"
  59      22A00041 
  59      C5F1F6F6 
  59      CE0E08
  60 004d 89956E66 		.ascii	"\211\225nf\357\315\233\2357\263\253D\311\337\353*\277"
  60      EFCD9B9D 
  60      37B3AB44 
  60      C9DFEB2A 
  60      BF
  61 005e 4B5AE40C 		.ascii	"KZ\344\014=f\004\252\177(\222\306\012\201\337h\277\331"
  61      3D6604AA 
  61      7F2892C6 
  61      0A81DF68 
  61      BFD9
  62 0070 8F03A57B 		.ascii	"\217\003\245{oD\354l\330\215\304\326C\304\016\207\361"
  62      6F44EC6C 
  62      D88DC4D6 
  62      43C40E87 
  62      F1
  63 0081 7E3F8E95 		.ascii	"~?\216\225\361\361\250\210G\200\303\005\262\241t\020"
  63      F1F1A888 
  63      4780C305 
  63      B2A17410 
  64 0091 9A38C2C6 		.ascii	"\2328\302\306\025\270\212zI\006\326\366\307;\207\275"
  64      15B88A7A 
  64      4906D6F6 
  64      C73B87BD 
  65 00a1 B3F649A7 		.ascii	"\263\366I\247o\177\3459\332\240\266Y\310:\3442\177\260"
  65      6F7FE539 
  65      DAA0B659 
  65      C83AE432 
  65      7FB0
  66 00b3 583815FC 		.ascii	"X8\025\374)\266\310\334\032~\3779\204}`\323\257y\336"
  66      29B6C8DC 
  66      1A7EFF39 
  66      847D60D3 
  66      AF79DE
  67 00c6 6C432B69 		.ascii	"lC+iL\023[>Q\3753q\357\333\301\000v\253\312$\253\365"
  67      4C135B3E 
  67      51FD3371 
  67      EFDBC100 
  67      76ABCA24 
  68 00dc BF922FD4 		.ascii	"\277\222/\324p\234\347\275\335\243s\247!k\330\306\222"
  68      709CE7BD 
  68      DDA373A7 
  68      216BD8C6 
  68      92
  69 00ed 04B80131 		.ascii	"\004\270\0011\345O(\224\036\321\250\2300'\330FP\243"
  69      E54F2894 
  69      1ED1A898 
ARM GAS  /tmp/ccZRJiNJ.s 			page 5


  69      3027D846 
  69      50A3
  70 00ff 31759AB0 		.ascii	"1u\232\260Q\262\232\364\003\372V\351\347\350w\350\347"
  70      51B29AF4 
  70      03FA56E9 
  70      E7E877E8 
  70      E7
  71 0110 1D73C131 		.ascii	"\035s\3011Y\312H\227sY\364\014\237'N\035\327\012-\307"
  71      59CA4897 
  71      7359F40C 
  71      9F274E1D 
  71      D70A2DC7 
  72 0124 BA0245A7 		.ascii	"\272\002E\247W\241\205\263\326\357$\333\314\266G(\023"
  72      57A185B3 
  72      D6EF24DB 
  72      CCB64728 
  72      13
  73 0135 8549BBFC 		.ascii	"\205I\273\374\341J\320J\320t\375\010\312FV\021\010o"
  73      E14AD04A 
  73      D074FD08 
  73      CA465611 
  73      086F
  74 0147 84499DCF 		.ascii	"\204I\235\317Y\376\011kxJn\2029\022Ex\324C]A\363\011"
  74      59FE096B 
  74      784A6E82 
  74      39124578 
  74      D4435D41 
  75 015d 02061CDA 		.ascii	"\002\006\034\332y}\377\371\204\272\360X\036\245\326"
  75      797DFFF9 
  75      84BAF058 
  75      1EA5D6
  76 016c B6DA8848 		.ascii	"\266\332\210Hr\247\233\362\360\003\351\036\247\027'"
  76      72A79BF2 
  76      F003E91E 
  76      A71727
  77 017b 3C178AA7 		.ascii	"<\027\212\2473\034\211\227\"\242\216\263\220\332t\357"
  77      331C8997 
  77      22A28EB3 
  77      90DA74EF 
  78 018b 43E81485 		.ascii	"C\350\024\205\256\033\0277.\316]\3602r\270)\333\243"
  78      AE1B1737 
  78      2ECE5DF0 
  78      3272B829 
  78      DBA3
  79 019d D21F177C 		.ascii	"\322\037\027|S\211\253\211\211P\017\315$\210\031\360"
  79      5389AB89 
  79      89500FCD 
  79      248819F0 
  80 01ad 6876AF82 		.ascii	"hv\257\202k\205\376\310\3537\025Z\247z\024\322k'\245"
  80      6B85FEC8 
  80      EB37155A 
  80      A77A14D2 
  80      6B27A5
  81 01c0 93F3F628 		.ascii	"\223\363\366(\364$\337\237=\305\373\340\341\216\345"
  81      F424DF9F 
  81      3DC5FBE0 
  81      E18EE5
ARM GAS  /tmp/ccZRJiNJ.s 			page 6


  82 01cf 5F03938B 		.ascii	"_\003\223\213\032\233\331\227\321\244x\203z\012\331"
  82      1A9BD997 
  82      D1A47883 
  82      7A0AD9
  83 01de D309C76E 		.ascii	"\323\011\307n\302(t?C\305\013\013\335\234\320\307\264"
  83      C228743F 
  83      43C50B0B 
  83      DD9CD0C7 
  83      B4
  84 01ef 76026B4E 		.ascii	"v\002kN\247\203\004&\244i\230WE\373\221\033\313{I\307"
  84      A7830426 
  84      A4699857 
  84      45FB911B 
  84      CB7B49C7 
  85 0203 7B6A72A3 		.ascii	"{jr\243\342\237\001\030ro;\272{\373\316\255\345u\321"
  85      E29F0118 
  85      726F3BBA 
  85      7BFBCEAD 
  85      E575D1
  86 0216 D7AFDD44 		.ascii	"\327\257\335D\333\320.\237\377\015\015B\3043"
  86      DBD02E9F 
  86      FF0D0D42 
  86      C433
  87              		.text
  88              		.section	.gnu.lto_uStrAppendChar.92379f0e429615d2,"",%progbits
  89 0000 789C8552 		.ascii	"x\234\205R1K\034A\024\376\336\314\316\336\335z\346\204"
  89      314B1C41 
  89      14FEDECC 
  89      CEDEDD7A 
  89      E684
  90 0012 54E9C45A 		.ascii	"T\351\304Z$`\235\177q\027\222\362\020Y\016L\012Mjgo"
  90      24609D7F 
  90      711792F2 
  90      10590E4C 
  90      0A4D6A67 
  91 0027 4F1072C5 		.ascii	"O\020r\305q\24569\304@\032\2232\244Q\213\220\003IP\254"
  91      71A53639 
  91      C4401A93 
  91      32A4518B 
  91      90034950 
  92 003c 0E2CCE22 		.ascii	"\016,\316\"\220BB\012\013+7\337\354\254w\030\002\031"
  92      9042420A 
  92      0B2B37DF 
  92      ECAC7718 
  92      0219
  93 004e 98F766E7 		.ascii	"\230\367f\347}\357{\337{\263\012\012\177\257'\334Oy"
  93      7DEF7BDF 
  93      7BB30A0A 
  93      7FAF27DC 
  93      4F79
  94 0060 FD905E42 		.ascii	"\375\220^B\210\352}\007\222\262\222\300\037\264?\034"
  94      88EA7D07 
  94      92B292C0 
  94      1FB43F1C 
  95 0070 9703A5BB 		.ascii	"\227\003\245\273_\001\033\231N\011\266jD\334=\004\233"
  95      5F011B99 
  95      4E09B66A 
ARM GAS  /tmp/ccZRJiNJ.s 			page 7


  95      44DC3D04 
  95      9B
  96 0081 4A074636 		.ascii	"J\007F6\237\213\243S\013\030X\333\033\1779\357>\262"
  96      9F8BA353 
  96      0B1858DB 
  96      1B7F39EF 
  96      3EB2
  97 0093 6FDB3D7B 		.ascii	"o\333={\233e\322\022\026\216\004+\202g\374\220\371\334"
  97      9B65D212 
  97      168E042B 
  97      8267FC90 
  97      F9DC
  98 00a5 A9E0BE92 		.ascii	"\251\340\276\222<\263\177tx=\034\210\355\333\344w\226"
  98      3CB37F74 
  98      783D1C88 
  98      EDDBE477 
  98      96
  99 00b6 D5885278 		.ascii	"\325\210Rx\360\277\314\017\352h\234e\027\357O\027g\225"
  99      F0BFCC0F 
  99      EA689C65 
  99      17EF4F17 
  99      6795
 100 00c8 BC10681A 		.ascii	"\274\020h\0321 0\244\321e4e \013\250\024>\242\337\243"
 100      312030A4 
 100      D1653465 
 100      200BA814 
 100      3EA2DFA3 
 101 00dc 9F6130A8 		.ascii	"\237a0\250\322\030r\030t\250{\336#\340\012r\325i\331"
 101      D2187218 
 101      74A87BDE 
 101      23E00A72 
 101      D569D9
 102 00ef 6D5D149D 		.ascii	"m]\024\235n\210\006G\240\277!\335N\367FR\244\200t\373"
 102      6E880647 
 102      A0BF21DD 
 102      4EF74652 
 102      A48074FB 
 103 0103 390762A9 		.ascii	"9\007b\251\304Rv\022!\205\266\206\004\340\240\230\324"
 103      C4527612 
 103      2185B686 
 103      04E0A098 
 103      D4
 104 0114 FE95663F 		.ascii	"\376\225f?\245)\357\210\215%\"\020 \325\033}w5\023\213"
 104      A529EF88 
 104      8D252210 
 104      20D51B7D 
 104      7735138B 
 105 0128 62C0DDB6 		.ascii	"b\300\335\266?o\035L\240\325]\354$\326\316\265$$\310"
 105      3F6F1D4C 
 105      A0D55DEC 
 105      24D6CEB5 
 105      2424C8
 106 013b B1DFF53F 		.ascii	"\261\337\365?D\347*Y\236\340\\\2504\035\313\010^\012"
 106      44E72A59 
 106      9EE05CA8 
 106      341DCB08 
 106      5E0A
ARM GAS  /tmp/ccZRJiNJ.s 			page 8


 107 014d 5FE52A65 		.ascii	"_\345*ejEw\177\204N\221q\335\260\310\311\315y\315k\367"
 107      6A45777F 
 107      844E9171 
 107      DDB0C8C9 
 107      CD79CD6B 
 108 0162 15EC3267 		.ascii	"\025\3542gQ\224\320\360\015\351\\\344vz\251<2v\210("
 108      5194D0F0 
 108      0DE95CE4 
 108      767AA93C 
 108      32768828 
 109 0176 7F05C75C 		.ascii	"\177\005\307\\4\340#a\336\200\311\033\370\3641\372\007"
 109      34E02361 
 109      DE80C91B 
 109      F8F431FA 
 109      07
 110 0187 7538A576 		.ascii	"u8\245v\247|hgH\306#5\231!\374\340\205\032\335\337Z"
 110      A77C6867 
 110      48C62335 
 110      9921FCE0 
 110      851ADDDF 
 111 019c 7ABDF16A 		.ascii	"z\275\361j}i\005zm\365\245\341^z\374\007\004\374\216"
 111      7D69057A 
 111      6DF5A5E1 
 111      5E7AFC07 
 111      04FC8E
 112 01af 8F       		.ascii	"\217"
 113              		.text
 114              		.section	.gnu.lto_uStrPrependChar.92379f0e429615d2,"",%progbits
 115 0000 789C8D52 		.ascii	"x\234\215R\317k\023A\024~ofgg\023\223f\333z\361V\372"
 115      CF6B1341 
 115      147E6F66 
 115      67671393 
 115      66DB7AF1 
 116 0016 07042107 		.ascii	"\007\004!\007\217\376\023-\3501\224\022\026\324\203"
 116      8FFE132D 
 116      E8319412 
 116      16D483
 117 0025 3FCED94D 		.ascii	"?\316\331MR(\330C\311\321\236b\221R\013z\360\"^LAp\245"
 117      5228D843 
 117      C9D19E62 
 117      91520B7A 
 117      F0225E4C 
 118 003c 28AD78B0 		.ascii	"(\255x\260x\011H\305CQ\017\036\205\365\233\231\335\244"
 118      780948C5 
 118      43510F1E 
 118      85F59B99 
 118      DDA4
 119 004e A9073BB0 		.ascii	"\251\007;\260\373f\336|\337\233\357{3\202\004\235\037"
 119      FB66DE7C 
 119      DF9BEF7B 
 119      3382049D 
 119      1F
 120 005f 4D7C9F24 		.ascii	"M|\237$\321\025D.\021\213\315\017DI \330s\023\351&\373"
 120      D115442E 
 120      118BCD0F 
 120      444920D8 
 120      7313E926 
ARM GAS  /tmp/ccZRJiNJ.s 			page 9


 121 0074 8127E4C6 		.ascii	"\201'\344\306[\242\270\254z\232\342\212b\355\000\276"
 121      5BA2B8AC 
 121      7A9AE28A 
 121      62ED00BE 
 122 0084 9BEC075A 		.ascii	"\233\354\007Z\370\016\020X@\300l\362\304\324\026\322"
 122      F80E1058 
 122      40C06CF2 
 122      C4D416D2 
 123 0094 53BE0EB8 		.ascii	"S\276\016\270}\223\315\221\336\"\015\342\270?Z\333:"
 123      7D93CD91 
 123      DE220DE2 
 123      B83F5ADB 
 123      3A
 124 00a5 1870DC8F 		.ascii	"\030p\334\217\223_YV\213\030\342\312L+L78b^\260\201"
 124      935F5956 
 124      8B18E2CA 
 124      4C2B4C37 
 124      38625EB0 
 125 00ba BC69B596 		.ascii	"\274i\265\226\2719<:I\317\020\205\240\231\013\022?\256"
 125      B9393C3A 
 125      49CF1085 
 125      A0990B12 
 125      3FAE
 126 00cc A6716F98 		.ascii	"\246qo\230e\327-+\274\020\253?|\375;='\364\362\377\230"
 126      65D72D2B 
 126      BC10AB3F 
 126      7CFD3B3D 
 126      27F4F2FF 
 127 00e1 CFC57094 		.ascii	"\317\305p\224e\177\366\016\257\001\332\344m^$\217o3"
 127      657FF60E 
 127      AF01DAE4 
 127      6D5E248F 
 127      6F33
 128 00f3 A97CE123 		.ascii	"\251|\341#\016\0205E,\003\374\250dfe\374\274J\216\251"
 128      0E103545 
 128      2C03FCA8 
 128      646665FC 
 128      BC4A8EA9 
 129 0107 82C0352C 		.ascii	"\202\3005,\236`\021\346q\026q\007q\016H5o\3408MQ\017"
 129      9E6011E6 
 129      71167107 
 129      710E4835 
 129      6FE0384D 
 130 011d EE161CCD 		.ascii	"\356\026\034\315\341\310\010\304X\302\037\367\261\304"
 130      E1C808C4 
 130      58C21FF7 
 130      B1C4
 131 012b 02412EB3 		.ascii	"\002A.\263$\\\222|O\335\365\356\3661\347D<\003\336\305"
 131      245C927C 
 131      4FDDF5EE 
 131      F631E744 
 131      3C03DEC5 
 132 013f 02A3C561 		.ascii	"\002\243\305a\213k\306\222\340\334\3132\316\300U\202"
 132      8B6BC692 
 132      E0DCCB32 
 132      CEC05582 
 133 014f D4F9D1CD 		.ascii	"\324\371\321\315\276s\223\237\002\333\342Y\000\211P"
ARM GAS  /tmp/ccZRJiNJ.s 			page 10


 133      BE73939F 
 133      02DBE259 
 133      008950
 134 015e EAA12C52 		.ascii	"\352\241,Rs-\366\260a\262\235Wk\317\306\320\371-z\224"
 134      732DF6B0 
 134      61B29D57 
 134      6BCFC6D0 
 134      F92D7A94 
 135 0172 C47118B1 		.ascii	"\304q\030\261\017\220\251\256\362\342)\365N\223\306"
 135      0F90A9AE 
 135      F2E229F5 
 135      4E93C6
 136 0181 1867B6F4 		.ascii	"\030g\266\364\244\215\307\344\244\020\211\323.\250\241"
 136      A48DC7E4 
 136      A41089D3 
 136      2EA8A1
 137 0190 DC38F18D 		.ascii	"\3348\361\215\"e\334X\027\273\322io\261\372W\270\237"
 137      2265DC58 
 137      17BBD269 
 137      6FB1FA57 
 137      B89F
 138 01a2 BB85F017 		.ascii	"\273\205\360\027\215\002\207:<\326\355R\332\352\366"
 138      8D02873A 
 138      3CD6ED52 
 138      DAEAF6
 139 01b1 6D76BDFB 		.ascii	"mv\275\373\230\213|\200\244\275\336\014\003f\247Y%\313"
 139      988B7C80 
 139      A4BDDE0C 
 139      0366A759 
 139      25CB
 140 01c3 0A9C5B55 		.ascii	"\012\234[Ud\313\360\012\012vJ\206*s1\300\274;\364\035"
 140      64CBF00A 
 140      0A764A86 
 140      2A7331C0 
 140      BC3BF41D 
 141 01d7 C87523AE 		.ascii	"\310u#\256Z\224\236\240@\316%\354}\035\237R\201\\k+"
 141      5A949EA0 
 141      40CE25EC 
 141      7D1D9F52 
 141      815C6B2B 
 142 01eb 2B06B70B 		.ascii	"+\006\267\013\177\332^LJo\276%\227\012<\347\035\233"
 142      7FDA5E4C 
 142      4A6FBE25 
 142      970A3CE7 
 142      1D9B
 143 01fd F490D11B 		.ascii	"\364\220\321\033\365R\242\224\237jC\013\\\367:\007\237"
 143      F552A294 
 143      9F6A430B 
 143      5CF73A07 
 143      9F
 144 020e BFCC4C29 		.ascii	"\277\314L)jXE\336YEU\242#JF?\305\370\211\220{W\214\""
 144      6A5845DE 
 144      594555A2 
 144      234A463F 
 144      C5F88990 
 145 0226 E618FDE0 		.ascii	"\346\030\375\340\336\375\273\365\025\222Q\275\301\221"
 145      DEFDBBF5 
ARM GAS  /tmp/ccZRJiNJ.s 			page 11


 145      159251BD 
 145      C191
 146 0234 BCB57A47 		.ascii	"\274\265zG\341\253_\375\013\020\267\356q"
 146      E1AB5FFD 
 146      0B10B7EE 
 146      71
 147              		.text
 148              		.section	.gnu.lto_uStrInsertChar.92379f0e429615d2,"",%progbits
 149 0000 789C8D54 		.ascii	"x\234\215TMh\023A\030\375\276\231\235\335M\322&\241"
 149      4D681341 
 149      18FDBE99 
 149      9DDD4DD2 
 149      26A1
 150 0012 7FD293B5 		.ascii	"\177\322\223\265\342\305C\020\252go\236<\266`\217\241"
 150      E2C54310 
 150      AA676F9E 
 150      3CB6608F 
 150      A1
 151 0023 9465415B 		.ascii	"\224eA[h\353\271\233&B\321\010\245'\177.\306\"\"\025"
 151      68EBB99B 
 151      2642D108 
 151      A5277F2E 
 151      C6222215 
 152 0037 2B78112F 		.ascii	"+x\021/\246\2405\"J=\026<\004A\361P\304\203G\351\372"
 152      A6A03522 
 152      4A3D163C 
 152      0441F150 
 152      C48347E9 
 153 004c 66663735 		.ascii	"ff75\365\320\014\354|\363}\363\336\314{3\303\012\022"
 153      F5D00CEC 
 153      7CF37DF3 
 153      DECC7B33 
 153      C30A12
 154 005f 74B495F1 		.ascii	"t\264\225\361]r\210\316\"r\206X\254}\"\252\370\202\035"
 154      5D7288CE 
 154      22728658 
 154      AC7D22AA 
 154      F8821D
 155 0072 3B9076B0 		.ascii	";\220v\260\355;B\326\337\021EYU\363(\352S\354Y\200k"
 155      ED3B42D6 
 155      DF114559 
 155      55F328EA 
 155      53EC5980 
 156 0087 07DBBE27 		.ascii	"\007\333\276'\\\013\360\015\300g\326ubZ\026\322Q\256"
 156      5C0BF00D 
 156      C067D675 
 156      625A16D2 
 156      51AE
 157 0099 E7F3F234 		.ascii	"\347\363\3624\353-\32585\242h\275\375\366\353\363\321"
 157      EB2DD538 
 157      35A268BD 
 157      FDF6EBF3 
 157      D1
 158 00aa 9B0F56D6 		.ascii	"\233\017V\326\242\2038\346\220!.\3134\303t\005\011\217"
 158      A28338E6 
 158      90212ECB 
 158      34C37405 
ARM GAS  /tmp/ccZRJiNJ.s 			page 12


 158      098F
 159 00bc 99404EB7 		.ascii	"\231@N\267Z\313l\336\335\251\037a\346{b\2565\377\314"
 159      5ACB6CDE 
 159      DDA91F61 
 159      E67B62AE 
 159      35FFCC
 160 00cf B6A25A33 		.ascii	"\266\242Z3\216/\206,\004\235\354\221u\320\305:\325\243"
 160      8E2F862C 
 160      049DEC91 
 160      75D0C53A 
 160      D5A3
 161 00e1 CAD7BF5B 		.ascii	"\312\327\277[\015\216\326\243\312\2578.\030\225g\216"
 161      0D8ED6A3 
 161      CAAF382E 
 161      1895678E 
 162 00f1 636E8966 		.ascii	"cn\211f;\216\277l\355\356\360\011\2462?\342qr\370\032"
 162      3B8EBF6C 
 162      EDEEF009 
 162      A6323FE2 
 162      7172F81A 
 163 0105 934A1217 		.ascii	"\223J\022\027\011{H\032H|\012Yf\320QV\217r\350\234\376"
 163      097B481A 
 163      487C0A59 
 163      66D05156 
 163      8F72E89C 
 164 011a 049847DC 		.ascii	"\004\230G\334@,\350\231\"Xb\000\225\307\250\014&q\010"
 164      402CE899 
 164      22586200 
 164      95C7A80C 
 164      267108
 165 012d F109E230 		.ascii	"\361\011\3420\020jDs\365\335P\015\206\307\354\032\026"
 165      106A4473 
 165      F5DD500D 
 165      86C7EC1A 
 165      16
 166 013e 475A33DA 		.ascii	"GZ3\332$z\334\354$\013\0049\305\222p\335\362#UW\253"
 166      247ADCEC 
 166      240B0439 
 166      C59270DD 
 166      F2235557 
 167 0153 1B7B9C10 		.ascii	"\033{\234\020\361\240x\023\011Z\300\203\001\017h\227"
 167      F1A07813 
 167      095AC083 
 167      010F6897 
 168 0163 82137B53 		.ascii	"\202\023{S\330\003\217\002\244\225\237\325\370\007\227"
 168      D8038F02 
 168      A4959FD5 
 168      F80797
 169 0172 F929B001 		.ascii	"\371)\260\001\017\001H\204\245n\311\2644\034\260\203"
 169      0F014884 
 169      A56EC9B4 
 169      341CB083 
 170 0182 095D5D79 		.ascii	"\011]]yu\343Y\007:r\237\356U\242\250\030\262\013\220"
 170      75E35907 
 170      3A729FEE 
 170      55A2A818 
 170      B20B90
ARM GAS  /tmp/ccZRJiNJ.s 			page 13


 171 0195 5E5D258B 		.ascii	"^]%\213\267\250\266_\231\350\340\364\224wx\262{d\245"
 171      B7A8B65F 
 171      99E8E0F4 
 171      947778B2 
 171      7B64A5
 172 01a8 1089FD2A 		.ascii	"\020\211\375*\250\203\262\376\315\325\212\224vc\\4\372"
 172      A883B2FE 
 172      CDD58A94 
 172      76635C34 
 172      FA
 173 01b9 ACF680D5 		.ascii	"\254\366\200\325\377\302\335\304-\204o\326\335\024\350"
 173      FFC2DDC4 
 173      2D846FD6 
 173      DD14E8
 174 01c8 05CC1DE1 		.ascii	"\005\314\035\341\266\344\033\341\236\251\256V\037rZ"
 174      B6E41BE1 
 174      9EA9AE56 
 174      1F725A
 175 01d7 CFA068AE 		.ascii	"\317\240h\256<F+\320\021V\326\2602\326\256J\2539\230"
 175      3C462BD0 
 175      1156D6B0 
 175      32D6AE4A 
 175      AB3998
 176 01ea 05053359 		.ascii	"\005\0053YM\225\211\032`\336\357&\032\354qD\375\006"
 176      4D95891A 
 176      60DEEF26 
 176      1AEC7144 
 176      FD06
 177 01fc E51FA240 		.ascii	"\345\037\242@N$l\324\247\323\365\372!\327\370\212\323"
 177      4E246CD4 
 177      A7D3F5FA 
 177      21D7F88A 
 177      D3
 178 020d C6CBA941 		.ascii	"\306\313\251A\317\334L\213\336|\257\344R<\007\360\335"
 178      CFDC4C8B 
 178      DE7CAFE4 
 178      523C07F0 
 178      DD
 179 021e 3940644A 		.ascii	"9@dJ\275\224X\306\275\223\323\024\337\036\035\216\344"
 179      BD9458C6 
 179      BD93D314 
 179      DF1E1D8E 
 179      E4
 180 022f 457D34E5 		.ascii	"E}4\345\344\015\247\313\\\301\230\313\033\341\037v\363"
 180      E40DA7CB 
 180      5CC198CB 
 180      1BE11F76 
 180      F3
 181 0240 5DC2278C 		.ascii	"]\302'\214\360\302\277\302\213D\237\251\322\276}\272"
 181      F0C2BFC2 
 181      8B449FA9 
 181      D2BE7DBA 
 182 0250 F394C8BE 		.ascii	"\363\224\310\276?\306~\372\017\346]_\\Z(\315\220\014"
 182      3FC67EFA 
 182      0FE65D5F 
 182      5C5A28CD 
 182      900C
ARM GAS  /tmp/ccZRJiNJ.s 			page 14


 183 0262 4BE78BE1 		.ascii	"K\347\213\341\334\342\354\302\322\345\371\231\362R8"
 183      DCE2ECC2 
 183      D2E5F999 
 183      F25238
 184 0271 3F57BAC0 		.ascii	"?W\272\300\241\274:;\247\360\225\316\375\005\374d\015"
 184      A1BC3A3B 
 184      A7F095CE 
 184      FD05FC64 
 184      0D
 185 0282 51       		.ascii	"Q"
 186              		.text
 187              		.section	.gnu.lto_uStrCat.92379f0e429615d2,"",%progbits
 188 0000 789C8D54 		.ascii	"x\234\215TMkSA\024\275w\336\367{\211\351w\323\210X\352"
 188      4D6B5341 
 188      14BD77DE 
 188      F77B89E9 
 188      77D38858 
 189 0015 BEA80557 		.ascii	"\276\250\005W\376\214\026tY\212<\002\352\302\217u'M"
 189      FE8C1674 
 189      598A3C02 
 189      EAC28F75 
 189      274D
 190 0027 84821142 		.ascii	"\204\202\021Bq\243nZJ\251Z\265\240 X\012\246\233Z\027"
 190      71A36E5A 
 190      4AA95AB5 
 190      A020580A 
 190      A69B5A17 
 191 003b 0A2EEBAA 		.ascii	"\012.\353\252\033\245H\221.\272\024\237gf\336K\333T"
 191      1BA54891 
 191      2EBA149F 
 191      6766DE4B 
 191      DB54
 192 004d 680632F7 		.ascii	"h\0062\367\315=\347\314\334sg\210 A\355\243\212\337"
 192      CD3DE7CC 
 192      DC736788 
 192      2041EDA3 
 192      8ADF
 193 005f 3987E83C 		.ascii	"9\207\350<\"\347\210E\343+Q\305\027l\233\017\313|l\370"
 193      22E78845 
 193      E32B51C5 
 193      176C9B0F 
 193      CB7C6CF8 
 194 0073 B6B0EA9F 		.ascii	"\266\260\352\237\210d\350\326<\2229\227#\225g\307\304"
 194      8864E8D6 
 194      3C923997 
 194      239567C7 
 194      C4
 195 0084 0D3F128E 		.ascii	"\015?\022\216\301}\215\373\034j\3343q\303\017\205g\360"
 195      C17D8DFB 
 195      1C6ADC33 
 195      71C30F85 
 195      67F0
 196 0096 40E301B3 		.ascii	"@\343\001\263\312\023\323\264\260l\327\211|/\014x\372"
 196      CA13D3B4 
 196      B06CD789 
 196      7C2F0C78 
 196      FA
ARM GAS  /tmp/ccZRJiNJ.s 			page 15


 197 00a7 3AABA2DC 		.ascii	":\253\242\334\021Z\220rng\351\327\256x\362\270Y\233"
 197      115A9072 
 197      6E67E9D7 
 197      AE78F2B8 
 197      599B
 198 00b9 977F9284 		.ascii	"\227\177\222\204\271\3140\0202M1]\303\202\207u \373"
 198      B9CC3010 
 198      324D315D 
 198      C3828775 
 198      20FB
 199 00cb B823AD6D 		.ascii	"\270#\255m4?l\326\207\344\374LC\376\205\264\314B\320"
 199      343F6CD6 
 199      87E4FC4C 
 199      43FE85B4 
 199      CC42D0
 200 00de 990E956B 		.ascii	"\231\016\225k\233\271FeV&\311\264\226\365v([?.+v$\233"
 200      9BB94665 
 200      5626C9B4 
 200      96F57628 
 200      5B3F2E2B 
 201 00f5 6B7E3CD8 		.ascii	"k~<\330Z`9'+\373IR\320\016K\235)\345\333\3472\320\235"
 201      5A603927 
 201      2BFB4952 
 201      D00E4B9D 
 201      29E5DBE7 
 202 010c B14099E4 		.ascii	"\261@\231\344\227,N\321\255\212\346N\222\254\277\253"
 202      972C4ED1 
 202      AD8AE64E 
 202      92ACBFAB 
 203 011c 7D2F9D55 		.ascii	"}/\235U\212e\036!\233o19\351\302\305\202}B\375\001&"
 203      8A651E21 
 203      9B6F3139 
 203      E9C2C582 
 203      7D42FD01 
 204 0131 0A315911 		.ascii	"\0121Y\021\260\005`9,\354<&\247\220\262\273\020\027"
 204      B0056039 
 204      2CEC3C26 
 204      A790B2BB 
 204      1017
 205 0143 11BBD3D8 		.ascii	"\021\273\323\330\203\370\002\261W1\373\024\263\037\231"
 205      83F802B1 
 205      5731FB14 
 205      B31F99
 206 0152 256406D2 		.ascii	"%d\006\3228\210\270\202XT\214!\305(\245\010\206C5\264"
 206      3888B882 
 206      58548C21 
 206      C528A508 
 206      864335B4 
 207 0166 71D8EC65 		.ascii	"q\330\354e\262\346\034R\2660\3061\343\355\214\303g\315"
 207      B2E61C52 
 207      B630C631 
 207      E3ED8CC3 
 207      67CD
 208 0178 B326D822 		.ascii	"\263&\330\"<(\353\013Ug\253\213\333\234\312\011\242"
 208      3C28EB0B 
 208      5567AB8B 
 208      DB9CCA09 
ARM GAS  /tmp/ccZRJiNJ.s 			page 16


 208      A2
 209 0189 575860C4 		.ascii	"WX`\304\334\035s\227j\204\340\264\003\023l\023\236\035"
 209      DC1D7397 
 209      6A84E0B4 
 209      03136C13 
 209      9E1D
 210 019b 4433BFAB 		.ascii	"D3\277\253\311.O\362kpc\356\001\221\010[=\264\262To"
 210      C92E4FF2 
 210      6B7063EE 
 210      0191085B 
 210      3DB4B254 
 211 01b0 CC360095 		.ascii	"\3146\000\225\235Y{\360\246E\355{FO+Rv\225\331\005I"
 211      9D597BF0 
 211      A645ED7B 
 211      464F2B52 
 211      7695D905 
 212 01c5 ED9E7579 		.ascii	"\355\236uy\213j{\225\261\026OA\336a\363\267\311\224"
 212      8B6A7B95 
 212      B1164F41 
 212      DE61F3B7 
 212      C994
 213 01d7 4224F6AA 		.ascii	"B$\366\252\220v[\365\037\256\252\310Un\024^Jq\033\270"
 213      90765BF5 
 213      1FAEAAC8 
 213      556E145E 
 213      4A711BB8 
 214 01eb 029C53FD 		.ascii	"\002\234S\375\015\304\334\337\346/R\376\370\320\337"
 214      0DC4DCDF 
 214      E62F52FE 
 214      F8D0DF
 215 01fa AA2E6610 		.ascii	"\252.f\020\304\226?\223*\306\312\300\340\021\177&?t"
 215      C4963F93 
 215      2AC6CAC0 
 215      E0117F26 
 215      3F74
 216 020c D45FF17F 		.ascii	"\324_\361\177\376R\336\011\177\3751\227\\FUN\352\314"
 216      FE52DE09 
 216      7FFD3197 
 216      5C46554E 
 216      EACC
 217 021e CF9C39A9 		.ascii	"\317\2349\251\263\350`L\345\275Cc\313\217\212\306O\314"
 217      B3E8604C 
 217      E5BD4363 
 217      CB8F8AC6 
 217      4FCC
 218 0230 7ECC9C5E 		.ascii	"~\314\234^\003\212/e\351\000H\253t\223\012\365\325\004"
 218      038A2F65 
 218      E90048AB 
 218      74930AF5 
 218      D504
 219 0242 29F33D67 		.ascii	")\363=g\371\010;\264Qs\332ed\\:Y6\017\217\254\015\346"
 219      F9083BB4 
 219      5173DA65 
 219      645C3A59 
 219      360F8FAC 
 220 0258 8E1A04E7 		.ascii	"\216\032\004\347\363\276gH\246\0132\2177\212\003\025"
 220      F3BE6748 
ARM GAS  /tmp/ccZRJiNJ.s 			page 17


 220      A60B328F 
 220      378A0315 
 221 0268 CB22D3F4 		.ascii	"\313\"\323\364\274>b\266\232\324\257f\373\025pp\333"
 221      BC3E62B6 
 221      9AD4AF66 
 221      FB157070 
 221      DB
 222 0279 3D84FA1E 		.ascii	"=\204\372\036\320\262\237\225(\243\261\276\205\254]"
 222      D0B29F95 
 222      28A3B1BE 
 222      85AC5D
 223 0288 58393EA6 		.ascii	"X9>\246\202\267\345)E\240\272\365\215*;+\027ZWL\346"
 223      82B7E529 
 223      45A0BAF5 
 223      8D2A3B2B 
 223      175A574C 
 224 029d DD3320F5 		.ascii	"\3353 \365\327\355\335\277{\357\316\350\024Y\345\321"
 224      D7EDDDBF 
 224      7BEFCEE8 
 224      1459E5D1 
 225 02ad 2BF6CD1B 		.ascii	"+\366\315\033\267/\251\3512\227\035\204\321\213\377"
 225      B72FA9E9 
 225      32971D84 
 225      D18BFF
 226 02bc 0030BD2F 		.ascii	"\0000\275/0"
 226      30
 227              		.text
 228              		.section	.gnu.lto_uStrFindChar.92379f0e429615d2,"",%progbits
 229 0000 789C8552 		.ascii	"x\234\205R\273J\003Q\020=\347>v\327\020\264\261P\020"
 229      BB4A0351 
 229      103DE73E 
 229      76D710B4 
 229      B15010
 230 0013 113FC04E 		.ascii	"\021?\300N\374\012;\003ZJ\204\220\302\306G\235M\262"
 230      FC0A3B03 
 230      5A4A8490 
 230      C2C6479D 
 230      4DB2
 231 0025 8AA04210 		.ascii	"\212\240B\020\033\037EDlD\260\014Z%\"*\202\202vvv6\242"
 231      1B1F4544 
 231      6C44B00C 
 231      5A25222A 
 231      82827676 
 232 003c 36568AEB 		.ascii	"6V\212\353\334\215I\320\306\201\275\2633s\316\314\271"
 232      DC8D49D0 
 232      C681BDB3 
 232      3373CECC 
 232      B9
 233 004d B3ABA0F0 		.ascii	"\263\253\240\360\327\306\345\371 \320#\236>\250*\267"
 233      D7C6E5F9 
 233      20D0239E 
 233      3EA82AB7 
 234 005d 403150B4 		.ascii	"@1P\264\315\027\255\2743\2150en\257\2010m\232\371F`"
 234      CD17ADBC 
 234      338D3065 
 234      6EAF8130 
 234      6D9AF946 
ARM GAS  /tmp/ccZRJiNJ.s 			page 18


 235 0072 954E32A9 		.ascii	"\225N2\251\244\234\366H\227\007QP\332X\217\205)\272"
 235      A49CF648 
 235      97075150 
 235      DA588F85 
 235      29BA
 236 0084 F66A187B 		.ascii	"\366j\030{a\270\361x\360Z\347\326f=\252\206\237qL\346"
 236      61B8F178 
 236      F05AE7D6 
 236      663DAA86 
 236      9F714CE6 
 237 0098 29525244 		.ascii	")RRD\226\230\224\200C\211\203\371\255-\341V\352\357"
 237      96989480 
 237      438983F9 
 237      AD2DE156 
 237      EAEF
 238 00aa 176BFD61 		.ascii	"\027k\375a\265T\011\277\204\232\247R\350\376\217y\254"
 238      B55409BF 
 238      849AA752 
 238      E8FE8F79 
 238      AC
 239 00bb EA8F71BC 		.ascii	"\352\217q\274[\213\356\007d\3124\3679,\003\205\253%"
 239      5B8BEE07 
 239      64CA34F7 
 239      392C0385 
 239      AB25
 240 00cd D893C070 		.ascii	"\330\223\300p\226\260\222\321\276\034&\220\220]?@1\213"
 240      96B092D1 
 240      BE1C2690 
 240      905D3F40 
 240      318B
 241 00df 48260FB5 		.ascii	"H&\017\265\342lr\227\0119\337<qJ\234\316PC6\240\257"
 241      E26C7297 
 241      0939DF3C 
 241      714A9CCE 
 241      504336A0 
 242 00f4 70FED4F8 		.ascii	"p\376\324\370XV\323<\240E\216~\216AGH\206\006\325K\350"
 242      5856D33C 
 242      A0458E7E 
 242      8E414748 
 242      8606D54B 
 243 0109 1B9457CA 		.ascii	"\033\224W\312\361\272n\241\272r\244\023\256\330\006"
 243      F1BA6EA1 
 243      BA72A413 
 243      AED806
 244 0118 5AC80605 		.ascii	"Z\310\006\005Xz)\277\256\017\266\200Z\200\200\320W\333"
 244      587A29BF 
 244      AE0FB680 
 244      5A8080D0 
 244      57DB
 245 012a 5C9BA391 		.ascii	"\\\233\243\221\202\313\226N\227\016\331\236\274\203"
 245      82CB964E 
 245      970ED99E 
 245      BC83
 246 0138 6D692965 		.ascii	"mi)e\353Z\353\237\316W\210\236\213\243m\220+y\035\201"
 246      EB5AEB9F 
 246      CE57889E 
 246      8BA36D90 
ARM GAS  /tmp/ccZRJiNJ.s 			page 19


 246      2B791D81 
 247 014c 0F68EA90 		.ascii	"\017h\352\220OuT\233\021a\346\263\226vr<w\311;\371\003"
 247      4F75549B 
 247      1161E6B3 
 247      9676723C 
 247      77C93BF9 
 248 0161 202CD584 		.ascii	" ,\325\204*\021\243\237k}\011#n\031\013v\367\244\327"
 248      2A11A39F 
 248      6B7D0923 
 248      6E190B76 
 248      F7A4D7
 249 0174 ED87C271 		.ascii	"\355\207\302qP\177q~an$\013\235\037\031c\376\033\251"
 249      507F717E 
 249      616E240B 
 249      9D1F1963 
 249      FE1BA9
 250 0187 1086FE   		.ascii	"\020\206\376"
 251              		.text
 252              		.section	.gnu.lto_uStrFindCharN.92379f0e429615d2,"",%progbits
 253 0000 789C8D53 		.ascii	"x\234\215SMk\023Q\024\275\347}\314L\246Sq\021A]\224"
 253      4D6B1351 
 253      14BDE77D 
 253      CC4CA653 
 253      7111415D 
 254 0015 D21FD09D 		.ascii	"\322\037\320\235\320\037bA\227!\342\230\205.\264\256"
 254      D01F6241 
 254      9721E298 
 254      852EB4AE 
 255 0025 33F9100B 		.ascii	"3\371\020\013\206\032\304\215\332EJ)\005\021\\\350\312"
 255      861AC48D 
 255      DA454A29 
 255      05115CE8 
 255      CA
 256 0036 184C4549 		.ascii	"\030LEI\021,\270\314\256\270qS\264\270q\2418\2367\223"
 256      112CB8CC 
 256      AEB87153 
 256      B4B871A1 
 256      389E3793 
 257 004a 49B01B7D 		.ascii	"I\260\033}0\357\316=\357\2343\347\275\231Q\242\344\344"
 257      30EFCE3D 
 257      EF9C33E7 
 257      BD9951A2 
 257      E4E4
 258 005c B8CAEB3D 		.ascii	"\270\312\353=\3412+J\002\325=\020i\004\012~~\243\225"
 258      E1322B4A 
 258      02D53D10 
 258      69040A7E 
 258      7EA395
 259 006f 393E2349 		.ascii	"9>#Ih{+\222D\0066\207\255\012\336j\302\336\301\007!"
 259      687B2B92 
 259      44063687 
 259      AD0ADE6A 
 259      C2DEC107 
 260 0084 EEE5F4BD 		.ascii	"\356\345\364\275\300W:C\302l9\012\000\207\013\244\256"
 260      C0573A43 
 260      C26C390A 
 260      00870BA4 
ARM GAS  /tmp/ccZRJiNJ.s 			page 20


 260      AE
 261 0095 B4B19E1F 		.ascii	"\264\261\236\037\240~\031\356\271zI\266\222\344\301"
 261      A07E19EE 
 261      B97A49B6 
 261      92E4C1
 262 00a4 E1CE8F21 		.ascii	"\341\316\217!\036=\034\266{\311\2574\005j`\306\020R"
 262      1E3D1CB6 
 262      7BC9AF34 
 262      056A60C6 
 262      1052
 263 00b6 855C6283 		.ascii	"\205\\b\203\305\254\210\371;t\246\355\016_\214:\347"
 263      C5AC88F9 
 263      3B74A6ED 
 263      0E5F8C3A 
 263      E7
 264 00c7 925EB39B 		.ascii	"\222^\263\233\374\246\264\006\245\344\324\177*_\216"
 264      FCA6B406 
 264      A5E4D47F 
 264      2A5F8E
 265 00d6 A26E633D 		.ascii	"\242nc=I\323z&;\375/\331s5<L\323N\277\375y\201\217\250"
 265      49D37A26 
 265      3BFD2FD9 
 265      73353C4C 
 265      D34EBFFD 
 266 00ee 601B4BCC 		.ascii	"`\033K\314Y\301\016\253\236T#\364\262l\266\330x\270"
 266      59C10EAB 
 266      9E5423F4 
 266      B26CB6D8 
 266      78B8
 267 0100 0EF189E8 		.ascii	"\016\361\211\350\022'\023\262\305\334\204\030\261Q\363"
 267      122713B2 
 267      C5DC8418 
 267      B151F3
 268 010f 13170E2B 		.ascii	"\023\027\016+mfZ\314\373\234\".\017\307E\316\307\036"
 268      6D665ACC 
 268      FB9C222E 
 268      0FC745CE 
 268      C71E
 269 0121 8B62D1AB 		.ascii	"\213b\321\253\320\302\323\325\373\362\356\313^\377\256"
 269      D0C2D3D5 
 269      FBF2EECB 
 269      5EFFAE
 270 0130 AA601756 		.ascii	"\252`\027Vb\224b\204\263\254\2530\362\275\254?Jk\275"
 270      62946284 
 270      B3ACAB30 
 270      F2BDAC3F 
 270      4A6BBD
 271 0143 F573E37C 		.ascii	"\365s\343|A\232\213\241\335\326\024\246<;s{3sS1\242"
 271      419A8BA1 
 271      DDD614A6 
 271      3C3B737B 
 271      33735331 
 272 0158 C26B2CEC 		.ascii	"\302k,\354\264\006\345\346\250\177\315\211<\351\215"
 272      B406E5E6 
 272      A87FCD89 
 272      3CE98D
 273 0167 2477DFBD 		.ascii	"$w\337\275\257\013\321|\014\234p\367\205\257\236\304"
ARM GAS  /tmp/ccZRJiNJ.s 			page 21


 273      AF0BD17C 
 273      0C9C70F7 
 273      85AF9EC4 
 274 0177 E6D7D6B7 		.ascii	"\346\327\326\267\215\205\202hI\024\241\374\336T\353"
 274      8D858268 
 274      4914A1FC 
 274      DE54EB
 275 0186 C7F0B8E0 		.ascii	"\307\360\270\340\320\346\253;O1\335\326\023yLK*|g\255"
 275      D0E6AB3B 
 275      4F31DDD6 
 275      13794C4B 
 275      2A7C67AD 
 276 019a 27CEFBD2 		.ascii	"'\316\373\322>j\\\230\222\334\2227\333\375X\362\034"
 276      3E6A5C98 
 276      92DC9237 
 276      DBFD58F2 
 276      1C
 277 01ab 226AB37F 		.ascii	"\"j\263\177\205\301\274\315A4\026]\200\317\034\250<"
 277      85C1BCCD 
 277      4134165D 
 277      80CF1CA8 
 277      3C
 278 01bc B884813B 		.ascii	"\270\204\201;\324O\374\232\205F&W\033\346\263\235\301"
 278      D44FFC9A 
 278      85462657 
 278      1BE6B39D 
 278      C1
 279 01cd D98C9F16 		.ascii	"\331\214\237\026\003u\377\365\240\354\336\007\250q\177"
 279      0375FFF5 
 279      A0ECDE07 
 279      A8717F
 280 01dc 917FFBD6 		.ascii	"\221\177\373\326\332\315\345\252\350\332\362\012j\246"
 280      DACDE5AA 
 280      E8DAF20A 
 280      6AA6
 281 01ea 56BDB1F6 		.ascii	"V\275\261\366\007\317\013\265\254"
 281      07CF0BB5 
 281      AC
 282              		.text
 283              		.section	.gnu.lto_.symbol_nodes.92379f0e429615d2,"",%progbits
 284 0000 789C4DC7 		.ascii	"x\234M\307\271\021\2000\024CA}\371\352\227\006^J\350"
 284      B9118030 
 284      1443417D 
 284      F9EA9706 
 284      5E4AE8
 285 0013 0A5C1235 		.ascii	"\012\\\0225\2210\2036[\313\272\364\261\220\366#\301"
 285      91308336 
 285      5BCBBAF4 
 285      B190F623 
 285      C1
 286 0024 B9CB45C5 		.ascii	"\271\313E\305\214c\215\026\353\364\330`\304&3\266X\377"
 286      8C638D16 
 286      EBF4D860 
 286      C42633B6 
 286      58FF
 287 0036 F4024FF7 		.ascii	"\364\002O\367 \317"
 287      20CF
ARM GAS  /tmp/ccZRJiNJ.s 			page 22


 288              		.text
 289              		.section	.gnu.lto_.refs.92379f0e429615d2,"",%progbits
 290 0000 789C6362 		.ascii	"x\234cb`b`d\200\002\000\000F\000\006"
 290      60626064 
 290      80020000 
 290      460006
 291              		.text
 292              		.section	.gnu.lto_.decls.92379f0e429615d2,"",%progbits
 293 0000 789C9556 		.ascii	"x\234\225V]h\034U\024>wf4;IL\362b\311\223)\322\212\004"
 293      5D681C55 
 293      143E7766 
 293      343B494C 
 293      F262C993 
 294 0018 9BA55604 		.ascii	"\233\245V\004_\012\032\320*\245\010R\020A\226\333\335"
 294      5F0A1AD0 
 294      2AA50852 
 294      104196DB 
 294      DD
 295 0029 29596827 		.ascii	")Yh'\353\354,\322\267\253\222P\004k\260\010y\261Muc"
 295      EBEC2CD2 
 295      B7AB9250 
 295      046BB008 
 295      79B14D75 
 296 003e 6C2B95A5 		.ascii	"l+\225\245\365gEmY\265]\005-\305U[R\350\266F\301\037"
 296      F567456D 
 296      59B55D05 
 296      2DC5555B 
 296      52E8B646 
 297 0054 68D50715 		.ascii	"h\325\007\025\224\361\334;wg3\2673\223\331\201o\347"
 297      94F1DC3B 
 297      776733B7 
 297      3393D981 
 297      6FE7
 298 0066 CEDDF37D 		.ascii	"\316\335\363}\347\236\357\376\314h\240\301\202\006\340"
 298      E79EEFFE 
 298      CC68A0C1 
 298      8206E0
 299 0075 E1F5433F 		.ascii	"\341\365C?\300\004\0010\001`+t\257\014\342\010\342\004"
 299      C0040130 
 299      01602B74 
 299      AF0CE208 
 299      E204
 300 0087 A28E6820 		.ascii	"\242\216h \232\210\026b\031\261\0027_<\276\0171\210"
 300      9A881662 
 300      19B10237 
 300      5F3CBE0F 
 300      3188
 301 0099 18421888 		.ascii	"\030B\030\210*b\011\261\210 2\216\310X~?\256h\360|\246"
 301      2A6209B1 
 301      8820328E 
 301      C8587E3F 
 301      AE68F07C 
 302 00ae E40E49AD 		.ascii	"\344\016I\255\353\210Z\202\026\347`9\360\036\342\224"
 302      EB885A82 
 302      16E76039 
 302      F01EE294 
 303 00be A25797B5 		.ascii	"\242W\227\265\254\326K\322\252K\255O\020\247\025\255"
ARM GAS  /tmp/ccZRJiNJ.s 			page 23


 303      ACD64BD2 
 303      AA4BAD4F 
 303      10A715AD 
 304 00ce 86D45A5D 		.ascii	"\206\324Z]_M\352T#\264\032R\3533\304\347\212V\263G-"
 304      5F4DEA54 
 304      23B41A52 
 304      EB33C4E7 
 304      8A56B347 
 305 00e3 1EAF23BE 		.ascii	"\036\257#\276F\\@\234W\364Z1zqu\266\344\330\276C\\T"
 305      465C409C 
 305      57F45A31 
 305      7A7175B6 
 305      E4D8BE43 
 306 00f9 B4F8FCA6 		.ascii	"\264\370\374\246\235\307e\251\323F\\UtVz\320Y\221\365"
 306      9DC765A9 
 306      D3465C55 
 306      74567AD0 
 306      5991F5
 307 010c FD82F815 		.ascii	"\375\202\370\025\361\233\2425\006\207X\373F{\346\334"
 307      F19BA235 
 307      068758FB 
 307      467BE6DC 
 308 011c 9784BDC2 		.ascii	"\227\204\275\302\376\365\274\027\3663\002\353\340U\206"
 308      FEF5BC17 
 308      F63302EB 
 308      E05586
 309 012b D7C22C63 		.ascii	"\327\302,c\304\245\3040\341IB\311\220\011\353Ec\320"
 309      C4A5C430 
 309      E14942C9 
 309      9009EB45 
 309      63D0
 310 013d 14390128 		.ascii	"\0249\001(y\235\254\023-]\214\026\006\340E\306\236\347"
 310      799DAC13 
 310      2D5D8C16 
 310      06E045C6 
 310      9EE7
 311 014f C46D4D0C 		.ascii	"\304mM\014\337\317\037\332\213gF\347q\234R\"\323\221"
 311      DFCF1FDA 
 311      8B6746E7 
 311      719C5222 
 311      D391
 312 0161 E0C3DB08 		.ascii	"\340\303\333\010U\3143\307\230\026\004\263\321\321\350"
 312      55CC33C7 
 312      981604B3 
 312      D1D1E8
 313 0170 584ADE24 		.ascii	"XJ\336$\033\361w\211\230\"%\377\313owZ\036\341\246\365"
 313      1BF17789 
 313      982225FF 
 313      CB6F775A 
 313      1EE1A6F5 
 314 0184 1388BCD6 		.ascii	"\023\210\274\326b\306\225X%\003]\211\235z\240\247\301"
 314      62C69558 
 314      25035D89 
 314      9D7AA0A7 
 314      C1
 315 0195 30817138 		.ascii	"0\201q8\352\027pm\000n\2766\300\033\014m\375\263\260"
 315      EA17706D 
ARM GAS  /tmp/ccZRJiNJ.s 			page 24


 315      006EBE36 
 315      C01B0C6D 
 315      FDB3B0
 316 01a8 CD97D1E0 		.ascii	"\315\227\321\340\016\202\"G\310Xd\266 \327]\260\310"
 316      0E822247 
 316      C85864B6 
 316      20D75DB0 
 316      C8
 317 01b9 FD3F3E3B 		.ascii	"\375?>;3b\010\373!\201%Gv\224h\352\304.\264\317\\\271"
 317      336208FB 
 317      21812547 
 317      769468EA 
 317      C42EB4CF 
 318 01cf 3838F75C 		.ascii	"88\367\\\333\363\306\224)\335z{l\275\357$L\251\357V"
 318      DBF3C694 
 318      29DD7A7B 
 318      6CBDEF24 
 318      4CA9EF56 
 319 01e3 1CB3D675 		.ascii	"\034\263\326uJ\222\203\212\024\347\356\3446\034#\343"
 319      4A92838A 
 319      14E7EEE4 
 319      361C23E3 
 320 01f3 619F2E71 		.ascii	"a\237.q\237j\302\247q\036p\"\326'\221I\262^\263\002"
 320      9F6AC2A7 
 320      711E7022 
 320      D6279149 
 320      B25EB302 
 321 0207 77B3C9AC 		.ascii	"w\263\311\254\260\273/\261\231\021\"\234\000\311\012"
 321      B0BB2FB1 
 321      9911229C 
 321      00C90A
 322 0216 2D969391 		.ascii	"-\226\223\221~\316[Mv\303\363\206\323\333\371a\330N"
 322      7ECE5B4D 
 322      76C3F386 
 322      D3DBF961 
 322      D84E
 323 0228 7FECC183 		.ascii	"\177\354\301\203\\\222\212=[\"\355\371\253c\017%\357"
 323      5C928A3D 
 323      5B22EDF9 
 323      AB630F25 
 323      EF
 324 0239 E2E028A9 		.ascii	"\342\340(\251\247\363\347\351Q?\217\006\017\2210K\331"
 324      A7F3E7E9 
 324      513F8F06 
 324      0F91304B 
 324      D9
 325 024a 5F723091 		.ascii	"_r0\221\376\324U\177>\216\364\347#\351\217_\267\006"
 325      FED4557F 
 325      3E8EF4E7 
 325      23E98F5F 
 325      B706
 326 025c 8F4556F2 		.ascii	"\217EV\362\217ZI#U%\207\273\225<E\302\254\036*i\250"
 326      8F5A4923 
 326      552587BB 
 326      953C45C2 
 326      AC1E2A69 
 327 0271 957C1A59 		.ascii	"\225|\032Y\311\337=\317\364\027if:x6\242&~W\272\211"
ARM GAS  /tmp/ccZRJiNJ.s 			page 25


 327      C9DF3DCF 
 327      F4176966 
 327      3A7836A2 
 327      267E57BA 
 328 0286 6FF63AF1 		.ascii	"o\366:\361\317\2200+\312.\301\232c\337\360\355dp\322"
 328      CF90302B 
 328      CA2EC19A 
 328      63DFF0ED 
 328      6470D2
 329 0299 B3243195 		.ascii	"\263$1\225\021oqS\265\370\253H\213O\235\225\207\223"
 329      116F7153 
 329      B5F8AB48 
 329      8B4F9D95 
 329      8793
 330 02ab 7FE86830 		.ascii	"\177\350h0K\326:\027\016\210\210V\257\007\303\3015h"
 330      4BD63A17 
 330      0E888856 
 330      AF07C3C1 
 330      3568
 331 02bd 4927434B 		.ascii	"I'CK-\346\333\310b~?\033\274BYO\257\320\313\352\262"
 331      2DE6DBC8 
 331      627E3F1B 
 331      BC42594F 
 331      AFD0CBEA 
 332 02d2 A9AE7D40 		.ascii	"\251\256}@\314G\033\365_\347EC\311\333b\241,'W,i\265"
 332      CC471BF5 
 332      5FE74543 
 332      C9DB62A1 
 332      2C27572C 
 333 02e8 EE425914 		.ascii	"\356BY\024\302\313)7V\370\005\025\227L\326y%\322\266"
 333      C2CB2937 
 333      56F80515 
 333      974CD679 
 333      25D2B6
 334 02fb 43E7FC35 		.ascii	"C\347\3745p\230\261Lz\317~L\343Y\362V;\026m\241\247"
 334      7098B14C 
 334      7ACF7E4C 
 334      E359F256 
 334      3B166DA1 
 335 0310 5AB892CA 		.ascii	"Z\270\222\312\302\223\035\013)\271\246\322\0226\333"
 335      C2931D0B 
 335      29B9A6D2 
 335      1236DB
 336 031f F7C166FB 		.ascii	"\367\301f\373@\014'>\231\021\357{\034Iz\365s\330w\371"
 336      400C273E 
 336      9911EF7B 
 336      1C497AF5 
 336      73D877F9 
 337 0333 A1C566D9 		.ascii	"\241\305f\331\335ou\277\312F:D\036+\276\312\346\332"
 337      DD6F75BF 
 337      CA463A44 
 337      1E2BBECA 
 337      E6DA
 338 0345 070FBC7F 		.ascii	"\007\017\274\177\017\316\012%\327\305\322\370I1,\275"
 338      0FCE0A25 
 338      D7C5D2F8 
 338      49312CBD 
ARM GAS  /tmp/ccZRJiNJ.s 			page 26


 339 0355 D0E99797 		.ascii	"\320\351\227\227\036\020B\177\010\241\252\026\026\242"
 339      1E10427F 
 339      08A1AA16 
 339      16A2
 340 0363 4437C33B 		.ascii	"D7\303;L7\203\000\256\246\233\335\206\347\351\320cp"
 340      4C378300 
 340      AEA69BDD 
 340      86E7E9D0 
 340      6370
 341 0375 5FA5EC3A 		.ascii	"_\245\354:\023y0\362S\324\351\253<\341:\333-\373\326"
 341      137930F2 
 341      53D4E9AB 
 341      3CE13ADB 
 341      2DFBD6
 342 0388 4776EC5C 		.ascii	"Gv\354\\?\011:\376%\272&K\373\214\202Uv\365\262\223"
 342      3F093AFE 
 342      25BA264B 
 342      FB8C8255 
 342      76F5B293 
 343 039c 1FE21D0F 		.ascii	"\037\342\035\017\226J\226]\230\344\024Z*\361\3730\357"
 343      964A965D 
 343      98E4145A 
 343      2AF1FB30 
 343      EF
 344 03ad 7EDCB182 		.ascii	"~\334\261\202\376\222c\361\273\010\177\324.[\216\313"
 344      FE9263F1 
 344      BB087FD4 
 344      2E5B8ECB 
 345 03bd 1F6F298A 		.ascii	"\037o)\212\316\242\350\330>\235\247nq\332\366sP\327"
 345      CEA2E8D8 
 345      3E9DA76E 
 345      71DAF673 
 345      50D7
 346 03cf C07C9BF9 		.ascii	"\300|\233\371\317\275\203\274\347\341\242/e\354\306"
 346      CFBD83BC 
 346      E7E1A22F 
 346      65ECC6
 347 03de C66DAB7B 		.ascii	"\306m\253{vdP\300\245v\336\332\220\255\224\235,u\366"
 347      766450C0 
 347      A576DEDA 
 347      90AD949D 
 347      2C75F6
 348 03f1 6EB2A76D 		.ascii	"n\262\247mk\223Ew\025\263E;\277\247R\260\262e\267P\264"
 348      6B934577 
 348      15B3453B 
 348      BFA752B0 
 348      B265B750 
 349 0406 DD8929C8 		.ascii	"\335\211)\310T\360\276\371\376\234{_B\364^\232\237*"
 349      54F0BEF9 
 349      FE9C7B5F 
 349      42F45E9A 
 349      9F2A
 350 0418 DA563657 		.ascii	"\332V6W\260v\323\312\0367\347\356+Yed\367\347r\035\376"
 350      B076D3CA 
 350      1E37E7EE 
 350      2B596564 
 350      F7E7721D 
ARM GAS  /tmp/ccZRJiNJ.s 			page 27


 351 042d FF926191 		.ascii	"\377\222a\221\231"
 351      99
 352              		.text
 353              		.section	.gnu.lto_.symtab.92379f0e429615d2,"",%progbits
 354 0000 75537472 		.ascii	"uStrLen\000\000\000\000\000\000\000\000\000\000\000"
 354      4C656E00 
 354      00000000 
 354      00000000 
 354      0000
 355 0012 00A10000 		.ascii	"\000\241\000\000\000uStrCpy\000\000\000\000\000\000"
 355      00755374 
 355      72437079 
 355      00000000 
 355      0000
 356 0024 00000000 		.ascii	"\000\000\000\000\000\000\256\000\000\000uStrAppendC"
 356      0000AE00 
 356      00007553 
 356      74724170 
 356      70656E64 
 357 0039 68617200 		.ascii	"har\000\000\000\000\000\000\000\000\000\000\000\000"
 357      00000000 
 357      00000000 
 357      000000
 358 0048 B9000000 		.ascii	"\271\000\000\000uStrPrependChar\000\000\000\000\000"
 358      75537472 
 358      50726570 
 358      656E6443 
 358      68617200 
 359 0060 00000000 		.ascii	"\000\000\000\000\000\000\000\302\000\000\000uStrIns"
 359      000000C2 
 359      00000075 
 359      53747249 
 359      6E73
 360 0072 65727443 		.ascii	"ertChar\000\000\000\000\000\000\000\000\000\000\000"
 360      68617200 
 360      00000000 
 360      00000000 
 360      0000
 361 0084 00C80000 		.ascii	"\000\310\000\000\000uStrCat\000\000\000\000\000\000"
 361      00755374 
 361      72436174 
 361      00000000 
 361      0000
 362 0096 00000000 		.ascii	"\000\000\000\000\000\000\324\000\000\000uStrFindCha"
 362      0000D400 
 362      00007553 
 362      74724669 
 362      6E644368 
 363 00ab 72000000 		.ascii	"r\000\000\000\000\000\000\000\000\000\000\000\000\333"
 363      00000000 
 363      00000000 
 363      00DB
 364 00b9 00000075 		.ascii	"\000\000\000uStrFindCharN\000\000\000\000\000\000\000"
 364      53747246 
 364      696E6443 
 364      6861724E 
 364      00000000 
ARM GAS  /tmp/ccZRJiNJ.s 			page 28


 365 00d0 00000000 		.ascii	"\000\000\000\000\000\344\000\000\000"
 365      00E40000 
 365      00
 366              		.text
 367              		.section	.gnu.lto_.opts,"",%progbits
 368 0000 272D6D63 		.ascii	"'-mcpu=cortex-m4' '-mfloat-abi=hard' '-mfpu=fpv4-sp"
 368      70753D63 
 368      6F727465 
 368      782D6D34 
 368      2720272D 
 369 0033 2D643136 		.ascii	"-d16' '-mno-thumb-interwork' '-mthumb' '-O2' '-fomi"
 369      2720272D 
 369      6D6E6F2D 
 369      7468756D 
 369      622D696E 
 370 0066 742D6672 		.ascii	"t-frame-pointer' '-falign-functions=16' '-ffunction"
 370      616D652D 
 370      706F696E 
 370      74657227 
 370      20272D66 
 371 0099 2D736563 		.ascii	"-sections' '-fdata-sections' '-fno-common' '-flto' "
 371      74696F6E 
 371      73272027 
 371      2D666461 
 371      74612D73 
 372 00cc 272D6673 		.ascii	"'-fsingle-precision-constant'\000"
 372      696E676C 
 372      652D7072 
 372      65636973 
 372      696F6E2D 
 373              		.text
 374              		.section	.text.uStrLen,"ax",%progbits
 375              		.align	2
 376              		.p2align 4,,15
 377              		.global	uStrLen
 378              		.thumb
 379              		.thumb_func
 380              		.type	uStrLen, %function
 381              	uStrLen:
 382              		@ args = 0, pretend = 0, frame = 0
 383              		@ frame_needed = 0, uses_anonymous_args = 0
 384              		@ link register save eliminated.
 385 0000 0378     		ldrb	r3, [r0]	@ zero_extendqisi2
 386 0002 3BB1     		cbz	r3, .L4
 387 0004 0346     		mov	r3, r0
 388 0006 0020     		movs	r0, #0
 389              	.L3:
 390 0008 13F8012F 		ldrb	r2, [r3, #1]!	@ zero_extendqisi2
 391 000c 0130     		adds	r0, r0, #1
 392 000e 002A     		cmp	r2, #0
 393 0010 FAD1     		bne	.L3
 394 0012 7047     		bx	lr
 395              	.L4:
 396 0014 1846     		mov	r0, r3
 397 0016 7047     		bx	lr
 398              		.size	uStrLen, .-uStrLen
 399 0018 AFF30080 		.section	.text.uStrCpy,"ax",%progbits
ARM GAS  /tmp/ccZRJiNJ.s 			page 29


 399      AFF30080 
 400              		.align	2
 401              		.p2align 4,,15
 402              		.global	uStrCpy
 403              		.thumb
 404              		.thumb_func
 405              		.type	uStrCpy, %function
 406              	uStrCpy:
 407              		@ args = 0, pretend = 0, frame = 0
 408              		@ frame_needed = 0, uses_anonymous_args = 0
 409              		@ link register save eliminated.
 410 0000 0A78     		ldrb	r2, [r1]	@ zero_extendqisi2
 411 0002 10B4     		push	{r4}
 412 0004 32B1     		cbz	r2, .L12
 413 0006 0B46     		mov	r3, r1
 414 0008 0022     		movs	r2, #0
 415              	.L13:
 416 000a 13F8014F 		ldrb	r4, [r3, #1]!	@ zero_extendqisi2
 417 000e 0132     		adds	r2, r2, #1
 418 0010 002C     		cmp	r4, #0
 419 0012 FAD1     		bne	.L13
 420              	.L12:
 421 0014 0023     		movs	r3, #0
 422              	.L11:
 423 0016 CC5C     		ldrb	r4, [r1, r3]	@ zero_extendqisi2
 424 0018 C454     		strb	r4, [r0, r3]
 425 001a 0133     		adds	r3, r3, #1
 426 001c 9BB2     		uxth	r3, r3
 427 001e 9A42     		cmp	r2, r3
 428 0020 F9DA     		bge	.L11
 429 0022 5DF8044B 		ldr	r4, [sp], #4
 430 0026 7047     		bx	lr
 431              		.size	uStrCpy, .-uStrCpy
 432 0028 AFF30080 		.section	.text.uStrAppendChar,"ax",%progbits
 432      AFF30080 
 433              		.align	2
 434              		.p2align 4,,15
 435              		.global	uStrAppendChar
 436              		.thumb
 437              		.thumb_func
 438              		.type	uStrAppendChar, %function
 439              	uStrAppendChar:
 440              		@ args = 0, pretend = 0, frame = 0
 441              		@ frame_needed = 0, uses_anonymous_args = 0
 442              		@ link register save eliminated.
 443 0000 0378     		ldrb	r3, [r0]	@ zero_extendqisi2
 444 0002 30B4     		push	{r4, r5}
 445 0004 6BB1     		cbz	r3, .L22
 446 0006 441C     		adds	r4, r0, #1
 447 0008 0022     		movs	r2, #0
 448              	.L21:
 449 000a 2578     		ldrb	r5, [r4]	@ zero_extendqisi2
 450 000c 2346     		mov	r3, r4
 451 000e 0132     		adds	r2, r2, #1
 452 0010 0134     		adds	r4, r4, #1
 453 0012 002D     		cmp	r5, #0
 454 0014 F9D1     		bne	.L21
ARM GAS  /tmp/ccZRJiNJ.s 			page 30


 455 0016 0132     		adds	r2, r2, #1
 456              	.L19:
 457 0018 0024     		movs	r4, #0
 458 001a 1970     		strb	r1, [r3]
 459 001c 8454     		strb	r4, [r0, r2]
 460 001e 30BC     		pop	{r4, r5}
 461 0020 7047     		bx	lr
 462              	.L22:
 463 0022 0346     		mov	r3, r0
 464 0024 0122     		movs	r2, #1
 465 0026 F7E7     		b	.L19
 466              		.size	uStrAppendChar, .-uStrAppendChar
 467 0028 AFF30080 		.section	.text.uStrPrependChar,"ax",%progbits
 467      AFF30080 
 468              		.align	2
 469              		.p2align 4,,15
 470              		.global	uStrPrependChar
 471              		.thumb
 472              		.thumb_func
 473              		.type	uStrPrependChar, %function
 474              	uStrPrependChar:
 475              		@ args = 0, pretend = 0, frame = 0
 476              		@ frame_needed = 0, uses_anonymous_args = 0
 477              		@ link register save eliminated.
 478 0000 0378     		ldrb	r3, [r0]	@ zero_extendqisi2
 479 0002 10B4     		push	{r4}
 480 0004 93B1     		cbz	r3, .L29
 481 0006 0246     		mov	r2, r0
 482 0008 0023     		movs	r3, #0
 483              	.L26:
 484 000a 12F8014F 		ldrb	r4, [r2, #1]!	@ zero_extendqisi2
 485 000e 0133     		adds	r3, r3, #1
 486 0010 002C     		cmp	r4, #0
 487 0012 FAD1     		bne	.L26
 488 0014 0133     		adds	r3, r3, #1
 489              	.L24:
 490 0016 C218     		adds	r2, r0, r3
 491              	.L28:
 492 0018 12F8014C 		ldrb	r4, [r2, #-1]	@ zero_extendqisi2
 493 001c 02F80149 		strb	r4, [r2], #-1
 494 0020 013B     		subs	r3, r3, #1
 495 0022 F9D1     		bne	.L28
 496 0024 0170     		strb	r1, [r0]
 497 0026 5DF8044B 		ldr	r4, [sp], #4
 498 002a 7047     		bx	lr
 499              	.L29:
 500 002c 0123     		movs	r3, #1
 501 002e F2E7     		b	.L24
 502              		.size	uStrPrependChar, .-uStrPrependChar
 503              		.section	.text.uStrInsertChar,"ax",%progbits
 504              		.align	2
 505              		.p2align 4,,15
 506              		.global	uStrInsertChar
 507              		.thumb
 508              		.thumb_func
 509              		.type	uStrInsertChar, %function
 510              	uStrInsertChar:
ARM GAS  /tmp/ccZRJiNJ.s 			page 31


 511              		@ args = 0, pretend = 0, frame = 0
 512              		@ frame_needed = 0, uses_anonymous_args = 0
 513              		@ link register save eliminated.
 514 0000 0378     		ldrb	r3, [r0]	@ zero_extendqisi2
 515 0002 30B4     		push	{r4, r5}
 516 0004 A3B1     		cbz	r3, .L38
 517 0006 0446     		mov	r4, r0
 518 0008 0023     		movs	r3, #0
 519              	.L34:
 520 000a 14F8015F 		ldrb	r5, [r4, #1]!	@ zero_extendqisi2
 521 000e 0133     		adds	r3, r3, #1
 522 0010 002D     		cmp	r5, #0
 523 0012 FAD1     		bne	.L34
 524 0014 0133     		adds	r3, r3, #1
 525              	.L32:
 526 0016 9A42     		cmp	r2, r3
 527 0018 07DA     		bge	.L36
 528 001a 0344     		add	r3, r3, r0
 529 001c 8518     		adds	r5, r0, r2
 530              	.L37:
 531 001e 13F8014C 		ldrb	r4, [r3, #-1]	@ zero_extendqisi2
 532 0022 03F80149 		strb	r4, [r3], #-1
 533 0026 AB42     		cmp	r3, r5
 534 0028 F9D1     		bne	.L37
 535              	.L36:
 536 002a 8154     		strb	r1, [r0, r2]
 537 002c 30BC     		pop	{r4, r5}
 538 002e 7047     		bx	lr
 539              	.L38:
 540 0030 0123     		movs	r3, #1
 541 0032 F0E7     		b	.L32
 542              		.size	uStrInsertChar, .-uStrInsertChar
 543 0034 AFF30080 		.section	.text.uStrCat,"ax",%progbits
 543      AFF30080 
 543      AFF30080 
 544              		.align	2
 545              		.p2align 4,,15
 546              		.global	uStrCat
 547              		.thumb
 548              		.thumb_func
 549              		.type	uStrCat, %function
 550              	uStrCat:
 551              		@ args = 0, pretend = 0, frame = 0
 552              		@ frame_needed = 0, uses_anonymous_args = 0
 553              		@ link register save eliminated.
 554 0000 30B4     		push	{r4, r5}
 555 0002 0378     		ldrb	r3, [r0]	@ zero_extendqisi2
 556 0004 33B1     		cbz	r3, .L42
 557 0006 0246     		mov	r2, r0
 558 0008 0023     		movs	r3, #0
 559              	.L43:
 560 000a 12F8014F 		ldrb	r4, [r2, #1]!	@ zero_extendqisi2
 561 000e 0133     		adds	r3, r3, #1
 562 0010 002C     		cmp	r4, #0
 563 0012 FAD1     		bne	.L43
 564              	.L42:
 565 0014 0A78     		ldrb	r2, [r1]	@ zero_extendqisi2
ARM GAS  /tmp/ccZRJiNJ.s 			page 32


 566 0016 32B1     		cbz	r2, .L44
 567 0018 0C46     		mov	r4, r1
 568 001a 0022     		movs	r2, #0
 569              	.L45:
 570 001c 14F8015F 		ldrb	r5, [r4, #1]!	@ zero_extendqisi2
 571 0020 0132     		adds	r2, r2, #1
 572 0022 002D     		cmp	r5, #0
 573 0024 FAD1     		bne	.L45
 574              	.L44:
 575 0026 1844     		add	r0, r0, r3
 576 0028 0023     		movs	r3, #0
 577              	.L47:
 578 002a CC5C     		ldrb	r4, [r1, r3]	@ zero_extendqisi2
 579 002c C454     		strb	r4, [r0, r3]
 580 002e 0133     		adds	r3, r3, #1
 581 0030 9342     		cmp	r3, r2
 582 0032 FADD     		ble	.L47
 583 0034 30BC     		pop	{r4, r5}
 584 0036 7047     		bx	lr
 585              		.size	uStrCat, .-uStrCat
 586 0038 AFF30080 		.section	.text.uStrFindChar,"ax",%progbits
 586      AFF30080 
 587              		.align	2
 588              		.p2align 4,,15
 589              		.global	uStrFindChar
 590              		.thumb
 591              		.thumb_func
 592              		.type	uStrFindChar, %function
 593              	uStrFindChar:
 594              		@ args = 0, pretend = 0, frame = 0
 595              		@ frame_needed = 0, uses_anonymous_args = 0
 596              		@ link register save eliminated.
 597 0000 0378     		ldrb	r3, [r0]	@ zero_extendqisi2
 598 0002 53B1     		cbz	r3, .L60
 599 0004 8B42     		cmp	r3, r1
 600 0006 0DD0     		beq	.L61
 601 0008 0022     		movs	r2, #0
 602 000a 01E0     		b	.L58
 603              	.L59:
 604 000c 8B42     		cmp	r3, r1
 605 000e 07D0     		beq	.L62
 606              	.L58:
 607 0010 10F8013F 		ldrb	r3, [r0, #1]!	@ zero_extendqisi2
 608 0014 0132     		adds	r2, r2, #1
 609 0016 002B     		cmp	r3, #0
 610 0018 F8D1     		bne	.L59
 611              	.L60:
 612 001a 4FF0FF30 		mov	r0, #-1
 613 001e 7047     		bx	lr
 614              	.L62:
 615 0020 1046     		mov	r0, r2
 616 0022 7047     		bx	lr
 617              	.L61:
 618 0024 0020     		movs	r0, #0
 619 0026 7047     		bx	lr
 620              		.size	uStrFindChar, .-uStrFindChar
 621 0028 AFF30080 		.section	.text.uStrFindCharN,"ax",%progbits
ARM GAS  /tmp/ccZRJiNJ.s 			page 33


 621      AFF30080 
 622              		.align	2
 623              		.p2align 4,,15
 624              		.global	uStrFindCharN
 625              		.thumb
 626              		.thumb_func
 627              		.type	uStrFindCharN, %function
 628              	uStrFindCharN:
 629              		@ args = 0, pretend = 0, frame = 0
 630              		@ frame_needed = 0, uses_anonymous_args = 0
 631              		@ link register save eliminated.
 632 0000 30B4     		push	{r4, r5}
 633 0002 0378     		ldrb	r3, [r0]	@ zero_extendqisi2
 634 0004 73B1     		cbz	r3, .L69
 635 0006 0025     		movs	r5, #0
 636 0008 2C46     		mov	r4, r5
 637 000a 03E0     		b	.L66
 638              	.L70:
 639 000c 10F8013F 		ldrb	r3, [r0, #1]!	@ zero_extendqisi2
 640 0010 0134     		adds	r4, r4, #1
 641 0012 3BB1     		cbz	r3, .L69
 642              	.L66:
 643 0014 8B42     		cmp	r3, r1
 644 0016 08BF     		it	eq
 645 0018 0135     		addeq	r5, r5, #1
 646 001a 9542     		cmp	r5, r2
 647 001c F6D1     		bne	.L70
 648 001e 2046     		mov	r0, r4
 649 0020 30BC     		pop	{r4, r5}
 650 0022 7047     		bx	lr
 651              	.L69:
 652 0024 4FF0FF30 		mov	r0, #-1
 653 0028 30BC     		pop	{r4, r5}
 654 002a 7047     		bx	lr
 655              		.size	uStrFindCharN, .-uStrFindCharN
 656              		.comm	__gnu_lto_v1,1,1
 657 002c AFF30080 		.ident	"GCC: (GNU Tools for ARM Embedded Processors) 4.8.4 20140526 (release) [ARM/embedded-4_8-br
ARM GAS  /tmp/ccZRJiNJ.s 			page 34

